Archive member included to satisfy reference by file (symbol)

obj_cooja/mtype772.a(dtls.o)  sensor.co (dtls_init)
obj_cooja/mtype772.a(tinydtls-crypto)
                              obj_cooja/mtype772.a(dtls.o) (dtls_crypto_init)
obj_cooja/mtype772.a(hmac.o)  obj_cooja/mtype772.a(dtls.o) (dtls_hmac_update)
obj_cooja/mtype772.a(netq.o)  obj_cooja/mtype772.a(dtls.o) (netq_init)
obj_cooja/mtype772.a(dtls_time.o)
                              obj_cooja/mtype772.a(dtls.o) (dtls_clock_init)
obj_cooja/mtype772.a(peer.o)  obj_cooja/mtype772.a(dtls.o) (peer_init)
obj_cooja/mtype772.a(session.o)
                              obj_cooja/mtype772.a(dtls.o) (dtls_session_equals)
obj_cooja/mtype772.a(rijndael.o)
                              obj_cooja/mtype772.a(tinydtls-crypto) (rijndael_set_key_enc_only)
obj_cooja/mtype772.a(tinydtls-ccm.o)
                              obj_cooja/mtype772.a(tinydtls-crypto) (dtls_ccm_encrypt_message)
obj_cooja/mtype772.a(sha2.o)  obj_cooja/mtype772.a(dtls.o) (SHA256_Init)
obj_cooja/mtype772.a(debug.o)
                              sensor.co (dtls_set_log_level)
obj_cooja/mtype772.a(simEnvChange.o)
                              obj_cooja/mtype772.o (simDontFallAsleep)
obj_cooja/mtype772.a(cooja_mt.o)
                              obj_cooja/mtype772.o (cooja_mt_start)
obj_cooja/mtype772.a(cooja_mtarch.o)
                              obj_cooja/mtype772.a(cooja_mt.o) (cooja_mtarch_init)
obj_cooja/mtype772.a(rtimer-arch.o)
                              obj_cooja/mtype772.o (rtimer_arch_check)
obj_cooja/mtype772.a(beep.o)  obj_cooja/mtype772.o (beep_interface)
obj_cooja/mtype772.a(button-sensor.o)
                              obj_cooja/mtype772.o (button_interface)
obj_cooja/mtype772.a(leds-arch.o)
                              obj_cooja/mtype772.o (leds_interface)
obj_cooja/mtype772.a(moteid.o)
                              obj_cooja/mtype772.o (moteid_interface)
obj_cooja/mtype772.a(pir-sensor.o)
                              obj_cooja/mtype772.o (pir_interface)
obj_cooja/mtype772.a(rs232.o)
                              obj_cooja/mtype772.o (rs232_interface)
obj_cooja/mtype772.a(vib-sensor.o)
                              obj_cooja/mtype772.o (vib_interface)
obj_cooja/mtype772.a(clock.o)
                              obj_cooja/mtype772.o (clock_interface)
obj_cooja/mtype772.a(log.o)   obj_cooja/mtype772.o (simlog_interface)
obj_cooja/mtype772.a(cfs-cooja.o)
                              obj_cooja/mtype772.o (cfs_interface)
obj_cooja/mtype772.a(cooja-radio.o)
                              obj_cooja/mtype772.o (radio_interface)
obj_cooja/mtype772.a(eeprom.o)
                              obj_cooja/mtype772.o (eeprom_interface)
obj_cooja/mtype772.a(random.o)
                              obj_cooja/mtype772.a(moteid.o) (random_init)
obj_cooja/mtype772.a(sensors.o)
                              obj_cooja/mtype772.o (sensors_process)
obj_cooja/mtype772.a(autostart.o)
                              obj_cooja/mtype772.o (autostart_start)
obj_cooja/mtype772.a(ctimer.o)
                              obj_cooja/mtype772.o (ctimer_init)
obj_cooja/mtype772.a(etimer.o)
                              obj_cooja/mtype772.o (etimer_process)
obj_cooja/mtype772.a(process.o)
                              obj_cooja/mtype772.a(dtls.o) (process_current)
obj_cooja/mtype772.a(rtimer.o)
                              obj_cooja/mtype772.a(rtimer-arch.o) (rtimer_run_next)
obj_cooja/mtype772.a(timer.o)
                              obj_cooja/mtype772.a(button-sensor.o) (timer_set)
obj_cooja/mtype772.a(serial-line.o)
                              obj_cooja/mtype772.a(rs232.o) (serial_line_input_byte)
obj_cooja/mtype772.a(assert.o)
                              obj_cooja/mtype772.a(dtls.o) (_xassert)
obj_cooja/mtype772.a(list.o)  obj_cooja/mtype772.a(dtls.o) (list_init)
obj_cooja/mtype772.a(memb.o)  obj_cooja/mtype772.a(tinydtls-crypto) (memb_init)
obj_cooja/mtype772.a(ringbuf.o)
                              obj_cooja/mtype772.a(serial-line.o) (ringbuf_init)
obj_cooja/mtype772.a(sicslowpan.o)
                              obj_cooja/mtype772.o (sicslowpan_driver)
obj_cooja/mtype772.a(uip-ds6-nbr.o)
                              obj_cooja/mtype772.a(sicslowpan.o) (uip_ds6_link_neighbor_callback)
obj_cooja/mtype772.a(uip-ds6-route.o)
                              obj_cooja/mtype772.a(uip-ds6-nbr.o) (uip_ds6_defrt_lookup)
obj_cooja/mtype772.a(uip-ds6.o)
                              sensor.co (uip_ds6_if)
obj_cooja/mtype772.a(uip-nd6.o)
                              obj_cooja/mtype772.a(uip-ds6-nbr.o) (uip_nd6_ns_output)
obj_cooja/mtype772.a(uip6.o)  sensor.co (uip_lladdr)
obj_cooja/mtype772.a(resolv.o)
                              sensor.co (resolv_process)
obj_cooja/mtype772.a(tcpip.o)
                              sensor.co (tcpip_event)
obj_cooja/mtype772.a(uip-debug.o)
                              sensor.co (uip_debug_ipaddr_print)
obj_cooja/mtype772.a(uip-nameserver.)
                              obj_cooja/mtype772.a(resolv.o) (uip_nameserver_get)
obj_cooja/mtype772.a(uip-packetqueue)
                              obj_cooja/mtype772.a(uip-ds6-nbr.o) (uip_packetqueue_new)
obj_cooja/mtype772.a(uip-udp-packet.)
                              sensor.co (uip_udp_packet_send)
obj_cooja/mtype772.a(rpl-dag.o)
                              obj_cooja/mtype772.a(tcpip.o) (rpl_repair_root)
obj_cooja/mtype772.a(rpl-ext-header.)
                              obj_cooja/mtype772.a(uip6.o) (rpl_verify_hbh_header)
obj_cooja/mtype772.a(rpl-icmp6.o)
                              obj_cooja/mtype772.a(rpl-dag.o) (rpl_icmp6_update_nbr_table)
obj_cooja/mtype772.a(rpl-mrhof.o)
                              obj_cooja/mtype772.a(rpl-dag.o) (rpl_mrhof)
obj_cooja/mtype772.a(rpl-timers.o)
                              obj_cooja/mtype772.a(rpl-dag.o) (rpl_reset_dio_timer)
obj_cooja/mtype772.a(rpl.o)   obj_cooja/mtype772.a(rpl-icmp6.o) (rpl_get_mode)
obj_cooja/mtype772.a(link-stats.o)
                              obj_cooja/mtype772.a(rpl-dag.o) (link_stats_from_lladdr)
obj_cooja/mtype772.a(linkaddr.o)
                              obj_cooja/mtype772.o (linkaddr_node_addr)
obj_cooja/mtype772.a(nbr-table.o)
                              obj_cooja/mtype772.a(uip-ds6-nbr.o) (nbr_table_register)
obj_cooja/mtype772.a(netstack.o)
                              obj_cooja/mtype772.o (netstack_init)
obj_cooja/mtype772.a(packetbuf.o)
                              obj_cooja/mtype772.a(cooja-radio.o) (packetbuf_attrs)
obj_cooja/mtype772.a(queuebuf.o)
                              obj_cooja/mtype772.o (queuebuf_init)
obj_cooja/mtype772.a(csma.o)  obj_cooja/mtype772.o (csma_driver)
obj_cooja/mtype772.a(framer-802154.o)
                              obj_cooja/mtype772.a(sicslowpan.o) (framer_802154)
obj_cooja/mtype772.a(mac.o)   obj_cooja/mtype772.a(csma.o) (mac_call_sent_callback)
obj_cooja/mtype772.a(nullrdc.o)
                              obj_cooja/mtype772.o (nullrdc_driver)
obj_cooja/mtype772.a(nullsec.o)
                              obj_cooja/mtype772.a(sicslowpan.o) (nullsec_driver)
obj_cooja/mtype772.a(watchdog.o)
                              obj_cooja/mtype772.a(sicslowpan.o) (watchdog_periodic)
obj_cooja/mtype772.a(rimestats.o)
                              obj_cooja/mtype772.a(cooja-radio.o) (rimestats)
obj_cooja/mtype772.a(stimer.o)
                              obj_cooja/mtype772.a(uip-ds6-nbr.o) (stimer_set)
obj_cooja/mtype772.a(uip-icmp6.o)
                              obj_cooja/mtype772.a(uip6.o) (uip_icmp6_input)
obj_cooja/mtype772.a(rpl-nbr-policy.)
                              obj_cooja/mtype772.a(nbr-table.o) (rpl_nbr_policy_find_removable)
obj_cooja/mtype772.a(frame802154.o)
                              obj_cooja/mtype772.a(framer-802154.o) (frame802154_get_pan_id)
obj_cooja/mtype772.a(mac-sequence.o)
                              obj_cooja/mtype772.a(nullrdc.o) (mac_sequence_is_duplicate)

Allocating common symbols
Common symbol       size              file

default_instance    0x4               obj_cooja/mtype772.a(rpl-dag.o)
simButtonIsActive   0x1               obj_cooja/mtype772.a(button-sensor.o)
simButtonIsDown     0x1               obj_cooja/mtype772.a(button-sensor.o)
cfs_buf             0x1e              sensor.co
simOutDataBuffer    0x80              obj_cooja/mtype772.a(cooja-radio.o)
uip_ds6_prefix_list
                    0x60              obj_cooja/mtype772.a(uip-ds6.o)
linkaddr_node_addr  0x8               obj_cooja/mtype772.a(linkaddr.o)
simSerialReceivingFlag
                    0x1               obj_cooja/mtype772.a(rs232.o)
simEEPROMData       0x400             obj_cooja/mtype772.a(eeprom.o)
periodic_timer      0x20              obj_cooja/mtype772.a(link-stats.o)
simLoggedLength     0x4               obj_cooja/mtype772.a(log.o)
simSerialReceivingLength
                    0x4               obj_cooja/mtype772.a(rs232.o)
simEtimerPending    0x4               obj_cooja/mtype772.a(simEnvChange.o)
uip_slen            0x2               obj_cooja/mtype772.a(uip6.o)
fd                  0x4               sensor.co
uip_ds6_timer_periodic
                    0x10              obj_cooja/mtype772.a(uip-ds6.o)
uip_acc32           0x4               obj_cooja/mtype772.a(uip6.o)
uip_conns           0xc0              obj_cooja/mtype772.a(uip6.o)
simVibChanged       0x1               obj_cooja/mtype772.a(vib-sensor.o)
rimestats           0x48              obj_cooja/mtype772.a(rimestats.o)
simRtimerPending    0x4               obj_cooja/mtype772.a(rtimer-arch.o)
uip_ds6_netif_addr_list_offset
                    0x1               obj_cooja/mtype772.a(uip-ds6.o)
uip_lladdr          0x8               obj_cooja/mtype772.a(uip6.o)
instance_table      0x154             obj_cooja/mtype772.a(rpl-dag.o)
simProcessRunValue  0x4               obj_cooja/mtype772.a(simEnvChange.o)
serial_line_event_message
                    0x1               obj_cooja/mtype772.a(serial-line.o)
uip_appdata         0x4               obj_cooja/mtype772.a(uip6.o)
resolv_event_found  0x1               obj_cooja/mtype772.a(resolv.o)
referenceVar        0x4               obj_cooja/mtype772.o
simCurrentTime      0x4               obj_cooja/mtype772.a(clock.o)
simVibIsActive      0x1               obj_cooja/mtype772.a(vib-sensor.o)
uip_ds6_if          0xf8              obj_cooja/mtype772.a(uip-ds6.o)
uip_flags           0x1               obj_cooja/mtype772.a(uip6.o)
uip_ds6_timer_ra    0x8               obj_cooja/mtype772.a(uip-ds6.o)
simSerialReceivingData
                    0x800             obj_cooja/mtype772.a(rs232.o)
simLoggedFlag       0x1               obj_cooja/mtype772.a(log.o)
packetbuf_attrs     0x1e              obj_cooja/mtype772.a(packetbuf.o)
uip_ds6_addr_size   0x1               obj_cooja/mtype772.a(uip-ds6.o)
uip_aligned_buf     0x640             obj_cooja/mtype772.a(uip6.o)
simRtimerCurrentTicks
                    0x8               obj_cooja/mtype772.a(rtimer-arch.o)
simRandomSeed       0x4               obj_cooja/mtype772.a(moteid.o)
simLoggedData       0x400             obj_cooja/mtype772.a(log.o)
simLedsValue        0x1               obj_cooja/mtype772.a(leds-arch.o)
simEtimerNextExpirationTime
                    0x4               obj_cooja/mtype772.a(simEnvChange.o)
uip_listenports     0x10              obj_cooja/mtype772.a(uip6.o)
uip_len             0x2               obj_cooja/mtype772.a(uip6.o)
simButtonChanged    0x1               obj_cooja/mtype772.a(button-sensor.o)
simRtimerNextExpirationTime
                    0x8               obj_cooja/mtype772.a(rtimer-arch.o)
simPirIsActive      0x1               obj_cooja/mtype772.a(pir-sensor.o)
simInDataBuffer     0x80              obj_cooja/mtype772.a(cooja-radio.o)
simPirChanged       0x1               obj_cooja/mtype772.a(pir-sensor.o)
simBeeped           0x1               obj_cooja/mtype772.a(beep.o)
tcpip_event         0x1               obj_cooja/mtype772.a(tcpip.o)
uip_sappdata        0x4               obj_cooja/mtype772.a(uip6.o)
sensors_event       0x1               obj_cooja/mtype772.a(sensors.o)
dtls_clock_offset   0x4               obj_cooja/mtype772.a(dtls_time.o)
uip_udp_conns       0x180             obj_cooja/mtype772.a(uip6.o)
packetbuf_addrs     0x10              obj_cooja/mtype772.a(packetbuf.o)
uip_udp_conn        0x4               obj_cooja/mtype772.a(uip6.o)
simMoteIDChanged    0x1               obj_cooja/mtype772.a(moteid.o)
sensors_flags       0x4               obj_cooja/mtype772.o
uip_next_hdr        0x4               obj_cooja/mtype772.a(uip6.o)
simMoteID           0x4               obj_cooja/mtype772.a(moteid.o)
uip_conn            0x4               obj_cooja/mtype772.a(uip6.o)

Discarded input sections

 .note.GNU-stack
                0x0000000000000000        0x0 /usr/lib/gcc/i686-linux-gnu/4.8/../../../i386-linux-gnu/crti.o
 .gnu_debuglink
                0x0000000000000000        0xc /usr/lib/gcc/i686-linux-gnu/4.8/../../../i386-linux-gnu/crti.o
 .group         0x0000000000000000        0x8 /usr/lib/gcc/i686-linux-gnu/4.8/crtbeginS.o
 .text.__x86.get_pc_thunk.bx
                0x0000000000000000        0x4 /usr/lib/gcc/i686-linux-gnu/4.8/crtbeginS.o
 .note.GNU-stack
                0x0000000000000000        0x0 /usr/lib/gcc/i686-linux-gnu/4.8/crtbeginS.o
 .note.GNU-stack
                0x0000000000000000        0x0 sensor.co
 .note.GNU-stack
                0x0000000000000000        0x0 obj_cooja/mtype772.o
 .note.GNU-stack
                0x0000000000000000        0x0 obj_cooja/mtype772.a(dtls.o)
 .note.GNU-stack
                0x0000000000000000        0x0 obj_cooja/mtype772.a(tinydtls-crypto)
 .note.GNU-stack
                0x0000000000000000        0x0 obj_cooja/mtype772.a(hmac.o)
 .note.GNU-stack
                0x0000000000000000        0x0 obj_cooja/mtype772.a(netq.o)
 .note.GNU-stack
                0x0000000000000000        0x0 obj_cooja/mtype772.a(dtls_time.o)
 .note.GNU-stack
                0x0000000000000000        0x0 obj_cooja/mtype772.a(peer.o)
 .note.GNU-stack
                0x0000000000000000        0x0 obj_cooja/mtype772.a(session.o)
 .note.GNU-stack
                0x0000000000000000        0x0 obj_cooja/mtype772.a(rijndael.o)
 .note.GNU-stack
                0x0000000000000000        0x0 obj_cooja/mtype772.a(tinydtls-ccm.o)
 .note.GNU-stack
                0x0000000000000000        0x0 obj_cooja/mtype772.a(sha2.o)
 .note.GNU-stack
                0x0000000000000000        0x0 obj_cooja/mtype772.a(debug.o)
 .note.GNU-stack
                0x0000000000000000        0x0 obj_cooja/mtype772.a(simEnvChange.o)
 .note.GNU-stack
                0x0000000000000000        0x0 obj_cooja/mtype772.a(cooja_mt.o)
 .note.GNU-stack
                0x0000000000000000        0x0 obj_cooja/mtype772.a(cooja_mtarch.o)
 .note.GNU-stack
                0x0000000000000000        0x0 obj_cooja/mtype772.a(rtimer-arch.o)
 .note.GNU-stack
                0x0000000000000000        0x0 obj_cooja/mtype772.a(beep.o)
 .note.GNU-stack
                0x0000000000000000        0x0 obj_cooja/mtype772.a(button-sensor.o)
 .note.GNU-stack
                0x0000000000000000        0x0 obj_cooja/mtype772.a(leds-arch.o)
 .note.GNU-stack
                0x0000000000000000        0x0 obj_cooja/mtype772.a(moteid.o)
 .note.GNU-stack
                0x0000000000000000        0x0 obj_cooja/mtype772.a(pir-sensor.o)
 .note.GNU-stack
                0x0000000000000000        0x0 obj_cooja/mtype772.a(rs232.o)
 .note.GNU-stack
                0x0000000000000000        0x0 obj_cooja/mtype772.a(vib-sensor.o)
 .note.GNU-stack
                0x0000000000000000        0x0 obj_cooja/mtype772.a(clock.o)
 .note.GNU-stack
                0x0000000000000000        0x0 obj_cooja/mtype772.a(log.o)
 .note.GNU-stack
                0x0000000000000000        0x0 obj_cooja/mtype772.a(cfs-cooja.o)
 .note.GNU-stack
                0x0000000000000000        0x0 obj_cooja/mtype772.a(cooja-radio.o)
 .note.GNU-stack
                0x0000000000000000        0x0 obj_cooja/mtype772.a(eeprom.o)
 .note.GNU-stack
                0x0000000000000000        0x0 obj_cooja/mtype772.a(random.o)
 .note.GNU-stack
                0x0000000000000000        0x0 obj_cooja/mtype772.a(sensors.o)
 .note.GNU-stack
                0x0000000000000000        0x0 obj_cooja/mtype772.a(autostart.o)
 .note.GNU-stack
                0x0000000000000000        0x0 obj_cooja/mtype772.a(ctimer.o)
 .note.GNU-stack
                0x0000000000000000        0x0 obj_cooja/mtype772.a(etimer.o)
 .note.GNU-stack
                0x0000000000000000        0x0 obj_cooja/mtype772.a(process.o)
 .note.GNU-stack
                0x0000000000000000        0x0 obj_cooja/mtype772.a(rtimer.o)
 .note.GNU-stack
                0x0000000000000000        0x0 obj_cooja/mtype772.a(timer.o)
 .note.GNU-stack
                0x0000000000000000        0x0 obj_cooja/mtype772.a(serial-line.o)
 .note.GNU-stack
                0x0000000000000000        0x0 obj_cooja/mtype772.a(assert.o)
 .note.GNU-stack
                0x0000000000000000        0x0 obj_cooja/mtype772.a(list.o)
 .note.GNU-stack
                0x0000000000000000        0x0 obj_cooja/mtype772.a(memb.o)
 .note.GNU-stack
                0x0000000000000000        0x0 obj_cooja/mtype772.a(ringbuf.o)
 .note.GNU-stack
                0x0000000000000000        0x0 obj_cooja/mtype772.a(sicslowpan.o)
 .note.GNU-stack
                0x0000000000000000        0x0 obj_cooja/mtype772.a(uip-ds6-nbr.o)
 .note.GNU-stack
                0x0000000000000000        0x0 obj_cooja/mtype772.a(uip-ds6-route.o)
 .note.GNU-stack
                0x0000000000000000        0x0 obj_cooja/mtype772.a(uip-ds6.o)
 .note.GNU-stack
                0x0000000000000000        0x0 obj_cooja/mtype772.a(uip-nd6.o)
 .note.GNU-stack
                0x0000000000000000        0x0 obj_cooja/mtype772.a(uip6.o)
 .note.GNU-stack
                0x0000000000000000        0x0 obj_cooja/mtype772.a(resolv.o)
 .note.GNU-stack
                0x0000000000000000        0x0 obj_cooja/mtype772.a(tcpip.o)
 .note.GNU-stack
                0x0000000000000000        0x0 obj_cooja/mtype772.a(uip-debug.o)
 .note.GNU-stack
                0x0000000000000000        0x0 obj_cooja/mtype772.a(uip-nameserver.)
 .note.GNU-stack
                0x0000000000000000        0x0 obj_cooja/mtype772.a(uip-packetqueue)
 .note.GNU-stack
                0x0000000000000000        0x0 obj_cooja/mtype772.a(uip-udp-packet.)
 .note.GNU-stack
                0x0000000000000000        0x0 obj_cooja/mtype772.a(rpl-dag.o)
 .note.GNU-stack
                0x0000000000000000        0x0 obj_cooja/mtype772.a(rpl-ext-header.)
 .note.GNU-stack
                0x0000000000000000        0x0 obj_cooja/mtype772.a(rpl-icmp6.o)
 .note.GNU-stack
                0x0000000000000000        0x0 obj_cooja/mtype772.a(rpl-mrhof.o)
 .note.GNU-stack
                0x0000000000000000        0x0 obj_cooja/mtype772.a(rpl-timers.o)
 .note.GNU-stack
                0x0000000000000000        0x0 obj_cooja/mtype772.a(rpl.o)
 .note.GNU-stack
                0x0000000000000000        0x0 obj_cooja/mtype772.a(link-stats.o)
 .note.GNU-stack
                0x0000000000000000        0x0 obj_cooja/mtype772.a(linkaddr.o)
 .note.GNU-stack
                0x0000000000000000        0x0 obj_cooja/mtype772.a(nbr-table.o)
 .note.GNU-stack
                0x0000000000000000        0x0 obj_cooja/mtype772.a(netstack.o)
 .note.GNU-stack
                0x0000000000000000        0x0 obj_cooja/mtype772.a(packetbuf.o)
 .note.GNU-stack
                0x0000000000000000        0x0 obj_cooja/mtype772.a(queuebuf.o)
 .note.GNU-stack
                0x0000000000000000        0x0 obj_cooja/mtype772.a(csma.o)
 .note.GNU-stack
                0x0000000000000000        0x0 obj_cooja/mtype772.a(framer-802154.o)
 .note.GNU-stack
                0x0000000000000000        0x0 obj_cooja/mtype772.a(mac.o)
 .note.GNU-stack
                0x0000000000000000        0x0 obj_cooja/mtype772.a(nullrdc.o)
 .note.GNU-stack
                0x0000000000000000        0x0 obj_cooja/mtype772.a(nullsec.o)
 .note.GNU-stack
                0x0000000000000000        0x0 obj_cooja/mtype772.a(watchdog.o)
 .note.GNU-stack
                0x0000000000000000        0x0 obj_cooja/mtype772.a(rimestats.o)
 .note.GNU-stack
                0x0000000000000000        0x0 obj_cooja/mtype772.a(stimer.o)
 .note.GNU-stack
                0x0000000000000000        0x0 obj_cooja/mtype772.a(uip-icmp6.o)
 .note.GNU-stack
                0x0000000000000000        0x0 obj_cooja/mtype772.a(rpl-nbr-policy.)
 .note.GNU-stack
                0x0000000000000000        0x0 obj_cooja/mtype772.a(frame802154.o)
 .note.GNU-stack
                0x0000000000000000        0x0 obj_cooja/mtype772.a(mac-sequence.o)
 .note.GNU-stack
                0x0000000000000000        0x0 /usr/lib/gcc/i686-linux-gnu/4.8/crtendS.o
 .note.GNU-stack
                0x0000000000000000        0x0 /usr/lib/gcc/i686-linux-gnu/4.8/../../../i386-linux-gnu/crtn.o
 .gnu_debuglink
                0x0000000000000000        0xc /usr/lib/gcc/i686-linux-gnu/4.8/../../../i386-linux-gnu/crtn.o

Memory Configuration

Name             Origin             Length             Attributes
*default*        0x0000000000000000 0xffffffffffffffff

Linker script and memory map

LOAD /usr/lib/gcc/i686-linux-gnu/4.8/../../../i386-linux-gnu/crti.o
LOAD /usr/lib/gcc/i686-linux-gnu/4.8/crtbeginS.o
LOAD sensor.co
LOAD obj_cooja/mtype772.o
LOAD obj_cooja/mtype772.a
LOAD /usr/lib/gcc/i686-linux-gnu/4.8/libgcc.a
LOAD /usr/lib/gcc/i686-linux-gnu/4.8/libgcc_s.so
LOAD /usr/lib/gcc/i686-linux-gnu/4.8/../../../i386-linux-gnu/libc.so
START GROUP
LOAD /lib/i386-linux-gnu/libc.so.6
LOAD /usr/lib/i386-linux-gnu/libc_nonshared.a
LOAD /lib/i386-linux-gnu/ld-linux.so.2
END GROUP
LOAD /usr/lib/gcc/i686-linux-gnu/4.8/libgcc.a
LOAD /usr/lib/gcc/i686-linux-gnu/4.8/libgcc_s.so
LOAD /usr/lib/gcc/i686-linux-gnu/4.8/crtendS.o
LOAD /usr/lib/gcc/i686-linux-gnu/4.8/../../../i386-linux-gnu/crtn.o
                0x0000000000000114                . = (0x0 + SIZEOF_HEADERS)

.note.gnu.build-id
                0x0000000000000114       0x24
 *(.note.gnu.build-id)
 .note.gnu.build-id
                0x0000000000000114       0x24 /usr/lib/gcc/i686-linux-gnu/4.8/../../../i386-linux-gnu/crti.o

.hash
 *(.hash)

.gnu.hash       0x0000000000000138     0x13c8
 *(.gnu.hash)
 .gnu.hash      0x0000000000000138     0x13c8 /usr/lib/gcc/i686-linux-gnu/4.8/../../../i386-linux-gnu/crti.o

.dynsym         0x0000000000001500     0x27c0
 *(.dynsym)
 .dynsym        0x0000000000001500     0x27c0 /usr/lib/gcc/i686-linux-gnu/4.8/../../../i386-linux-gnu/crti.o

.dynstr         0x0000000000003cc0     0x2928
 *(.dynstr)
 .dynstr        0x0000000000003cc0     0x2928 /usr/lib/gcc/i686-linux-gnu/4.8/../../../i386-linux-gnu/crti.o

.gnu.version    0x00000000000065e8      0x4f8
 *(.gnu.version)
 .gnu.version   0x00000000000065e8      0x4f8 /usr/lib/gcc/i686-linux-gnu/4.8/../../../i386-linux-gnu/crti.o

.gnu.version_d  0x0000000000006ae0        0x0
 *(.gnu.version_d)
 .gnu.version_d
                0x0000000000000000        0x0 /usr/lib/gcc/i686-linux-gnu/4.8/../../../i386-linux-gnu/crti.o

.gnu.version_r  0x0000000000006ae0       0x40
 *(.gnu.version_r)
 .gnu.version_r
                0x0000000000006ae0       0x40 /usr/lib/gcc/i686-linux-gnu/4.8/../../../i386-linux-gnu/crti.o

.rel.dyn        0x0000000000006b20     0xab38
 *(.rel.init)
 .rel.init      0x0000000000000000        0x0 /usr/lib/gcc/i686-linux-gnu/4.8/../../../i386-linux-gnu/crti.o
 *(.rel.text .rel.text.* .rel.gnu.linkonce.t.*)
 .rel.text      0x0000000000000000        0x0 /usr/lib/gcc/i686-linux-gnu/4.8/../../../i386-linux-gnu/crti.o
 .rel.text.read_from_peer
                0x0000000000006b20       0xd0 /usr/lib/gcc/i686-linux-gnu/4.8/../../../i386-linux-gnu/crti.o
 .rel.text.send_to_peer
                0x0000000000006bf0       0x48 /usr/lib/gcc/i686-linux-gnu/4.8/../../../i386-linux-gnu/crti.o
 .rel.text.get_psk_info
                0x0000000000006c38       0x50 /usr/lib/gcc/i686-linux-gnu/4.8/../../../i386-linux-gnu/crti.o
 .rel.text.print_local_addresses
                0x0000000000006c88       0x40 /usr/lib/gcc/i686-linux-gnu/4.8/../../../i386-linux-gnu/crti.o
 .rel.text.dtls_handle_read
                0x0000000000006cc8       0x80 /usr/lib/gcc/i686-linux-gnu/4.8/../../../i386-linux-gnu/crti.o
 .rel.text.cfs_prepare_data
                0x0000000000006d48       0xc8 /usr/lib/gcc/i686-linux-gnu/4.8/../../../i386-linux-gnu/crti.o
 .rel.text.dtls_complete
                0x0000000000006e10       0x20 /usr/lib/gcc/i686-linux-gnu/4.8/../../../i386-linux-gnu/crti.o
 .rel.text.init_dtls
                0x0000000000006e30       0x60 /usr/lib/gcc/i686-linux-gnu/4.8/../../../i386-linux-gnu/crti.o
 .rel.text.process_thread_udp_server_process
                0x0000000000006e90       0x78 /usr/lib/gcc/i686-linux-gnu/4.8/../../../i386-linux-gnu/crti.o
 .rel.text.print_processes
                0x0000000000006f08       0x28 /usr/lib/gcc/i686-linux-gnu/4.8/../../../i386-linux-gnu/crti.o
 .rel.text.rtimer_thread_loop
                0x0000000000006f30       0x10 /usr/lib/gcc/i686-linux-gnu/4.8/../../../i386-linux-gnu/crti.o
 .rel.text.set_rime_addr
                0x0000000000006f40       0x58 /usr/lib/gcc/i686-linux-gnu/4.8/../../../i386-linux-gnu/crti.o
 .rel.text.contiki_init
                0x0000000000006f98      0x1d0 /usr/lib/gcc/i686-linux-gnu/4.8/../../../i386-linux-gnu/crti.o
 .rel.text.process_run_thread_loop
                0x0000000000007168       0x70 /usr/lib/gcc/i686-linux-gnu/4.8/../../../i386-linux-gnu/crti.o
 .rel.text.Java_org_contikios_cooja_corecomm_Lib1_init
                0x00000000000071d8       0x30 /usr/lib/gcc/i686-linux-gnu/4.8/../../../i386-linux-gnu/crti.o
 .rel.text.Java_org_contikios_cooja_corecomm_Lib1_getMemory
                0x0000000000007208        0x8 /usr/lib/gcc/i686-linux-gnu/4.8/../../../i386-linux-gnu/crti.o
 .rel.text.Java_org_contikios_cooja_corecomm_Lib1_setMemory
                0x0000000000007210       0x10 /usr/lib/gcc/i686-linux-gnu/4.8/../../../i386-linux-gnu/crti.o
 .rel.text.Java_org_contikios_cooja_corecomm_Lib1_tick
                0x0000000000007220       0x70 /usr/lib/gcc/i686-linux-gnu/4.8/../../../i386-linux-gnu/crti.o
 .rel.text.Java_org_contikios_cooja_corecomm_Lib1_setReferenceAddress
                0x0000000000007290       0x10 /usr/lib/gcc/i686-linux-gnu/4.8/../../../i386-linux-gnu/crti.o
 .rel.text.dtls_hash_init
                0x00000000000072a0       0x18 /usr/lib/gcc/i686-linux-gnu/4.8/../../../i386-linux-gnu/crti.o
 .rel.text.dtls_hash_update
                0x00000000000072b8       0x10 /usr/lib/gcc/i686-linux-gnu/4.8/../../../i386-linux-gnu/crti.o
 .rel.text.dtls_hash_finalize
                0x00000000000072c8       0x10 /usr/lib/gcc/i686-linux-gnu/4.8/../../../i386-linux-gnu/crti.o
 .rel.text.dtls_security_params_next
                0x00000000000072d8       0x10 /usr/lib/gcc/i686-linux-gnu/4.8/../../../i386-linux-gnu/crti.o
 .rel.text.dtls_security_params_free_other
                0x00000000000072e8        0x8 /usr/lib/gcc/i686-linux-gnu/4.8/../../../i386-linux-gnu/crti.o
 .rel.text.dtls_prng
                0x00000000000072f0       0x18 /usr/lib/gcc/i686-linux-gnu/4.8/../../../i386-linux-gnu/crti.o
 .rel.text.malloc_context
                0x0000000000007308        0x8 /usr/lib/gcc/i686-linux-gnu/4.8/../../../i386-linux-gnu/crti.o
 .rel.text.dtls_init
                0x0000000000007310       0x20 /usr/lib/gcc/i686-linux-gnu/4.8/../../../i386-linux-gnu/crti.o
 .rel.text.dtls_get_peer
                0x0000000000007330       0x18 /usr/lib/gcc/i686-linux-gnu/4.8/../../../i386-linux-gnu/crti.o
 .rel.text.dtls_add_peer
                0x0000000000007348        0x8 /usr/lib/gcc/i686-linux-gnu/4.8/../../../i386-linux-gnu/crti.o
 .rel.text.dtls_write
                0x0000000000007350       0x20 /usr/lib/gcc/i686-linux-gnu/4.8/../../../i386-linux-gnu/crti.o
 .rel.text.dtls_create_cookie
                0x0000000000007370       0x40 /usr/lib/gcc/i686-linux-gnu/4.8/../../../i386-linux-gnu/crti.o
 .rel.text.dtls_set_record_header
                0x00000000000073b0       0x10 /usr/lib/gcc/i686-linux-gnu/4.8/../../../i386-linux-gnu/crti.o
 .rel.text.dtls_set_handshake_header
                0x00000000000073c0        0x8 /usr/lib/gcc/i686-linux-gnu/4.8/../../../i386-linux-gnu/crti.o
 .rel.text.dtls_debug_keyblock
                0x00000000000073c8       0x70 /usr/lib/gcc/i686-linux-gnu/4.8/../../../i386-linux-gnu/crti.o
 .rel.text.dtls_handshake_type_to_name
                0x0000000000007438       0x68 /usr/lib/gcc/i686-linux-gnu/4.8/../../../i386-linux-gnu/crti.o
 .rel.text.calculate_key_block
                0x00000000000074a0       0xb8 /usr/lib/gcc/i686-linux-gnu/4.8/../../../i386-linux-gnu/crti.o
 .rel.text.dtls_check_tls_extension
                0x0000000000007558       0x30 /usr/lib/gcc/i686-linux-gnu/4.8/../../../i386-linux-gnu/crti.o
 .rel.text.dtls_update_parameters
                0x0000000000007588       0x48 /usr/lib/gcc/i686-linux-gnu/4.8/../../../i386-linux-gnu/crti.o
 .rel.text.check_client_keyexchange
                0x00000000000075d0       0x38 /usr/lib/gcc/i686-linux-gnu/4.8/../../../i386-linux-gnu/crti.o
 .rel.text.update_hs_hash
                0x0000000000007608       0x10 /usr/lib/gcc/i686-linux-gnu/4.8/../../../i386-linux-gnu/crti.o
 .rel.text.copy_hs_hash
                0x0000000000007618        0x8 /usr/lib/gcc/i686-linux-gnu/4.8/../../../i386-linux-gnu/crti.o
 .rel.text.clear_hs_hash
                0x0000000000007620       0x20 /usr/lib/gcc/i686-linux-gnu/4.8/../../../i386-linux-gnu/crti.o
 .rel.text.check_finished
                0x0000000000007640       0x58 /usr/lib/gcc/i686-linux-gnu/4.8/../../../i386-linux-gnu/crti.o
 .rel.text.dtls_prepare_record
                0x0000000000007698      0x130 /usr/lib/gcc/i686-linux-gnu/4.8/../../../i386-linux-gnu/crti.o
 .rel.text.dtls_send_handshake_msg_hash
                0x00000000000077c8       0x18 /usr/lib/gcc/i686-linux-gnu/4.8/../../../i386-linux-gnu/crti.o
 .rel.text.dtls_encrypt_data
                0x00000000000077e0       0x20 /usr/lib/gcc/i686-linux-gnu/4.8/../../../i386-linux-gnu/crti.o
 .rel.text.dtls_encrypt_x
                0x0000000000007800       0x10 /usr/lib/gcc/i686-linux-gnu/4.8/../../../i386-linux-gnu/crti.o
 .rel.text.dtls_prepare_record_x
                0x0000000000007810       0x80 /usr/lib/gcc/i686-linux-gnu/4.8/../../../i386-linux-gnu/crti.o
 .rel.text.dtls_send_multi
                0x0000000000007890       0x98 /usr/lib/gcc/i686-linux-gnu/4.8/../../../i386-linux-gnu/crti.o
 .rel.text.dtls_close
                0x0000000000007928       0x30 /usr/lib/gcc/i686-linux-gnu/4.8/../../../i386-linux-gnu/crti.o
 .rel.text.dtls_destroy_peer
                0x0000000000007958       0x28 /usr/lib/gcc/i686-linux-gnu/4.8/../../../i386-linux-gnu/crti.o
 .rel.text.dtls_verify_peer
                0x0000000000007980       0xa0 /usr/lib/gcc/i686-linux-gnu/4.8/../../../i386-linux-gnu/crti.o
 .rel.text.dtls_send_server_hello
                0x0000000000007a20       0x30 /usr/lib/gcc/i686-linux-gnu/4.8/../../../i386-linux-gnu/crti.o
 .rel.text.dtls_send_server_key_exchange_psk
                0x0000000000007a50       0x40 /usr/lib/gcc/i686-linux-gnu/4.8/../../../i386-linux-gnu/crti.o
 .rel.text.dtls_send_server_hello_msgs
                0x0000000000007a90       0x48 /usr/lib/gcc/i686-linux-gnu/4.8/../../../i386-linux-gnu/crti.o
 .rel.text.dtls_send_client_key_exchange
                0x0000000000007ad8       0x60 /usr/lib/gcc/i686-linux-gnu/4.8/../../../i386-linux-gnu/crti.o
 .rel.text.dtls_send_finished
                0x0000000000007b38       0x38 /usr/lib/gcc/i686-linux-gnu/4.8/../../../i386-linux-gnu/crti.o
 .rel.text.dtls_send_client_hello
                0x0000000000007b70       0x50 /usr/lib/gcc/i686-linux-gnu/4.8/../../../i386-linux-gnu/crti.o
 .rel.text.check_server_hello
                0x0000000000007bc0       0x38 /usr/lib/gcc/i686-linux-gnu/4.8/../../../i386-linux-gnu/crti.o
 .rel.text.check_server_hello_verify_request
                0x0000000000007bf8       0x10 /usr/lib/gcc/i686-linux-gnu/4.8/../../../i386-linux-gnu/crti.o
 .rel.text.check_server_key_exchange_psk
                0x0000000000007c08       0x48 /usr/lib/gcc/i686-linux-gnu/4.8/../../../i386-linux-gnu/crti.o
 .rel.text.check_certificate_request
                0x0000000000007c50       0x60 /usr/lib/gcc/i686-linux-gnu/4.8/../../../i386-linux-gnu/crti.o
 .rel.text.check_server_hellodone
                0x0000000000007cb0       0x28 /usr/lib/gcc/i686-linux-gnu/4.8/../../../i386-linux-gnu/crti.o
 .rel.text.decrypt_verify
                0x0000000000007cd8       0xc8 /usr/lib/gcc/i686-linux-gnu/4.8/../../../i386-linux-gnu/crti.o
 .rel.text.dtls_renegotiate
                0x0000000000007da0       0x20 /usr/lib/gcc/i686-linux-gnu/4.8/../../../i386-linux-gnu/crti.o
 .rel.text.handle_handshake_msg
                0x0000000000007dc0      0x150 /usr/lib/gcc/i686-linux-gnu/4.8/../../../i386-linux-gnu/crti.o
 .rel.text.handle_handshake
                0x0000000000007f10       0xe8 /usr/lib/gcc/i686-linux-gnu/4.8/../../../i386-linux-gnu/crti.o
 .rel.text.handle_ccs
                0x0000000000007ff8       0x10 /usr/lib/gcc/i686-linux-gnu/4.8/../../../i386-linux-gnu/crti.o
 .rel.text.handle_alert
                0x0000000000008008       0x48 /usr/lib/gcc/i686-linux-gnu/4.8/../../../i386-linux-gnu/crti.o
 .rel.text.dtls_alert_send_from_err
                0x0000000000008050       0x10 /usr/lib/gcc/i686-linux-gnu/4.8/../../../i386-linux-gnu/crti.o
 .rel.text.dtls_handle_message
                0x0000000000008060      0x180 /usr/lib/gcc/i686-linux-gnu/4.8/../../../i386-linux-gnu/crti.o
 .rel.text.dtls_new_context
                0x00000000000081e0       0x70 /usr/lib/gcc/i686-linux-gnu/4.8/../../../i386-linux-gnu/crti.o
 .rel.text.dtls_free_context
                0x0000000000008250       0x20 /usr/lib/gcc/i686-linux-gnu/4.8/../../../i386-linux-gnu/crti.o
 .rel.text.dtls_connect_peer
                0x0000000000008270       0x50 /usr/lib/gcc/i686-linux-gnu/4.8/../../../i386-linux-gnu/crti.o
 .rel.text.dtls_connect
                0x00000000000082c0       0x38 /usr/lib/gcc/i686-linux-gnu/4.8/../../../i386-linux-gnu/crti.o
 .rel.text.dtls_retransmit
                0x00000000000082f8       0x98 /usr/lib/gcc/i686-linux-gnu/4.8/../../../i386-linux-gnu/crti.o
 .rel.text.dtls_stop_retransmission
                0x0000000000008390       0x30 /usr/lib/gcc/i686-linux-gnu/4.8/../../../i386-linux-gnu/crti.o
 .rel.text.dtls_check_retransmit
                0x00000000000083c0       0x20 /usr/lib/gcc/i686-linux-gnu/4.8/../../../i386-linux-gnu/crti.o
 .rel.text.process_thread_dtls_retransmit_process
                0x00000000000083e0       0xb0 /usr/lib/gcc/i686-linux-gnu/4.8/../../../i386-linux-gnu/crti.o
 .rel.text.dtls_cipher_context_get
                0x0000000000008490        0x8 /usr/lib/gcc/i686-linux-gnu/4.8/../../../i386-linux-gnu/crti.o
 .rel.text.dtls_crypto_init
                0x0000000000008498       0x20 /usr/lib/gcc/i686-linux-gnu/4.8/../../../i386-linux-gnu/crti.o
 .rel.text.dtls_handshake_malloc
                0x00000000000084b8       0x20 /usr/lib/gcc/i686-linux-gnu/4.8/../../../i386-linux-gnu/crti.o
 .rel.text.dtls_handshake_dealloc
                0x00000000000084d8       0x10 /usr/lib/gcc/i686-linux-gnu/4.8/../../../i386-linux-gnu/crti.o
 .rel.text.dtls_security_malloc
                0x00000000000084e8       0x10 /usr/lib/gcc/i686-linux-gnu/4.8/../../../i386-linux-gnu/crti.o
 .rel.text.dtls_security_dealloc
                0x00000000000084f8       0x10 /usr/lib/gcc/i686-linux-gnu/4.8/../../../i386-linux-gnu/crti.o
 .rel.text.dtls_handshake_new
                0x0000000000008508       0x28 /usr/lib/gcc/i686-linux-gnu/4.8/../../../i386-linux-gnu/crti.o
 .rel.text.dtls_handshake_free
                0x0000000000008530        0x8 /usr/lib/gcc/i686-linux-gnu/4.8/../../../i386-linux-gnu/crti.o
 .rel.text.dtls_security_new
                0x0000000000008538       0x18 /usr/lib/gcc/i686-linux-gnu/4.8/../../../i386-linux-gnu/crti.o
 .rel.text.dtls_p_hash
                0x0000000000008550       0xd0 /usr/lib/gcc/i686-linux-gnu/4.8/../../../i386-linux-gnu/crti.o
 .rel.text.dtls_prf
                0x0000000000008620       0x10 /usr/lib/gcc/i686-linux-gnu/4.8/../../../i386-linux-gnu/crti.o
 .rel.text.dtls_prf_custom
                0x0000000000008630       0x18 /usr/lib/gcc/i686-linux-gnu/4.8/../../../i386-linux-gnu/crti.o
 .rel.text.dtls_mac
                0x0000000000008648       0x38 /usr/lib/gcc/i686-linux-gnu/4.8/../../../i386-linux-gnu/crti.o
 .rel.text.dtls_ccm_encrypt
                0x0000000000008680       0x18 /usr/lib/gcc/i686-linux-gnu/4.8/../../../i386-linux-gnu/crti.o
 .rel.text.dtls_ccm_decrypt
                0x0000000000008698       0x18 /usr/lib/gcc/i686-linux-gnu/4.8/../../../i386-linux-gnu/crti.o
 .rel.text.dtls_psk_pre_master_secret
                0x00000000000086b0       0x18 /usr/lib/gcc/i686-linux-gnu/4.8/../../../i386-linux-gnu/crti.o
 .rel.text.dtls_encrypt
                0x00000000000086c8       0x20 /usr/lib/gcc/i686-linux-gnu/4.8/../../../i386-linux-gnu/crti.o
 .rel.text.dtls_decrypt
                0x00000000000086e8       0x20 /usr/lib/gcc/i686-linux-gnu/4.8/../../../i386-linux-gnu/crti.o
 .rel.text.dtls_hmac_context_new
                0x0000000000008708       0x10 /usr/lib/gcc/i686-linux-gnu/4.8/../../../i386-linux-gnu/crti.o
 .rel.text.dtls_hmac_context_free
                0x0000000000008718       0x10 /usr/lib/gcc/i686-linux-gnu/4.8/../../../i386-linux-gnu/crti.o
 .rel.text.dtls_hmac_storage_init
                0x0000000000008728       0x10 /usr/lib/gcc/i686-linux-gnu/4.8/../../../i386-linux-gnu/crti.o
 .rel.text.dtls_hmac_update
                0x0000000000008738       0x10 /usr/lib/gcc/i686-linux-gnu/4.8/../../../i386-linux-gnu/crti.o
 .rel.text.dtls_hmac_new
                0x0000000000008748        0x8 /usr/lib/gcc/i686-linux-gnu/4.8/../../../i386-linux-gnu/crti.o
 .rel.text.dtls_hmac_init
                0x0000000000008750       0x28 /usr/lib/gcc/i686-linux-gnu/4.8/../../../i386-linux-gnu/crti.o
 .rel.text.dtls_hmac_finalize
                0x0000000000008778       0x28 /usr/lib/gcc/i686-linux-gnu/4.8/../../../i386-linux-gnu/crti.o
 .rel.text.netq_malloc_node
                0x00000000000087a0       0x10 /usr/lib/gcc/i686-linux-gnu/4.8/../../../i386-linux-gnu/crti.o
 .rel.text.netq_free_node
                0x00000000000087b0       0x10 /usr/lib/gcc/i686-linux-gnu/4.8/../../../i386-linux-gnu/crti.o
 .rel.text.netq_init
                0x00000000000087c0       0x10 /usr/lib/gcc/i686-linux-gnu/4.8/../../../i386-linux-gnu/crti.o
 .rel.text.netq_insert_node
                0x00000000000087d0       0x48 /usr/lib/gcc/i686-linux-gnu/4.8/../../../i386-linux-gnu/crti.o
 .rel.text.netq_head
                0x0000000000008818        0x8 /usr/lib/gcc/i686-linux-gnu/4.8/../../../i386-linux-gnu/crti.o
 .rel.text.netq_next
                0x0000000000008820        0x8 /usr/lib/gcc/i686-linux-gnu/4.8/../../../i386-linux-gnu/crti.o
 .rel.text.netq_remove
                0x0000000000008828        0x8 /usr/lib/gcc/i686-linux-gnu/4.8/../../../i386-linux-gnu/crti.o
 .rel.text.netq_pop_first
                0x0000000000008830        0x8 /usr/lib/gcc/i686-linux-gnu/4.8/../../../i386-linux-gnu/crti.o
 .rel.text.netq_node_new
                0x0000000000008838       0x18 /usr/lib/gcc/i686-linux-gnu/4.8/../../../i386-linux-gnu/crti.o
 .rel.text.netq_delete_all
                0x0000000000008850        0x8 /usr/lib/gcc/i686-linux-gnu/4.8/../../../i386-linux-gnu/crti.o
 .rel.text.dtls_clock_init
                0x0000000000008858       0x10 /usr/lib/gcc/i686-linux-gnu/4.8/../../../i386-linux-gnu/crti.o
 .rel.text.dtls_ticks
                0x0000000000008868        0x8 /usr/lib/gcc/i686-linux-gnu/4.8/../../../i386-linux-gnu/crti.o
 .rel.text.peer_init
                0x0000000000008870       0x10 /usr/lib/gcc/i686-linux-gnu/4.8/../../../i386-linux-gnu/crti.o
 .rel.text.dtls_malloc_peer
                0x0000000000008880       0x10 /usr/lib/gcc/i686-linux-gnu/4.8/../../../i386-linux-gnu/crti.o
 .rel.text.dtls_free_peer
                0x0000000000008890       0x28 /usr/lib/gcc/i686-linux-gnu/4.8/../../../i386-linux-gnu/crti.o
 .rel.text.dtls_new_peer
                0x00000000000088b8       0x30 /usr/lib/gcc/i686-linux-gnu/4.8/../../../i386-linux-gnu/crti.o
 .rel.text.dtls_session_init
                0x00000000000088e8       0x18 /usr/lib/gcc/i686-linux-gnu/4.8/../../../i386-linux-gnu/crti.o
 .rel.text.dtls_session_equals
                0x0000000000008900       0x28 /usr/lib/gcc/i686-linux-gnu/4.8/../../../i386-linux-gnu/crti.o
 .rel.text.rijndaelKeySetupEnc
                0x0000000000008928       0x98 /usr/lib/gcc/i686-linux-gnu/4.8/../../../i386-linux-gnu/crti.o
 .rel.text.rijndaelEncrypt
                0x00000000000089c0      0x180 /usr/lib/gcc/i686-linux-gnu/4.8/../../../i386-linux-gnu/crti.o
 .rel.text.rijndael_set_key_enc_only
                0x0000000000008b40        0x8 /usr/lib/gcc/i686-linux-gnu/4.8/../../../i386-linux-gnu/crti.o
 .rel.text.rijndael_encrypt
                0x0000000000008b48        0x8 /usr/lib/gcc/i686-linux-gnu/4.8/../../../i386-linux-gnu/crti.o
 .rel.text.block0
                0x0000000000008b50        0x8 /usr/lib/gcc/i686-linux-gnu/4.8/../../../i386-linux-gnu/crti.o
 .rel.text.add_auth_data
                0x0000000000008b58       0x50 /usr/lib/gcc/i686-linux-gnu/4.8/../../../i386-linux-gnu/crti.o
 .rel.text.encrypt
                0x0000000000008ba8       0x38 /usr/lib/gcc/i686-linux-gnu/4.8/../../../i386-linux-gnu/crti.o
 .rel.text.mac  0x0000000000008be0        0x8 /usr/lib/gcc/i686-linux-gnu/4.8/../../../i386-linux-gnu/crti.o
 .rel.text.dtls_ccm_encrypt_message
                0x0000000000008be8       0x28 /usr/lib/gcc/i686-linux-gnu/4.8/../../../i386-linux-gnu/crti.o
 .rel.text.dtls_ccm_decrypt_message
                0x0000000000008c10       0x28 /usr/lib/gcc/i686-linux-gnu/4.8/../../../i386-linux-gnu/crti.o
 .rel.text.SHA256_Init
                0x0000000000008c38       0x18 /usr/lib/gcc/i686-linux-gnu/4.8/../../../i386-linux-gnu/crti.o
 .rel.text.SHA256_Transform
                0x0000000000008c50       0x10 /usr/lib/gcc/i686-linux-gnu/4.8/../../../i386-linux-gnu/crti.o
 .rel.text.SHA256_Update
                0x0000000000008c60       0x38 /usr/lib/gcc/i686-linux-gnu/4.8/../../../i386-linux-gnu/crti.o
 .rel.text.SHA256_Final
                0x0000000000008c98       0x48 /usr/lib/gcc/i686-linux-gnu/4.8/../../../i386-linux-gnu/crti.o
 .rel.text.SHA256_End
                0x0000000000008ce0       0x40 /usr/lib/gcc/i686-linux-gnu/4.8/../../../i386-linux-gnu/crti.o
 .rel.text.SHA256_Data
                0x0000000000008d20       0x20 /usr/lib/gcc/i686-linux-gnu/4.8/../../../i386-linux-gnu/crti.o
 .rel.text.dtls_package_name
                0x0000000000008d40        0x8 /usr/lib/gcc/i686-linux-gnu/4.8/../../../i386-linux-gnu/crti.o
 .rel.text.dtls_package_version
                0x0000000000008d48        0x8 /usr/lib/gcc/i686-linux-gnu/4.8/../../../i386-linux-gnu/crti.o
 .rel.text.dtls_get_log_level
                0x0000000000008d50        0x8 /usr/lib/gcc/i686-linux-gnu/4.8/../../../i386-linux-gnu/crti.o
 .rel.text.dtls_set_log_level
                0x0000000000008d58        0x8 /usr/lib/gcc/i686-linux-gnu/4.8/../../../i386-linux-gnu/crti.o
 .rel.text.dsrv_print_addr
                0x0000000000008d60       0x20 /usr/lib/gcc/i686-linux-gnu/4.8/../../../i386-linux-gnu/crti.o
 .rel.text.hexdump
                0x0000000000008d80       0x40 /usr/lib/gcc/i686-linux-gnu/4.8/../../../i386-linux-gnu/crti.o
 .rel.text.dump
                0x0000000000008dc0       0x10 /usr/lib/gcc/i686-linux-gnu/4.8/../../../i386-linux-gnu/crti.o
 .rel.text.dtls_dsrv_log_addr
                0x0000000000008dd0       0x18 /usr/lib/gcc/i686-linux-gnu/4.8/../../../i386-linux-gnu/crti.o
 .rel.text.dtls_dsrv_hexdump_log
                0x0000000000008de8       0xc8 /usr/lib/gcc/i686-linux-gnu/4.8/../../../i386-linux-gnu/crti.o
 .rel.text.doActionsBeforeTick
                0x0000000000008eb0       0x10 /usr/lib/gcc/i686-linux-gnu/4.8/../../../i386-linux-gnu/crti.o
 .rel.text.doActionsAfterTick
                0x0000000000008ec0       0x10 /usr/lib/gcc/i686-linux-gnu/4.8/../../../i386-linux-gnu/crti.o
 .rel.text.cooja_mt_init
                0x0000000000008ed0        0x8 /usr/lib/gcc/i686-linux-gnu/4.8/../../../i386-linux-gnu/crti.o
 .rel.text.cooja_mt_remove
                0x0000000000008ed8        0x8 /usr/lib/gcc/i686-linux-gnu/4.8/../../../i386-linux-gnu/crti.o
 .rel.text.cooja_mt_start
                0x0000000000008ee0        0x8 /usr/lib/gcc/i686-linux-gnu/4.8/../../../i386-linux-gnu/crti.o
 .rel.text.cooja_mt_exec
                0x0000000000008ee8       0x10 /usr/lib/gcc/i686-linux-gnu/4.8/../../../i386-linux-gnu/crti.o
 .rel.text.cooja_mt_exit
                0x0000000000008ef8       0x18 /usr/lib/gcc/i686-linux-gnu/4.8/../../../i386-linux-gnu/crti.o
 .rel.text.cooja_mt_yield
                0x0000000000008f10       0x18 /usr/lib/gcc/i686-linux-gnu/4.8/../../../i386-linux-gnu/crti.o
 .rel.text.cooja_mtarch_start
                0x0000000000008f28        0x8 /usr/lib/gcc/i686-linux-gnu/4.8/../../../i386-linux-gnu/crti.o
 .rel.text.cooja_sw
                0x0000000000008f30        0x8 /usr/lib/gcc/i686-linux-gnu/4.8/../../../i386-linux-gnu/crti.o
 .rel.text.cooja_mtarch_exec
                0x0000000000008f38       0x18 /usr/lib/gcc/i686-linux-gnu/4.8/../../../i386-linux-gnu/crti.o
 .rel.text.cooja_mtarch_yield
                0x0000000000008f50        0x8 /usr/lib/gcc/i686-linux-gnu/4.8/../../../i386-linux-gnu/crti.o
 .rel.text.rtimer_arch_init
                0x0000000000008f58       0x18 /usr/lib/gcc/i686-linux-gnu/4.8/../../../i386-linux-gnu/crti.o
 .rel.text.rtimer_arch_schedule
                0x0000000000008f70       0x18 /usr/lib/gcc/i686-linux-gnu/4.8/../../../i386-linux-gnu/crti.o
 .rel.text.rtimer_arch_next
                0x0000000000008f88       0x10 /usr/lib/gcc/i686-linux-gnu/4.8/../../../i386-linux-gnu/crti.o
 .rel.text.rtimer_arch_pending
                0x0000000000008f98        0x8 /usr/lib/gcc/i686-linux-gnu/4.8/../../../i386-linux-gnu/crti.o
 .rel.text.rtimer_arch_check
                0x0000000000008fa0       0x30 /usr/lib/gcc/i686-linux-gnu/4.8/../../../i386-linux-gnu/crti.o
 .rel.text.rtimer_arch_now
                0x0000000000008fd0       0x10 /usr/lib/gcc/i686-linux-gnu/4.8/../../../i386-linux-gnu/crti.o
 .rel.text.beep_alarm
                0x0000000000008fe0        0x8 /usr/lib/gcc/i686-linux-gnu/4.8/../../../i386-linux-gnu/crti.o
 .rel.text.beep_beep
                0x0000000000008fe8        0x8 /usr/lib/gcc/i686-linux-gnu/4.8/../../../i386-linux-gnu/crti.o
 .rel.text.beep
                0x0000000000008ff0        0x8 /usr/lib/gcc/i686-linux-gnu/4.8/../../../i386-linux-gnu/crti.o
 .rel.text.beep_down
                0x0000000000008ff8        0x8 /usr/lib/gcc/i686-linux-gnu/4.8/../../../i386-linux-gnu/crti.o
 .rel.text.beep_on
                0x0000000000009000        0x8 /usr/lib/gcc/i686-linux-gnu/4.8/../../../i386-linux-gnu/crti.o
 .rel.text.beep_off
                0x0000000000009008        0x8 /usr/lib/gcc/i686-linux-gnu/4.8/../../../i386-linux-gnu/crti.o
 .rel.text.beep_spinup
                0x0000000000009010        0x8 /usr/lib/gcc/i686-linux-gnu/4.8/../../../i386-linux-gnu/crti.o
 .rel.text.beep_quick
                0x0000000000009018        0x8 /usr/lib/gcc/i686-linux-gnu/4.8/../../../i386-linux-gnu/crti.o
 .rel.text.beep_long
                0x0000000000009020        0x8 /usr/lib/gcc/i686-linux-gnu/4.8/../../../i386-linux-gnu/crti.o
 .rel.text.value
                0x0000000000009028       0x28 /usr/lib/gcc/i686-linux-gnu/4.8/../../../i386-linux-gnu/crti.o
 .rel.text.configure
                0x0000000000009050       0x40 /usr/lib/gcc/i686-linux-gnu/4.8/../../../i386-linux-gnu/crti.o
 .rel.text.status
                0x0000000000009090       0x18 /usr/lib/gcc/i686-linux-gnu/4.8/../../../i386-linux-gnu/crti.o
 .rel.text.doInterfaceActionsBeforeTick
                0x00000000000090a8      0x188 /usr/lib/gcc/i686-linux-gnu/4.8/../../../i386-linux-gnu/crti.o
 .rel.text.leds_arch_init
                0x0000000000009230        0x8 /usr/lib/gcc/i686-linux-gnu/4.8/../../../i386-linux-gnu/crti.o
 .rel.text.leds_arch_get
                0x0000000000009238        0x8 /usr/lib/gcc/i686-linux-gnu/4.8/../../../i386-linux-gnu/crti.o
 .rel.text.leds_arch_set
                0x0000000000009240       0x10 /usr/lib/gcc/i686-linux-gnu/4.8/../../../i386-linux-gnu/crti.o
 .rel.text.rs232_set_input
                0x0000000000009250        0x8 /usr/lib/gcc/i686-linux-gnu/4.8/../../../i386-linux-gnu/crti.o
 .rel.text.rs232_send
                0x0000000000009258       0x10 /usr/lib/gcc/i686-linux-gnu/4.8/../../../i386-linux-gnu/crti.o
 .rel.text.rs232_print
                0x0000000000009268       0x10 /usr/lib/gcc/i686-linux-gnu/4.8/../../../i386-linux-gnu/crti.o
 .rel.text.slip_arch_writeb
                0x0000000000009278        0x8 /usr/lib/gcc/i686-linux-gnu/4.8/../../../i386-linux-gnu/crti.o
 .rel.text.clock_time
                0x0000000000009280        0x8 /usr/lib/gcc/i686-linux-gnu/4.8/../../../i386-linux-gnu/crti.o
 .rel.text.clock_seconds
                0x0000000000009288        0x8 /usr/lib/gcc/i686-linux-gnu/4.8/../../../i386-linux-gnu/crti.o
 .rel.text.simlog_char
                0x0000000000009290       0x30 /usr/lib/gcc/i686-linux-gnu/4.8/../../../i386-linux-gnu/crti.o
 .rel.text.simlog
                0x00000000000092c0       0x50 /usr/lib/gcc/i686-linux-gnu/4.8/../../../i386-linux-gnu/crti.o
 .rel.text.log_message
                0x0000000000009310       0x10 /usr/lib/gcc/i686-linux-gnu/4.8/../../../i386-linux-gnu/crti.o
 .rel.text.log_set_putchar_with_slip
                0x0000000000009320        0x8 /usr/lib/gcc/i686-linux-gnu/4.8/../../../i386-linux-gnu/crti.o
 .rel.text.putchar
                0x0000000000009328       0x50 /usr/lib/gcc/i686-linux-gnu/4.8/../../../i386-linux-gnu/crti.o
 .rel.text.puts
                0x0000000000009378       0x10 /usr/lib/gcc/i686-linux-gnu/4.8/../../../i386-linux-gnu/crti.o
 .rel.text.printf
                0x0000000000009388       0x20 /usr/lib/gcc/i686-linux-gnu/4.8/../../../i386-linux-gnu/crti.o
 .rel.text.cfs_open
                0x00000000000093a8       0x48 /usr/lib/gcc/i686-linux-gnu/4.8/../../../i386-linux-gnu/crti.o
 .rel.text.cfs_close
                0x00000000000093f0        0x8 /usr/lib/gcc/i686-linux-gnu/4.8/../../../i386-linux-gnu/crti.o
 .rel.text.cfs_read
                0x00000000000093f8       0x70 /usr/lib/gcc/i686-linux-gnu/4.8/../../../i386-linux-gnu/crti.o
 .rel.text.cfs_write
                0x0000000000009468       0xb0 /usr/lib/gcc/i686-linux-gnu/4.8/../../../i386-linux-gnu/crti.o
 .rel.text.cfs_seek
                0x0000000000009518       0x68 /usr/lib/gcc/i686-linux-gnu/4.8/../../../i386-linux-gnu/crti.o
 .rel.text.cfs_remove
                0x0000000000009580       0x10 /usr/lib/gcc/i686-linux-gnu/4.8/../../../i386-linux-gnu/crti.o
 .rel.text.packetbuf_set_attr
                0x0000000000009590       0x30 /usr/lib/gcc/i686-linux-gnu/4.8/../../../i386-linux-gnu/crti.o
 .rel.text.set_send_on_cca
                0x00000000000095c0        0x8 /usr/lib/gcc/i686-linux-gnu/4.8/../../../i386-linux-gnu/crti.o
 .rel.text.set_frame_filtering
                0x00000000000095c8        0x8 /usr/lib/gcc/i686-linux-gnu/4.8/../../../i386-linux-gnu/crti.o
 .rel.text.set_auto_ack
                0x00000000000095d0        0x8 /usr/lib/gcc/i686-linux-gnu/4.8/../../../i386-linux-gnu/crti.o
 .rel.text.set_poll_mode
                0x00000000000095d8        0x8 /usr/lib/gcc/i686-linux-gnu/4.8/../../../i386-linux-gnu/crti.o
 .rel.text.radio_set_channel
                0x00000000000095e0        0x8 /usr/lib/gcc/i686-linux-gnu/4.8/../../../i386-linux-gnu/crti.o
 .rel.text.radio_set_txpower
                0x00000000000095e8        0x8 /usr/lib/gcc/i686-linux-gnu/4.8/../../../i386-linux-gnu/crti.o
 .rel.text.radio_signal_strength_last
                0x00000000000095f0        0x8 /usr/lib/gcc/i686-linux-gnu/4.8/../../../i386-linux-gnu/crti.o
 .rel.text.radio_signal_strength_current
                0x00000000000095f8        0x8 /usr/lib/gcc/i686-linux-gnu/4.8/../../../i386-linux-gnu/crti.o
 .rel.text.radio_LQI
                0x0000000000009600        0x8 /usr/lib/gcc/i686-linux-gnu/4.8/../../../i386-linux-gnu/crti.o
 .rel.text.radio_on
                0x0000000000009608        0x8 /usr/lib/gcc/i686-linux-gnu/4.8/../../../i386-linux-gnu/crti.o
 .rel.text.radio_off
                0x0000000000009610        0x8 /usr/lib/gcc/i686-linux-gnu/4.8/../../../i386-linux-gnu/crti.o
 .rel.text.radio_read
                0x0000000000009618       0x68 /usr/lib/gcc/i686-linux-gnu/4.8/../../../i386-linux-gnu/crti.o
 .rel.text.channel_clear
                0x0000000000009680        0x8 /usr/lib/gcc/i686-linux-gnu/4.8/../../../i386-linux-gnu/crti.o
 .rel.text.radio_send
                0x0000000000009688       0x78 /usr/lib/gcc/i686-linux-gnu/4.8/../../../i386-linux-gnu/crti.o
 .rel.text.prepare_packet
                0x0000000000009700        0x8 /usr/lib/gcc/i686-linux-gnu/4.8/../../../i386-linux-gnu/crti.o
 .rel.text.transmit_packet
                0x0000000000009708       0x10 /usr/lib/gcc/i686-linux-gnu/4.8/../../../i386-linux-gnu/crti.o
 .rel.text.receiving_packet
                0x0000000000009718        0x8 /usr/lib/gcc/i686-linux-gnu/4.8/../../../i386-linux-gnu/crti.o
 .rel.text.pending_packet
                0x0000000000009720       0x10 /usr/lib/gcc/i686-linux-gnu/4.8/../../../i386-linux-gnu/crti.o
 .rel.text.process_thread_cooja_radio_process
                0x0000000000009730       0x28 /usr/lib/gcc/i686-linux-gnu/4.8/../../../i386-linux-gnu/crti.o
 .rel.text.init
                0x0000000000009758       0x60 /usr/lib/gcc/i686-linux-gnu/4.8/../../../i386-linux-gnu/crti.o
 .rel.text.get_value
                0x00000000000097b8       0x30 /usr/lib/gcc/i686-linux-gnu/4.8/../../../i386-linux-gnu/crti.o
 .rel.text.set_value
                0x00000000000097e8        0x8 /usr/lib/gcc/i686-linux-gnu/4.8/../../../i386-linux-gnu/crti.o
 .rel.text.get_object
                0x00000000000097f0       0x10 /usr/lib/gcc/i686-linux-gnu/4.8/../../../i386-linux-gnu/crti.o
 .rel.text.eeprom_read
                0x0000000000009800       0x28 /usr/lib/gcc/i686-linux-gnu/4.8/../../../i386-linux-gnu/crti.o
 .rel.text.eeprom_write
                0x0000000000009828       0x28 /usr/lib/gcc/i686-linux-gnu/4.8/../../../i386-linux-gnu/crti.o
 .rel.text.random_init
                0x0000000000009850        0x8 /usr/lib/gcc/i686-linux-gnu/4.8/../../../i386-linux-gnu/crti.o
 .rel.text.random_rand
                0x0000000000009858        0x8 /usr/lib/gcc/i686-linux-gnu/4.8/../../../i386-linux-gnu/crti.o
 .rel.text.get_sensor_index
                0x0000000000009860       0x10 /usr/lib/gcc/i686-linux-gnu/4.8/../../../i386-linux-gnu/crti.o
 .rel.text.sensors_first
                0x0000000000009870        0x8 /usr/lib/gcc/i686-linux-gnu/4.8/../../../i386-linux-gnu/crti.o
 .rel.text.sensors_next
                0x0000000000009878        0x8 /usr/lib/gcc/i686-linux-gnu/4.8/../../../i386-linux-gnu/crti.o
 .rel.text.sensors_changed
                0x0000000000009880       0x20 /usr/lib/gcc/i686-linux-gnu/4.8/../../../i386-linux-gnu/crti.o
 .rel.text.sensors_find
                0x00000000000098a0       0x28 /usr/lib/gcc/i686-linux-gnu/4.8/../../../i386-linux-gnu/crti.o
 .rel.text.process_thread_sensors_process
                0x00000000000098c8      0x108 /usr/lib/gcc/i686-linux-gnu/4.8/../../../i386-linux-gnu/crti.o
 .rel.text.autostart_start
                0x00000000000099d0        0x8 /usr/lib/gcc/i686-linux-gnu/4.8/../../../i386-linux-gnu/crti.o
 .rel.text.autostart_exit
                0x00000000000099d8        0x8 /usr/lib/gcc/i686-linux-gnu/4.8/../../../i386-linux-gnu/crti.o
 .rel.text.process_thread_ctimer_process
                0x00000000000099e0       0x58 /usr/lib/gcc/i686-linux-gnu/4.8/../../../i386-linux-gnu/crti.o
 .rel.text.ctimer_init
                0x0000000000009a38       0x28 /usr/lib/gcc/i686-linux-gnu/4.8/../../../i386-linux-gnu/crti.o
 .rel.text.ctimer_set
                0x0000000000009a60       0x10 /usr/lib/gcc/i686-linux-gnu/4.8/../../../i386-linux-gnu/crti.o
 .rel.text.ctimer_set_with_process
                0x0000000000009a70       0x40 /usr/lib/gcc/i686-linux-gnu/4.8/../../../i386-linux-gnu/crti.o
 .rel.text.ctimer_reset
                0x0000000000009ab0       0x40 /usr/lib/gcc/i686-linux-gnu/4.8/../../../i386-linux-gnu/crti.o
 .rel.text.ctimer_restart
                0x0000000000009af0       0x40 /usr/lib/gcc/i686-linux-gnu/4.8/../../../i386-linux-gnu/crti.o
 .rel.text.ctimer_stop
                0x0000000000009b30       0x20 /usr/lib/gcc/i686-linux-gnu/4.8/../../../i386-linux-gnu/crti.o
 .rel.text.ctimer_expired
                0x0000000000009b50       0x20 /usr/lib/gcc/i686-linux-gnu/4.8/../../../i386-linux-gnu/crti.o
 .rel.text.update_time
                0x0000000000009b70       0x28 /usr/lib/gcc/i686-linux-gnu/4.8/../../../i386-linux-gnu/crti.o
 .rel.text.process_thread_etimer_process
                0x0000000000009b98       0x60 /usr/lib/gcc/i686-linux-gnu/4.8/../../../i386-linux-gnu/crti.o
 .rel.text.etimer_request_poll
                0x0000000000009bf8       0x10 /usr/lib/gcc/i686-linux-gnu/4.8/../../../i386-linux-gnu/crti.o
 .rel.text.add_timer
                0x0000000000009c08       0x30 /usr/lib/gcc/i686-linux-gnu/4.8/../../../i386-linux-gnu/crti.o
 .rel.text.etimer_set
                0x0000000000009c38        0x8 /usr/lib/gcc/i686-linux-gnu/4.8/../../../i386-linux-gnu/crti.o
 .rel.text.etimer_reset_with_new_interval
                0x0000000000009c40        0x8 /usr/lib/gcc/i686-linux-gnu/4.8/../../../i386-linux-gnu/crti.o
 .rel.text.etimer_reset
                0x0000000000009c48        0x8 /usr/lib/gcc/i686-linux-gnu/4.8/../../../i386-linux-gnu/crti.o
 .rel.text.etimer_restart
                0x0000000000009c50        0x8 /usr/lib/gcc/i686-linux-gnu/4.8/../../../i386-linux-gnu/crti.o
 .rel.text.etimer_pending
                0x0000000000009c58        0x8 /usr/lib/gcc/i686-linux-gnu/4.8/../../../i386-linux-gnu/crti.o
 .rel.text.etimer_next_expiration_time
                0x0000000000009c60       0x10 /usr/lib/gcc/i686-linux-gnu/4.8/../../../i386-linux-gnu/crti.o
 .rel.text.etimer_stop
                0x0000000000009c70       0x20 /usr/lib/gcc/i686-linux-gnu/4.8/../../../i386-linux-gnu/crti.o
 .rel.text.process_alloc_event
                0x0000000000009c90       0x10 /usr/lib/gcc/i686-linux-gnu/4.8/../../../i386-linux-gnu/crti.o
 .rel.text.process_start
                0x0000000000009ca0       0x20 /usr/lib/gcc/i686-linux-gnu/4.8/../../../i386-linux-gnu/crti.o
 .rel.text.exit_process
                0x0000000000009cc0       0x50 /usr/lib/gcc/i686-linux-gnu/4.8/../../../i386-linux-gnu/crti.o
 .rel.text.call_process
                0x0000000000009d10        0x8 /usr/lib/gcc/i686-linux-gnu/4.8/../../../i386-linux-gnu/crti.o
 .rel.text.process_exit
                0x0000000000009d18        0x8 /usr/lib/gcc/i686-linux-gnu/4.8/../../../i386-linux-gnu/crti.o
 .rel.text.process_init
                0x0000000000009d20       0x38 /usr/lib/gcc/i686-linux-gnu/4.8/../../../i386-linux-gnu/crti.o
 .rel.text.do_poll
                0x0000000000009d58       0x10 /usr/lib/gcc/i686-linux-gnu/4.8/../../../i386-linux-gnu/crti.o
 .rel.text.do_event
                0x0000000000009d68       0x68 /usr/lib/gcc/i686-linux-gnu/4.8/../../../i386-linux-gnu/crti.o
 .rel.text.process_run
                0x0000000000009dd0       0x18 /usr/lib/gcc/i686-linux-gnu/4.8/../../../i386-linux-gnu/crti.o
 .rel.text.process_nevents
                0x0000000000009de8       0x10 /usr/lib/gcc/i686-linux-gnu/4.8/../../../i386-linux-gnu/crti.o
 .rel.text.process_post
                0x0000000000009df8       0x40 /usr/lib/gcc/i686-linux-gnu/4.8/../../../i386-linux-gnu/crti.o
 .rel.text.process_post_synch
                0x0000000000009e38       0x10 /usr/lib/gcc/i686-linux-gnu/4.8/../../../i386-linux-gnu/crti.o
 .rel.text.process_poll
                0x0000000000009e48        0x8 /usr/lib/gcc/i686-linux-gnu/4.8/../../../i386-linux-gnu/crti.o
 .rel.text.rtimer_init
                0x0000000000009e50        0x8 /usr/lib/gcc/i686-linux-gnu/4.8/../../../i386-linux-gnu/crti.o
 .rel.text.rtimer_set
                0x0000000000009e58       0x18 /usr/lib/gcc/i686-linux-gnu/4.8/../../../i386-linux-gnu/crti.o
 .rel.text.rtimer_run_next
                0x0000000000009e70       0x30 /usr/lib/gcc/i686-linux-gnu/4.8/../../../i386-linux-gnu/crti.o
 .rel.text.timer_set
                0x0000000000009ea0        0x8 /usr/lib/gcc/i686-linux-gnu/4.8/../../../i386-linux-gnu/crti.o
 .rel.text.timer_restart
                0x0000000000009ea8        0x8 /usr/lib/gcc/i686-linux-gnu/4.8/../../../i386-linux-gnu/crti.o
 .rel.text.timer_expired
                0x0000000000009eb0        0x8 /usr/lib/gcc/i686-linux-gnu/4.8/../../../i386-linux-gnu/crti.o
 .rel.text.timer_remaining
                0x0000000000009eb8        0x8 /usr/lib/gcc/i686-linux-gnu/4.8/../../../i386-linux-gnu/crti.o
 .rel.text.serial_line_input_byte
                0x0000000000009ec0       0x48 /usr/lib/gcc/i686-linux-gnu/4.8/../../../i386-linux-gnu/crti.o
 .rel.text.process_thread_serial_line_process
                0x0000000000009f08       0x90 /usr/lib/gcc/i686-linux-gnu/4.8/../../../i386-linux-gnu/crti.o
 .rel.text.serial_line_init
                0x0000000000009f98       0x28 /usr/lib/gcc/i686-linux-gnu/4.8/../../../i386-linux-gnu/crti.o
 .rel.text._xassert
                0x0000000000009fc0       0x10 /usr/lib/gcc/i686-linux-gnu/4.8/../../../i386-linux-gnu/crti.o
 .rel.text.list_add
                0x0000000000009fd0       0x10 /usr/lib/gcc/i686-linux-gnu/4.8/../../../i386-linux-gnu/crti.o
 .rel.text.list_push
                0x0000000000009fe0        0x8 /usr/lib/gcc/i686-linux-gnu/4.8/../../../i386-linux-gnu/crti.o
 .rel.text.list_insert
                0x0000000000009fe8        0x8 /usr/lib/gcc/i686-linux-gnu/4.8/../../../i386-linux-gnu/crti.o
 .rel.text.memb_init
                0x0000000000009ff0       0x10 /usr/lib/gcc/i686-linux-gnu/4.8/../../../i386-linux-gnu/crti.o
 .rel.text.packetbuf_attr
                0x000000000000a000       0x28 /usr/lib/gcc/i686-linux-gnu/4.8/../../../i386-linux-gnu/crti.o
 .rel.text.packetbuf_set_addr
                0x000000000000a028       0x30 /usr/lib/gcc/i686-linux-gnu/4.8/../../../i386-linux-gnu/crti.o
 .rel.text.packetbuf_addr
                0x000000000000a058       0x40 /usr/lib/gcc/i686-linux-gnu/4.8/../../../i386-linux-gnu/crti.o
 .rel.text.clear_fragments
                0x000000000000a098       0x20 /usr/lib/gcc/i686-linux-gnu/4.8/../../../i386-linux-gnu/crti.o
 .rel.text.timeout_fragments
                0x000000000000a0b8       0x18 /usr/lib/gcc/i686-linux-gnu/4.8/../../../i386-linux-gnu/crti.o
 .rel.text.store_fragment
                0x000000000000a0d0       0x68 /usr/lib/gcc/i686-linux-gnu/4.8/../../../i386-linux-gnu/crti.o
 .rel.text.add_fragment
                0x000000000000a138       0x80 /usr/lib/gcc/i686-linux-gnu/4.8/../../../i386-linux-gnu/crti.o
 .rel.text.copy_frags2uip
                0x000000000000a1b8       0x58 /usr/lib/gcc/i686-linux-gnu/4.8/../../../i386-linux-gnu/crti.o
 .rel.text.rime_sniffer_add
                0x000000000000a210        0x8 /usr/lib/gcc/i686-linux-gnu/4.8/../../../i386-linux-gnu/crti.o
 .rel.text.rime_sniffer_remove
                0x000000000000a218        0x8 /usr/lib/gcc/i686-linux-gnu/4.8/../../../i386-linux-gnu/crti.o
 .rel.text.set_packet_attrs
                0x000000000000a220       0x60 /usr/lib/gcc/i686-linux-gnu/4.8/../../../i386-linux-gnu/crti.o
 .rel.text.addr_context_lookup_by_prefix
                0x000000000000a280       0x20 /usr/lib/gcc/i686-linux-gnu/4.8/../../../i386-linux-gnu/crti.o
 .rel.text.addr_context_lookup_by_number
                0x000000000000a2a0       0x18 /usr/lib/gcc/i686-linux-gnu/4.8/../../../i386-linux-gnu/crti.o
 .rel.text.compress_addr_64
                0x000000000000a2b8       0x40 /usr/lib/gcc/i686-linux-gnu/4.8/../../../i386-linux-gnu/crti.o
 .rel.text.uncompress_addr
                0x000000000000a2f8       0x38 /usr/lib/gcc/i686-linux-gnu/4.8/../../../i386-linux-gnu/crti.o
 .rel.text.compress_hdr_iphc
                0x000000000000a330      0x5f8 /usr/lib/gcc/i686-linux-gnu/4.8/../../../i386-linux-gnu/crti.o
 .rel.text.uncompress_hdr_iphc
                0x000000000000a928      0x2f0 /usr/lib/gcc/i686-linux-gnu/4.8/../../../i386-linux-gnu/crti.o
 .rel.text.compress_hdr_ipv6
                0x000000000000ac18       0x58 /usr/lib/gcc/i686-linux-gnu/4.8/../../../i386-linux-gnu/crti.o
 .rel.text.packet_sent
                0x000000000000ac70       0x38 /usr/lib/gcc/i686-linux-gnu/4.8/../../../i386-linux-gnu/crti.o
 .rel.text.send_packet
                0x000000000000aca8      0x120 /usr/lib/gcc/i686-linux-gnu/4.8/../../../i386-linux-gnu/crti.o
 .rel.text.output
                0x000000000000adc8      0x2c8 /usr/lib/gcc/i686-linux-gnu/4.8/../../../i386-linux-gnu/crti.o
 .rel.text.input
                0x000000000000b090      0x200 /usr/lib/gcc/i686-linux-gnu/4.8/../../../i386-linux-gnu/crti.o
 .rel.text.sicslowpan_init
                0x000000000000b290       0x38 /usr/lib/gcc/i686-linux-gnu/4.8/../../../i386-linux-gnu/crti.o
 .rel.text.sicslowpan_get_last_rssi
                0x000000000000b2c8        0x8 /usr/lib/gcc/i686-linux-gnu/4.8/../../../i386-linux-gnu/crti.o
 .rel.text.uip_ds6_neighbors_init
                0x000000000000b2d0       0x20 /usr/lib/gcc/i686-linux-gnu/4.8/../../../i386-linux-gnu/crti.o
 .rel.text.uip_ds6_nbr_add
                0x000000000000b2f0       0x38 /usr/lib/gcc/i686-linux-gnu/4.8/../../../i386-linux-gnu/crti.o
 .rel.text.uip_ds6_nbr_rm
                0x000000000000b328       0x20 /usr/lib/gcc/i686-linux-gnu/4.8/../../../i386-linux-gnu/crti.o
 .rel.text.uip_ds6_nbr_get_ll
                0x000000000000b348       0x10 /usr/lib/gcc/i686-linux-gnu/4.8/../../../i386-linux-gnu/crti.o
 .rel.text.uip_ds6_nbr_num
                0x000000000000b358       0x20 /usr/lib/gcc/i686-linux-gnu/4.8/../../../i386-linux-gnu/crti.o
 .rel.text.uip_ds6_nbr_lookup
                0x000000000000b378       0x28 /usr/lib/gcc/i686-linux-gnu/4.8/../../../i386-linux-gnu/crti.o
 .rel.text.uip_ds6_nbr_ll_lookup
                0x000000000000b3a0       0x10 /usr/lib/gcc/i686-linux-gnu/4.8/../../../i386-linux-gnu/crti.o
 .rel.text.uip_ds6_nbr_ipaddr_from_lladdr
                0x000000000000b3b0        0x8 /usr/lib/gcc/i686-linux-gnu/4.8/../../../i386-linux-gnu/crti.o
 .rel.text.uip_ds6_nbr_lladdr_from_ipaddr
                0x000000000000b3b8       0x10 /usr/lib/gcc/i686-linux-gnu/4.8/../../../i386-linux-gnu/crti.o
 .rel.text.uip_ds6_link_neighbor_callback
                0x000000000000b3c8       0x20 /usr/lib/gcc/i686-linux-gnu/4.8/../../../i386-linux-gnu/crti.o
 .rel.text.uip_ds6_neighbor_periodic
                0x000000000000b3e8       0xb8 /usr/lib/gcc/i686-linux-gnu/4.8/../../../i386-linux-gnu/crti.o
 .rel.text.uip_ds6_nbr_refresh_reachable_state
                0x000000000000b4a0       0x10 /usr/lib/gcc/i686-linux-gnu/4.8/../../../i386-linux-gnu/crti.o
 .rel.text.uip_ds6_get_least_lifetime_neighbor
                0x000000000000b4b0       0x30 /usr/lib/gcc/i686-linux-gnu/4.8/../../../i386-linux-gnu/crti.o
 .rel.text.call_route_callback
                0x000000000000b4e0       0x30 /usr/lib/gcc/i686-linux-gnu/4.8/../../../i386-linux-gnu/crti.o
 .rel.text.uip_ds6_notification_add
                0x000000000000b510       0x10 /usr/lib/gcc/i686-linux-gnu/4.8/../../../i386-linux-gnu/crti.o
 .rel.text.uip_ds6_notification_rm
                0x000000000000b520       0x10 /usr/lib/gcc/i686-linux-gnu/4.8/../../../i386-linux-gnu/crti.o
 .rel.text.uip_ds6_route_init
                0x000000000000b530       0x68 /usr/lib/gcc/i686-linux-gnu/4.8/../../../i386-linux-gnu/crti.o
 .rel.text.uip_ds6_route_nexthop_lladdr
                0x000000000000b598       0x10 /usr/lib/gcc/i686-linux-gnu/4.8/../../../i386-linux-gnu/crti.o
 .rel.text.uip_ds6_route_nexthop
                0x000000000000b5a8        0x8 /usr/lib/gcc/i686-linux-gnu/4.8/../../../i386-linux-gnu/crti.o
 .rel.text.uip_ds6_route_head
                0x000000000000b5b0       0x10 /usr/lib/gcc/i686-linux-gnu/4.8/../../../i386-linux-gnu/crti.o
 .rel.text.uip_ds6_route_next
                0x000000000000b5c0        0x8 /usr/lib/gcc/i686-linux-gnu/4.8/../../../i386-linux-gnu/crti.o
 .rel.text.uip_ds6_route_is_nexthop
                0x000000000000b5c8       0x18 /usr/lib/gcc/i686-linux-gnu/4.8/../../../i386-linux-gnu/crti.o
 .rel.text.uip_ds6_route_num_routes
                0x000000000000b5e0        0x8 /usr/lib/gcc/i686-linux-gnu/4.8/../../../i386-linux-gnu/crti.o
 .rel.text.uip_ds6_route_lookup
                0x000000000000b5e8       0x48 /usr/lib/gcc/i686-linux-gnu/4.8/../../../i386-linux-gnu/crti.o
 .rel.text.uip_ds6_route_add
                0x000000000000b630       0xd0 /usr/lib/gcc/i686-linux-gnu/4.8/../../../i386-linux-gnu/crti.o
 .rel.text.uip_ds6_route_rm
                0x000000000000b700       0x80 /usr/lib/gcc/i686-linux-gnu/4.8/../../../i386-linux-gnu/crti.o
 .rel.text.rm_routelist
                0x000000000000b780       0x28 /usr/lib/gcc/i686-linux-gnu/4.8/../../../i386-linux-gnu/crti.o
 .rel.text.uip_ds6_route_rm_by_nexthop
                0x000000000000b7a8       0x18 /usr/lib/gcc/i686-linux-gnu/4.8/../../../i386-linux-gnu/crti.o
 .rel.text.uip_ds6_defrt_head
                0x000000000000b7c0       0x10 /usr/lib/gcc/i686-linux-gnu/4.8/../../../i386-linux-gnu/crti.o
 .rel.text.uip_ds6_defrt_add
                0x000000000000b7d0       0x30 /usr/lib/gcc/i686-linux-gnu/4.8/../../../i386-linux-gnu/crti.o
 .rel.text.uip_ds6_defrt_rm
                0x000000000000b800       0x38 /usr/lib/gcc/i686-linux-gnu/4.8/../../../i386-linux-gnu/crti.o
 .rel.text.uip_ds6_defrt_lookup
                0x000000000000b838       0x20 /usr/lib/gcc/i686-linux-gnu/4.8/../../../i386-linux-gnu/crti.o
 .rel.text.uip_ds6_defrt_choose
                0x000000000000b858       0x20 /usr/lib/gcc/i686-linux-gnu/4.8/../../../i386-linux-gnu/crti.o
 .rel.text.uip_ds6_defrt_periodic
                0x000000000000b878       0x38 /usr/lib/gcc/i686-linux-gnu/4.8/../../../i386-linux-gnu/crti.o
 .rel.text.uip_ds6_init
                0x000000000000b8b0      0x180 /usr/lib/gcc/i686-linux-gnu/4.8/../../../i386-linux-gnu/crti.o
 .rel.text.uip_ds6_periodic
                0x000000000000ba30       0x80 /usr/lib/gcc/i686-linux-gnu/4.8/../../../i386-linux-gnu/crti.o
 .rel.text.uip_ds6_list_loop
                0x000000000000bab0        0x8 /usr/lib/gcc/i686-linux-gnu/4.8/../../../i386-linux-gnu/crti.o
 .rel.text.uip_ds6_prefix_add
                0x000000000000bab8       0x58 /usr/lib/gcc/i686-linux-gnu/4.8/../../../i386-linux-gnu/crti.o
 .rel.text.uip_ds6_prefix_lookup
                0x000000000000bb10       0x20 /usr/lib/gcc/i686-linux-gnu/4.8/../../../i386-linux-gnu/crti.o
 .rel.text.uip_ds6_is_addr_onlink
                0x000000000000bb30       0x50 /usr/lib/gcc/i686-linux-gnu/4.8/../../../i386-linux-gnu/crti.o
 .rel.text.uip_ds6_addr_add
                0x000000000000bb80       0xc8 /usr/lib/gcc/i686-linux-gnu/4.8/../../../i386-linux-gnu/crti.o
 .rel.text.uip_ds6_addr_rm
                0x000000000000bc48       0x88 /usr/lib/gcc/i686-linux-gnu/4.8/../../../i386-linux-gnu/crti.o
 .rel.text.uip_ds6_addr_lookup
                0x000000000000bcd0       0x20 /usr/lib/gcc/i686-linux-gnu/4.8/../../../i386-linux-gnu/crti.o
 .rel.text.uip_ds6_get_link_local
                0x000000000000bcf0       0x58 /usr/lib/gcc/i686-linux-gnu/4.8/../../../i386-linux-gnu/crti.o
 .rel.text.uip_ds6_get_global
                0x000000000000bd48       0x58 /usr/lib/gcc/i686-linux-gnu/4.8/../../../i386-linux-gnu/crti.o
 .rel.text.uip_ds6_maddr_add
                0x000000000000bda0       0x30 /usr/lib/gcc/i686-linux-gnu/4.8/../../../i386-linux-gnu/crti.o
 .rel.text.uip_ds6_maddr_lookup
                0x000000000000bdd0       0x20 /usr/lib/gcc/i686-linux-gnu/4.8/../../../i386-linux-gnu/crti.o
 .rel.text.uip_ds6_aaddr_add
                0x000000000000bdf0       0x30 /usr/lib/gcc/i686-linux-gnu/4.8/../../../i386-linux-gnu/crti.o
 .rel.text.uip_ds6_aaddr_lookup
                0x000000000000be20       0x20 /usr/lib/gcc/i686-linux-gnu/4.8/../../../i386-linux-gnu/crti.o
 .rel.text.uip_ds6_select_src
                0x000000000000be40       0x70 /usr/lib/gcc/i686-linux-gnu/4.8/../../../i386-linux-gnu/crti.o
 .rel.text.uip_ds6_set_addr_iid
                0x000000000000beb0        0x8 /usr/lib/gcc/i686-linux-gnu/4.8/../../../i386-linux-gnu/crti.o
 .rel.text.uip_ds6_compute_reachable_time
                0x000000000000beb8       0x30 /usr/lib/gcc/i686-linux-gnu/4.8/../../../i386-linux-gnu/crti.o
 .rel.text.extract_lladdr_from_llao_aligned
                0x000000000000bee8       0x18 /usr/lib/gcc/i686-linux-gnu/4.8/../../../i386-linux-gnu/crti.o
 .rel.text.create_llao
                0x000000000000bf00       0x18 /usr/lib/gcc/i686-linux-gnu/4.8/../../../i386-linux-gnu/crti.o
 .rel.text.ns_input
                0x000000000000bf18      0x388 /usr/lib/gcc/i686-linux-gnu/4.8/../../../i386-linux-gnu/crti.o
 .rel.text.uip_nd6_ns_output
                0x000000000000c2a0      0x1e8 /usr/lib/gcc/i686-linux-gnu/4.8/../../../i386-linux-gnu/crti.o
 .rel.text.na_input
                0x000000000000c488      0x280 /usr/lib/gcc/i686-linux-gnu/4.8/../../../i386-linux-gnu/crti.o
 .rel.text.uip_nd6_init
                0x000000000000c708       0x20 /usr/lib/gcc/i686-linux-gnu/4.8/../../../i386-linux-gnu/crti.o
 .rel.text.uip_add32
                0x000000000000c728       0x98 /usr/lib/gcc/i686-linux-gnu/4.8/../../../i386-linux-gnu/crti.o
 .rel.text.uip_chksum
                0x000000000000c7c0        0x8 /usr/lib/gcc/i686-linux-gnu/4.8/../../../i386-linux-gnu/crti.o
 .rel.text.upper_layer_chksum
                0x000000000000c7c8       0x38 /usr/lib/gcc/i686-linux-gnu/4.8/../../../i386-linux-gnu/crti.o
 .rel.text.uip_init
                0x000000000000c800       0x38 /usr/lib/gcc/i686-linux-gnu/4.8/../../../i386-linux-gnu/crti.o
 .rel.text.uip_connect
                0x000000000000c838       0x70 /usr/lib/gcc/i686-linux-gnu/4.8/../../../i386-linux-gnu/crti.o
 .rel.text.remove_ext_hdr
                0x000000000000c8a8       0x98 /usr/lib/gcc/i686-linux-gnu/4.8/../../../i386-linux-gnu/crti.o
 .rel.text.uip_udp_new
                0x000000000000c940       0x68 /usr/lib/gcc/i686-linux-gnu/4.8/../../../i386-linux-gnu/crti.o
 .rel.text.uip_unlisten
                0x000000000000c9a8       0x10 /usr/lib/gcc/i686-linux-gnu/4.8/../../../i386-linux-gnu/crti.o
 .rel.text.uip_listen
                0x000000000000c9b8       0x10 /usr/lib/gcc/i686-linux-gnu/4.8/../../../i386-linux-gnu/crti.o
 .rel.text.uip_add_rcv_nxt
                0x000000000000c9c8       0x50 /usr/lib/gcc/i686-linux-gnu/4.8/../../../i386-linux-gnu/crti.o
 .rel.text.ext_hdr_options_process
                0x000000000000ca18      0x108 /usr/lib/gcc/i686-linux-gnu/4.8/../../../i386-linux-gnu/crti.o
 .rel.text.uip_process
                0x000000000000cb20      0xf70 /usr/lib/gcc/i686-linux-gnu/4.8/../../../i386-linux-gnu/crti.o
 .rel.text.uip_send
                0x000000000000da90       0x60 /usr/lib/gcc/i686-linux-gnu/4.8/../../../i386-linux-gnu/crti.o
 .rel.text.dns_name_isequal
                0x000000000000daf0       0x10 /usr/lib/gcc/i686-linux-gnu/4.8/../../../i386-linux-gnu/crti.o
 .rel.text.mdns_announce_requested
                0x000000000000db00        0x8 /usr/lib/gcc/i686-linux-gnu/4.8/../../../i386-linux-gnu/crti.o
 .rel.text.start_name_collision_check
                0x000000000000db08       0x20 /usr/lib/gcc/i686-linux-gnu/4.8/../../../i386-linux-gnu/crti.o
 .rel.text.mdns_write_announce_records
                0x000000000000db28       0x28 /usr/lib/gcc/i686-linux-gnu/4.8/../../../i386-linux-gnu/crti.o
 .rel.text.mdns_prep_host_announce_packet
                0x000000000000db50       0x50 /usr/lib/gcc/i686-linux-gnu/4.8/../../../i386-linux-gnu/crti.o
 .rel.text.try_next_server
                0x000000000000dba0        0x8 /usr/lib/gcc/i686-linux-gnu/4.8/../../../i386-linux-gnu/crti.o
 .rel.text.check_entries
                0x000000000000dba8       0xc0 /usr/lib/gcc/i686-linux-gnu/4.8/../../../i386-linux-gnu/crti.o
 .rel.text.newdata
                0x000000000000dc68      0x180 /usr/lib/gcc/i686-linux-gnu/4.8/../../../i386-linux-gnu/crti.o
 .rel.text.resolv_set_hostname
                0x000000000000dde8       0x88 /usr/lib/gcc/i686-linux-gnu/4.8/../../../i386-linux-gnu/crti.o
 .rel.text.resolv_get_hostname
                0x000000000000de70        0x8 /usr/lib/gcc/i686-linux-gnu/4.8/../../../i386-linux-gnu/crti.o
 .rel.text.process_thread_mdns_probe_process
                0x000000000000de78       0x98 /usr/lib/gcc/i686-linux-gnu/4.8/../../../i386-linux-gnu/crti.o
 .rel.text.process_thread_resolv_process
                0x000000000000df10      0x130 /usr/lib/gcc/i686-linux-gnu/4.8/../../../i386-linux-gnu/crti.o
 .rel.text.remove_trailing_dots
                0x000000000000e040       0x30 /usr/lib/gcc/i686-linux-gnu/4.8/../../../i386-linux-gnu/crti.o
 .rel.text.resolv_query
                0x000000000000e070       0xb8 /usr/lib/gcc/i686-linux-gnu/4.8/../../../i386-linux-gnu/crti.o
 .rel.text.resolv_lookup
                0x000000000000e128       0x20 /usr/lib/gcc/i686-linux-gnu/4.8/../../../i386-linux-gnu/crti.o
 .rel.text.resolv_found
                0x000000000000e148       0xd8 /usr/lib/gcc/i686-linux-gnu/4.8/../../../i386-linux-gnu/crti.o
 .rel.text.tcpip_output
                0x000000000000e220       0x10 /usr/lib/gcc/i686-linux-gnu/4.8/../../../i386-linux-gnu/crti.o
 .rel.text.tcpip_set_outputfunc
                0x000000000000e230        0x8 /usr/lib/gcc/i686-linux-gnu/4.8/../../../i386-linux-gnu/crti.o
 .rel.text.start_periodic_tcp_timer
                0x000000000000e238       0x20 /usr/lib/gcc/i686-linux-gnu/4.8/../../../i386-linux-gnu/crti.o
 .rel.text.check_for_tcp_syn
                0x000000000000e258       0x10 /usr/lib/gcc/i686-linux-gnu/4.8/../../../i386-linux-gnu/crti.o
 .rel.text.packet_input
                0x000000000000e268       0x98 /usr/lib/gcc/i686-linux-gnu/4.8/../../../i386-linux-gnu/crti.o
 .rel.text.tcp_connect
                0x000000000000e300       0x18 /usr/lib/gcc/i686-linux-gnu/4.8/../../../i386-linux-gnu/crti.o
 .rel.text.tcp_unlisten
                0x000000000000e318       0x18 /usr/lib/gcc/i686-linux-gnu/4.8/../../../i386-linux-gnu/crti.o
 .rel.text.tcp_listen
                0x000000000000e330       0x18 /usr/lib/gcc/i686-linux-gnu/4.8/../../../i386-linux-gnu/crti.o
 .rel.text.tcp_attach
                0x000000000000e348        0x8 /usr/lib/gcc/i686-linux-gnu/4.8/../../../i386-linux-gnu/crti.o
 .rel.text.udp_attach
                0x000000000000e350        0x8 /usr/lib/gcc/i686-linux-gnu/4.8/../../../i386-linux-gnu/crti.o
 .rel.text.udp_new
                0x000000000000e358       0x10 /usr/lib/gcc/i686-linux-gnu/4.8/../../../i386-linux-gnu/crti.o
 .rel.text.udp_broadcast_new
                0x000000000000e368       0x10 /usr/lib/gcc/i686-linux-gnu/4.8/../../../i386-linux-gnu/crti.o
 .rel.text.eventhandler
                0x000000000000e378       0xd8 /usr/lib/gcc/i686-linux-gnu/4.8/../../../i386-linux-gnu/crti.o
 .rel.text.tcpip_input
                0x000000000000e450       0x20 /usr/lib/gcc/i686-linux-gnu/4.8/../../../i386-linux-gnu/crti.o
 .rel.text.tcpip_ipv6_output
                0x000000000000e470      0x290 /usr/lib/gcc/i686-linux-gnu/4.8/../../../i386-linux-gnu/crti.o
 .rel.text.tcpip_poll_udp
                0x000000000000e700       0x10 /usr/lib/gcc/i686-linux-gnu/4.8/../../../i386-linux-gnu/crti.o
 .rel.text.tcpip_poll_tcp
                0x000000000000e710       0x10 /usr/lib/gcc/i686-linux-gnu/4.8/../../../i386-linux-gnu/crti.o
 .rel.text.tcpip_uipcall
                0x000000000000e720       0x40 /usr/lib/gcc/i686-linux-gnu/4.8/../../../i386-linux-gnu/crti.o
 .rel.text.process_thread_tcpip_process
                0x000000000000e760       0x48 /usr/lib/gcc/i686-linux-gnu/4.8/../../../i386-linux-gnu/crti.o
 .rel.text.uip_debug_ipaddr_print
                0x000000000000e7a8       0x50 /usr/lib/gcc/i686-linux-gnu/4.8/../../../i386-linux-gnu/crti.o
 .rel.text.uip_nameserver_update
                0x000000000000e7f8       0x28 /usr/lib/gcc/i686-linux-gnu/4.8/../../../i386-linux-gnu/crti.o
 .rel.text.uip_nameserver_get
                0x000000000000e820        0x8 /usr/lib/gcc/i686-linux-gnu/4.8/../../../i386-linux-gnu/crti.o
 .rel.text.uip_nameserver_next_expiration
                0x000000000000e828        0x8 /usr/lib/gcc/i686-linux-gnu/4.8/../../../i386-linux-gnu/crti.o
 .rel.text.uip_nameserver_count
                0x000000000000e830       0x40 /usr/lib/gcc/i686-linux-gnu/4.8/../../../i386-linux-gnu/crti.o
 .rel.text.packet_timedout
                0x000000000000e870       0x10 /usr/lib/gcc/i686-linux-gnu/4.8/../../../i386-linux-gnu/crti.o
 .rel.text.uip_packetqueue_alloc
                0x000000000000e880       0x20 /usr/lib/gcc/i686-linux-gnu/4.8/../../../i386-linux-gnu/crti.o
 .rel.text.uip_packetqueue_free
                0x000000000000e8a0       0x18 /usr/lib/gcc/i686-linux-gnu/4.8/../../../i386-linux-gnu/crti.o
 .rel.text.uip_udp_packet_send
                0x000000000000e8b8       0x38 /usr/lib/gcc/i686-linux-gnu/4.8/../../../i386-linux-gnu/crti.o
 .rel.text.uip_udp_packet_sendto
                0x000000000000e8f0       0x10 /usr/lib/gcc/i686-linux-gnu/4.8/../../../i386-linux-gnu/crti.o
 .rel.text.rpl_print_neighbor_list
                0x000000000000e900       0xc8 /usr/lib/gcc/i686-linux-gnu/4.8/../../../i386-linux-gnu/crti.o
 .rel.text.rpl_get_nbr
                0x000000000000e9c8       0x18 /usr/lib/gcc/i686-linux-gnu/4.8/../../../i386-linux-gnu/crti.o
 .rel.text.nbr_callback
                0x000000000000e9e0        0x8 /usr/lib/gcc/i686-linux-gnu/4.8/../../../i386-linux-gnu/crti.o
 .rel.text.rpl_dag_init
                0x000000000000e9e8       0x18 /usr/lib/gcc/i686-linux-gnu/4.8/../../../i386-linux-gnu/crti.o
 .rel.text.rpl_get_parent
                0x000000000000ea00       0x10 /usr/lib/gcc/i686-linux-gnu/4.8/../../../i386-linux-gnu/crti.o
 .rel.text.rpl_get_parent_rank
                0x000000000000ea10       0x10 /usr/lib/gcc/i686-linux-gnu/4.8/../../../i386-linux-gnu/crti.o
 .rel.text.rpl_get_parent_lladdr
                0x000000000000ea20       0x10 /usr/lib/gcc/i686-linux-gnu/4.8/../../../i386-linux-gnu/crti.o
 .rel.text.rpl_get_parent_ipaddr
                0x000000000000ea30       0x10 /usr/lib/gcc/i686-linux-gnu/4.8/../../../i386-linux-gnu/crti.o
 .rel.text.rpl_get_parent_link_stats
                0x000000000000ea40       0x10 /usr/lib/gcc/i686-linux-gnu/4.8/../../../i386-linux-gnu/crti.o
 .rel.text.rpl_parent_is_fresh
                0x000000000000ea50       0x10 /usr/lib/gcc/i686-linux-gnu/4.8/../../../i386-linux-gnu/crti.o
 .rel.text.rpl_parent_is_reachable
                0x000000000000ea60       0x10 /usr/lib/gcc/i686-linux-gnu/4.8/../../../i386-linux-gnu/crti.o
 .rel.text.rpl_set_preferred_parent
                0x000000000000ea70       0x20 /usr/lib/gcc/i686-linux-gnu/4.8/../../../i386-linux-gnu/crti.o
 .rel.text.remove_parents
                0x000000000000ea90       0x28 /usr/lib/gcc/i686-linux-gnu/4.8/../../../i386-linux-gnu/crti.o
 .rel.text.nullify_parents
                0x000000000000eab8       0x28 /usr/lib/gcc/i686-linux-gnu/4.8/../../../i386-linux-gnu/crti.o
 .rel.text.get_dag
                0x000000000000eae0       0x10 /usr/lib/gcc/i686-linux-gnu/4.8/../../../i386-linux-gnu/crti.o
 .rel.text.rpl_set_root
                0x000000000000eaf0       0x48 /usr/lib/gcc/i686-linux-gnu/4.8/../../../i386-linux-gnu/crti.o
 .rel.text.rpl_repair_root
                0x000000000000eb38       0x10 /usr/lib/gcc/i686-linux-gnu/4.8/../../../i386-linux-gnu/crti.o
 .rel.text.set_ip_from_prefix
                0x000000000000eb48       0x20 /usr/lib/gcc/i686-linux-gnu/4.8/../../../i386-linux-gnu/crti.o
 .rel.text.check_prefix
                0x000000000000eb68       0x30 /usr/lib/gcc/i686-linux-gnu/4.8/../../../i386-linux-gnu/crti.o
 .rel.text.rpl_set_prefix
                0x000000000000eb98       0x20 /usr/lib/gcc/i686-linux-gnu/4.8/../../../i386-linux-gnu/crti.o
 .rel.text.rpl_set_default_route
                0x000000000000ebb8       0x10 /usr/lib/gcc/i686-linux-gnu/4.8/../../../i386-linux-gnu/crti.o
 .rel.text.rpl_alloc_instance
                0x000000000000ebc8       0x18 /usr/lib/gcc/i686-linux-gnu/4.8/../../../i386-linux-gnu/crti.o
 .rel.text.rpl_alloc_dag
                0x000000000000ebe0       0x18 /usr/lib/gcc/i686-linux-gnu/4.8/../../../i386-linux-gnu/crti.o
 .rel.text.rpl_set_default_instance
                0x000000000000ebf8        0x8 /usr/lib/gcc/i686-linux-gnu/4.8/../../../i386-linux-gnu/crti.o
 .rel.text.rpl_get_default_instance
                0x000000000000ec00        0x8 /usr/lib/gcc/i686-linux-gnu/4.8/../../../i386-linux-gnu/crti.o
 .rel.text.rpl_free_instance
                0x000000000000ec08       0x40 /usr/lib/gcc/i686-linux-gnu/4.8/../../../i386-linux-gnu/crti.o
 .rel.text.rpl_free_dag
                0x000000000000ec48        0x8 /usr/lib/gcc/i686-linux-gnu/4.8/../../../i386-linux-gnu/crti.o
 .rel.text.rpl_add_parent
                0x000000000000ec50       0x18 /usr/lib/gcc/i686-linux-gnu/4.8/../../../i386-linux-gnu/crti.o
 .rel.text.find_parent_any_dag_any_instance
                0x000000000000ec68       0x20 /usr/lib/gcc/i686-linux-gnu/4.8/../../../i386-linux-gnu/crti.o
 .rel.text.rpl_select_dag
                0x000000000000ec88       0x48 /usr/lib/gcc/i686-linux-gnu/4.8/../../../i386-linux-gnu/crti.o
 .rel.text.best_parent
                0x000000000000ecd0       0x30 /usr/lib/gcc/i686-linux-gnu/4.8/../../../i386-linux-gnu/crti.o
 .rel.text.rpl_select_parent
                0x000000000000ed00       0x18 /usr/lib/gcc/i686-linux-gnu/4.8/../../../i386-linux-gnu/crti.o
 .rel.text.rpl_remove_parent
                0x000000000000ed18       0x18 /usr/lib/gcc/i686-linux-gnu/4.8/../../../i386-linux-gnu/crti.o
 .rel.text.rpl_nullify_parent
                0x000000000000ed30       0x10 /usr/lib/gcc/i686-linux-gnu/4.8/../../../i386-linux-gnu/crti.o
 .rel.text.rpl_move_parent
                0x000000000000ed40       0x18 /usr/lib/gcc/i686-linux-gnu/4.8/../../../i386-linux-gnu/crti.o
 .rel.text.rpl_has_downward_route
                0x000000000000ed58       0x10 /usr/lib/gcc/i686-linux-gnu/4.8/../../../i386-linux-gnu/crti.o
 .rel.text.rpl_get_dag
                0x000000000000ed68       0x30 /usr/lib/gcc/i686-linux-gnu/4.8/../../../i386-linux-gnu/crti.o
 .rel.text.rpl_get_any_dag
                0x000000000000ed98       0x18 /usr/lib/gcc/i686-linux-gnu/4.8/../../../i386-linux-gnu/crti.o
 .rel.text.rpl_get_instance
                0x000000000000edb0       0x18 /usr/lib/gcc/i686-linux-gnu/4.8/../../../i386-linux-gnu/crti.o
 .rel.text.rpl_find_of
                0x000000000000edc8       0x10 /usr/lib/gcc/i686-linux-gnu/4.8/../../../i386-linux-gnu/crti.o
 .rel.text.rpl_join_instance
                0x000000000000edd8       0x58 /usr/lib/gcc/i686-linux-gnu/4.8/../../../i386-linux-gnu/crti.o
 .rel.text.rpl_add_dag
                0x000000000000ee30       0x50 /usr/lib/gcc/i686-linux-gnu/4.8/../../../i386-linux-gnu/crti.o
 .rel.text.global_repair
                0x000000000000ee80       0x18 /usr/lib/gcc/i686-linux-gnu/4.8/../../../i386-linux-gnu/crti.o
 .rel.text.rpl_local_repair
                0x000000000000ee98        0x8 /usr/lib/gcc/i686-linux-gnu/4.8/../../../i386-linux-gnu/crti.o
 .rel.text.rpl_recalculate_ranks
                0x000000000000eea0       0x28 /usr/lib/gcc/i686-linux-gnu/4.8/../../../i386-linux-gnu/crti.o
 .rel.text.rpl_process_parent_event
                0x000000000000eec8       0x40 /usr/lib/gcc/i686-linux-gnu/4.8/../../../i386-linux-gnu/crti.o
 .rel.text.add_nbr_from_dio
                0x000000000000ef08        0x8 /usr/lib/gcc/i686-linux-gnu/4.8/../../../i386-linux-gnu/crti.o
 .rel.text.rpl_process_dio
                0x000000000000ef10       0x78 /usr/lib/gcc/i686-linux-gnu/4.8/../../../i386-linux-gnu/crti.o
 .rel.text.rpl_verify_hbh_header
                0x000000000000ef88      0x108 /usr/lib/gcc/i686-linux-gnu/4.8/../../../i386-linux-gnu/crti.o
 .rel.text.update_hbh_header
                0x000000000000f090      0x138 /usr/lib/gcc/i686-linux-gnu/4.8/../../../i386-linux-gnu/crti.o
 .rel.text.insert_hbh_header
                0x000000000000f1c8      0x128 /usr/lib/gcc/i686-linux-gnu/4.8/../../../i386-linux-gnu/crti.o
 .rel.text.rpl_remove_header
                0x000000000000f2f0       0xc8 /usr/lib/gcc/i686-linux-gnu/4.8/../../../i386-linux-gnu/crti.o
 .rel.text.rpl_update_header
                0x000000000000f3b8       0x80 /usr/lib/gcc/i686-linux-gnu/4.8/../../../i386-linux-gnu/crti.o
 .rel.text.prepare_for_dao_fwd
                0x000000000000f438       0x38 /usr/lib/gcc/i686-linux-gnu/4.8/../../../i386-linux-gnu/crti.o
 .rel.text.get_global_addr
                0x000000000000f470       0x30 /usr/lib/gcc/i686-linux-gnu/4.8/../../../i386-linux-gnu/crti.o
 .rel.text.rpl_icmp6_update_nbr_table
                0x000000000000f4a0       0x10 /usr/lib/gcc/i686-linux-gnu/4.8/../../../i386-linux-gnu/crti.o
 .rel.text.dis_input
                0x000000000000f4b0       0x48 /usr/lib/gcc/i686-linux-gnu/4.8/../../../i386-linux-gnu/crti.o
 .rel.text.dis_output
                0x000000000000f4f8       0x20 /usr/lib/gcc/i686-linux-gnu/4.8/../../../i386-linux-gnu/crti.o
 .rel.text.dio_input
                0x000000000000f518       0x58 /usr/lib/gcc/i686-linux-gnu/4.8/../../../i386-linux-gnu/crti.o
 .rel.text.dio_output
                0x000000000000f570       0x40 /usr/lib/gcc/i686-linux-gnu/4.8/../../../i386-linux-gnu/crti.o
 .rel.text.dao_input_storing
                0x000000000000f5b0      0x120 /usr/lib/gcc/i686-linux-gnu/4.8/../../../i386-linux-gnu/crti.o
 .rel.text.dao_input
                0x000000000000f6d0       0x28 /usr/lib/gcc/i686-linux-gnu/4.8/../../../i386-linux-gnu/crti.o
 .rel.text.dao_output
                0x000000000000f6f8       0x38 /usr/lib/gcc/i686-linux-gnu/4.8/../../../i386-linux-gnu/crti.o
 .rel.text.dao_output_target
                0x000000000000f730        0x8 /usr/lib/gcc/i686-linux-gnu/4.8/../../../i386-linux-gnu/crti.o
 .rel.text.dao_output_target_seq
                0x000000000000f738       0x48 /usr/lib/gcc/i686-linux-gnu/4.8/../../../i386-linux-gnu/crti.o
 .rel.text.dao_ack_input
                0x000000000000f780       0x10 /usr/lib/gcc/i686-linux-gnu/4.8/../../../i386-linux-gnu/crti.o
 .rel.text.rpl_icmp6_register_handlers
                0x000000000000f790       0x40 /usr/lib/gcc/i686-linux-gnu/4.8/../../../i386-linux-gnu/crti.o
 .rel.text.parent_link_metric
                0x000000000000f7d0        0x8 /usr/lib/gcc/i686-linux-gnu/4.8/../../../i386-linux-gnu/crti.o
 .rel.text.handle_periodic_timer
                0x000000000000f7d8       0x68 /usr/lib/gcc/i686-linux-gnu/4.8/../../../i386-linux-gnu/crti.o
 .rel.text.new_dio_interval
                0x000000000000f840       0x18 /usr/lib/gcc/i686-linux-gnu/4.8/../../../i386-linux-gnu/crti.o
 .rel.text.handle_dio_timer
                0x000000000000f858       0x40 /usr/lib/gcc/i686-linux-gnu/4.8/../../../i386-linux-gnu/crti.o
 .rel.text.rpl_reset_periodic_timer
                0x000000000000f898       0x28 /usr/lib/gcc/i686-linux-gnu/4.8/../../../i386-linux-gnu/crti.o
 .rel.text.set_dao_lifetime_timer
                0x000000000000f8c0       0x20 /usr/lib/gcc/i686-linux-gnu/4.8/../../../i386-linux-gnu/crti.o
 .rel.text.handle_dao_timer
                0x000000000000f8e0       0x38 /usr/lib/gcc/i686-linux-gnu/4.8/../../../i386-linux-gnu/crti.o
 .rel.text.schedule_dao
                0x000000000000f918       0x30 /usr/lib/gcc/i686-linux-gnu/4.8/../../../i386-linux-gnu/crti.o
 .rel.text.rpl_cancel_dao
                0x000000000000f948       0x10 /usr/lib/gcc/i686-linux-gnu/4.8/../../../i386-linux-gnu/crti.o
 .rel.text.handle_unicast_dio_timer
                0x000000000000f958       0x10 /usr/lib/gcc/i686-linux-gnu/4.8/../../../i386-linux-gnu/crti.o
 .rel.text.rpl_schedule_unicast_dio_immediately
                0x000000000000f968       0x10 /usr/lib/gcc/i686-linux-gnu/4.8/../../../i386-linux-gnu/crti.o
 .rel.text.get_probing_delay
                0x000000000000f978       0x10 /usr/lib/gcc/i686-linux-gnu/4.8/../../../i386-linux-gnu/crti.o
 .rel.text.get_probing_target
                0x000000000000f988       0x70 /usr/lib/gcc/i686-linux-gnu/4.8/../../../i386-linux-gnu/crti.o
 .rel.text.handle_probing_timer
                0x000000000000f9f8       0x28 /usr/lib/gcc/i686-linux-gnu/4.8/../../../i386-linux-gnu/crti.o
 .rel.text.rpl_schedule_probing
                0x000000000000fa20       0x18 /usr/lib/gcc/i686-linux-gnu/4.8/../../../i386-linux-gnu/crti.o
 .rel.text.rpl_get_mode
                0x000000000000fa38        0x8 /usr/lib/gcc/i686-linux-gnu/4.8/../../../i386-linux-gnu/crti.o
 .rel.text.rpl_set_mode
                0x000000000000fa40       0x68 /usr/lib/gcc/i686-linux-gnu/4.8/../../../i386-linux-gnu/crti.o
 .rel.text.rpl_purge_routes
                0x000000000000faa8       0x50 /usr/lib/gcc/i686-linux-gnu/4.8/../../../i386-linux-gnu/crti.o
 .rel.text.rpl_remove_routes
                0x000000000000faf8       0x20 /usr/lib/gcc/i686-linux-gnu/4.8/../../../i386-linux-gnu/crti.o
 .rel.text.rpl_remove_routes_by_nexthop
                0x000000000000fb18       0x20 /usr/lib/gcc/i686-linux-gnu/4.8/../../../i386-linux-gnu/crti.o
 .rel.text.rpl_add_route
                0x000000000000fb38        0x8 /usr/lib/gcc/i686-linux-gnu/4.8/../../../i386-linux-gnu/crti.o
 .rel.text.rpl_link_neighbor_callback
                0x000000000000fb40       0x20 /usr/lib/gcc/i686-linux-gnu/4.8/../../../i386-linux-gnu/crti.o
 .rel.text.rpl_ipv6_neighbor_callback
                0x000000000000fb60       0x10 /usr/lib/gcc/i686-linux-gnu/4.8/../../../i386-linux-gnu/crti.o
 .rel.text.rpl_purge_dags
                0x000000000000fb70       0x10 /usr/lib/gcc/i686-linux-gnu/4.8/../../../i386-linux-gnu/crti.o
 .rel.text.rpl_init
                0x000000000000fb80       0x30 /usr/lib/gcc/i686-linux-gnu/4.8/../../../i386-linux-gnu/crti.o
 .rel.text.link_stats_from_lladdr
                0x000000000000fbb0       0x10 /usr/lib/gcc/i686-linux-gnu/4.8/../../../i386-linux-gnu/crti.o
 .rel.text.link_stats_is_fresh
                0x000000000000fbc0        0x8 /usr/lib/gcc/i686-linux-gnu/4.8/../../../i386-linux-gnu/crti.o
 .rel.text.link_stats_packet_sent
                0x000000000000fbc8       0x30 /usr/lib/gcc/i686-linux-gnu/4.8/../../../i386-linux-gnu/crti.o
 .rel.text.link_stats_input_callback
                0x000000000000fbf8       0x20 /usr/lib/gcc/i686-linux-gnu/4.8/../../../i386-linux-gnu/crti.o
 .rel.text.periodic
                0x000000000000fc18       0x30 /usr/lib/gcc/i686-linux-gnu/4.8/../../../i386-linux-gnu/crti.o
 .rel.text.link_stats_init
                0x000000000000fc48       0x28 /usr/lib/gcc/i686-linux-gnu/4.8/../../../i386-linux-gnu/crti.o
 .rel.text.linkaddr_copy
                0x000000000000fc70        0x8 /usr/lib/gcc/i686-linux-gnu/4.8/../../../i386-linux-gnu/crti.o
 .rel.text.linkaddr_cmp
                0x000000000000fc78        0x8 /usr/lib/gcc/i686-linux-gnu/4.8/../../../i386-linux-gnu/crti.o
 .rel.text.linkaddr_set_node_addr
                0x000000000000fc80       0x10 /usr/lib/gcc/i686-linux-gnu/4.8/../../../i386-linux-gnu/crti.o
 .rel.text.key_from_index
                0x000000000000fc90        0x8 /usr/lib/gcc/i686-linux-gnu/4.8/../../../i386-linux-gnu/crti.o
 .rel.text.index_from_key
                0x000000000000fc98        0x8 /usr/lib/gcc/i686-linux-gnu/4.8/../../../i386-linux-gnu/crti.o
 .rel.text.index_from_lladdr
                0x000000000000fca0       0x28 /usr/lib/gcc/i686-linux-gnu/4.8/../../../i386-linux-gnu/crti.o
 .rel.text.remove_key
                0x000000000000fcc8       0x48 /usr/lib/gcc/i686-linux-gnu/4.8/../../../i386-linux-gnu/crti.o
 .rel.text.nbr_table_allocate
                0x000000000000fd10       0x50 /usr/lib/gcc/i686-linux-gnu/4.8/../../../i386-linux-gnu/crti.o
 .rel.text.nbr_table_register
                0x000000000000fd60       0x20 /usr/lib/gcc/i686-linux-gnu/4.8/../../../i386-linux-gnu/crti.o
 .rel.text.nbr_table_head
                0x000000000000fd80       0x20 /usr/lib/gcc/i686-linux-gnu/4.8/../../../i386-linux-gnu/crti.o
 .rel.text.nbr_table_next
                0x000000000000fda0       0x10 /usr/lib/gcc/i686-linux-gnu/4.8/../../../i386-linux-gnu/crti.o
 .rel.text.nbr_table_add_lladdr
                0x000000000000fdb0       0x30 /usr/lib/gcc/i686-linux-gnu/4.8/../../../i386-linux-gnu/crti.o
 .rel.text.nbr_table_get_from_lladdr
                0x000000000000fde0        0x8 /usr/lib/gcc/i686-linux-gnu/4.8/../../../i386-linux-gnu/crti.o
 .rel.text.nbr_table_remove
                0x000000000000fde8       0x10 /usr/lib/gcc/i686-linux-gnu/4.8/../../../i386-linux-gnu/crti.o
 .rel.text.nbr_table_lock
                0x000000000000fdf8        0x8 /usr/lib/gcc/i686-linux-gnu/4.8/../../../i386-linux-gnu/crti.o
 .rel.text.nbr_table_unlock
                0x000000000000fe00        0x8 /usr/lib/gcc/i686-linux-gnu/4.8/../../../i386-linux-gnu/crti.o
 .rel.text.nbr_table_update_lladdr
                0x000000000000fe08        0x8 /usr/lib/gcc/i686-linux-gnu/4.8/../../../i386-linux-gnu/crti.o
 .rel.text.netstack_init
                0x000000000000fe10       0x28 /usr/lib/gcc/i686-linux-gnu/4.8/../../../i386-linux-gnu/crti.o
 .rel.text.packetbuf_clear
                0x000000000000fe38       0x28 /usr/lib/gcc/i686-linux-gnu/4.8/../../../i386-linux-gnu/crti.o
 .rel.text.packetbuf_copyfrom
                0x000000000000fe60       0x20 /usr/lib/gcc/i686-linux-gnu/4.8/../../../i386-linux-gnu/crti.o
 .rel.text.packetbuf_compact
                0x000000000000fe80       0x38 /usr/lib/gcc/i686-linux-gnu/4.8/../../../i386-linux-gnu/crti.o
 .rel.text.packetbuf_copyto
                0x000000000000feb8       0x58 /usr/lib/gcc/i686-linux-gnu/4.8/../../../i386-linux-gnu/crti.o
 .rel.text.packetbuf_hdralloc
                0x000000000000ff10       0x30 /usr/lib/gcc/i686-linux-gnu/4.8/../../../i386-linux-gnu/crti.o
 .rel.text.packetbuf_hdrreduce
                0x000000000000ff40       0x28 /usr/lib/gcc/i686-linux-gnu/4.8/../../../i386-linux-gnu/crti.o
 .rel.text.packetbuf_set_datalen
                0x000000000000ff68        0x8 /usr/lib/gcc/i686-linux-gnu/4.8/../../../i386-linux-gnu/crti.o
 .rel.text.packetbuf_dataptr
                0x000000000000ff70       0x10 /usr/lib/gcc/i686-linux-gnu/4.8/../../../i386-linux-gnu/crti.o
 .rel.text.packetbuf_hdrptr
                0x000000000000ff80        0x8 /usr/lib/gcc/i686-linux-gnu/4.8/../../../i386-linux-gnu/crti.o
 .rel.text.packetbuf_datalen
                0x000000000000ff88        0x8 /usr/lib/gcc/i686-linux-gnu/4.8/../../../i386-linux-gnu/crti.o
 .rel.text.packetbuf_hdrlen
                0x000000000000ff90       0x10 /usr/lib/gcc/i686-linux-gnu/4.8/../../../i386-linux-gnu/crti.o
 .rel.text.packetbuf_totlen
                0x000000000000ffa0       0x10 /usr/lib/gcc/i686-linux-gnu/4.8/../../../i386-linux-gnu/crti.o
 .rel.text.packetbuf_remaininglen
                0x000000000000ffb0        0x8 /usr/lib/gcc/i686-linux-gnu/4.8/../../../i386-linux-gnu/crti.o
 .rel.text.packetbuf_attr_clear
                0x000000000000ffb8       0x28 /usr/lib/gcc/i686-linux-gnu/4.8/../../../i386-linux-gnu/crti.o
 .rel.text.packetbuf_attr_copyto
                0x000000000000ffe0       0x30 /usr/lib/gcc/i686-linux-gnu/4.8/../../../i386-linux-gnu/crti.o
 .rel.text.packetbuf_attr_copyfrom
                0x0000000000010010       0x30 /usr/lib/gcc/i686-linux-gnu/4.8/../../../i386-linux-gnu/crti.o
 .rel.text.packetbuf_holds_broadcast
                0x0000000000010040       0x18 /usr/lib/gcc/i686-linux-gnu/4.8/../../../i386-linux-gnu/crti.o
 .rel.text.queuebuf_init
                0x0000000000010058       0x20 /usr/lib/gcc/i686-linux-gnu/4.8/../../../i386-linux-gnu/crti.o
 .rel.text.queuebuf_numfree
                0x0000000000010078       0x10 /usr/lib/gcc/i686-linux-gnu/4.8/../../../i386-linux-gnu/crti.o
 .rel.text.queuebuf_new_from_packetbuf
                0x0000000000010088       0x40 /usr/lib/gcc/i686-linux-gnu/4.8/../../../i386-linux-gnu/crti.o
 .rel.text.queuebuf_update_attr_from_packetbuf
                0x00000000000100c8        0x8 /usr/lib/gcc/i686-linux-gnu/4.8/../../../i386-linux-gnu/crti.o
 .rel.text.queuebuf_update_from_packetbuf
                0x00000000000100d0       0x10 /usr/lib/gcc/i686-linux-gnu/4.8/../../../i386-linux-gnu/crti.o
 .rel.text.queuebuf_free
                0x00000000000100e0       0x30 /usr/lib/gcc/i686-linux-gnu/4.8/../../../i386-linux-gnu/crti.o
 .rel.text.queuebuf_to_packetbuf
                0x0000000000010110       0x20 /usr/lib/gcc/i686-linux-gnu/4.8/../../../i386-linux-gnu/crti.o
 .rel.text.queuebuf_dataptr
                0x0000000000010130       0x10 /usr/lib/gcc/i686-linux-gnu/4.8/../../../i386-linux-gnu/crti.o
 .rel.text.neighbor_queue_from_addr
                0x0000000000010140       0x20 /usr/lib/gcc/i686-linux-gnu/4.8/../../../i386-linux-gnu/crti.o
 .rel.text.backoff_period
                0x0000000000010160        0x8 /usr/lib/gcc/i686-linux-gnu/4.8/../../../i386-linux-gnu/crti.o
 .rel.text.transmit_packet_list
                0x0000000000010168       0x18 /usr/lib/gcc/i686-linux-gnu/4.8/../../../i386-linux-gnu/crti.o
 .rel.text.schedule_transmission
                0x0000000000010180       0x18 /usr/lib/gcc/i686-linux-gnu/4.8/../../../i386-linux-gnu/crti.o
 .rel.text.free_packet
                0x0000000000010198       0x60 /usr/lib/gcc/i686-linux-gnu/4.8/../../../i386-linux-gnu/crti.o
 .rel.text.tx_done
                0x00000000000101f8        0x8 /usr/lib/gcc/i686-linux-gnu/4.8/../../../i386-linux-gnu/crti.o
 .rel.text.rexmit
                0x0000000000010200        0x8 /usr/lib/gcc/i686-linux-gnu/4.8/../../../i386-linux-gnu/crti.o
 .rel.text.input_packet
                0x0000000000010208        0x8 /usr/lib/gcc/i686-linux-gnu/4.8/../../../i386-linux-gnu/crti.o
 .rel.text.on   0x0000000000010210       0x10 /usr/lib/gcc/i686-linux-gnu/4.8/../../../i386-linux-gnu/crti.o
 .rel.text.off  0x0000000000010220       0x18 /usr/lib/gcc/i686-linux-gnu/4.8/../../../i386-linux-gnu/crti.o
 .rel.text.channel_check_interval
                0x0000000000010238       0x10 /usr/lib/gcc/i686-linux-gnu/4.8/../../../i386-linux-gnu/crti.o
 .rel.text.create_frame
                0x0000000000010248       0xc0 /usr/lib/gcc/i686-linux-gnu/4.8/../../../i386-linux-gnu/crti.o
 .rel.text.parse
                0x0000000000010308       0x38 /usr/lib/gcc/i686-linux-gnu/4.8/../../../i386-linux-gnu/crti.o
 .rel.text.send_one_packet
                0x0000000000010340       0xd0 /usr/lib/gcc/i686-linux-gnu/4.8/../../../i386-linux-gnu/crti.o
 .rel.text.send_list
                0x0000000000010410        0x8 /usr/lib/gcc/i686-linux-gnu/4.8/../../../i386-linux-gnu/crti.o
 .rel.text.send
                0x0000000000010418        0x8 /usr/lib/gcc/i686-linux-gnu/4.8/../../../i386-linux-gnu/crti.o
 .rel.text.stimer_set
                0x0000000000010420        0x8 /usr/lib/gcc/i686-linux-gnu/4.8/../../../i386-linux-gnu/crti.o
 .rel.text.stimer_restart
                0x0000000000010428        0x8 /usr/lib/gcc/i686-linux-gnu/4.8/../../../i386-linux-gnu/crti.o
 .rel.text.stimer_expired
                0x0000000000010430        0x8 /usr/lib/gcc/i686-linux-gnu/4.8/../../../i386-linux-gnu/crti.o
 .rel.text.stimer_remaining
                0x0000000000010438        0x8 /usr/lib/gcc/i686-linux-gnu/4.8/../../../i386-linux-gnu/crti.o
 .rel.text.stimer_elapsed
                0x0000000000010440        0x8 /usr/lib/gcc/i686-linux-gnu/4.8/../../../i386-linux-gnu/crti.o
 .rel.text.input_handler_lookup
                0x0000000000010448       0x18 /usr/lib/gcc/i686-linux-gnu/4.8/../../../i386-linux-gnu/crti.o
 .rel.text.uip_icmp6_register_input_handler
                0x0000000000010460       0x10 /usr/lib/gcc/i686-linux-gnu/4.8/../../../i386-linux-gnu/crti.o
 .rel.text.echo_request_input
                0x0000000000010470      0x160 /usr/lib/gcc/i686-linux-gnu/4.8/../../../i386-linux-gnu/crti.o
 .rel.text.uip_icmp6_error_output
                0x00000000000105d0      0x250 /usr/lib/gcc/i686-linux-gnu/4.8/../../../i386-linux-gnu/crti.o
 .rel.text.uip_icmp6_send
                0x0000000000010820       0xc0 /usr/lib/gcc/i686-linux-gnu/4.8/../../../i386-linux-gnu/crti.o
 .rel.text.echo_reply_input
                0x00000000000108e0       0xd0 /usr/lib/gcc/i686-linux-gnu/4.8/../../../i386-linux-gnu/crti.o
 .rel.text.uip_icmp6_echo_reply_callback_add
                0x00000000000109b0       0x10 /usr/lib/gcc/i686-linux-gnu/4.8/../../../i386-linux-gnu/crti.o
 .rel.text.uip_icmp6_echo_reply_callback_rm
                0x00000000000109c0       0x10 /usr/lib/gcc/i686-linux-gnu/4.8/../../../i386-linux-gnu/crti.o
 .rel.text.uip_icmp6_init
                0x00000000000109d0       0x20 /usr/lib/gcc/i686-linux-gnu/4.8/../../../i386-linux-gnu/crti.o
 .rel.text.update_nbr
                0x00000000000109f0       0xe0 /usr/lib/gcc/i686-linux-gnu/4.8/../../../i386-linux-gnu/crti.o
 .rel.text.find_removable_dis
                0x0000000000010ad0       0x10 /usr/lib/gcc/i686-linux-gnu/4.8/../../../i386-linux-gnu/crti.o
 .rel.text.find_removable_dio
                0x0000000000010ae0       0x18 /usr/lib/gcc/i686-linux-gnu/4.8/../../../i386-linux-gnu/crti.o
 .rel.text.find_removable_dao
                0x0000000000010af8       0x10 /usr/lib/gcc/i686-linux-gnu/4.8/../../../i386-linux-gnu/crti.o
 .rel.text.rpl_nbr_policy_find_removable
                0x0000000000010b08       0x30 /usr/lib/gcc/i686-linux-gnu/4.8/../../../i386-linux-gnu/crti.o
 .rel.text.frame802154_get_pan_id
                0x0000000000010b38        0x8 /usr/lib/gcc/i686-linux-gnu/4.8/../../../i386-linux-gnu/crti.o
 .rel.text.frame802154_set_pan_id
                0x0000000000010b40        0x8 /usr/lib/gcc/i686-linux-gnu/4.8/../../../i386-linux-gnu/crti.o
 .rel.text.frame802154_check_dest_panid
                0x0000000000010b48       0x10 /usr/lib/gcc/i686-linux-gnu/4.8/../../../i386-linux-gnu/crti.o
 .rel.text.frame802154_extract_linkaddr
                0x0000000000010b58       0x40 /usr/lib/gcc/i686-linux-gnu/4.8/../../../i386-linux-gnu/crti.o
 .rel.text.field_len
                0x0000000000010b98       0x10 /usr/lib/gcc/i686-linux-gnu/4.8/../../../i386-linux-gnu/crti.o
 .rel.text.frame802154_create
                0x0000000000010ba8        0x8 /usr/lib/gcc/i686-linux-gnu/4.8/../../../i386-linux-gnu/crti.o
 .rel.text.frame802154_parse
                0x0000000000010bb0       0x50 /usr/lib/gcc/i686-linux-gnu/4.8/../../../i386-linux-gnu/crti.o
 .rel.text.mac_sequence_is_duplicate
                0x0000000000010c00       0x28 /usr/lib/gcc/i686-linux-gnu/4.8/../../../i386-linux-gnu/crti.o
 .rel.text.mac_sequence_register_seqno
                0x0000000000010c28       0x48 /usr/lib/gcc/i686-linux-gnu/4.8/../../../i386-linux-gnu/crti.o
 *(.rel.fini)
 .rel.fini      0x0000000000000000        0x0 /usr/lib/gcc/i686-linux-gnu/4.8/../../../i386-linux-gnu/crti.o
 *(.rel.rodata .rel.rodata.* .rel.gnu.linkonce.r.*)
 .rel.rodata    0x0000000000010c70      0x638 /usr/lib/gcc/i686-linux-gnu/4.8/../../../i386-linux-gnu/crti.o
 *(.rel.data.rel.ro .rel.data.rel.ro.* .rel.gnu.linkonce.d.rel.ro.*)
 *(.rel.data .rel.data.* .rel.gnu.linkonce.d.*)
 .rel.data.rel  0x00000000000112a8        0x8 /usr/lib/gcc/i686-linux-gnu/4.8/../../../i386-linux-gnu/crti.o
 .rel.data      0x00000000000112b0      0x370 /usr/lib/gcc/i686-linux-gnu/4.8/../../../i386-linux-gnu/crti.o
 *(.rel.tdata .rel.tdata.* .rel.gnu.linkonce.td.*)
 *(.rel.tbss .rel.tbss.* .rel.gnu.linkonce.tb.*)
 *(.rel.ctors)
 *(.rel.dtors)
 *(.rel.got)
 .rel.got       0x0000000000011620       0x28 /usr/lib/gcc/i686-linux-gnu/4.8/../../../i386-linux-gnu/crti.o
 *(.rel.bss .rel.bss.* .rel.gnu.linkonce.b.*)
 *(.rel.ifunc)
 .rel.ifunc     0x0000000000000000        0x0 /usr/lib/gcc/i686-linux-gnu/4.8/../../../i386-linux-gnu/crti.o
 .rel.fini_array
                0x0000000000011648        0x8 /usr/lib/gcc/i686-linux-gnu/4.8/../../../i386-linux-gnu/crti.o
 .rel.init_array
                0x0000000000011650        0x8 /usr/lib/gcc/i686-linux-gnu/4.8/../../../i386-linux-gnu/crti.o

.rel.plt        0x0000000000011658       0x10
 *(.rel.plt)
 .rel.plt       0x0000000000011658       0x10 /usr/lib/gcc/i686-linux-gnu/4.8/../../../i386-linux-gnu/crti.o
 *(.rel.iplt)

.init           0x0000000000011668       0x23
 *(SORT(.init))
 .init          0x0000000000011668       0x1e /usr/lib/gcc/i686-linux-gnu/4.8/../../../i386-linux-gnu/crti.o
                0x0000000000011668                _init
 .init          0x0000000000011686        0x5 /usr/lib/gcc/i686-linux-gnu/4.8/../../../i386-linux-gnu/crtn.o

.plt            0x0000000000011690       0x30
 *(.plt)
 .plt           0x0000000000011690       0x30 /usr/lib/gcc/i686-linux-gnu/4.8/../../../i386-linux-gnu/crti.o
 *(.iplt)

.text           0x00000000000116c0    0x20f63
 *(.text.unlikely .text.*_unlikely .text.unlikely.*)
 *(.text.exit .text.exit.*)
 *(.text.startup .text.startup.*)
 *(.text.hot .text.hot.*)
 *(.text .stub .text.* .gnu.linkonce.t.*)
 .text          0x00000000000116c0        0x0 /usr/lib/gcc/i686-linux-gnu/4.8/../../../i386-linux-gnu/crti.o
 .gnu.linkonce.t.__x86.get_pc_thunk.bx
                0x00000000000116c0        0x4 /usr/lib/gcc/i686-linux-gnu/4.8/../../../i386-linux-gnu/crti.o
                0x00000000000116c0                __x86.get_pc_thunk.bx
 *fill*         0x00000000000116c4        0xc 
 .text          0x00000000000116d0      0x11b /usr/lib/gcc/i686-linux-gnu/4.8/crtbeginS.o
 .text          0x00000000000117eb        0x0 sensor.co
 .text.dtls_alert_create
                0x00000000000117eb       0x10 sensor.co
 .text.dtls_alert_fatal_create
                0x00000000000117fb       0x1b sensor.co
 .text.dtls_set_handler
                0x0000000000011816        0xe sensor.co
 .text.read_from_peer
                0x0000000000011824      0x1ef sensor.co
 .text.send_to_peer
                0x0000000000011a13       0xcd sensor.co
 .text.get_psk_info
                0x0000000000011ae0      0x15e sensor.co
 .text.print_local_addresses
                0x0000000000011c3e       0x80 sensor.co
 .text.dtls_handle_read
                0x0000000000011cbe      0x105 sensor.co
 .text.cfs_prepare_data
                0x0000000000011dc3      0x1b0 sensor.co
                0x0000000000011dc3                cfs_prepare_data
 .text.dtls_complete
                0x0000000000011f73       0x44 sensor.co
 .text.init_dtls
                0x0000000000011fb7       0x7c sensor.co
                0x0000000000011fb7                init_dtls
 .text.process_thread_udp_server_process
                0x0000000000012033      0x147 sensor.co
 .text          0x000000000001217a        0x0 obj_cooja/mtype772.o
 .text.print_processes
                0x000000000001217a       0x47 obj_cooja/mtype772.o
 .text.rtimer_thread_loop
                0x00000000000121c1       0x12 obj_cooja/mtype772.o
 .text.set_rime_addr
                0x00000000000121d3       0xdd obj_cooja/mtype772.o
 .text.contiki_init
                0x00000000000122b0      0x385 obj_cooja/mtype772.o
                0x00000000000122b0                contiki_init
 .text.process_run_thread_loop
                0x0000000000012635       0x6a obj_cooja/mtype772.o
 .text.Java_org_contikios_cooja_corecomm_Lib1_init
                0x000000000001269f       0x40 obj_cooja/mtype772.o
                0x000000000001269f                Java_org_contikios_cooja_corecomm_Lib1_init
 .text.Java_org_contikios_cooja_corecomm_Lib1_getMemory
                0x00000000000126df       0x40 obj_cooja/mtype772.o
                0x00000000000126df                Java_org_contikios_cooja_corecomm_Lib1_getMemory
 .text.Java_org_contikios_cooja_corecomm_Lib1_setMemory
                0x000000000001271f       0x77 obj_cooja/mtype772.o
                0x000000000001271f                Java_org_contikios_cooja_corecomm_Lib1_setMemory
 .text.Java_org_contikios_cooja_corecomm_Lib1_tick
                0x0000000000012796       0x5f obj_cooja/mtype772.o
                0x0000000000012796                Java_org_contikios_cooja_corecomm_Lib1_tick
 .text.Java_org_contikios_cooja_corecomm_Lib1_setReferenceAddress
                0x00000000000127f5       0x12 obj_cooja/mtype772.o
                0x00000000000127f5                Java_org_contikios_cooja_corecomm_Lib1_setReferenceAddress
 .text          0x0000000000012807        0x0 obj_cooja/mtype772.a(dtls.o)
 .text.equals   0x0000000000012807       0x44 obj_cooja/mtype772.a(dtls.o)
 .text.check_stack
                0x000000000001284b        0x5 obj_cooja/mtype772.a(dtls.o)
 .text.dtls_int_to_uint8
                0x0000000000012850       0x1c obj_cooja/mtype772.a(dtls.o)
 .text.dtls_int_to_uint16
                0x000000000001286c       0x2f obj_cooja/mtype772.a(dtls.o)
 .text.dtls_int_to_uint24
                0x000000000001289b       0x30 obj_cooja/mtype772.a(dtls.o)
 .text.dtls_int_to_uint32
                0x00000000000128cb       0x3e obj_cooja/mtype772.a(dtls.o)
 .text.dtls_int_to_uint48
                0x0000000000012909       0x89 obj_cooja/mtype772.a(dtls.o)
 .text.dtls_uint8_to_int
                0x0000000000012992        0xb obj_cooja/mtype772.a(dtls.o)
 .text.dtls_uint16_to_int
                0x000000000001299d       0x21 obj_cooja/mtype772.a(dtls.o)
 .text.dtls_uint24_to_int
                0x00000000000129be       0x32 obj_cooja/mtype772.a(dtls.o)
 .text.dtls_hash_init
                0x00000000000129f0       0x13 obj_cooja/mtype772.a(dtls.o)
 .text.dtls_hash_update
                0x0000000000012a03       0x21 obj_cooja/mtype772.a(dtls.o)
 .text.dtls_hash_finalize
                0x0000000000012a24       0x1f obj_cooja/mtype772.a(dtls.o)
 .text.dtls_security_params_epoch
                0x0000000000012a43       0x58 obj_cooja/mtype772.a(dtls.o)
 .text.dtls_security_params
                0x0000000000012a9b        0xb obj_cooja/mtype772.a(dtls.o)
 .text.dtls_security_params_next
                0x0000000000012aa6       0x59 obj_cooja/mtype772.a(dtls.o)
 .text.dtls_security_params_free_other
                0x0000000000012aff       0x50 obj_cooja/mtype772.a(dtls.o)
 .text.dtls_security_params_switch
                0x0000000000012b4f       0x26 obj_cooja/mtype772.a(dtls.o)
 .text.dtls_alert_create
                0x0000000000012b75       0x10 obj_cooja/mtype772.a(dtls.o)
 .text.dtls_alert_fatal_create
                0x0000000000012b85       0x1b obj_cooja/mtype772.a(dtls.o)
 .text.dtls_prng
                0x0000000000012ba0       0x52 obj_cooja/mtype772.a(dtls.o)
 .text.dtls_prng_init
                0x0000000000012bf2        0xf obj_cooja/mtype772.a(dtls.o)
 .text.malloc_context
                0x0000000000012c01        0xa obj_cooja/mtype772.a(dtls.o)
 .text.free_context
                0x0000000000012c0b        0x5 obj_cooja/mtype772.a(dtls.o)
 .text.dtls_init
                0x0000000000012c10       0x1c obj_cooja/mtype772.a(dtls.o)
                0x0000000000012c10                dtls_init
 .text.dtls_send
                0x0000000000012c2c       0x5e obj_cooja/mtype772.a(dtls.o)
 .text.dtls_get_peer
                0x0000000000012c8a       0x57 obj_cooja/mtype772.a(dtls.o)
                0x0000000000012c8a                dtls_get_peer
 .text.dtls_add_peer
                0x0000000000012ce1       0x1d obj_cooja/mtype772.a(dtls.o)
 .text.dtls_write
                0x0000000000012cfe       0x94 obj_cooja/mtype772.a(dtls.o)
                0x0000000000012cfe                dtls_write
 .text.dtls_get_cookie
                0x0000000000012d92       0xd8 obj_cooja/mtype772.a(dtls.o)
 .text.dtls_create_cookie
                0x0000000000012e6a      0x233 obj_cooja/mtype772.a(dtls.o)
 .text.is_record
                0x000000000001309d       0x58 obj_cooja/mtype772.a(dtls.o)
 .text.dtls_set_record_header
                0x00000000000130f5       0xd9 obj_cooja/mtype772.a(dtls.o)
 .text.dtls_set_handshake_header
                0x00000000000131ce       0xc8 obj_cooja/mtype772.a(dtls.o)
 .text.is_tls_ecdhe_ecdsa_with_aes_128_ccm_8
                0x0000000000013296        0xa obj_cooja/mtype772.a(dtls.o)
 .text.is_tls_psk_with_aes_128_ccm_8
                0x00000000000132a0       0x12 obj_cooja/mtype772.a(dtls.o)
 .text.is_psk_supported
                0x00000000000132b2       0x2e obj_cooja/mtype772.a(dtls.o)
 .text.is_rpk_supported
                0x00000000000132e0        0xa obj_cooja/mtype772.a(dtls.o)
 .text.is_cert_supported
                0x00000000000132ea        0xa obj_cooja/mtype772.a(dtls.o)
 .text.known_cipher
                0x00000000000132f4       0x7c obj_cooja/mtype772.a(dtls.o)
 .text.dtls_debug_keyblock
                0x0000000000013370      0x130 obj_cooja/mtype772.a(dtls.o)
 .text.dtls_handshake_type_to_name
                0x00000000000134a0       0x6c obj_cooja/mtype772.a(dtls.o)
 .text.calculate_key_block
                0x000000000001350c      0x39e obj_cooja/mtype772.a(dtls.o)
 .text.dtls_check_tls_extension
                0x00000000000138aa      0x1a0 obj_cooja/mtype772.a(dtls.o)
 .text.dtls_update_parameters
                0x0000000000013a4a      0x376 obj_cooja/mtype772.a(dtls.o)
 .text.check_client_keyexchange
                0x0000000000013dc0       0xd5 obj_cooja/mtype772.a(dtls.o)
 .text.update_hs_hash
                0x0000000000013e95       0x51 obj_cooja/mtype772.a(dtls.o)
 .text.copy_hs_hash
                0x0000000000013ee6       0x28 obj_cooja/mtype772.a(dtls.o)
 .text.finalize_hs_hash
                0x0000000000013f0e       0x20 obj_cooja/mtype772.a(dtls.o)
 .text.clear_hs_hash
                0x0000000000013f2e       0x3f obj_cooja/mtype772.a(dtls.o)
 .text.check_finished
                0x0000000000013f6d      0x1ef obj_cooja/mtype772.a(dtls.o)
 .text.dtls_prepare_record
                0x000000000001415c      0x550 obj_cooja/mtype772.a(dtls.o)
 .text.dtls_send_handshake_msg_hash
                0x00000000000146ac      0x172 obj_cooja/mtype772.a(dtls.o)
 .text.dtls_send_handshake_msg
                0x000000000001481e       0x48 obj_cooja/mtype772.a(dtls.o)
 .text.dtls_encrypt_data
                0x0000000000014866       0xc1 obj_cooja/mtype772.a(dtls.o)
                0x0000000000014866                dtls_encrypt_data
 .text.dtls_encrypt_x
                0x0000000000014927       0x8c obj_cooja/mtype772.a(dtls.o)
 .text.dtls_prepare_record_x
                0x00000000000149b3      0x3c4 obj_cooja/mtype772.a(dtls.o)
 .text.dtls_send_multi
                0x0000000000014d77      0x42f obj_cooja/mtype772.a(dtls.o)
 .text.dtls_send_alert
                0x00000000000151a6       0x42 obj_cooja/mtype772.a(dtls.o)
 .text.dtls_close
                0x00000000000151e8       0x8c obj_cooja/mtype772.a(dtls.o)
                0x00000000000151e8                dtls_close
 .text.dtls_destroy_peer
                0x0000000000015274       0x77 obj_cooja/mtype772.a(dtls.o)
 .text.dtls_verify_peer
                0x00000000000152eb      0x26d obj_cooja/mtype772.a(dtls.o)
 .text.dtls_send_server_hello
                0x0000000000015558      0x1ab obj_cooja/mtype772.a(dtls.o)
 .text.dtls_send_server_key_exchange_psk
                0x0000000000015703      0x103 obj_cooja/mtype772.a(dtls.o)
 .text.dtls_send_server_hello_done
                0x0000000000015806       0x32 obj_cooja/mtype772.a(dtls.o)
 .text.dtls_send_server_hello_msgs
                0x0000000000015838      0x16b obj_cooja/mtype772.a(dtls.o)
 .text.dtls_send_ccs
                0x00000000000159a3       0x35 obj_cooja/mtype772.a(dtls.o)
 .text.dtls_send_client_key_exchange
                0x00000000000159d8      0x231 obj_cooja/mtype772.a(dtls.o)
 .text.dtls_send_finished
                0x0000000000015c09      0x182 obj_cooja/mtype772.a(dtls.o)
 .text.dtls_send_client_hello
                0x0000000000015d8b      0x631 obj_cooja/mtype772.a(dtls.o)
 .text.check_server_hello
                0x00000000000163bc      0x1db obj_cooja/mtype772.a(dtls.o)
 .text.check_server_hello_verify_request
                0x0000000000016597       0x67 obj_cooja/mtype772.a(dtls.o)
 .text.check_server_key_exchange_psk
                0x00000000000165fe      0x109 obj_cooja/mtype772.a(dtls.o)
 .text.check_certificate_request
                0x0000000000016707      0x1f7 obj_cooja/mtype772.a(dtls.o)
 .text.check_server_hellodone
                0x00000000000168fe       0xf3 obj_cooja/mtype772.a(dtls.o)
 .text.decrypt_verify
                0x00000000000169f1      0x35a obj_cooja/mtype772.a(dtls.o)
 .text.dtls_send_hello_request
                0x0000000000016d4b       0x44 obj_cooja/mtype772.a(dtls.o)
 .text.dtls_renegotiate
                0x0000000000016d8f       0xf6 obj_cooja/mtype772.a(dtls.o)
                0x0000000000016d8f                dtls_renegotiate
 .text.handle_handshake_msg
                0x0000000000016e85      0x7b9 obj_cooja/mtype772.a(dtls.o)
 .text.handle_handshake
                0x000000000001763e      0x424 obj_cooja/mtype772.a(dtls.o)
 .text.handle_ccs
                0x0000000000017a62       0xa8 obj_cooja/mtype772.a(dtls.o)
 .text.handle_alert
                0x0000000000017b0a      0x194 obj_cooja/mtype772.a(dtls.o)
 .text.dtls_alert_send_from_err
                0x0000000000017c9e       0xe0 obj_cooja/mtype772.a(dtls.o)
 .text.dtls_handle_message
                0x0000000000017d7e      0x665 obj_cooja/mtype772.a(dtls.o)
                0x0000000000017d7e                dtls_handle_message
 .text.dtls_new_context
                0x00000000000183e3      0x12b obj_cooja/mtype772.a(dtls.o)
                0x00000000000183e3                dtls_new_context
 .text.dtls_free_context
                0x000000000001850e       0x68 obj_cooja/mtype772.a(dtls.o)
                0x000000000001850e                dtls_free_context
 .text.dtls_connect_peer
                0x0000000000018576      0x13b obj_cooja/mtype772.a(dtls.o)
                0x0000000000018576                dtls_connect_peer
 .text.dtls_connect
                0x00000000000186b1      0x114 obj_cooja/mtype772.a(dtls.o)
                0x00000000000186b1                dtls_connect
 .text.dtls_retransmit
                0x00000000000187c5      0x32f obj_cooja/mtype772.a(dtls.o)
 .text.dtls_stop_retransmission
                0x0000000000018af4       0x84 obj_cooja/mtype772.a(dtls.o)
 .text.dtls_check_retransmit
                0x0000000000018b78       0x81 obj_cooja/mtype772.a(dtls.o)
                0x0000000000018b78                dtls_check_retransmit
 .text.process_thread_dtls_retransmit_process
                0x0000000000018bf9      0x1aa obj_cooja/mtype772.a(dtls.o)
 .text.change_sequence
                0x0000000000018da3       0x43 obj_cooja/mtype772.a(dtls.o)
                0x0000000000018da3                change_sequence
 .text          0x0000000000018de6        0x0 obj_cooja/mtype772.a(tinydtls-crypto)
 .text.dtls_int_to_uint16
                0x0000000000018de6       0x2f obj_cooja/mtype772.a(tinydtls-crypto)
 .text.dtls_hash_init
                0x0000000000018e15       0x13 obj_cooja/mtype772.a(tinydtls-crypto)
 .text.dtls_cipher_context_get
                0x0000000000018e28        0xa obj_cooja/mtype772.a(tinydtls-crypto)
 .text.dtls_cipher_context_release
                0x0000000000018e32        0x5 obj_cooja/mtype772.a(tinydtls-crypto)
 .text.dtls_crypto_init
                0x0000000000018e37       0x20 obj_cooja/mtype772.a(tinydtls-crypto)
                0x0000000000018e37                dtls_crypto_init
 .text.dtls_handshake_malloc
                0x0000000000018e57       0x20 obj_cooja/mtype772.a(tinydtls-crypto)
 .text.dtls_handshake_dealloc
                0x0000000000018e77       0x1b obj_cooja/mtype772.a(tinydtls-crypto)
 .text.dtls_security_malloc
                0x0000000000018e92       0x14 obj_cooja/mtype772.a(tinydtls-crypto)
 .text.dtls_security_dealloc
                0x0000000000018ea6       0x1b obj_cooja/mtype772.a(tinydtls-crypto)
 .text.dtls_handshake_new
                0x0000000000018ec1       0x67 obj_cooja/mtype772.a(tinydtls-crypto)
                0x0000000000018ec1                dtls_handshake_new
 .text.dtls_handshake_free
                0x0000000000018f28       0x29 obj_cooja/mtype772.a(tinydtls-crypto)
                0x0000000000018f28                dtls_handshake_free
 .text.dtls_security_new
                0x0000000000018f51       0x60 obj_cooja/mtype772.a(tinydtls-crypto)
                0x0000000000018f51                dtls_security_new
 .text.dtls_security_free
                0x0000000000018fb1       0x1b obj_cooja/mtype772.a(tinydtls-crypto)
                0x0000000000018fb1                dtls_security_free
 .text.dtls_p_hash
                0x0000000000018fcc      0x2fa obj_cooja/mtype772.a(tinydtls-crypto)
                0x0000000000018fcc                dtls_p_hash
 .text.dtls_prf
                0x00000000000192c6       0x74 obj_cooja/mtype772.a(tinydtls-crypto)
                0x00000000000192c6                dtls_prf
 .text.dtls_prf_custom
                0x000000000001933a       0xd4 obj_cooja/mtype772.a(tinydtls-crypto)
                0x000000000001933a                dtls_prf_custom
 .text.dtls_mac
                0x000000000001940e       0xb3 obj_cooja/mtype772.a(tinydtls-crypto)
                0x000000000001940e                dtls_mac
 .text.dtls_ccm_encrypt
                0x00000000000194c1       0x66 obj_cooja/mtype772.a(tinydtls-crypto)
 .text.dtls_ccm_decrypt
                0x0000000000019527       0x66 obj_cooja/mtype772.a(tinydtls-crypto)
 .text.dtls_psk_pre_master_secret
                0x000000000001958d       0x9a obj_cooja/mtype772.a(tinydtls-crypto)
                0x000000000001958d                dtls_psk_pre_master_secret
 .text.dtls_encrypt
                0x0000000000019627       0xa6 obj_cooja/mtype772.a(tinydtls-crypto)
                0x0000000000019627                dtls_encrypt
 .text.dtls_decrypt
                0x00000000000196cd       0xa6 obj_cooja/mtype772.a(tinydtls-crypto)
                0x00000000000196cd                dtls_decrypt
 .text          0x0000000000019773        0x0 obj_cooja/mtype772.a(hmac.o)
 .text.dtls_hash_init
                0x0000000000019773       0x13 obj_cooja/mtype772.a(hmac.o)
 .text.dtls_hash_update
                0x0000000000019786       0x21 obj_cooja/mtype772.a(hmac.o)
 .text.dtls_hash_finalize
                0x00000000000197a7       0x1f obj_cooja/mtype772.a(hmac.o)
 .text.dtls_hmac_context_new
                0x00000000000197c6       0x14 obj_cooja/mtype772.a(hmac.o)
 .text.dtls_hmac_context_free
                0x00000000000197da       0x1b obj_cooja/mtype772.a(hmac.o)
 .text.dtls_hmac_storage_init
                0x00000000000197f5       0x14 obj_cooja/mtype772.a(hmac.o)
                0x00000000000197f5                dtls_hmac_storage_init
 .text.dtls_hmac_update
                0x0000000000019809       0x3e obj_cooja/mtype772.a(hmac.o)
                0x0000000000019809                dtls_hmac_update
 .text.dtls_hmac_new
                0x0000000000019847       0x32 obj_cooja/mtype772.a(hmac.o)
                0x0000000000019847                dtls_hmac_new
 .text.dtls_hmac_init
                0x0000000000019879      0x11b obj_cooja/mtype772.a(hmac.o)
                0x0000000000019879                dtls_hmac_init
 .text.dtls_hmac_free
                0x0000000000019994       0x19 obj_cooja/mtype772.a(hmac.o)
                0x0000000000019994                dtls_hmac_free
 .text.dtls_hmac_finalize
                0x00000000000199ad       0xde obj_cooja/mtype772.a(hmac.o)
                0x00000000000199ad                dtls_hmac_finalize
 .text          0x0000000000019a8b        0x0 obj_cooja/mtype772.a(netq.o)
 .text.netq_malloc_node
                0x0000000000019a8b       0x14 obj_cooja/mtype772.a(netq.o)
 .text.netq_free_node
                0x0000000000019a9f       0x1b obj_cooja/mtype772.a(netq.o)
 .text.netq_init
                0x0000000000019aba       0x14 obj_cooja/mtype772.a(netq.o)
                0x0000000000019aba                netq_init
 .text.netq_insert_node
                0x0000000000019ace       0xb7 obj_cooja/mtype772.a(netq.o)
                0x0000000000019ace                netq_insert_node
 .text.netq_head
                0x0000000000019b85       0x20 obj_cooja/mtype772.a(netq.o)
                0x0000000000019b85                netq_head
 .text.netq_next
                0x0000000000019ba5       0x20 obj_cooja/mtype772.a(netq.o)
                0x0000000000019ba5                netq_next
 .text.netq_remove
                0x0000000000019bc5       0x28 obj_cooja/mtype772.a(netq.o)
                0x0000000000019bc5                netq_remove
 .text.netq_pop_first
                0x0000000000019bed       0x20 obj_cooja/mtype772.a(netq.o)
                0x0000000000019bed                netq_pop_first
 .text.netq_node_new
                0x0000000000019c0d       0x4c obj_cooja/mtype772.a(netq.o)
                0x0000000000019c0d                netq_node_new
 .text.netq_node_free
                0x0000000000019c59       0x19 obj_cooja/mtype772.a(netq.o)
                0x0000000000019c59                netq_node_free
 .text.netq_delete_all
                0x0000000000019c72       0x2f obj_cooja/mtype772.a(netq.o)
                0x0000000000019c72                netq_delete_all
 .text          0x0000000000019ca1        0x0 obj_cooja/mtype772.a(dtls_time.o)
 .text.dtls_clock_init
                0x0000000000019ca1       0x12 obj_cooja/mtype772.a(dtls_time.o)
                0x0000000000019ca1                dtls_clock_init
 .text.dtls_ticks
                0x0000000000019cb3       0x12 obj_cooja/mtype772.a(dtls_time.o)
                0x0000000000019cb3                dtls_ticks
 .text          0x0000000000019cc5        0x0 obj_cooja/mtype772.a(peer.o)
 .text.peer_init
                0x0000000000019cc5       0x14 obj_cooja/mtype772.a(peer.o)
                0x0000000000019cc5                peer_init
 .text.dtls_malloc_peer
                0x0000000000019cd9       0x14 obj_cooja/mtype772.a(peer.o)
 .text.dtls_free_peer
                0x0000000000019ced       0x45 obj_cooja/mtype772.a(peer.o)
                0x0000000000019ced                dtls_free_peer
 .text.dtls_new_peer
                0x0000000000019d32       0x93 obj_cooja/mtype772.a(peer.o)
                0x0000000000019d32                dtls_new_peer
 .text          0x0000000000019dc5        0x0 obj_cooja/mtype772.a(session.o)
 .text.dtls_session_init
                0x0000000000019dc5       0x43 obj_cooja/mtype772.a(session.o)
                0x0000000000019dc5                dtls_session_init
 .text.dtls_session_equals
                0x0000000000019e08       0x9f obj_cooja/mtype772.a(session.o)
                0x0000000000019e08                dtls_session_equals
 .text          0x0000000000019ea7        0x0 obj_cooja/mtype772.a(rijndael.o)
 .text.rijndaelKeySetupEnc
                0x0000000000019ea7      0x610 obj_cooja/mtype772.a(rijndael.o)
                0x0000000000019ea7                rijndaelKeySetupEnc
 .text.rijndaelEncrypt
                0x000000000001a4b7      0x613 obj_cooja/mtype772.a(rijndael.o)
                0x000000000001a4b7                rijndaelEncrypt
 .text.rijndael_set_key_enc_only
                0x000000000001aaca       0x41 obj_cooja/mtype772.a(rijndael.o)
                0x000000000001aaca                rijndael_set_key_enc_only
 .text.rijndael_encrypt
                0x000000000001ab0b       0x2d obj_cooja/mtype772.a(rijndael.o)
                0x000000000001ab0b                rijndael_encrypt
 .text          0x000000000001ab38        0x0 obj_cooja/mtype772.a(tinydtls-ccm.o)
 .text.memxor   0x000000000001ab38       0x2f obj_cooja/mtype772.a(tinydtls-ccm.o)
 .text.equals   0x000000000001ab67       0x44 obj_cooja/mtype772.a(tinydtls-ccm.o)
 .text.dtls_int_to_uint16
                0x000000000001abab       0x2f obj_cooja/mtype772.a(tinydtls-ccm.o)
 .text.block0   0x000000000001abda       0x82 obj_cooja/mtype772.a(tinydtls-ccm.o)
 .text.add_auth_data
                0x000000000001ac5c      0x1c0 obj_cooja/mtype772.a(tinydtls-ccm.o)
 .text.encrypt  0x000000000001ae1c       0xc3 obj_cooja/mtype772.a(tinydtls-ccm.o)
 .text.mac      0x000000000001aedf       0x5d obj_cooja/mtype772.a(tinydtls-ccm.o)
 .text.dtls_ccm_encrypt_message
                0x000000000001af3c      0x298 obj_cooja/mtype772.a(tinydtls-ccm.o)
                0x000000000001af3c                dtls_ccm_encrypt_message
 .text.dtls_ccm_decrypt_message
                0x000000000001b1d4      0x2b2 obj_cooja/mtype772.a(tinydtls-ccm.o)
                0x000000000001b1d4                dtls_ccm_decrypt_message
 .text          0x000000000001b486        0x0 obj_cooja/mtype772.a(sha2.o)
 .text.SHA256_Init
                0x000000000001b486       0x5a obj_cooja/mtype772.a(sha2.o)
                0x000000000001b486                SHA256_Init
 .text.SHA256_Transform
                0x000000000001b4e0      0x3c3 obj_cooja/mtype772.a(sha2.o)
                0x000000000001b4e0                SHA256_Transform
 .text.SHA256_Update
                0x000000000001b8a3      0x1b6 obj_cooja/mtype772.a(sha2.o)
                0x000000000001b8a3                SHA256_Update
 .text.SHA256_Final
                0x000000000001ba59      0x2a4 obj_cooja/mtype772.a(sha2.o)
                0x000000000001ba59                SHA256_Final
 .text.SHA256_End
                0x000000000001bcfd      0x109 obj_cooja/mtype772.a(sha2.o)
                0x000000000001bcfd                SHA256_End
 .text.SHA256_Data
                0x000000000001be06       0x69 obj_cooja/mtype772.a(sha2.o)
                0x000000000001be06                SHA256_Data
 .text          0x000000000001be6f        0x0 obj_cooja/mtype772.a(debug.o)
 .text.dtls_package_name
                0x000000000001be6f        0xa obj_cooja/mtype772.a(debug.o)
                0x000000000001be6f                dtls_package_name
 .text.dtls_package_version
                0x000000000001be79        0xa obj_cooja/mtype772.a(debug.o)
                0x000000000001be79                dtls_package_version
 .text.dtls_get_log_level
                0x000000000001be83        0xa obj_cooja/mtype772.a(debug.o)
                0x000000000001be83                dtls_get_log_level
 .text.dtls_set_log_level
                0x000000000001be8d        0xd obj_cooja/mtype772.a(debug.o)
                0x000000000001be8d                dtls_set_log_level
 .text.print_timestamp
                0x000000000001be9a        0xa obj_cooja/mtype772.a(debug.o)
 .text.dsrv_print_addr
                0x000000000001bea4      0x190 obj_cooja/mtype772.a(debug.o)
 .text.hexdump  0x000000000001c034       0x8c obj_cooja/mtype772.a(debug.o)
                0x000000000001c034                hexdump
 .text.dump     0x000000000001c0c0       0x36 obj_cooja/mtype772.a(debug.o)
                0x000000000001c0c0                dump
 .text.dtls_dsrv_log_addr
                0x000000000001c0f6       0x76 obj_cooja/mtype772.a(debug.o)
                0x000000000001c0f6                dtls_dsrv_log_addr
 .text.dtls_dsrv_hexdump_log
                0x000000000001c16c      0x16a obj_cooja/mtype772.a(debug.o)
                0x000000000001c16c                dtls_dsrv_hexdump_log
 .text          0x000000000001c2d6        0x0 obj_cooja/mtype772.a(simEnvChange.o)
 .text.doActionsBeforeTick
                0x000000000001c2d6       0x31 obj_cooja/mtype772.a(simEnvChange.o)
                0x000000000001c2d6                doActionsBeforeTick
 .text.doActionsAfterTick
                0x000000000001c307       0x32 obj_cooja/mtype772.a(simEnvChange.o)
                0x000000000001c307                doActionsAfterTick
 .text          0x000000000001c339        0x0 obj_cooja/mtype772.a(cooja_mt.o)
 .text.cooja_mt_init
                0x000000000001c339        0xd obj_cooja/mtype772.a(cooja_mt.o)
                0x000000000001c339                cooja_mt_init
 .text.cooja_mt_remove
                0x000000000001c346        0xd obj_cooja/mtype772.a(cooja_mt.o)
                0x000000000001c346                cooja_mt_remove
 .text.cooja_mt_start
                0x000000000001c353       0x2d obj_cooja/mtype772.a(cooja_mt.o)
                0x000000000001c353                cooja_mt_start
 .text.cooja_mt_exec
                0x000000000001c380       0x31 obj_cooja/mtype772.a(cooja_mt.o)
                0x000000000001c380                cooja_mt_exec
 .text.cooja_mt_exit
                0x000000000001c3b1       0x22 obj_cooja/mtype772.a(cooja_mt.o)
                0x000000000001c3b1                cooja_mt_exit
 .text.cooja_mt_yield
                0x000000000001c3d3       0x22 obj_cooja/mtype772.a(cooja_mt.o)
                0x000000000001c3d3                cooja_mt_yield
 .text          0x000000000001c3f5        0x0 obj_cooja/mtype772.a(cooja_mtarch.o)
 .text.cooja_mtarch_init
                0x000000000001c3f5        0x5 obj_cooja/mtype772.a(cooja_mtarch.o)
                0x000000000001c3f5                cooja_mtarch_init
 .text.cooja_mtarch_start
                0x000000000001c3fa       0x7b obj_cooja/mtype772.a(cooja_mtarch.o)
                0x000000000001c3fa                cooja_mtarch_start
 .text.cooja_sw
                0x000000000001c475       0x22 obj_cooja/mtype772.a(cooja_mtarch.o)
                0x000000000001c475                cooja_sw
 .text.cooja_mtarch_exec
                0x000000000001c497       0x1c obj_cooja/mtype772.a(cooja_mtarch.o)
                0x000000000001c497                cooja_mtarch_exec
 .text.cooja_mtarch_remove
                0x000000000001c4b3        0x5 obj_cooja/mtype772.a(cooja_mtarch.o)
                0x000000000001c4b3                cooja_mtarch_remove
 .text.cooja_mtarch_yield
                0x000000000001c4b8        0xa obj_cooja/mtype772.a(cooja_mtarch.o)
                0x000000000001c4b8                cooja_mtarch_yield
 .text.cooja_mtarch_pstop
                0x000000000001c4c2        0x5 obj_cooja/mtype772.a(cooja_mtarch.o)
                0x000000000001c4c2                cooja_mtarch_pstop
 .text.cooja_mtarch_pstart
                0x000000000001c4c7        0x5 obj_cooja/mtype772.a(cooja_mtarch.o)
                0x000000000001c4c7                cooja_mtarch_pstart
 .text.cooja_mtarch_stack_usage
                0x000000000001c4cc       0x3e obj_cooja/mtype772.a(cooja_mtarch.o)
                0x000000000001c4cc                cooja_mtarch_stack_usage
 .text          0x000000000001c50a        0x0 obj_cooja/mtype772.a(rtimer-arch.o)
 .text.rtimer_arch_init
                0x000000000001c50a       0x23 obj_cooja/mtype772.a(rtimer-arch.o)
                0x000000000001c50a                rtimer_arch_init
 .text.rtimer_arch_schedule
                0x000000000001c52d       0x2f obj_cooja/mtype772.a(rtimer-arch.o)
                0x000000000001c52d                rtimer_arch_schedule
 .text.rtimer_arch_next
                0x000000000001c55c       0x10 obj_cooja/mtype772.a(rtimer-arch.o)
                0x000000000001c55c                rtimer_arch_next
 .text.rtimer_arch_pending
                0x000000000001c56c        0xa obj_cooja/mtype772.a(rtimer-arch.o)
                0x000000000001c56c                rtimer_arch_pending
 .text.rtimer_arch_check
                0x000000000001c576       0x47 obj_cooja/mtype772.a(rtimer-arch.o)
                0x000000000001c576                rtimer_arch_check
 .text.rtimer_arch_now
                0x000000000001c5bd       0x10 obj_cooja/mtype772.a(rtimer-arch.o)
                0x000000000001c5bd                rtimer_arch_now
 .text          0x000000000001c5cd        0x0 obj_cooja/mtype772.a(beep.o)
 .text.beep_alarm
                0x000000000001c5cd        0xc obj_cooja/mtype772.a(beep.o)
                0x000000000001c5cd                beep_alarm
 .text.beep_beep
                0x000000000001c5d9        0xc obj_cooja/mtype772.a(beep.o)
                0x000000000001c5d9                beep_beep
 .text.beep     0x000000000001c5e5        0xc obj_cooja/mtype772.a(beep.o)
                0x000000000001c5e5                beep
 .text.beep_down
                0x000000000001c5f1        0xc obj_cooja/mtype772.a(beep.o)
                0x000000000001c5f1                beep_down
 .text.beep_on  0x000000000001c5fd        0xc obj_cooja/mtype772.a(beep.o)
                0x000000000001c5fd                beep_on
 .text.beep_off
                0x000000000001c609        0xc obj_cooja/mtype772.a(beep.o)
                0x000000000001c609                beep_off
 .text.beep_spinup
                0x000000000001c615        0xc obj_cooja/mtype772.a(beep.o)
                0x000000000001c615                beep_spinup
 .text.beep_quick
                0x000000000001c621        0xc obj_cooja/mtype772.a(beep.o)
                0x000000000001c621                beep_quick
 .text.beep_long
                0x000000000001c62d        0xc obj_cooja/mtype772.a(beep.o)
                0x000000000001c62d                beep_long
 .text.doInterfaceActionsBeforeTick
                0x000000000001c639        0x5 obj_cooja/mtype772.a(beep.o)
 .text.doInterfaceActionsAfterTick
                0x000000000001c63e        0x5 obj_cooja/mtype772.a(beep.o)
 .text          0x000000000001c643        0x0 obj_cooja/mtype772.a(button-sensor.o)
 .text.value    0x000000000001c643       0x2f obj_cooja/mtype772.a(button-sensor.o)
 .text.configure
                0x000000000001c672       0x50 obj_cooja/mtype772.a(button-sensor.o)
 .text.status   0x000000000001c6c2       0x1f obj_cooja/mtype772.a(button-sensor.o)
 .text.doInterfaceActionsBeforeTick
                0x000000000001c6e1       0x60 obj_cooja/mtype772.a(button-sensor.o)
 .text.doInterfaceActionsAfterTick
                0x000000000001c741        0x5 obj_cooja/mtype772.a(button-sensor.o)
 .text          0x000000000001c746        0x0 obj_cooja/mtype772.a(leds-arch.o)
 .text.leds_arch_init
                0x000000000001c746        0xc obj_cooja/mtype772.a(leds-arch.o)
                0x000000000001c746                leds_arch_init
 .text.leds_arch_get
                0x000000000001c752        0xc obj_cooja/mtype772.a(leds-arch.o)
                0x000000000001c752                leds_arch_get
 .text.leds_arch_set
                0x000000000001c75e       0x23 obj_cooja/mtype772.a(leds-arch.o)
                0x000000000001c75e                leds_arch_set
 .text.doInterfaceActionsBeforeTick
                0x000000000001c781        0x5 obj_cooja/mtype772.a(leds-arch.o)
 .text.doInterfaceActionsAfterTick
                0x000000000001c786        0x5 obj_cooja/mtype772.a(leds-arch.o)
 .text          0x000000000001c78b        0x0 obj_cooja/mtype772.a(moteid.o)
 .text.doInterfaceActionsBeforeTick
                0x000000000001c78b       0x2a obj_cooja/mtype772.a(moteid.o)
 .text.doInterfaceActionsAfterTick
                0x000000000001c7b5        0x5 obj_cooja/mtype772.a(moteid.o)
 .text          0x000000000001c7ba        0x0 obj_cooja/mtype772.a(pir-sensor.o)
 .text.value    0x000000000001c7ba        0xf obj_cooja/mtype772.a(pir-sensor.o)
 .text.configure
                0x000000000001c7c9       0x3a obj_cooja/mtype772.a(pir-sensor.o)
 .text.status   0x000000000001c803       0x23 obj_cooja/mtype772.a(pir-sensor.o)
 .text.doInterfaceActionsBeforeTick
                0x000000000001c826       0x40 obj_cooja/mtype772.a(pir-sensor.o)
 .text.doInterfaceActionsAfterTick
                0x000000000001c866        0x5 obj_cooja/mtype772.a(pir-sensor.o)
 .text          0x000000000001c86b        0x0 obj_cooja/mtype772.a(rs232.o)
 .text.rs232_init
                0x000000000001c86b        0x5 obj_cooja/mtype772.a(rs232.o)
                0x000000000001c86b                rs232_init
 .text.rs232_set_speed
                0x000000000001c870        0xe obj_cooja/mtype772.a(rs232.o)
                0x000000000001c870                rs232_set_speed
 .text.rs232_set_input
                0x000000000001c87e        0xd obj_cooja/mtype772.a(rs232.o)
                0x000000000001c87e                rs232_set_input
 .text.rs232_send
                0x000000000001c88b       0x22 obj_cooja/mtype772.a(rs232.o)
                0x000000000001c88b                rs232_send
 .text.rs232_print
                0x000000000001c8ad       0x1b obj_cooja/mtype772.a(rs232.o)
                0x000000000001c8ad                rs232_print
 .text.slip_arch_writeb
                0x000000000001c8c8       0x1d obj_cooja/mtype772.a(rs232.o)
                0x000000000001c8c8                slip_arch_writeb
 .text.doInterfaceActionsBeforeTick
                0x000000000001c8e5       0xb2 obj_cooja/mtype772.a(rs232.o)
 .text.doInterfaceActionsAfterTick
                0x000000000001c997        0x5 obj_cooja/mtype772.a(rs232.o)
 .text          0x000000000001c99c        0x0 obj_cooja/mtype772.a(vib-sensor.o)
 .text.value    0x000000000001c99c        0xf obj_cooja/mtype772.a(vib-sensor.o)
 .text.configure
                0x000000000001c9ab       0x3a obj_cooja/mtype772.a(vib-sensor.o)
 .text.status   0x000000000001c9e5       0x23 obj_cooja/mtype772.a(vib-sensor.o)
 .text.doInterfaceActionsBeforeTick
                0x000000000001ca08       0x40 obj_cooja/mtype772.a(vib-sensor.o)
 .text.doInterfaceActionsAfterTick
                0x000000000001ca48        0x5 obj_cooja/mtype772.a(vib-sensor.o)
 .text          0x000000000001ca4d        0x0 obj_cooja/mtype772.a(clock.o)
 .text.clock_init
                0x000000000001ca4d        0x5 obj_cooja/mtype772.a(clock.o)
                0x000000000001ca4d                clock_init
 .text.clock_time
                0x000000000001ca52        0xa obj_cooja/mtype772.a(clock.o)
                0x000000000001ca52                clock_time
 .text.clock_seconds
                0x000000000001ca5c       0x16 obj_cooja/mtype772.a(clock.o)
                0x000000000001ca5c                clock_seconds
 .text.clock_delay
                0x000000000001ca72        0x5 obj_cooja/mtype772.a(clock.o)
                0x000000000001ca72                clock_delay
 .text.doInterfaceActionsBeforeTick
                0x000000000001ca77        0x5 obj_cooja/mtype772.a(clock.o)
 .text.doInterfaceActionsAfterTick
                0x000000000001ca7c        0x5 obj_cooja/mtype772.a(clock.o)
 .text          0x000000000001ca81        0x0 obj_cooja/mtype772.a(log.o)
 .text.simlog_char
                0x000000000001ca81       0x42 obj_cooja/mtype772.a(log.o)
                0x000000000001ca81                simlog_char
 .text.simlog   0x000000000001cac3       0x6d obj_cooja/mtype772.a(log.o)
                0x000000000001cac3                simlog
 .text.log_message
                0x000000000001cb30       0x1e obj_cooja/mtype772.a(log.o)
                0x000000000001cb30                log_message
 .text.doInterfaceActionsBeforeTick
                0x000000000001cb4e        0x5 obj_cooja/mtype772.a(log.o)
 .text.doInterfaceActionsAfterTick
                0x000000000001cb53        0x5 obj_cooja/mtype772.a(log.o)
 .text.log_set_putchar_with_slip
                0x000000000001cb58        0xd obj_cooja/mtype772.a(log.o)
                0x000000000001cb58                log_set_putchar_with_slip
 .text.putchar  0x000000000001cb65       0x84 obj_cooja/mtype772.a(log.o)
                0x000000000001cb65                log_putchar
 .text.puts     0x000000000001cbe9       0x24 obj_cooja/mtype772.a(log.o)
                0x000000000001cbe9                log_puts
 .text.printf   0x000000000001cc0d       0x61 obj_cooja/mtype772.a(log.o)
                0x000000000001cc0d                log_printf
 .text          0x000000000001cc6e        0x0 obj_cooja/mtype772.a(cfs-cooja.o)
 .text.cfs_open
                0x000000000001cc6e       0x69 obj_cooja/mtype772.a(cfs-cooja.o)
                0x000000000001cc6e                cfs_open
 .text.cfs_close
                0x000000000001ccd7        0xc obj_cooja/mtype772.a(cfs-cooja.o)
                0x000000000001ccd7                cfs_close
 .text.cfs_read
                0x000000000001cce3       0x9e obj_cooja/mtype772.a(cfs-cooja.o)
                0x000000000001cce3                cfs_read
 .text.cfs_write
                0x000000000001cd81       0xdd obj_cooja/mtype772.a(cfs-cooja.o)
                0x000000000001cd81                cfs_write
 .text.cfs_seek
                0x000000000001ce5e       0x88 obj_cooja/mtype772.a(cfs-cooja.o)
                0x000000000001ce5e                cfs_seek
 .text.cfs_remove
                0x000000000001cee6       0x29 obj_cooja/mtype772.a(cfs-cooja.o)
                0x000000000001cee6                cfs_remove
 .text.cfs_opendir
                0x000000000001cf0f        0xa obj_cooja/mtype772.a(cfs-cooja.o)
                0x000000000001cf0f                cfs_opendir
 .text.cfs_readdir
                0x000000000001cf19        0xa obj_cooja/mtype772.a(cfs-cooja.o)
                0x000000000001cf19                cfs_readdir
 .text.cfs_closedir
                0x000000000001cf23        0x5 obj_cooja/mtype772.a(cfs-cooja.o)
                0x000000000001cf23                cfs_closedir
 .text.doInterfaceActionsBeforeTick
                0x000000000001cf28        0x5 obj_cooja/mtype772.a(cfs-cooja.o)
 .text.doInterfaceActionsAfterTick
                0x000000000001cf2d        0x5 obj_cooja/mtype772.a(cfs-cooja.o)
 .text          0x000000000001cf32        0x0 obj_cooja/mtype772.a(cooja-radio.o)
 .text.packetbuf_set_attr
                0x000000000001cf32       0x2a obj_cooja/mtype772.a(cooja-radio.o)
 .text.set_send_on_cca
                0x000000000001cf5c       0x17 obj_cooja/mtype772.a(cooja-radio.o)
 .text.set_frame_filtering
                0x000000000001cf73        0xd obj_cooja/mtype772.a(cooja-radio.o)
 .text.set_auto_ack
                0x000000000001cf80        0xd obj_cooja/mtype772.a(cooja-radio.o)
 .text.set_poll_mode
                0x000000000001cf8d        0xd obj_cooja/mtype772.a(cooja-radio.o)
 .text.radio_set_channel
                0x000000000001cf9a        0xd obj_cooja/mtype772.a(cooja-radio.o)
                0x000000000001cf9a                radio_set_channel
 .text.radio_set_txpower
                0x000000000001cfa7       0x17 obj_cooja/mtype772.a(cooja-radio.o)
                0x000000000001cfa7                radio_set_txpower
 .text.radio_signal_strength_last
                0x000000000001cfbe        0xa obj_cooja/mtype772.a(cooja-radio.o)
                0x000000000001cfbe                radio_signal_strength_last
 .text.radio_signal_strength_current
                0x000000000001cfc8        0xa obj_cooja/mtype772.a(cooja-radio.o)
                0x000000000001cfc8                radio_signal_strength_current
 .text.radio_LQI
                0x000000000001cfd2        0xa obj_cooja/mtype772.a(cooja-radio.o)
                0x000000000001cfd2                radio_LQI
 .text.radio_on
                0x000000000001cfdc       0x11 obj_cooja/mtype772.a(cooja-radio.o)
 .text.radio_off
                0x000000000001cfed       0x11 obj_cooja/mtype772.a(cooja-radio.o)
 .text.doInterfaceActionsBeforeTick
                0x000000000001cffe       0x4b obj_cooja/mtype772.a(cooja-radio.o)
 .text.doInterfaceActionsAfterTick
                0x000000000001d049        0x5 obj_cooja/mtype772.a(cooja-radio.o)
 .text.radio_read
                0x000000000001d04e       0xb7 obj_cooja/mtype772.a(cooja-radio.o)
 .text.channel_clear
                0x000000000001d105       0x1b obj_cooja/mtype772.a(cooja-radio.o)
 .text.radio_send
                0x000000000001d120       0xda obj_cooja/mtype772.a(cooja-radio.o)
 .text.prepare_packet
                0x000000000001d1fa       0x1c obj_cooja/mtype772.a(cooja-radio.o)
 .text.transmit_packet
                0x000000000001d216       0x3a obj_cooja/mtype772.a(cooja-radio.o)
 .text.receiving_packet
                0x000000000001d250        0xf obj_cooja/mtype772.a(cooja-radio.o)
 .text.pending_packet
                0x000000000001d25f       0x25 obj_cooja/mtype772.a(cooja-radio.o)
 .text.process_thread_cooja_radio_process
                0x000000000001d284       0x9f obj_cooja/mtype772.a(cooja-radio.o)
 .text.init     0x000000000001d323       0x21 obj_cooja/mtype772.a(cooja-radio.o)
 .text.get_value
                0x000000000001d344       0xdc obj_cooja/mtype772.a(cooja-radio.o)
 .text.set_value
                0x000000000001d420      0x104 obj_cooja/mtype772.a(cooja-radio.o)
 .text.get_object
                0x000000000001d524       0x3d obj_cooja/mtype772.a(cooja-radio.o)
 .text.set_object
                0x000000000001d561        0xa obj_cooja/mtype772.a(cooja-radio.o)
 .text          0x000000000001d56b        0x0 obj_cooja/mtype772.a(eeprom.o)
 .text.eeprom_init
                0x000000000001d56b        0x5 obj_cooja/mtype772.a(eeprom.o)
                0x000000000001d56b                eeprom_init
 .text.eeprom_read
                0x000000000001d570       0x70 obj_cooja/mtype772.a(eeprom.o)
                0x000000000001d570                eeprom_read
 .text.eeprom_write
                0x000000000001d5e0       0x70 obj_cooja/mtype772.a(eeprom.o)
                0x000000000001d5e0                eeprom_write
 .text.doInterfaceActionsBeforeTick
                0x000000000001d650        0x5 obj_cooja/mtype772.a(eeprom.o)
 .text.doInterfaceActionsAfterTick
                0x000000000001d655        0x5 obj_cooja/mtype772.a(eeprom.o)
 .text          0x000000000001d65a        0x0 obj_cooja/mtype772.a(random.o)
 .text.random_init
                0x000000000001d65a       0x1b obj_cooja/mtype772.a(random.o)
                0x000000000001d65a                random_init
 .text.random_rand
                0x000000000001d675        0xd obj_cooja/mtype772.a(random.o)
                0x000000000001d675                random_rand
 .text          0x000000000001d682        0x0 obj_cooja/mtype772.a(sensors.o)
 .text.get_sensor_index
                0x000000000001d682       0x3b obj_cooja/mtype772.a(sensors.o)
 .text.sensors_first
                0x000000000001d6bd        0xa obj_cooja/mtype772.a(sensors.o)
                0x000000000001d6bd                sensors_first
 .text.sensors_next
                0x000000000001d6c7       0x1d obj_cooja/mtype772.a(sensors.o)
                0x000000000001d6c7                sensors_next
 .text.sensors_changed
                0x000000000001d6e4       0x2f obj_cooja/mtype772.a(sensors.o)
                0x000000000001d6e4                sensors_changed
 .text.sensors_find
                0x000000000001d713       0x6b obj_cooja/mtype772.a(sensors.o)
                0x000000000001d713                sensors_find
 .text.process_thread_sensors_process
                0x000000000001d77e      0x1a5 obj_cooja/mtype772.a(sensors.o)
 .text          0x000000000001d923        0x0 obj_cooja/mtype772.a(autostart.o)
 .text.autostart_start
                0x000000000001d923       0x4b obj_cooja/mtype772.a(autostart.o)
                0x000000000001d923                autostart_start
 .text.autostart_exit
                0x000000000001d96e       0x43 obj_cooja/mtype772.a(autostart.o)
                0x000000000001d96e                autostart_exit
 .text          0x000000000001d9b1        0x0 obj_cooja/mtype772.a(ctimer.o)
 .text.process_thread_ctimer_process
                0x000000000001d9b1      0x117 obj_cooja/mtype772.a(ctimer.o)
 .text.ctimer_init
                0x000000000001dac8       0x30 obj_cooja/mtype772.a(ctimer.o)
                0x000000000001dac8                ctimer_init
 .text.ctimer_set
                0x000000000001daf8       0x31 obj_cooja/mtype772.a(ctimer.o)
                0x000000000001daf8                ctimer_set
 .text.ctimer_set_with_process
                0x000000000001db29       0x7c obj_cooja/mtype772.a(ctimer.o)
                0x000000000001db29                ctimer_set_with_process
 .text.ctimer_reset
                0x000000000001dba5       0x4f obj_cooja/mtype772.a(ctimer.o)
                0x000000000001dba5                ctimer_reset
 .text.ctimer_restart
                0x000000000001dbf4       0x4f obj_cooja/mtype772.a(ctimer.o)
                0x000000000001dbf4                ctimer_restart
 .text.ctimer_stop
                0x000000000001dc43       0x4b obj_cooja/mtype772.a(ctimer.o)
                0x000000000001dc43                ctimer_stop
 .text.ctimer_expired
                0x000000000001dc8e       0x57 obj_cooja/mtype772.a(ctimer.o)
                0x000000000001dc8e                ctimer_expired
 .text          0x000000000001dce5        0x0 obj_cooja/mtype772.a(etimer.o)
 .text.update_time
                0x000000000001dce5       0x8f obj_cooja/mtype772.a(etimer.o)
 .text.process_thread_etimer_process
                0x000000000001dd74      0x184 obj_cooja/mtype772.a(etimer.o)
 .text.etimer_request_poll
                0x000000000001def8       0x14 obj_cooja/mtype772.a(etimer.o)
                0x000000000001def8                etimer_request_poll
 .text.add_timer
                0x000000000001df0c       0x70 obj_cooja/mtype772.a(etimer.o)
 .text.etimer_set
                0x000000000001df7c       0x25 obj_cooja/mtype772.a(etimer.o)
                0x000000000001df7c                etimer_set
 .text.etimer_reset_with_new_interval
                0x000000000001dfa1       0x27 obj_cooja/mtype772.a(etimer.o)
                0x000000000001dfa1                etimer_reset_with_new_interval
 .text.etimer_reset
                0x000000000001dfc8       0x1e obj_cooja/mtype772.a(etimer.o)
                0x000000000001dfc8                etimer_reset
 .text.etimer_restart
                0x000000000001dfe6       0x1e obj_cooja/mtype772.a(etimer.o)
                0x000000000001dfe6                etimer_restart
 .text.etimer_adjust
                0x000000000001e004       0x1c obj_cooja/mtype772.a(etimer.o)
                0x000000000001e004                etimer_adjust
 .text.etimer_expired
                0x000000000001e020       0x13 obj_cooja/mtype772.a(etimer.o)
                0x000000000001e020                etimer_expired
 .text.etimer_expiration_time
                0x000000000001e033       0x12 obj_cooja/mtype772.a(etimer.o)
                0x000000000001e033                etimer_expiration_time
 .text.etimer_start_time
                0x000000000001e045        0xa obj_cooja/mtype772.a(etimer.o)
                0x000000000001e045                etimer_start_time
 .text.etimer_pending
                0x000000000001e04f       0x12 obj_cooja/mtype772.a(etimer.o)
                0x000000000001e04f                etimer_pending
 .text.etimer_next_expiration_time
                0x000000000001e061       0x1a obj_cooja/mtype772.a(etimer.o)
                0x000000000001e061                etimer_next_expiration_time
 .text.etimer_stop
                0x000000000001e07b       0x75 obj_cooja/mtype772.a(etimer.o)
                0x000000000001e07b                etimer_stop
 .text          0x000000000001e0f0        0x0 obj_cooja/mtype772.a(process.o)
 .text.process_alloc_event
                0x000000000001e0f0       0x15 obj_cooja/mtype772.a(process.o)
                0x000000000001e0f0                process_alloc_event
 .text.process_start
                0x000000000001e105       0x6f obj_cooja/mtype772.a(process.o)
                0x000000000001e105                process_start
 .text.exit_process
                0x000000000001e174       0xea obj_cooja/mtype772.a(process.o)
 .text.call_process
                0x000000000001e25e       0x90 obj_cooja/mtype772.a(process.o)
 .text.process_exit
                0x000000000001e2ee       0x1c obj_cooja/mtype772.a(process.o)
                0x000000000001e2ee                process_exit
 .text.process_init
                0x000000000001e30a       0x33 obj_cooja/mtype772.a(process.o)
                0x000000000001e30a                process_init
 .text.do_poll  0x000000000001e33d       0x5b obj_cooja/mtype772.a(process.o)
 .text.do_event
                0x000000000001e398      0x114 obj_cooja/mtype772.a(process.o)
 .text.process_run
                0x000000000001e4ac       0x33 obj_cooja/mtype772.a(process.o)
                0x000000000001e4ac                process_run
 .text.process_nevents
                0x000000000001e4df       0x1b obj_cooja/mtype772.a(process.o)
                0x000000000001e4df                process_nevents
 .text.process_post
                0x000000000001e4fa       0x95 obj_cooja/mtype772.a(process.o)
                0x000000000001e4fa                process_post
 .text.process_post_synch
                0x000000000001e58f       0x38 obj_cooja/mtype772.a(process.o)
                0x000000000001e58f                process_post_synch
 .text.process_poll
                0x000000000001e5c7       0x2f obj_cooja/mtype772.a(process.o)
                0x000000000001e5c7                process_poll
 .text.process_is_running
                0x000000000001e5f6       0x14 obj_cooja/mtype772.a(process.o)
                0x000000000001e5f6                process_is_running
 .text          0x000000000001e60a        0x0 obj_cooja/mtype772.a(rtimer.o)
 .text.rtimer_init
                0x000000000001e60a        0xd obj_cooja/mtype772.a(rtimer.o)
                0x000000000001e60a                rtimer_init
 .text.rtimer_set
                0x000000000001e617       0x7c obj_cooja/mtype772.a(rtimer.o)
                0x000000000001e617                rtimer_set
 .text.rtimer_run_next
                0x000000000001e693       0x5d obj_cooja/mtype772.a(rtimer.o)
                0x000000000001e693                rtimer_run_next
 .text          0x000000000001e6f0        0x0 obj_cooja/mtype772.a(timer.o)
 .text.timer_set
                0x000000000001e6f0       0x1b obj_cooja/mtype772.a(timer.o)
                0x000000000001e6f0                timer_set
 .text.timer_reset
                0x000000000001e70b       0x17 obj_cooja/mtype772.a(timer.o)
                0x000000000001e70b                timer_reset
 .text.timer_restart
                0x000000000001e722       0x12 obj_cooja/mtype772.a(timer.o)
                0x000000000001e722                timer_restart
 .text.timer_expired
                0x000000000001e734       0x29 obj_cooja/mtype772.a(timer.o)
                0x000000000001e734                timer_expired
 .text.timer_remaining
                0x000000000001e75d       0x24 obj_cooja/mtype772.a(timer.o)
                0x000000000001e75d                timer_remaining
 .text          0x000000000001e781        0x0 obj_cooja/mtype772.a(serial-line.o)
 .text.serial_line_input_byte
                0x000000000001e781       0x7d obj_cooja/mtype772.a(serial-line.o)
                0x000000000001e781                serial_line_input_byte
 .text.process_thread_serial_line_process
                0x000000000001e7fe      0x146 obj_cooja/mtype772.a(serial-line.o)
 .text.serial_line_init
                0x000000000001e944       0x38 obj_cooja/mtype772.a(serial-line.o)
                0x000000000001e944                serial_line_init
 .text          0x000000000001e97c        0x0 obj_cooja/mtype772.a(assert.o)
 .text._xassert
                0x000000000001e97c       0x22 obj_cooja/mtype772.a(assert.o)
                0x000000000001e97c                _xassert
 .text          0x000000000001e99e        0x0 obj_cooja/mtype772.a(list.o)
 .text.list_init
                0x000000000001e99e        0xe obj_cooja/mtype772.a(list.o)
                0x000000000001e99e                list_init
 .text.list_head
                0x000000000001e9ac        0xa obj_cooja/mtype772.a(list.o)
                0x000000000001e9ac                list_head
 .text.list_copy
                0x000000000001e9b6        0xf obj_cooja/mtype772.a(list.o)
                0x000000000001e9b6                list_copy
 .text.list_tail
                0x000000000001e9c5       0x36 obj_cooja/mtype772.a(list.o)
                0x000000000001e9c5                list_tail
 .text.list_add
                0x000000000001e9fb       0x49 obj_cooja/mtype772.a(list.o)
                0x000000000001e9fb                list_add
 .text.list_push
                0x000000000001ea44       0x2c obj_cooja/mtype772.a(list.o)
                0x000000000001ea44                list_push
 .text.list_chop
                0x000000000001ea70       0x6a obj_cooja/mtype772.a(list.o)
                0x000000000001ea70                list_chop
 .text.list_pop
                0x000000000001eada       0x28 obj_cooja/mtype772.a(list.o)
                0x000000000001eada                list_pop
 .text.list_remove
                0x000000000001eb02       0x67 obj_cooja/mtype772.a(list.o)
                0x000000000001eb02                list_remove
 .text.list_length
                0x000000000001eb69       0x2e obj_cooja/mtype772.a(list.o)
                0x000000000001eb69                list_length
 .text.list_insert
                0x000000000001eb97       0x34 obj_cooja/mtype772.a(list.o)
                0x000000000001eb97                list_insert
 .text.list_item_next
                0x000000000001ebcb       0x17 obj_cooja/mtype772.a(list.o)
                0x000000000001ebcb                list_item_next
 .text          0x000000000001ebe2        0x0 obj_cooja/mtype772.a(memb.o)
 .text.memb_init
                0x000000000001ebe2       0x5e obj_cooja/mtype772.a(memb.o)
                0x000000000001ebe2                memb_init
 .text.memb_alloc
                0x000000000001ec40       0x65 obj_cooja/mtype772.a(memb.o)
                0x000000000001ec40                memb_alloc
 .text.memb_free
                0x000000000001eca5       0x7b obj_cooja/mtype772.a(memb.o)
                0x000000000001eca5                memb_free
 .text.memb_inmemb
                0x000000000001ed20       0x3f obj_cooja/mtype772.a(memb.o)
                0x000000000001ed20                memb_inmemb
 .text.memb_numfree
                0x000000000001ed5f       0x44 obj_cooja/mtype772.a(memb.o)
                0x000000000001ed5f                memb_numfree
 .text          0x000000000001eda3        0x0 obj_cooja/mtype772.a(ringbuf.o)
 .text.ringbuf_init
                0x000000000001eda3       0x31 obj_cooja/mtype772.a(ringbuf.o)
                0x000000000001eda3                ringbuf_init
 .text.ringbuf_put
                0x000000000001edd4       0x7e obj_cooja/mtype772.a(ringbuf.o)
                0x000000000001edd4                ringbuf_put
 .text.ringbuf_get
                0x000000000001ee52       0x6d obj_cooja/mtype772.a(ringbuf.o)
                0x000000000001ee52                ringbuf_get
 .text.ringbuf_size
                0x000000000001eebf       0x12 obj_cooja/mtype772.a(ringbuf.o)
                0x000000000001eebf                ringbuf_size
 .text.ringbuf_elements
                0x000000000001eed1       0x27 obj_cooja/mtype772.a(ringbuf.o)
                0x000000000001eed1                ringbuf_elements
 .text          0x000000000001eef8        0x0 obj_cooja/mtype772.a(sicslowpan.o)
 .text.packetbuf_set_attr
                0x000000000001eef8       0x2a obj_cooja/mtype772.a(sicslowpan.o)
 .text.packetbuf_attr
                0x000000000001ef22       0x1a obj_cooja/mtype772.a(sicslowpan.o)
 .text.packetbuf_set_addr
                0x000000000001ef3c       0x32 obj_cooja/mtype772.a(sicslowpan.o)
 .text.packetbuf_addr
                0x000000000001ef6e       0x1d obj_cooja/mtype772.a(sicslowpan.o)
 .text.clear_fragments
                0x000000000001ef8b       0x79 obj_cooja/mtype772.a(sicslowpan.o)
 .text.timeout_fragments
                0x000000000001f004       0x75 obj_cooja/mtype772.a(sicslowpan.o)
 .text.store_fragment
                0x000000000001f079       0xe8 obj_cooja/mtype772.a(sicslowpan.o)
 .text.add_fragment
                0x000000000001f161      0x23e obj_cooja/mtype772.a(sicslowpan.o)
 .text.copy_frags2uip
                0x000000000001f39f       0xe3 obj_cooja/mtype772.a(sicslowpan.o)
 .text.rime_sniffer_add
                0x000000000001f482        0xd obj_cooja/mtype772.a(sicslowpan.o)
                0x000000000001f482                rime_sniffer_add
 .text.rime_sniffer_remove
                0x000000000001f48f        0xf obj_cooja/mtype772.a(sicslowpan.o)
                0x000000000001f48f                rime_sniffer_remove
 .text.set_packet_attrs
                0x000000000001f49e       0xe9 obj_cooja/mtype772.a(sicslowpan.o)
 .text.addr_context_lookup_by_prefix
                0x000000000001f587       0x7a obj_cooja/mtype772.a(sicslowpan.o)
 .text.addr_context_lookup_by_number
                0x000000000001f601       0x6a obj_cooja/mtype772.a(sicslowpan.o)
 .text.compress_addr_64
                0x000000000001f66b      0x16c obj_cooja/mtype772.a(sicslowpan.o)
 .text.uncompress_addr
                0x000000000001f7d7      0x120 obj_cooja/mtype772.a(sicslowpan.o)
 .text.compress_hdr_iphc
                0x000000000001f8f7      0x994 obj_cooja/mtype772.a(sicslowpan.o)
 .text.uncompress_hdr_iphc
                0x000000000002028b      0x7dd obj_cooja/mtype772.a(sicslowpan.o)
 .text.compress_hdr_ipv6
                0x0000000000020a68       0x68 obj_cooja/mtype772.a(sicslowpan.o)
 .text.packet_sent
                0x0000000000020ad0       0x3b obj_cooja/mtype772.a(sicslowpan.o)
 .text.send_packet
                0x0000000000020b0b       0x36 obj_cooja/mtype772.a(sicslowpan.o)
 .text.output   0x0000000000020b41      0x49d obj_cooja/mtype772.a(sicslowpan.o)
 .text.input    0x0000000000020fde      0x458 obj_cooja/mtype772.a(sicslowpan.o)
 .text.sicslowpan_init
                0x0000000000021436       0x57 obj_cooja/mtype772.a(sicslowpan.o)
                0x0000000000021436                sicslowpan_init
 .text.sicslowpan_get_last_rssi
                0x000000000002148d        0xa obj_cooja/mtype772.a(sicslowpan.o)
                0x000000000002148d                sicslowpan_get_last_rssi
 .text          0x0000000000021497        0x0 obj_cooja/mtype772.a(uip-ds6-nbr.o)
 .text.packetbuf_addr
                0x0000000000021497       0x1d obj_cooja/mtype772.a(uip-ds6-nbr.o)
 .text.uip_ds6_neighbors_init
                0x00000000000214b4       0x22 obj_cooja/mtype772.a(uip-ds6-nbr.o)
                0x00000000000214b4                uip_ds6_neighbors_init
 .text.uip_ds6_nbr_add
                0x00000000000214d6       0xe2 obj_cooja/mtype772.a(uip-ds6-nbr.o)
                0x00000000000214d6                uip_ds6_nbr_add
 .text.uip_ds6_nbr_rm
                0x00000000000215b8       0x42 obj_cooja/mtype772.a(uip-ds6-nbr.o)
                0x00000000000215b8                uip_ds6_nbr_rm
 .text.uip_ds6_nbr_get_ipaddr
                0x00000000000215fa       0x15 obj_cooja/mtype772.a(uip-ds6-nbr.o)
                0x00000000000215fa                uip_ds6_nbr_get_ipaddr
 .text.uip_ds6_nbr_get_ll
                0x000000000002160f       0x1c obj_cooja/mtype772.a(uip-ds6-nbr.o)
                0x000000000002160f                uip_ds6_nbr_get_ll
 .text.uip_ds6_nbr_num
                0x000000000002162b       0x45 obj_cooja/mtype772.a(uip-ds6-nbr.o)
                0x000000000002162b                uip_ds6_nbr_num
 .text.uip_ds6_nbr_lookup
                0x0000000000021670       0x65 obj_cooja/mtype772.a(uip-ds6-nbr.o)
                0x0000000000021670                uip_ds6_nbr_lookup
 .text.uip_ds6_nbr_ll_lookup
                0x00000000000216d5       0x1c obj_cooja/mtype772.a(uip-ds6-nbr.o)
                0x00000000000216d5                uip_ds6_nbr_ll_lookup
 .text.uip_ds6_nbr_ipaddr_from_lladdr
                0x00000000000216f1       0x26 obj_cooja/mtype772.a(uip-ds6-nbr.o)
                0x00000000000216f1                uip_ds6_nbr_ipaddr_from_lladdr
 .text.uip_ds6_nbr_lladdr_from_ipaddr
                0x0000000000021717       0x2e obj_cooja/mtype772.a(uip-ds6-nbr.o)
                0x0000000000021717                uip_ds6_nbr_lladdr_from_ipaddr
 .text.uip_ds6_link_neighbor_callback
                0x0000000000021745       0x62 obj_cooja/mtype772.a(uip-ds6-nbr.o)
                0x0000000000021745                uip_ds6_link_neighbor_callback
 .text.uip_ds6_neighbor_periodic
                0x00000000000217a7      0x244 obj_cooja/mtype772.a(uip-ds6-nbr.o)
                0x00000000000217a7                uip_ds6_neighbor_periodic
 .text.uip_ds6_nbr_refresh_reachable_state
                0x00000000000219eb       0x40 obj_cooja/mtype772.a(uip-ds6-nbr.o)
                0x00000000000219eb                uip_ds6_nbr_refresh_reachable_state
 .text.uip_ds6_get_least_lifetime_neighbor
                0x0000000000021a2b       0x7b obj_cooja/mtype772.a(uip-ds6-nbr.o)
                0x0000000000021a2b                uip_ds6_get_least_lifetime_neighbor
 .text          0x0000000000021aa6        0x0 obj_cooja/mtype772.a(uip-ds6-route.o)
 .text.call_route_callback
                0x0000000000021aa6       0x77 obj_cooja/mtype772.a(uip-ds6-route.o)
 .text.uip_ds6_notification_add
                0x0000000000021b1d       0x31 obj_cooja/mtype772.a(uip-ds6-route.o)
                0x0000000000021b1d                uip_ds6_notification_add
 .text.uip_ds6_notification_rm
                0x0000000000021b4e       0x1c obj_cooja/mtype772.a(uip-ds6-route.o)
                0x0000000000021b4e                uip_ds6_notification_rm
 .text.uip_ds6_route_init
                0x0000000000021b6a       0x5c obj_cooja/mtype772.a(uip-ds6-route.o)
                0x0000000000021b6a                uip_ds6_route_init
 .text.uip_ds6_route_nexthop_lladdr
                0x0000000000021bc6       0x2c obj_cooja/mtype772.a(uip-ds6-route.o)
 .text.uip_ds6_route_nexthop
                0x0000000000021bf2       0x28 obj_cooja/mtype772.a(uip-ds6-route.o)
                0x0000000000021bf2                uip_ds6_route_nexthop
 .text.uip_ds6_route_head
                0x0000000000021c1a       0x15 obj_cooja/mtype772.a(uip-ds6-route.o)
                0x0000000000021c1a                uip_ds6_route_head
 .text.uip_ds6_route_next
                0x0000000000021c2f       0x26 obj_cooja/mtype772.a(uip-ds6-route.o)
                0x0000000000021c2f                uip_ds6_route_next
 .text.uip_ds6_route_is_nexthop
                0x0000000000021c55       0x3f obj_cooja/mtype772.a(uip-ds6-route.o)
                0x0000000000021c55                uip_ds6_route_is_nexthop
 .text.uip_ds6_route_num_routes
                0x0000000000021c94        0xa obj_cooja/mtype772.a(uip-ds6-route.o)
                0x0000000000021c94                uip_ds6_route_num_routes
 .text.uip_ds6_route_lookup
                0x0000000000021c9e       0xc2 obj_cooja/mtype772.a(uip-ds6-route.o)
                0x0000000000021c9e                uip_ds6_route_lookup
 .text.uip_ds6_route_add
                0x0000000000021d60      0x236 obj_cooja/mtype772.a(uip-ds6-route.o)
                0x0000000000021d60                uip_ds6_route_add
 .text.uip_ds6_route_rm
                0x0000000000021f96      0x11d obj_cooja/mtype772.a(uip-ds6-route.o)
                0x0000000000021f96                uip_ds6_route_rm
 .text.rm_routelist
                0x00000000000220b3       0x64 obj_cooja/mtype772.a(uip-ds6-route.o)
 .text.rm_routelist_callback
                0x0000000000022117       0x13 obj_cooja/mtype772.a(uip-ds6-route.o)
 .text.uip_ds6_route_rm_by_nexthop
                0x000000000002212a       0x38 obj_cooja/mtype772.a(uip-ds6-route.o)
                0x000000000002212a                uip_ds6_route_rm_by_nexthop
 .text.uip_ds6_defrt_head
                0x0000000000022162       0x15 obj_cooja/mtype772.a(uip-ds6-route.o)
                0x0000000000022162                uip_ds6_defrt_head
 .text.uip_ds6_defrt_add
                0x0000000000022177       0xb1 obj_cooja/mtype772.a(uip-ds6-route.o)
                0x0000000000022177                uip_ds6_defrt_add
 .text.uip_ds6_defrt_rm
                0x0000000000022228       0x7f obj_cooja/mtype772.a(uip-ds6-route.o)
                0x0000000000022228                uip_ds6_defrt_rm
 .text.uip_ds6_defrt_lookup
                0x00000000000222a7       0x59 obj_cooja/mtype772.a(uip-ds6-route.o)
                0x00000000000222a7                uip_ds6_defrt_lookup
 .text.uip_ds6_defrt_choose
                0x0000000000022300       0x6b obj_cooja/mtype772.a(uip-ds6-route.o)
                0x0000000000022300                uip_ds6_defrt_choose
 .text.uip_ds6_defrt_periodic
                0x000000000002236b       0x68 obj_cooja/mtype772.a(uip-ds6-route.o)
                0x000000000002236b                uip_ds6_defrt_periodic
 .text          0x00000000000223d3        0x0 obj_cooja/mtype772.a(uip-ds6.o)
 .text.uip_ds6_init
                0x00000000000223d3      0x1d3 obj_cooja/mtype772.a(uip-ds6.o)
                0x00000000000223d3                uip_ds6_init
 .text.uip_ds6_periodic
                0x00000000000225a6       0x7e obj_cooja/mtype772.a(uip-ds6.o)
                0x00000000000225a6                uip_ds6_periodic
 .text.uip_ds6_list_loop
                0x0000000000022624       0xa7 obj_cooja/mtype772.a(uip-ds6.o)
                0x0000000000022624                uip_ds6_list_loop
 .text.uip_ds6_prefix_add
                0x00000000000226cb       0xbe obj_cooja/mtype772.a(uip-ds6.o)
                0x00000000000226cb                uip_ds6_prefix_add
 .text.uip_ds6_prefix_rm
                0x0000000000022789       0x12 obj_cooja/mtype772.a(uip-ds6.o)
                0x0000000000022789                uip_ds6_prefix_rm
 .text.uip_ds6_prefix_lookup
                0x000000000002279b       0x51 obj_cooja/mtype772.a(uip-ds6.o)
                0x000000000002279b                uip_ds6_prefix_lookup
 .text.uip_ds6_is_addr_onlink
                0x00000000000227ec       0x74 obj_cooja/mtype772.a(uip-ds6.o)
                0x00000000000227ec                uip_ds6_is_addr_onlink
 .text.uip_ds6_addr_add
                0x0000000000022860      0x12e obj_cooja/mtype772.a(uip-ds6.o)
                0x0000000000022860                uip_ds6_addr_add
 .text.uip_ds6_addr_rm
                0x000000000002298e       0xa0 obj_cooja/mtype772.a(uip-ds6.o)
                0x000000000002298e                uip_ds6_addr_rm
 .text.uip_ds6_addr_lookup
                0x0000000000022a2e       0x4b obj_cooja/mtype772.a(uip-ds6.o)
                0x0000000000022a2e                uip_ds6_addr_lookup
 .text.uip_ds6_get_link_local
                0x0000000000022a79       0x7f obj_cooja/mtype772.a(uip-ds6.o)
                0x0000000000022a79                uip_ds6_get_link_local
 .text.uip_ds6_get_global
                0x0000000000022af8       0x7f obj_cooja/mtype772.a(uip-ds6.o)
                0x0000000000022af8                uip_ds6_get_global
 .text.uip_ds6_maddr_add
                0x0000000000022b77       0x72 obj_cooja/mtype772.a(uip-ds6.o)
                0x0000000000022b77                uip_ds6_maddr_add
 .text.uip_ds6_maddr_rm
                0x0000000000022be9       0x12 obj_cooja/mtype772.a(uip-ds6.o)
                0x0000000000022be9                uip_ds6_maddr_rm
 .text.uip_ds6_maddr_lookup
                0x0000000000022bfb       0x4b obj_cooja/mtype772.a(uip-ds6.o)
                0x0000000000022bfb                uip_ds6_maddr_lookup
 .text.uip_ds6_aaddr_add
                0x0000000000022c46       0x72 obj_cooja/mtype772.a(uip-ds6.o)
                0x0000000000022c46                uip_ds6_aaddr_add
 .text.uip_ds6_aaddr_rm
                0x0000000000022cb8       0x12 obj_cooja/mtype772.a(uip-ds6.o)
                0x0000000000022cb8                uip_ds6_aaddr_rm
 .text.uip_ds6_aaddr_lookup
                0x0000000000022cca       0x4b obj_cooja/mtype772.a(uip-ds6.o)
                0x0000000000022cca                uip_ds6_aaddr_lookup
 .text.uip_ds6_select_src
                0x0000000000022d15      0x145 obj_cooja/mtype772.a(uip-ds6.o)
                0x0000000000022d15                uip_ds6_select_src
 .text.uip_ds6_set_addr_iid
                0x0000000000022e5a       0x37 obj_cooja/mtype772.a(uip-ds6.o)
                0x0000000000022e5a                uip_ds6_set_addr_iid
 .text.get_match_length
                0x0000000000022e91       0x92 obj_cooja/mtype772.a(uip-ds6.o)
                0x0000000000022e91                get_match_length
 .text.uip_ds6_compute_reachable_time
                0x0000000000022f23       0x4c obj_cooja/mtype772.a(uip-ds6.o)
                0x0000000000022f23                uip_ds6_compute_reachable_time
 .text          0x0000000000022f6f        0x0 obj_cooja/mtype772.a(uip-nd6.o)
 .text.extract_lladdr_from_llao_aligned
                0x0000000000022f6f       0x42 obj_cooja/mtype772.a(uip-nd6.o)
 .text.create_llao
                0x0000000000022fb1       0x54 obj_cooja/mtype772.a(uip-nd6.o)
 .text.ns_input
                0x0000000000023005      0x602 obj_cooja/mtype772.a(uip-nd6.o)
 .text.uip_nd6_ns_output
                0x0000000000023607      0x2ff obj_cooja/mtype772.a(uip-nd6.o)
                0x0000000000023607                uip_nd6_ns_output
 .text.na_input
                0x0000000000023906      0x430 obj_cooja/mtype772.a(uip-nd6.o)
 .text.uip_nd6_init
                0x0000000000023d36       0x20 obj_cooja/mtype772.a(uip-nd6.o)
                0x0000000000023d36                uip_nd6_init
 .text          0x0000000000023d56        0x0 obj_cooja/mtype772.a(uip6.o)
 .text.uip_add32
                0x0000000000023d56       0xea obj_cooja/mtype772.a(uip6.o)
                0x0000000000023d56                uip_add32
 .text.chksum   0x0000000000023e40       0xaf obj_cooja/mtype772.a(uip6.o)
 .text.uip_chksum
                0x0000000000023eef       0x35 obj_cooja/mtype772.a(uip6.o)
                0x0000000000023eef                uip_chksum
 .text.upper_layer_chksum
                0x0000000000023f24       0xb9 obj_cooja/mtype772.a(uip6.o)
 .text.uip_icmp6chksum
                0x0000000000023fdd       0x14 obj_cooja/mtype772.a(uip6.o)
                0x0000000000023fdd                uip_icmp6chksum
 .text.uip_tcpchksum
                0x0000000000023ff1       0x14 obj_cooja/mtype772.a(uip6.o)
                0x0000000000023ff1                uip_tcpchksum
 .text.uip_udpchksum
                0x0000000000024005       0x14 obj_cooja/mtype772.a(uip6.o)
                0x0000000000024005                uip_udpchksum
 .text.uip_init
                0x0000000000024019       0x8b obj_cooja/mtype772.a(uip6.o)
                0x0000000000024019                uip_init
 .text.uip_connect
                0x00000000000240a4      0x181 obj_cooja/mtype772.a(uip6.o)
                0x00000000000240a4                uip_connect
 .text.remove_ext_hdr
                0x0000000000024225       0xd5 obj_cooja/mtype772.a(uip6.o)
                0x0000000000024225                remove_ext_hdr
 .text.uip_udp_new
                0x00000000000242fa      0x127 obj_cooja/mtype772.a(uip6.o)
                0x00000000000242fa                uip_udp_new
 .text.uip_unlisten
                0x0000000000024421       0x42 obj_cooja/mtype772.a(uip6.o)
                0x0000000000024421                uip_unlisten
 .text.uip_listen
                0x0000000000024463       0x43 obj_cooja/mtype772.a(uip6.o)
                0x0000000000024463                uip_listen
 .text.uip_add_rcv_nxt
                0x00000000000244a6       0x64 obj_cooja/mtype772.a(uip6.o)
 .text.ext_hdr_options_process
                0x000000000002450a      0x1fd obj_cooja/mtype772.a(uip6.o)
 .text.uip_process
                0x0000000000024707     0x1ca1 obj_cooja/mtype772.a(uip6.o)
                0x0000000000024707                uip_process
 .text.uip_htons
                0x00000000000263a8       0x22 obj_cooja/mtype772.a(uip6.o)
                0x00000000000263a8                uip_htons
 .text.uip_htonl
                0x00000000000263ca       0x40 obj_cooja/mtype772.a(uip6.o)
                0x00000000000263ca                uip_htonl
 .text.uip_send
                0x000000000002640a       0xaa obj_cooja/mtype772.a(uip6.o)
                0x000000000002640a                uip_send
 .text          0x00000000000264b4        0x0 obj_cooja/mtype772.a(resolv.o)
 .text.decode_name
                0x00000000000264b4       0xe8 obj_cooja/mtype772.a(resolv.o)
 .text.dns_name_isequal
                0x000000000002659c      0x119 obj_cooja/mtype772.a(resolv.o)
 .text.skip_name
                0x00000000000266b5       0x48 obj_cooja/mtype772.a(resolv.o)
 .text.encode_name
                0x00000000000266fd       0x73 obj_cooja/mtype772.a(resolv.o)
 .text.mdns_announce_requested
                0x0000000000026770        0xf obj_cooja/mtype772.a(resolv.o)
 .text.start_name_collision_check
                0x000000000002677f       0x27 obj_cooja/mtype772.a(resolv.o)
 .text.mdns_write_announce_records
                0x00000000000267a6      0x155 obj_cooja/mtype772.a(resolv.o)
 .text.mdns_prep_host_announce_packet
                0x00000000000268fb       0xf5 obj_cooja/mtype772.a(resolv.o)
 .text.try_next_server
                0x00000000000269f0       0x48 obj_cooja/mtype772.a(resolv.o)
 .text.check_entries
                0x0000000000026a38      0x311 obj_cooja/mtype772.a(resolv.o)
 .text.newdata  0x0000000000026d49      0x545 obj_cooja/mtype772.a(resolv.o)
 .text.resolv_set_hostname
                0x000000000002728e       0xa9 obj_cooja/mtype772.a(resolv.o)
                0x000000000002728e                resolv_set_hostname
 .text.resolv_get_hostname
                0x0000000000027337        0xa obj_cooja/mtype772.a(resolv.o)
                0x0000000000027337                resolv_get_hostname
 .text.process_thread_mdns_probe_process
                0x0000000000027341      0x178 obj_cooja/mtype772.a(resolv.o)
 .text.process_thread_resolv_process
                0x00000000000274b9      0x1f6 obj_cooja/mtype772.a(resolv.o)
 .text.init     0x00000000000276af       0x2e obj_cooja/mtype772.a(resolv.o)
 .text.remove_trailing_dots
                0x00000000000276dd       0x7b obj_cooja/mtype772.a(resolv.o)
 .text.resolv_query
                0x0000000000027758      0x22e obj_cooja/mtype772.a(resolv.o)
                0x0000000000027758                resolv_query
 .text.resolv_lookup
                0x0000000000027986       0xcc obj_cooja/mtype772.a(resolv.o)
                0x0000000000027986                resolv_lookup
 .text.resolv_found
                0x0000000000027a52      0x1da obj_cooja/mtype772.a(resolv.o)
 .text          0x0000000000027c2c        0x0 obj_cooja/mtype772.a(tcpip.o)
 .text.tcpip_output
                0x0000000000027c2c       0x2e obj_cooja/mtype772.a(tcpip.o)
                0x0000000000027c2c                tcpip_output
 .text.tcpip_set_outputfunc
                0x0000000000027c5a        0xd obj_cooja/mtype772.a(tcpip.o)
                0x0000000000027c5a                tcpip_set_outputfunc
 .text.start_periodic_tcp_timer
                0x0000000000027c67       0x24 obj_cooja/mtype772.a(tcpip.o)
 .text.check_for_tcp_syn
                0x0000000000027c8b       0x2d obj_cooja/mtype772.a(tcpip.o)
 .text.packet_input
                0x0000000000027cb8       0x36 obj_cooja/mtype772.a(tcpip.o)
 .text.tcp_connect
                0x0000000000027cee       0x55 obj_cooja/mtype772.a(tcpip.o)
                0x0000000000027cee                tcp_connect
 .text.tcp_unlisten
                0x0000000000027d43       0x5b obj_cooja/mtype772.a(tcpip.o)
                0x0000000000027d43                tcp_unlisten
 .text.tcp_listen
                0x0000000000027d9e       0x59 obj_cooja/mtype772.a(tcpip.o)
                0x0000000000027d9e                tcp_listen
 .text.tcp_attach
                0x0000000000027df7       0x25 obj_cooja/mtype772.a(tcpip.o)
                0x0000000000027df7                tcp_attach
 .text.udp_attach
                0x0000000000027e1c       0x25 obj_cooja/mtype772.a(tcpip.o)
                0x0000000000027e1c                udp_attach
 .text.udp_new  0x0000000000027e41       0x52 obj_cooja/mtype772.a(tcpip.o)
                0x0000000000027e41                udp_new
 .text.udp_broadcast_new
                0x0000000000027e93       0x92 obj_cooja/mtype772.a(tcpip.o)
                0x0000000000027e93                udp_broadcast_new
 .text.eventhandler
                0x0000000000027f25      0x1e2 obj_cooja/mtype772.a(tcpip.o)
 .text.tcpip_input
                0x0000000000028107       0x34 obj_cooja/mtype772.a(tcpip.o)
                0x0000000000028107                tcpip_input
 .text.tcpip_ipv6_output
                0x000000000002813b      0x4b5 obj_cooja/mtype772.a(tcpip.o)
                0x000000000002813b                tcpip_ipv6_output
 .text.tcpip_poll_udp
                0x00000000000285f0       0x23 obj_cooja/mtype772.a(tcpip.o)
                0x00000000000285f0                tcpip_poll_udp
 .text.tcpip_poll_tcp
                0x0000000000028613       0x23 obj_cooja/mtype772.a(tcpip.o)
                0x0000000000028613                tcpip_poll_tcp
 .text.tcpip_uipcall
                0x0000000000028636       0xbd obj_cooja/mtype772.a(tcpip.o)
                0x0000000000028636                tcpip_uipcall
 .text.process_thread_tcpip_process
                0x00000000000286f3       0xb7 obj_cooja/mtype772.a(tcpip.o)
 .text          0x00000000000287aa        0x0 obj_cooja/mtype772.a(uip-debug.o)
 .text.uip_debug_ipaddr_print
                0x00000000000287aa      0x162 obj_cooja/mtype772.a(uip-debug.o)
                0x00000000000287aa                uip_debug_ipaddr_print
 .text          0x000000000002890c        0x0 obj_cooja/mtype772.a(uip-nameserver.)
 .text.uip_nameserver_update
                0x000000000002890c       0x32 obj_cooja/mtype772.a(uip-nameserver.)
                0x000000000002890c                uip_nameserver_update
 .text.uip_nameserver_get
                0x000000000002893e       0x20 obj_cooja/mtype772.a(uip-nameserver.)
                0x000000000002893e                uip_nameserver_get
 .text.uip_nameserver_next_expiration
                0x000000000002895e        0xa obj_cooja/mtype772.a(uip-nameserver.)
                0x000000000002895e                uip_nameserver_next_expiration
 .text.uip_nameserver_count
                0x0000000000028968       0x71 obj_cooja/mtype772.a(uip-nameserver.)
                0x0000000000028968                uip_nameserver_count
 .text          0x00000000000289d9        0x0 obj_cooja/mtype772.a(uip-packetqueue)
 .text.packet_timedout
                0x00000000000289d9       0x2c obj_cooja/mtype772.a(uip-packetqueue)
 .text.uip_packetqueue_new
                0x0000000000028a05        0xe obj_cooja/mtype772.a(uip-packetqueue)
                0x0000000000028a05                uip_packetqueue_new
 .text.uip_packetqueue_alloc
                0x0000000000028a13       0x60 obj_cooja/mtype772.a(uip-packetqueue)
                0x0000000000028a13                uip_packetqueue_alloc
 .text.uip_packetqueue_free
                0x0000000000028a73       0x41 obj_cooja/mtype772.a(uip-packetqueue)
                0x0000000000028a73                uip_packetqueue_free
 .text.uip_packetqueue_buf
                0x0000000000028ab4       0x1d obj_cooja/mtype772.a(uip-packetqueue)
                0x0000000000028ab4                uip_packetqueue_buf
 .text.uip_packetqueue_buflen
                0x0000000000028ad1       0x21 obj_cooja/mtype772.a(uip-packetqueue)
                0x0000000000028ad1                uip_packetqueue_buflen
 .text.uip_packetqueue_set_buflen
                0x0000000000028af2       0x28 obj_cooja/mtype772.a(uip-packetqueue)
                0x0000000000028af2                uip_packetqueue_set_buflen
 .text          0x0000000000028b1a        0x0 obj_cooja/mtype772.a(uip-udp-packet.)
 .text.uip_udp_packet_send
                0x0000000000028b1a       0x5c obj_cooja/mtype772.a(uip-udp-packet.)
                0x0000000000028b1a                uip_udp_packet_send
 .text.uip_udp_packet_sendto
                0x0000000000028b76       0xd1 obj_cooja/mtype772.a(uip-udp-packet.)
                0x0000000000028b76                uip_udp_packet_sendto
 .text          0x0000000000028c47        0x0 obj_cooja/mtype772.a(rpl-dag.o)
 .text.rpl_print_neighbor_list
                0x0000000000028c47      0x1e6 obj_cooja/mtype772.a(rpl-dag.o)
                0x0000000000028c47                rpl_print_neighbor_list
 .text.rpl_get_nbr
                0x0000000000028e2d       0x37 obj_cooja/mtype772.a(rpl-dag.o)
                0x0000000000028e2d                rpl_get_nbr
 .text.nbr_callback
                0x0000000000028e64       0x13 obj_cooja/mtype772.a(rpl-dag.o)
 .text.rpl_dag_init
                0x0000000000028e77       0x1d obj_cooja/mtype772.a(rpl-dag.o)
                0x0000000000028e77                rpl_dag_init
 .text.rpl_get_parent
                0x0000000000028e94       0x22 obj_cooja/mtype772.a(rpl-dag.o)
                0x0000000000028e94                rpl_get_parent
 .text.rpl_get_parent_rank
                0x0000000000028eb6       0x33 obj_cooja/mtype772.a(rpl-dag.o)
                0x0000000000028eb6                rpl_get_parent_rank
 .text.rpl_get_parent_link_metric
                0x0000000000028ee9       0x57 obj_cooja/mtype772.a(rpl-dag.o)
                0x0000000000028ee9                rpl_get_parent_link_metric
 .text.rpl_rank_via_parent
                0x0000000000028f40       0x57 obj_cooja/mtype772.a(rpl-dag.o)
                0x0000000000028f40                rpl_rank_via_parent
 .text.rpl_get_parent_lladdr
                0x0000000000028f97       0x1c obj_cooja/mtype772.a(rpl-dag.o)
                0x0000000000028f97                rpl_get_parent_lladdr
 .text.rpl_get_parent_ipaddr
                0x0000000000028fb3       0x21 obj_cooja/mtype772.a(rpl-dag.o)
                0x0000000000028fb3                rpl_get_parent_ipaddr
 .text.rpl_get_parent_link_stats
                0x0000000000028fd4       0x21 obj_cooja/mtype772.a(rpl-dag.o)
                0x0000000000028fd4                rpl_get_parent_link_stats
 .text.rpl_parent_is_fresh
                0x0000000000028ff5       0x21 obj_cooja/mtype772.a(rpl-dag.o)
                0x0000000000028ff5                rpl_parent_is_fresh
 .text.rpl_parent_is_reachable
                0x0000000000029016       0x94 obj_cooja/mtype772.a(rpl-dag.o)
                0x0000000000029016                rpl_parent_is_reachable
 .text.rpl_set_preferred_parent
                0x00000000000290aa       0x4d obj_cooja/mtype772.a(rpl-dag.o)
 .text.lollipop_greater_than
                0x00000000000290f7       0x61 obj_cooja/mtype772.a(rpl-dag.o)
 .text.remove_parents
                0x0000000000029158       0x60 obj_cooja/mtype772.a(rpl-dag.o)
 .text.nullify_parents
                0x00000000000291b8       0x60 obj_cooja/mtype772.a(rpl-dag.o)
 .text.should_refresh_routes
                0x0000000000029218       0x5b obj_cooja/mtype772.a(rpl-dag.o)
 .text.acceptable_rank
                0x0000000000029273       0x8f obj_cooja/mtype772.a(rpl-dag.o)
 .text.get_dag  0x0000000000029302       0x81 obj_cooja/mtype772.a(rpl-dag.o)
 .text.rpl_set_root
                0x0000000000029383      0x257 obj_cooja/mtype772.a(rpl-dag.o)
                0x0000000000029383                rpl_set_root
 .text.rpl_repair_root
                0x00000000000295da       0xd6 obj_cooja/mtype772.a(rpl-dag.o)
                0x00000000000295da                rpl_repair_root
 .text.set_ip_from_prefix
                0x00000000000296b0       0x66 obj_cooja/mtype772.a(rpl-dag.o)
 .text.check_prefix
                0x0000000000029716      0x100 obj_cooja/mtype772.a(rpl-dag.o)
 .text.rpl_set_prefix
                0x0000000000029816       0xff obj_cooja/mtype772.a(rpl-dag.o)
                0x0000000000029816                rpl_set_prefix
 .text.rpl_set_default_route
                0x0000000000029915       0x6e obj_cooja/mtype772.a(rpl-dag.o)
                0x0000000000029915                rpl_set_default_route
 .text.rpl_alloc_instance
                0x0000000000029983       0x93 obj_cooja/mtype772.a(rpl-dag.o)
                0x0000000000029983                rpl_alloc_instance
 .text.rpl_alloc_dag
                0x0000000000029a16       0xb1 obj_cooja/mtype772.a(rpl-dag.o)
                0x0000000000029a16                rpl_alloc_dag
 .text.rpl_set_default_instance
                0x0000000000029ac7        0xd obj_cooja/mtype772.a(rpl-dag.o)
                0x0000000000029ac7                rpl_set_default_instance
 .text.rpl_get_default_instance
                0x0000000000029ad4        0xa obj_cooja/mtype772.a(rpl-dag.o)
                0x0000000000029ad4                rpl_get_default_instance
 .text.rpl_free_instance
                0x0000000000029ade       0xaf obj_cooja/mtype772.a(rpl-dag.o)
                0x0000000000029ade                rpl_free_instance
 .text.rpl_free_dag
                0x0000000000029b8d       0x81 obj_cooja/mtype772.a(rpl-dag.o)
                0x0000000000029b8d                rpl_free_dag
 .text.rpl_add_parent
                0x0000000000029c0e       0x75 obj_cooja/mtype772.a(rpl-dag.o)
                0x0000000000029c0e                rpl_add_parent
 .text.find_parent_any_dag_any_instance
                0x0000000000029c83       0x38 obj_cooja/mtype772.a(rpl-dag.o)
 .text.rpl_find_parent
                0x0000000000029cbb       0x30 obj_cooja/mtype772.a(rpl-dag.o)
                0x0000000000029cbb                rpl_find_parent
 .text.find_parent_dag
                0x0000000000029ceb       0x28 obj_cooja/mtype772.a(rpl-dag.o)
 .text.rpl_find_parent_any_dag
                0x0000000000029d13       0x3c obj_cooja/mtype772.a(rpl-dag.o)
                0x0000000000029d13                rpl_find_parent_any_dag
 .text.rpl_select_dag
                0x0000000000029d4f      0x322 obj_cooja/mtype772.a(rpl-dag.o)
                0x0000000000029d4f                rpl_select_dag
 .text.best_parent
                0x000000000002a071       0xfd obj_cooja/mtype772.a(rpl-dag.o)
 .text.rpl_select_parent
                0x000000000002a16e       0xda obj_cooja/mtype772.a(rpl-dag.o)
                0x000000000002a16e                rpl_select_parent
 .text.rpl_remove_parent
                0x000000000002a248       0x27 obj_cooja/mtype772.a(rpl-dag.o)
                0x000000000002a248                rpl_remove_parent
 .text.rpl_nullify_parent
                0x000000000002a26f       0xc1 obj_cooja/mtype772.a(rpl-dag.o)
                0x000000000002a26f                rpl_nullify_parent
 .text.rpl_move_parent
                0x000000000002a330       0xb8 obj_cooja/mtype772.a(rpl-dag.o)
                0x000000000002a330                rpl_move_parent
 .text.rpl_has_downward_route
                0x000000000002a3e8       0x53 obj_cooja/mtype772.a(rpl-dag.o)
                0x000000000002a3e8                rpl_has_downward_route
 .text.rpl_get_dag
                0x000000000002a43b       0xec obj_cooja/mtype772.a(rpl-dag.o)
                0x000000000002a43b                rpl_get_dag
 .text.rpl_get_any_dag
                0x000000000002a527       0x62 obj_cooja/mtype772.a(rpl-dag.o)
                0x000000000002a527                rpl_get_any_dag
 .text.rpl_get_instance
                0x000000000002a589       0x63 obj_cooja/mtype772.a(rpl-dag.o)
                0x000000000002a589                rpl_get_instance
 .text.rpl_find_of
                0x000000000002a5ec       0x3d obj_cooja/mtype772.a(rpl-dag.o)
                0x000000000002a5ec                rpl_find_of
 .text.rpl_join_instance
                0x000000000002a629      0x2c0 obj_cooja/mtype772.a(rpl-dag.o)
                0x000000000002a629                rpl_join_instance
 .text.rpl_add_dag
                0x000000000002a8e9      0x27c obj_cooja/mtype772.a(rpl-dag.o)
                0x000000000002a8e9                rpl_add_dag
 .text.global_repair
                0x000000000002ab65      0x154 obj_cooja/mtype772.a(rpl-dag.o)
 .text.rpl_local_repair
                0x000000000002acb9       0xd8 obj_cooja/mtype772.a(rpl-dag.o)
                0x000000000002acb9                rpl_local_repair
 .text.rpl_recalculate_ranks
                0x000000000002ad91       0x86 obj_cooja/mtype772.a(rpl-dag.o)
                0x000000000002ad91                rpl_recalculate_ranks
 .text.rpl_process_parent_event
                0x000000000002ae17       0xfb obj_cooja/mtype772.a(rpl-dag.o)
                0x000000000002ae17                rpl_process_parent_event
 .text.add_nbr_from_dio
                0x000000000002af12       0x32 obj_cooja/mtype772.a(rpl-dag.o)
 .text.rpl_process_dio
                0x000000000002af44      0x4da obj_cooja/mtype772.a(rpl-dag.o)
                0x000000000002af44                rpl_process_dio
 .text          0x000000000002b41e        0x0 obj_cooja/mtype772.a(rpl-ext-header.)
 .text.packetbuf_addr
                0x000000000002b41e       0x1d obj_cooja/mtype772.a(rpl-ext-header.)
 .text.rpl_verify_hbh_header
                0x000000000002b43b      0x2c8 obj_cooja/mtype772.a(rpl-ext-header.)
                0x000000000002b43b                rpl_verify_hbh_header
 .text.update_hbh_header
                0x000000000002b703      0x2b8 obj_cooja/mtype772.a(rpl-ext-header.)
 .text.insert_hbh_header
                0x000000000002b9bb      0x203 obj_cooja/mtype772.a(rpl-ext-header.)
 .text.rpl_remove_header
                0x000000000002bbbe      0x163 obj_cooja/mtype772.a(rpl-ext-header.)
                0x000000000002bbbe                rpl_remove_header
 .text.rpl_update_header
                0x000000000002bd21       0xcc obj_cooja/mtype772.a(rpl-ext-header.)
                0x000000000002bd21                rpl_update_header
 .text          0x000000000002bded        0x0 obj_cooja/mtype772.a(rpl-icmp6.o)
 .text.packetbuf_addr
                0x000000000002bded       0x1d obj_cooja/mtype772.a(rpl-icmp6.o)
 .text.prepare_for_dao_fwd
                0x000000000002be0a       0x6c obj_cooja/mtype772.a(rpl-icmp6.o)
 .text.get_global_addr
                0x000000000002be76       0xb3 obj_cooja/mtype772.a(rpl-icmp6.o)
 .text.get32    0x000000000002bf29       0x57 obj_cooja/mtype772.a(rpl-icmp6.o)
 .text.set32    0x000000000002bf80       0x62 obj_cooja/mtype772.a(rpl-icmp6.o)
 .text.get16    0x000000000002bfe2       0x2b obj_cooja/mtype772.a(rpl-icmp6.o)
 .text.set16    0x000000000002c00d       0x3f obj_cooja/mtype772.a(rpl-icmp6.o)
 .text.rpl_icmp6_update_nbr_table
                0x000000000002c04c       0x5b obj_cooja/mtype772.a(rpl-icmp6.o)
                0x000000000002c04c                rpl_icmp6_update_nbr_table
 .text.dis_input
                0x000000000002c0a7       0x95 obj_cooja/mtype772.a(rpl-icmp6.o)
 .text.dis_output
                0x000000000002c13c       0xaf obj_cooja/mtype772.a(rpl-icmp6.o)
                0x000000000002c13c                dis_output
 .text.dio_input
                0x000000000002c1eb      0x58a obj_cooja/mtype772.a(rpl-icmp6.o)
 .text.dio_output
                0x000000000002c775      0x622 obj_cooja/mtype772.a(rpl-icmp6.o)
                0x000000000002c775                dio_output
 .text.dao_input_storing
                0x000000000002cd97      0x6d8 obj_cooja/mtype772.a(rpl-icmp6.o)
 .text.dao_input_nonstoring
                0x000000000002d46f        0x5 obj_cooja/mtype772.a(rpl-icmp6.o)
 .text.dao_input
                0x000000000002d474       0x5f obj_cooja/mtype772.a(rpl-icmp6.o)
 .text.dao_output
                0x000000000002d4d3       0xbb obj_cooja/mtype772.a(rpl-icmp6.o)
                0x000000000002d4d3                dao_output
 .text.dao_output_target
                0x000000000002d58e       0x36 obj_cooja/mtype772.a(rpl-icmp6.o)
                0x000000000002d58e                dao_output_target
 .text.dao_output_target_seq
                0x000000000002d5c4      0x2ff obj_cooja/mtype772.a(rpl-icmp6.o)
 .text.dao_ack_input
                0x000000000002d8c3       0x15 obj_cooja/mtype772.a(rpl-icmp6.o)
 .text.dao_ack_output
                0x000000000002d8d8       0x14 obj_cooja/mtype772.a(rpl-icmp6.o)
                0x000000000002d8d8                dao_ack_output
 .text.rpl_icmp6_register_handlers
                0x000000000002d8ec       0x38 obj_cooja/mtype772.a(rpl-icmp6.o)
                0x000000000002d8ec                rpl_icmp6_register_handlers
 .text          0x000000000002d924        0x0 obj_cooja/mtype772.a(rpl-mrhof.o)
 .text.reset    0x000000000002d924        0x5 obj_cooja/mtype772.a(rpl-mrhof.o)
 .text.parent_link_metric
                0x000000000002d929       0x29 obj_cooja/mtype772.a(rpl-mrhof.o)
 .text.parent_path_cost
                0x000000000002d952       0x6d obj_cooja/mtype772.a(rpl-mrhof.o)
 .text.rank_via_parent
                0x000000000002d9bf       0x72 obj_cooja/mtype772.a(rpl-mrhof.o)
 .text.parent_is_acceptable
                0x000000000002da31       0x42 obj_cooja/mtype772.a(rpl-mrhof.o)
 .text.parent_has_usable_link
                0x000000000002da73       0x23 obj_cooja/mtype772.a(rpl-mrhof.o)
 .text.best_parent
                0x000000000002da96       0xf7 obj_cooja/mtype772.a(rpl-mrhof.o)
 .text.best_dag
                0x000000000002db8d       0x75 obj_cooja/mtype772.a(rpl-mrhof.o)
 .text.update_metric_container
                0x000000000002dc02        0xb obj_cooja/mtype772.a(rpl-mrhof.o)
 .text          0x000000000002dc0d        0x0 obj_cooja/mtype772.a(rpl-timers.o)
 .text.handle_periodic_timer
                0x000000000002dc0d       0x84 obj_cooja/mtype772.a(rpl-timers.o)
 .text.new_dio_interval
                0x000000000002dc91       0xca obj_cooja/mtype772.a(rpl-timers.o)
 .text.handle_dio_timer
                0x000000000002dd5b      0x12d obj_cooja/mtype772.a(rpl-timers.o)
 .text.rpl_reset_periodic_timer
                0x000000000002de88       0x55 obj_cooja/mtype772.a(rpl-timers.o)
                0x000000000002de88                rpl_reset_periodic_timer
 .text.rpl_reset_dio_timer
                0x000000000002dedd       0x48 obj_cooja/mtype772.a(rpl-timers.o)
                0x000000000002dedd                rpl_reset_dio_timer
 .text.set_dao_lifetime_timer
                0x000000000002df25       0x8c obj_cooja/mtype772.a(rpl-timers.o)
 .text.handle_dao_timer
                0x000000000002dfb1       0xb1 obj_cooja/mtype772.a(rpl-timers.o)
 .text.schedule_dao
                0x000000000002e062       0xa2 obj_cooja/mtype772.a(rpl-timers.o)
 .text.rpl_schedule_dao
                0x000000000002e104       0x1b obj_cooja/mtype772.a(rpl-timers.o)
                0x000000000002e104                rpl_schedule_dao
 .text.rpl_schedule_dao_immediately
                0x000000000002e11f       0x1b obj_cooja/mtype772.a(rpl-timers.o)
                0x000000000002e11f                rpl_schedule_dao_immediately
 .text.rpl_cancel_dao
                0x000000000002e13a       0x28 obj_cooja/mtype772.a(rpl-timers.o)
                0x000000000002e13a                rpl_cancel_dao
 .text.handle_unicast_dio_timer
                0x000000000002e162       0x3a obj_cooja/mtype772.a(rpl-timers.o)
 .text.rpl_schedule_unicast_dio_immediately
                0x000000000002e19c       0x30 obj_cooja/mtype772.a(rpl-timers.o)
                0x000000000002e19c                rpl_schedule_unicast_dio_immediately
 .text.get_probing_delay
                0x000000000002e1cc       0x7f obj_cooja/mtype772.a(rpl-timers.o)
                0x000000000002e1cc                get_probing_delay
 .text.get_probing_target
                0x000000000002e24b      0x18c obj_cooja/mtype772.a(rpl-timers.o)
                0x000000000002e24b                get_probing_target
 .text.handle_probing_timer
                0x000000000002e3d7       0x6b obj_cooja/mtype772.a(rpl-timers.o)
 .text.rpl_schedule_probing
                0x000000000002e442       0x3a obj_cooja/mtype772.a(rpl-timers.o)
                0x000000000002e442                rpl_schedule_probing
 .text          0x000000000002e47c        0x0 obj_cooja/mtype772.a(rpl.o)
 .text.rpl_get_mode
                0x000000000002e47c        0xa obj_cooja/mtype772.a(rpl.o)
                0x000000000002e47c                rpl_get_mode
 .text.rpl_set_mode
                0x000000000002e486       0x8e obj_cooja/mtype772.a(rpl.o)
                0x000000000002e486                rpl_set_mode
 .text.rpl_purge_routes
                0x000000000002e514      0x105 obj_cooja/mtype772.a(rpl.o)
                0x000000000002e514                rpl_purge_routes
 .text.rpl_remove_routes
                0x000000000002e619       0x46 obj_cooja/mtype772.a(rpl.o)
                0x000000000002e619                rpl_remove_routes
 .text.rpl_remove_routes_by_nexthop
                0x000000000002e65f       0x61 obj_cooja/mtype772.a(rpl.o)
                0x000000000002e65f                rpl_remove_routes_by_nexthop
 .text.rpl_add_route
                0x000000000002e6c0       0x93 obj_cooja/mtype772.a(rpl.o)
                0x000000000002e6c0                rpl_add_route
 .text.rpl_link_neighbor_callback
                0x000000000002e753       0xca obj_cooja/mtype772.a(rpl.o)
                0x000000000002e753                rpl_link_neighbor_callback
 .text.rpl_ipv6_neighbor_callback
                0x000000000002e81d       0x6f obj_cooja/mtype772.a(rpl.o)
                0x000000000002e81d                rpl_ipv6_neighbor_callback
 .text.rpl_purge_dags
                0x000000000002e88c       0xe2 obj_cooja/mtype772.a(rpl.o)
                0x000000000002e88c                rpl_purge_dags
 .text.rpl_init
                0x000000000002e96e       0x78 obj_cooja/mtype772.a(rpl.o)
                0x000000000002e96e                rpl_init
 .text          0x000000000002e9e6        0x0 obj_cooja/mtype772.a(link-stats.o)
 .text.packetbuf_attr
                0x000000000002e9e6       0x1a obj_cooja/mtype772.a(link-stats.o)
 .text.link_stats_from_lladdr
                0x000000000002ea00       0x1c obj_cooja/mtype772.a(link-stats.o)
                0x000000000002ea00                link_stats_from_lladdr
 .text.link_stats_is_fresh
                0x000000000002ea1c       0x39 obj_cooja/mtype772.a(link-stats.o)
                0x000000000002ea1c                link_stats_is_fresh
 .text.guess_etx_from_rssi
                0x000000000002ea55       0x7c obj_cooja/mtype772.a(link-stats.o)
                0x000000000002ea55                guess_etx_from_rssi
 .text.link_stats_packet_sent
                0x000000000002ead1      0x10e obj_cooja/mtype772.a(link-stats.o)
                0x000000000002ead1                link_stats_packet_sent
 .text.link_stats_input_callback
                0x000000000002ebdf       0xaf obj_cooja/mtype772.a(link-stats.o)
                0x000000000002ebdf                link_stats_input_callback
 .text.periodic
                0x000000000002ec8e       0x54 obj_cooja/mtype772.a(link-stats.o)
 .text.link_stats_init
                0x000000000002ece2       0x41 obj_cooja/mtype772.a(link-stats.o)
                0x000000000002ece2                link_stats_init
 .text          0x000000000002ed23        0x0 obj_cooja/mtype772.a(linkaddr.o)
 .text.linkaddr_copy
                0x000000000002ed23       0x22 obj_cooja/mtype772.a(linkaddr.o)
                0x000000000002ed23                linkaddr_copy
 .text.linkaddr_cmp
                0x000000000002ed45       0x2a obj_cooja/mtype772.a(linkaddr.o)
                0x000000000002ed45                linkaddr_cmp
 .text.linkaddr_set_node_addr
                0x000000000002ed6f       0x1b obj_cooja/mtype772.a(linkaddr.o)
                0x000000000002ed6f                linkaddr_set_node_addr
 .text          0x000000000002ed8a        0x0 obj_cooja/mtype772.a(nbr-table.o)
 .text.key_from_index
                0x000000000002ed8a       0x26 obj_cooja/mtype772.a(nbr-table.o)
 .text.item_from_index
                0x000000000002edb0       0x2a obj_cooja/mtype772.a(nbr-table.o)
 .text.index_from_key
                0x000000000002edda       0x27 obj_cooja/mtype772.a(nbr-table.o)
 .text.index_from_item
                0x000000000002ee01       0x32 obj_cooja/mtype772.a(nbr-table.o)
 .text.item_from_key
                0x000000000002ee33       0x22 obj_cooja/mtype772.a(nbr-table.o)
 .text.key_from_item
                0x000000000002ee55       0x22 obj_cooja/mtype772.a(nbr-table.o)
 .text.index_from_lladdr
                0x000000000002ee77       0x6c obj_cooja/mtype772.a(nbr-table.o)
 .text.nbr_get_bit
                0x000000000002eee3       0x54 obj_cooja/mtype772.a(nbr-table.o)
 .text.nbr_set_bit
                0x000000000002ef37       0x98 obj_cooja/mtype772.a(nbr-table.o)
 .text.remove_key
                0x000000000002efcf       0xb7 obj_cooja/mtype772.a(nbr-table.o)
 .text.nbr_table_allocate
                0x000000000002f086      0x173 obj_cooja/mtype772.a(nbr-table.o)
 .text.nbr_table_register
                0x000000000002f1f9       0x48 obj_cooja/mtype772.a(nbr-table.o)
                0x000000000002f1f9                nbr_table_register
 .text.nbr_table_head
                0x000000000002f241       0x5c obj_cooja/mtype772.a(nbr-table.o)
                0x000000000002f241                nbr_table_head
 .text.nbr_table_next
                0x000000000002f29d       0x67 obj_cooja/mtype772.a(nbr-table.o)
                0x000000000002f29d                nbr_table_next
 .text.nbr_table_add_lladdr
                0x000000000002f304       0xdc obj_cooja/mtype772.a(nbr-table.o)
                0x000000000002f304                nbr_table_add_lladdr
 .text.nbr_table_get_from_lladdr
                0x000000000002f3e0       0x4d obj_cooja/mtype772.a(nbr-table.o)
                0x000000000002f3e0                nbr_table_get_from_lladdr
 .text.nbr_table_remove
                0x000000000002f42d       0x52 obj_cooja/mtype772.a(nbr-table.o)
                0x000000000002f42d                nbr_table_remove
 .text.nbr_table_lock
                0x000000000002f47f       0x2a obj_cooja/mtype772.a(nbr-table.o)
                0x000000000002f47f                nbr_table_lock
 .text.nbr_table_unlock
                0x000000000002f4a9       0x2a obj_cooja/mtype772.a(nbr-table.o)
                0x000000000002f4a9                nbr_table_unlock
 .text.nbr_table_get_lladdr
                0x000000000002f4d3       0x30 obj_cooja/mtype772.a(nbr-table.o)
                0x000000000002f4d3                nbr_table_get_lladdr
 .text.nbr_table_update_lladdr
                0x000000000002f503       0x96 obj_cooja/mtype772.a(nbr-table.o)
                0x000000000002f503                nbr_table_update_lladdr
 .text          0x000000000002f599        0x0 obj_cooja/mtype772.a(netstack.o)
 .text.netstack_init
                0x000000000002f599       0x2b obj_cooja/mtype772.a(netstack.o)
                0x000000000002f599                netstack_init
 .text          0x000000000002f5c4        0x0 obj_cooja/mtype772.a(packetbuf.o)
 .text.packetbuf_clear
                0x000000000002f5c4       0x2a obj_cooja/mtype772.a(packetbuf.o)
                0x000000000002f5c4                packetbuf_clear
 .text.packetbuf_copyfrom
                0x000000000002f5ee       0x52 obj_cooja/mtype772.a(packetbuf.o)
                0x000000000002f5ee                packetbuf_copyfrom
 .text.packetbuf_compact
                0x000000000002f640       0x7d obj_cooja/mtype772.a(packetbuf.o)
                0x000000000002f640                packetbuf_compact
 .text.packetbuf_copyto
                0x000000000002f6bd       0x97 obj_cooja/mtype772.a(packetbuf.o)
                0x000000000002f6bd                packetbuf_copyto
 .text.packetbuf_hdralloc
                0x000000000002f754       0x7d obj_cooja/mtype772.a(packetbuf.o)
                0x000000000002f754                packetbuf_hdralloc
 .text.packetbuf_hdrreduce
                0x000000000002f7d1       0x48 obj_cooja/mtype772.a(packetbuf.o)
                0x000000000002f7d1                packetbuf_hdrreduce
 .text.packetbuf_set_datalen
                0x000000000002f819       0x19 obj_cooja/mtype772.a(packetbuf.o)
                0x000000000002f819                packetbuf_set_datalen
 .text.packetbuf_dataptr
                0x000000000002f832       0x1d obj_cooja/mtype772.a(packetbuf.o)
                0x000000000002f832                packetbuf_dataptr
 .text.packetbuf_hdrptr
                0x000000000002f84f        0xa obj_cooja/mtype772.a(packetbuf.o)
                0x000000000002f84f                packetbuf_hdrptr
 .text.packetbuf_datalen
                0x000000000002f859        0xc obj_cooja/mtype772.a(packetbuf.o)
                0x000000000002f859                packetbuf_datalen
 .text.packetbuf_hdrlen
                0x000000000002f865       0x17 obj_cooja/mtype772.a(packetbuf.o)
                0x000000000002f865                packetbuf_hdrlen
 .text.packetbuf_totlen
                0x000000000002f87c       0x16 obj_cooja/mtype772.a(packetbuf.o)
                0x000000000002f87c                packetbuf_totlen
 .text.packetbuf_remaininglen
                0x000000000002f892       0x13 obj_cooja/mtype772.a(packetbuf.o)
                0x000000000002f892                packetbuf_remaininglen
 .text.packetbuf_attr_clear
                0x000000000002f8a5       0x52 obj_cooja/mtype772.a(packetbuf.o)
                0x000000000002f8a5                packetbuf_attr_clear
 .text.packetbuf_attr_copyto
                0x000000000002f8f7       0x49 obj_cooja/mtype772.a(packetbuf.o)
                0x000000000002f8f7                packetbuf_attr_copyto
 .text.packetbuf_attr_copyfrom
                0x000000000002f940       0x48 obj_cooja/mtype772.a(packetbuf.o)
                0x000000000002f940                packetbuf_attr_copyfrom
 .text.packetbuf_holds_broadcast
                0x000000000002f988       0x1c obj_cooja/mtype772.a(packetbuf.o)
                0x000000000002f988                packetbuf_holds_broadcast
 .text          0x000000000002f9a4        0x0 obj_cooja/mtype772.a(queuebuf.o)
 .text.queuebuf_load_to_ram
                0x000000000002f9a4        0xa obj_cooja/mtype772.a(queuebuf.o)
 .text.queuebuf_init
                0x000000000002f9ae       0x20 obj_cooja/mtype772.a(queuebuf.o)
                0x000000000002f9ae                queuebuf_init
 .text.queuebuf_numfree
                0x000000000002f9ce       0x14 obj_cooja/mtype772.a(queuebuf.o)
                0x000000000002f9ce                queuebuf_numfree
 .text.queuebuf_new_from_packetbuf
                0x000000000002f9e2       0x90 obj_cooja/mtype772.a(queuebuf.o)
                0x000000000002f9e2                queuebuf_new_from_packetbuf
 .text.queuebuf_update_attr_from_packetbuf
                0x000000000002fa72       0x33 obj_cooja/mtype772.a(queuebuf.o)
                0x000000000002fa72                queuebuf_update_attr_from_packetbuf
 .text.queuebuf_update_from_packetbuf
                0x000000000002faa5       0x4a obj_cooja/mtype772.a(queuebuf.o)
                0x000000000002faa5                queuebuf_update_from_packetbuf
 .text.queuebuf_free
                0x000000000002faef       0x47 obj_cooja/mtype772.a(queuebuf.o)
                0x000000000002faef                queuebuf_free
 .text.queuebuf_to_packetbuf
                0x000000000002fb36       0x66 obj_cooja/mtype772.a(queuebuf.o)
                0x000000000002fb36                queuebuf_to_packetbuf
 .text.queuebuf_dataptr
                0x000000000002fb9c       0x37 obj_cooja/mtype772.a(queuebuf.o)
                0x000000000002fb9c                queuebuf_dataptr
 .text.queuebuf_datalen
                0x000000000002fbd3       0x23 obj_cooja/mtype772.a(queuebuf.o)
                0x000000000002fbd3                queuebuf_datalen
 .text.queuebuf_addr
                0x000000000002fbf6       0x32 obj_cooja/mtype772.a(queuebuf.o)
                0x000000000002fbf6                queuebuf_addr
 .text.queuebuf_attr
                0x000000000002fc28       0x2b obj_cooja/mtype772.a(queuebuf.o)
                0x000000000002fc28                queuebuf_attr
 .text.queuebuf_debug_print
                0x000000000002fc53        0x5 obj_cooja/mtype772.a(queuebuf.o)
                0x000000000002fc53                queuebuf_debug_print
 .text          0x000000000002fc58        0x0 obj_cooja/mtype772.a(csma.o)
 .text.packetbuf_set_attr
                0x000000000002fc58       0x2a obj_cooja/mtype772.a(csma.o)
 .text.packetbuf_attr
                0x000000000002fc82       0x1a obj_cooja/mtype772.a(csma.o)
 .text.packetbuf_addr
                0x000000000002fc9c       0x1d obj_cooja/mtype772.a(csma.o)
 .text.neighbor_queue_from_addr
                0x000000000002fcb9       0x51 obj_cooja/mtype772.a(csma.o)
 .text.backoff_period
                0x000000000002fd0a       0x25 obj_cooja/mtype772.a(csma.o)
 .text.transmit_packet_list
                0x000000000002fd2f       0x47 obj_cooja/mtype772.a(csma.o)
 .text.schedule_transmission
                0x000000000002fd76       0x87 obj_cooja/mtype772.a(csma.o)
 .text.free_packet
                0x000000000002fdfd       0xc0 obj_cooja/mtype772.a(csma.o)
 .text.tx_done  0x000000000002febd       0x7c obj_cooja/mtype772.a(csma.o)
 .text.rexmit   0x000000000002ff39       0x21 obj_cooja/mtype772.a(csma.o)
 .text.collision
                0x000000000002ff5a       0x85 obj_cooja/mtype772.a(csma.o)
 .text.noack    0x000000000002ffdf       0x6a obj_cooja/mtype772.a(csma.o)
 .text.tx_ok    0x0000000000030049       0x3b obj_cooja/mtype772.a(csma.o)
 .text.packet_sent
                0x0000000000030084      0x117 obj_cooja/mtype772.a(csma.o)
 .text.send_packet
                0x000000000003019b      0x274 obj_cooja/mtype772.a(csma.o)
 .text.input_packet
                0x000000000003040f        0xf obj_cooja/mtype772.a(csma.o)
 .text.on       0x000000000003041e        0xf obj_cooja/mtype772.a(csma.o)
 .text.off      0x000000000003042d       0x15 obj_cooja/mtype772.a(csma.o)
 .text.channel_check_interval
                0x0000000000030442       0x1f obj_cooja/mtype772.a(csma.o)
 .text.init     0x0000000000030461       0x2c obj_cooja/mtype772.a(csma.o)
 .text          0x000000000003048d        0x0 obj_cooja/mtype772.a(framer-802154.o)
 .text.packetbuf_set_attr
                0x000000000003048d       0x2a obj_cooja/mtype772.a(framer-802154.o)
 .text.packetbuf_attr
                0x00000000000304b7       0x1a obj_cooja/mtype772.a(framer-802154.o)
 .text.packetbuf_set_addr
                0x00000000000304d1       0x32 obj_cooja/mtype772.a(framer-802154.o)
 .text.packetbuf_addr
                0x0000000000030503       0x1d obj_cooja/mtype772.a(framer-802154.o)
 .text.create_frame
                0x0000000000030520      0x1eb obj_cooja/mtype772.a(framer-802154.o)
 .text.hdr_length
                0x000000000003070b       0x1c obj_cooja/mtype772.a(framer-802154.o)
 .text.create   0x0000000000030727       0x1c obj_cooja/mtype772.a(framer-802154.o)
 .text.parse    0x0000000000030743      0x143 obj_cooja/mtype772.a(framer-802154.o)
 .text          0x0000000000030886        0x0 obj_cooja/mtype772.a(mac.o)
 .text.mac_call_sent_callback
                0x0000000000030886       0x3c obj_cooja/mtype772.a(mac.o)
                0x0000000000030886                mac_call_sent_callback
 .text          0x00000000000308c2        0x0 obj_cooja/mtype772.a(nullrdc.o)
 .text.packetbuf_set_attr
                0x00000000000308c2       0x2a obj_cooja/mtype772.a(nullrdc.o)
 .text.packetbuf_set_addr
                0x00000000000308ec       0x32 obj_cooja/mtype772.a(nullrdc.o)
 .text.packetbuf_addr
                0x000000000003091e       0x1d obj_cooja/mtype772.a(nullrdc.o)
 .text.send_one_packet
                0x000000000003093b      0x1ec obj_cooja/mtype772.a(nullrdc.o)
 .text.send_packet
                0x0000000000030b27       0x1a obj_cooja/mtype772.a(nullrdc.o)
 .text.send_list
                0x0000000000030b41       0x49 obj_cooja/mtype772.a(nullrdc.o)
 .text.packet_input
                0x0000000000030b8a      0x11a obj_cooja/mtype772.a(nullrdc.o)
 .text.on       0x0000000000030ca4        0xf obj_cooja/mtype772.a(nullrdc.o)
 .text.off      0x0000000000030cb3       0x1e obj_cooja/mtype772.a(nullrdc.o)
 .text.channel_check_interval
                0x0000000000030cd1        0xa obj_cooja/mtype772.a(nullrdc.o)
 .text.init     0x0000000000030cdb        0xd obj_cooja/mtype772.a(nullrdc.o)
 .text          0x0000000000030ce8        0x0 obj_cooja/mtype772.a(nullsec.o)
 .text.packetbuf_set_attr
                0x0000000000030ce8       0x2a obj_cooja/mtype772.a(nullsec.o)
 .text.init     0x0000000000030d12        0x5 obj_cooja/mtype772.a(nullsec.o)
 .text.send     0x0000000000030d17       0x30 obj_cooja/mtype772.a(nullsec.o)
 .text.input    0x0000000000030d47        0xf obj_cooja/mtype772.a(nullsec.o)
 .text          0x0000000000030d56        0x0 obj_cooja/mtype772.a(watchdog.o)
 .text.watchdog_init
                0x0000000000030d56        0x5 obj_cooja/mtype772.a(watchdog.o)
                0x0000000000030d56                watchdog_init
 .text.watchdog_start
                0x0000000000030d5b        0x5 obj_cooja/mtype772.a(watchdog.o)
                0x0000000000030d5b                watchdog_start
 .text.watchdog_periodic
                0x0000000000030d60        0x5 obj_cooja/mtype772.a(watchdog.o)
                0x0000000000030d60                watchdog_periodic
 .text.watchdog_stop
                0x0000000000030d65        0x5 obj_cooja/mtype772.a(watchdog.o)
                0x0000000000030d65                watchdog_stop
 .text.watchdog_reboot
                0x0000000000030d6a        0x5 obj_cooja/mtype772.a(watchdog.o)
                0x0000000000030d6a                watchdog_reboot
 .text          0x0000000000030d6f        0x0 obj_cooja/mtype772.a(rimestats.o)
 .text          0x0000000000030d6f        0x0 obj_cooja/mtype772.a(stimer.o)
 .text.stimer_set
                0x0000000000030d6f       0x1b obj_cooja/mtype772.a(stimer.o)
                0x0000000000030d6f                stimer_set
 .text.stimer_reset
                0x0000000000030d8a       0x17 obj_cooja/mtype772.a(stimer.o)
                0x0000000000030d8a                stimer_reset
 .text.stimer_restart
                0x0000000000030da1       0x12 obj_cooja/mtype772.a(stimer.o)
                0x0000000000030da1                stimer_restart
 .text.stimer_expired
                0x0000000000030db3       0x27 obj_cooja/mtype772.a(stimer.o)
                0x0000000000030db3                stimer_expired
 .text.stimer_remaining
                0x0000000000030dda       0x24 obj_cooja/mtype772.a(stimer.o)
                0x0000000000030dda                stimer_remaining
 .text.stimer_elapsed
                0x0000000000030dfe       0x14 obj_cooja/mtype772.a(stimer.o)
                0x0000000000030dfe                stimer_elapsed
 .text          0x0000000000030e12        0x0 obj_cooja/mtype772.a(uip-icmp6.o)
 .text.input_handler_lookup
                0x0000000000030e12       0x6e obj_cooja/mtype772.a(uip-icmp6.o)
 .text.uip_icmp6_input
                0x0000000000030e80       0x56 obj_cooja/mtype772.a(uip-icmp6.o)
                0x0000000000030e80                uip_icmp6_input
 .text.uip_icmp6_register_input_handler
                0x0000000000030ed6       0x1c obj_cooja/mtype772.a(uip-icmp6.o)
                0x0000000000030ed6                uip_icmp6_register_input_handler
 .text.echo_request_input
                0x0000000000030ef2      0x1c7 obj_cooja/mtype772.a(uip-icmp6.o)
 .text.uip_icmp6_error_output
                0x00000000000310b9      0x340 obj_cooja/mtype772.a(uip-icmp6.o)
                0x00000000000310b9                uip_icmp6_error_output
 .text.uip_icmp6_send
                0x00000000000313f9      0x107 obj_cooja/mtype772.a(uip-icmp6.o)
                0x00000000000313f9                uip_icmp6_send
 .text.echo_reply_input
                0x0000000000031500      0x16d obj_cooja/mtype772.a(uip-icmp6.o)
 .text.uip_icmp6_echo_reply_callback_add
                0x000000000003166d       0x31 obj_cooja/mtype772.a(uip-icmp6.o)
                0x000000000003166d                uip_icmp6_echo_reply_callback_add
 .text.uip_icmp6_echo_reply_callback_rm
                0x000000000003169e       0x1c obj_cooja/mtype772.a(uip-icmp6.o)
                0x000000000003169e                uip_icmp6_echo_reply_callback_rm
 .text.uip_icmp6_init
                0x00000000000316ba       0x20 obj_cooja/mtype772.a(uip-icmp6.o)
                0x00000000000316ba                uip_icmp6_init
 .text          0x00000000000316da        0x0 obj_cooja/mtype772.a(rpl-nbr-policy.)
 .text.handle_periodic_timer
                0x00000000000316da       0x19 obj_cooja/mtype772.a(rpl-nbr-policy.)
 .text.update_nbr
                0x00000000000316f3      0x1b7 obj_cooja/mtype772.a(rpl-nbr-policy.)
 .text.find_removable_dis
                0x00000000000318aa       0x25 obj_cooja/mtype772.a(rpl-nbr-policy.)
                0x00000000000318aa                find_removable_dis
 .text.find_removable_dio
                0x00000000000318cf       0x81 obj_cooja/mtype772.a(rpl-nbr-policy.)
                0x00000000000318cf                find_removable_dio
 .text.find_removable_dao
                0x0000000000031950       0x50 obj_cooja/mtype772.a(rpl-nbr-policy.)
                0x0000000000031950                find_removable_dao
 .text.rpl_nbr_policy_find_removable
                0x00000000000319a0       0x57 obj_cooja/mtype772.a(rpl-nbr-policy.)
                0x00000000000319a0                rpl_nbr_policy_find_removable
 .text          0x00000000000319f7        0x0 obj_cooja/mtype772.a(frame802154.o)
 .text.addr_len
                0x00000000000319f7       0x31 obj_cooja/mtype772.a(frame802154.o)
 .text.frame802154_get_pan_id
                0x0000000000031a28        0xc obj_cooja/mtype772.a(frame802154.o)
                0x0000000000031a28                frame802154_get_pan_id
 .text.frame802154_set_pan_id
                0x0000000000031a34       0x19 obj_cooja/mtype772.a(frame802154.o)
                0x0000000000031a34                frame802154_set_pan_id
 .text.frame802154_has_panid
                0x0000000000031a4d      0x1ad obj_cooja/mtype772.a(frame802154.o)
                0x0000000000031a4d                frame802154_has_panid
 .text.frame802154_check_dest_panid
                0x0000000000031bfa       0x6f obj_cooja/mtype772.a(frame802154.o)
                0x0000000000031bfa                frame802154_check_dest_panid
 .text.frame802154_is_broadcast_addr
                0x0000000000031c69       0x4d obj_cooja/mtype772.a(frame802154.o)
                0x0000000000031c69                frame802154_is_broadcast_addr
 .text.frame802154_extract_linkaddr
                0x0000000000031cb6      0x148 obj_cooja/mtype772.a(frame802154.o)
                0x0000000000031cb6                frame802154_extract_linkaddr
 .text.field_len
                0x0000000000031dfe       0xf8 obj_cooja/mtype772.a(frame802154.o)
 .text.frame802154_hdrlen
                0x0000000000031ef6       0x51 obj_cooja/mtype772.a(frame802154.o)
                0x0000000000031ef6                frame802154_hdrlen
 .text.frame802154_create_fcf
                0x0000000000031f47       0xb7 obj_cooja/mtype772.a(frame802154.o)
                0x0000000000031f47                frame802154_create_fcf
 .text.frame802154_create
                0x0000000000031ffe      0x14d obj_cooja/mtype772.a(frame802154.o)
                0x0000000000031ffe                frame802154_create
 .text.frame802154_parse_fcf
                0x000000000003214b       0xb9 obj_cooja/mtype772.a(frame802154.o)
                0x000000000003214b                frame802154_parse_fcf
 .text.frame802154_parse
                0x0000000000032204      0x280 obj_cooja/mtype772.a(frame802154.o)
                0x0000000000032204                frame802154_parse
 .text          0x0000000000032484        0x0 obj_cooja/mtype772.a(mac-sequence.o)
 .text.packetbuf_attr
                0x0000000000032484       0x1a obj_cooja/mtype772.a(mac-sequence.o)
 .text.packetbuf_addr
                0x000000000003249e       0x1d obj_cooja/mtype772.a(mac-sequence.o)
 .text.mac_sequence_is_duplicate
                0x00000000000324bb       0x9e obj_cooja/mtype772.a(mac-sequence.o)
                0x00000000000324bb                mac_sequence_is_duplicate
 .text.mac_sequence_register_seqno
                0x0000000000032559       0xca obj_cooja/mtype772.a(mac-sequence.o)
                0x0000000000032559                mac_sequence_register_seqno
 .text          0x0000000000032623        0x0 /usr/lib/gcc/i686-linux-gnu/4.8/crtendS.o
 .text          0x0000000000032623        0x0 /usr/lib/gcc/i686-linux-gnu/4.8/../../../i386-linux-gnu/crtn.o
 *(.gnu.warning)

.fini           0x0000000000032624       0x14
 *(SORT(.fini))
 .fini          0x0000000000032624        0xf /usr/lib/gcc/i686-linux-gnu/4.8/../../../i386-linux-gnu/crti.o
                0x0000000000032624                _fini
 .fini          0x0000000000032633        0x5 /usr/lib/gcc/i686-linux-gnu/4.8/../../../i386-linux-gnu/crtn.o
                0x0000000000032638                PROVIDE (__etext, .)
                0x0000000000032638                PROVIDE (_etext, .)
                0x0000000000032638                PROVIDE (etext, .)

.rodata         0x0000000000032640     0x3598
 *(.rodata .rodata.* .gnu.linkonce.r.*)
 .rodata        0x0000000000032640      0x214 sensor.co
                0x00000000000326b4                autostart_processes
 .rodata        0x0000000000032854      0x133 obj_cooja/mtype772.o
 *fill*         0x0000000000032987        0x1 
 .rodata        0x0000000000032988     0x131a obj_cooja/mtype772.a(dtls.o)
 *fill*         0x0000000000033ca2        0x2 
 .rodata        0x0000000000033ca4       0xcd obj_cooja/mtype772.a(tinydtls-crypto)
 *fill*         0x0000000000033d71        0x3 
 .rodata        0x0000000000033d74       0x21 obj_cooja/mtype772.a(hmac.o)
 *fill*         0x0000000000033d95        0x3 
 .rodata        0x0000000000033d98       0x38 obj_cooja/mtype772.a(netq.o)
 .rodata        0x0000000000033dd0        0xe obj_cooja/mtype772.a(peer.o)
 *fill*         0x0000000000033dde        0x2 
 .rodata        0x0000000000033de0       0x24 obj_cooja/mtype772.a(session.o)
 *fill*         0x0000000000033e04       0x1c 
 .rodata        0x0000000000033e20     0x1428 obj_cooja/mtype772.a(rijndael.o)
 .rodata        0x0000000000035248       0x29 obj_cooja/mtype772.a(tinydtls-ccm.o)
 *fill*         0x0000000000035271        0xf 
 .rodata        0x0000000000035280      0x15a obj_cooja/mtype772.a(sha2.o)
 .rodata        0x00000000000353da       0x7e obj_cooja/mtype772.a(debug.o)
 .rodata        0x0000000000035458        0x8 obj_cooja/mtype772.a(beep.o)
                0x0000000000035458                beep_interface
 .rodata        0x0000000000035460       0x20 obj_cooja/mtype772.a(button-sensor.o)
                0x0000000000035460                button_interface
                0x0000000000035470                button_sensor
 .rodata        0x0000000000035480        0x8 obj_cooja/mtype772.a(leds-arch.o)
                0x0000000000035480                leds_interface
 .rodata        0x0000000000035488        0x8 obj_cooja/mtype772.a(moteid.o)
                0x0000000000035488                moteid_interface
 .rodata        0x0000000000035490       0x1c obj_cooja/mtype772.a(pir-sensor.o)
                0x0000000000035490                pir_interface
                0x000000000003549c                pir_sensor
 .rodata        0x00000000000354ac        0xe obj_cooja/mtype772.a(rs232.o)
                0x00000000000354ac                rs232_interface
 *fill*         0x00000000000354ba        0x2 
 .rodata        0x00000000000354bc       0x24 obj_cooja/mtype772.a(vib-sensor.o)
                0x00000000000354bc                vib_interface
                0x00000000000354d0                vib_sensor
 .rodata        0x00000000000354e0        0x8 obj_cooja/mtype772.a(clock.o)
                0x00000000000354e0                clock_interface
 .rodata        0x00000000000354e8        0x8 obj_cooja/mtype772.a(log.o)
                0x00000000000354e8                simlog_interface
 .rodata        0x00000000000354f0       0x2f obj_cooja/mtype772.a(cfs-cooja.o)
                0x00000000000354f0                cfs_interface
 *fill*         0x000000000003551f        0x1 
 .rodata        0x0000000000035520       0x58 obj_cooja/mtype772.a(cooja-radio.o)
                0x0000000000035520                radio_interface
                0x0000000000035540                cooja_radio_driver
 .rodata        0x0000000000035578        0x8 obj_cooja/mtype772.a(eeprom.o)
                0x0000000000035578                eeprom_interface
 .rodata        0x0000000000035580        0x8 obj_cooja/mtype772.a(sensors.o)
 .rodata        0x0000000000035588        0xf obj_cooja/mtype772.a(ctimer.o)
 .rodata        0x0000000000035597        0xc obj_cooja/mtype772.a(etimer.o)
 .rodata        0x00000000000355a3        0xe obj_cooja/mtype772.a(serial-line.o)
 *fill*         0x00000000000355b1        0x3 
 .rodata        0x00000000000355b4       0x25 obj_cooja/mtype772.a(assert.o)
 *fill*         0x00000000000355d9        0x3 
 .rodata        0x00000000000355dc       0x2c obj_cooja/mtype772.a(sicslowpan.o)
                0x00000000000355dc                unc_llconf
                0x00000000000355e0                unc_ctxconf
                0x00000000000355e4                unc_mxconf
                0x00000000000355e8                llprefix
                0x00000000000355fc                sicslowpan_driver
 .rodata        0x0000000000035608      0x13c obj_cooja/mtype772.a(uip6.o)
 .rodata        0x0000000000035744      0x306 obj_cooja/mtype772.a(resolv.o)
 .rodata        0x0000000000035a4a       0x29 obj_cooja/mtype772.a(tcpip.o)
 .rodata        0x0000000000035a73       0x2a obj_cooja/mtype772.a(uip-debug.o)
 *fill*         0x0000000000035a9d        0x3 
 .rodata        0x0000000000035aa0       0x89 obj_cooja/mtype772.a(rpl-dag.o)
 .rodata        0x0000000000035b29        0x8 obj_cooja/mtype772.a(linkaddr.o)
                0x0000000000035b29                linkaddr_null
 *fill*         0x0000000000035b31        0x3 
 .rodata        0x0000000000035b34       0x24 obj_cooja/mtype772.a(csma.o)
                0x0000000000035b3c                csma_driver
 .rodata        0x0000000000035b58        0xc obj_cooja/mtype772.a(framer-802154.o)
                0x0000000000035b58                framer_802154
 *fill*         0x0000000000035b64       0x1c 
 .rodata        0x0000000000035b80       0x40 obj_cooja/mtype772.a(nullrdc.o)
                0x0000000000035ba0                nullrdc_driver
 .rodata        0x0000000000035bc0       0x18 obj_cooja/mtype772.a(nullsec.o)
                0x0000000000035bc8                nullsec_driver

.rodata1
 *(.rodata1)

.eh_frame_hdr   0x0000000000035bd8     0x1a0c
 *(.eh_frame_hdr)
 .eh_frame_hdr  0x0000000000035bd8     0x1a0c sensor.co

.eh_frame       0x00000000000375e4     0x6ac8
 *(.eh_frame)
 .eh_frame      0x00000000000375e4       0x3c /usr/lib/gcc/i686-linux-gnu/4.8/../../../i386-linux-gnu/crti.o
                                         0x40 (size before relaxing)
 .eh_frame      0x0000000000037620      0x198 sensor.co
                                        0x1b0 (size before relaxing)
 .eh_frame      0x00000000000377b8      0x148 obj_cooja/mtype772.o
                                        0x160 (size before relaxing)
 .eh_frame      0x0000000000037900      0xc58 obj_cooja/mtype772.a(dtls.o)
                                        0xc70 (size before relaxing)
 .eh_frame      0x0000000000038558      0x2c0 obj_cooja/mtype772.a(tinydtls-crypto)
                                        0x2d8 (size before relaxing)
 .eh_frame      0x0000000000038818      0x160 obj_cooja/mtype772.a(hmac.o)
                                        0x178 (size before relaxing)
 .eh_frame      0x0000000000038978      0x160 obj_cooja/mtype772.a(netq.o)
                                        0x178 (size before relaxing)
 .eh_frame      0x0000000000038ad8       0x40 obj_cooja/mtype772.a(dtls_time.o)
                                         0x58 (size before relaxing)
 .eh_frame      0x0000000000038b18       0x80 obj_cooja/mtype772.a(peer.o)
                                         0x98 (size before relaxing)
 .eh_frame      0x0000000000038b98       0x40 obj_cooja/mtype772.a(session.o)
                                         0x58 (size before relaxing)
 .eh_frame      0x0000000000038bd8       0x80 obj_cooja/mtype772.a(rijndael.o)
                                         0x98 (size before relaxing)
 .eh_frame      0x0000000000038c58      0x144 obj_cooja/mtype772.a(tinydtls-ccm.o)
                                        0x15c (size before relaxing)
 .eh_frame      0x0000000000038d9c       0xec obj_cooja/mtype772.a(sha2.o)
                                        0x104 (size before relaxing)
 .eh_frame      0x0000000000038e88      0x148 obj_cooja/mtype772.a(debug.o)
                                        0x160 (size before relaxing)
 .eh_frame      0x0000000000038fd0       0x40 obj_cooja/mtype772.a(simEnvChange.o)
                                         0x58 (size before relaxing)
 .eh_frame      0x0000000000039010       0xc0 obj_cooja/mtype772.a(cooja_mt.o)
                                         0xd8 (size before relaxing)
 .eh_frame      0x00000000000390d0      0x120 obj_cooja/mtype772.a(cooja_mtarch.o)
                                        0x138 (size before relaxing)
 .eh_frame      0x00000000000391f0       0xc8 obj_cooja/mtype772.a(rtimer-arch.o)
                                         0xe0 (size before relaxing)
 .eh_frame      0x00000000000392b8      0x160 obj_cooja/mtype772.a(beep.o)
                                        0x178 (size before relaxing)
 .eh_frame      0x0000000000039418       0xa0 obj_cooja/mtype772.a(button-sensor.o)
                                         0xb8 (size before relaxing)
 .eh_frame      0x00000000000394b8       0xa0 obj_cooja/mtype772.a(leds-arch.o)
                                         0xb8 (size before relaxing)
 .eh_frame      0x0000000000039558       0x40 obj_cooja/mtype772.a(moteid.o)
                                         0x58 (size before relaxing)
 .eh_frame      0x0000000000039598       0xa0 obj_cooja/mtype772.a(pir-sensor.o)
                                         0xb8 (size before relaxing)
 .eh_frame      0x0000000000039638      0x100 obj_cooja/mtype772.a(rs232.o)
                                        0x118 (size before relaxing)
 .eh_frame      0x0000000000039738       0xa0 obj_cooja/mtype772.a(vib-sensor.o)
                                         0xb8 (size before relaxing)
 .eh_frame      0x00000000000397d8       0xc0 obj_cooja/mtype772.a(clock.o)
                                         0xd8 (size before relaxing)
 .eh_frame      0x0000000000039898      0x120 obj_cooja/mtype772.a(log.o)
                                        0x138 (size before relaxing)
 .eh_frame      0x00000000000399b8      0x160 obj_cooja/mtype772.a(cfs-cooja.o)
                                        0x178 (size before relaxing)
 .eh_frame      0x0000000000039b18      0x360 obj_cooja/mtype772.a(cooja-radio.o)
                                        0x378 (size before relaxing)
 .eh_frame      0x0000000000039e78       0xa0 obj_cooja/mtype772.a(eeprom.o)
                                         0xb8 (size before relaxing)
 .eh_frame      0x0000000000039f18       0x40 obj_cooja/mtype772.a(random.o)
                                         0x58 (size before relaxing)
 .eh_frame      0x0000000000039f58       0xc0 obj_cooja/mtype772.a(sensors.o)
                                         0xd8 (size before relaxing)
 .eh_frame      0x000000000003a018       0x40 obj_cooja/mtype772.a(autostart.o)
                                         0x58 (size before relaxing)
 .eh_frame      0x000000000003a058      0x100 obj_cooja/mtype772.a(ctimer.o)
                                        0x118 (size before relaxing)
 .eh_frame      0x000000000003a158      0x1e0 obj_cooja/mtype772.a(etimer.o)
                                        0x1f8 (size before relaxing)
 .eh_frame      0x000000000003a338      0x1c8 obj_cooja/mtype772.a(process.o)
                                        0x1e0 (size before relaxing)
 .eh_frame      0x000000000003a500       0x60 obj_cooja/mtype772.a(rtimer.o)
                                         0x78 (size before relaxing)
 .eh_frame      0x000000000003a560       0xa4 obj_cooja/mtype772.a(timer.o)
                                         0xbc (size before relaxing)
 .eh_frame      0x000000000003a604       0x60 obj_cooja/mtype772.a(serial-line.o)
                                         0x78 (size before relaxing)
 .eh_frame      0x000000000003a664       0x20 obj_cooja/mtype772.a(assert.o)
                                         0x38 (size before relaxing)
 .eh_frame      0x000000000003a684      0x180 obj_cooja/mtype772.a(list.o)
                                        0x198 (size before relaxing)
 .eh_frame      0x000000000003a804       0xa0 obj_cooja/mtype772.a(memb.o)
                                         0xb8 (size before relaxing)
 .eh_frame      0x000000000003a8a4       0xa0 obj_cooja/mtype772.a(ringbuf.o)
                                         0xb8 (size before relaxing)
 .eh_frame      0x000000000003a944      0x350 obj_cooja/mtype772.a(sicslowpan.o)
                                        0x368 (size before relaxing)
 .eh_frame      0x000000000003ac94      0x1e0 obj_cooja/mtype772.a(uip-ds6-nbr.o)
                                        0x1f8 (size before relaxing)
 .eh_frame      0x000000000003ae74      0x2c0 obj_cooja/mtype772.a(uip-ds6-route.o)
                                        0x2d8 (size before relaxing)
 .eh_frame      0x000000000003b134      0x2c8 obj_cooja/mtype772.a(uip-ds6.o)
                                        0x2e0 (size before relaxing)
 .eh_frame      0x000000000003b3fc       0xd8 obj_cooja/mtype772.a(uip-nd6.o)
                                         0xf0 (size before relaxing)
 .eh_frame      0x000000000003b4d4      0x27c obj_cooja/mtype772.a(uip6.o)
                                        0x294 (size before relaxing)
 .eh_frame      0x000000000003b750      0x2ac obj_cooja/mtype772.a(resolv.o)
                                        0x2c4 (size before relaxing)
 .eh_frame      0x000000000003b9fc      0x270 obj_cooja/mtype772.a(tcpip.o)
                                        0x288 (size before relaxing)
 .eh_frame      0x000000000003bc6c       0x28 obj_cooja/mtype772.a(uip-debug.o)
                                         0x40 (size before relaxing)
 .eh_frame      0x000000000003bc94       0x80 obj_cooja/mtype772.a(uip-nameserver.)
                                         0x98 (size before relaxing)
 .eh_frame      0x000000000003bd14       0xe0 obj_cooja/mtype772.a(uip-packetqueue)
                                         0xf8 (size before relaxing)
 .eh_frame      0x000000000003bdf4       0x40 obj_cooja/mtype772.a(uip-udp-packet.)
                                         0x58 (size before relaxing)
 .eh_frame      0x000000000003be34      0x720 obj_cooja/mtype772.a(rpl-dag.o)
                                        0x738 (size before relaxing)
 .eh_frame      0x000000000003c554       0xc0 obj_cooja/mtype772.a(rpl-ext-header.)
                                         0xd8 (size before relaxing)
 .eh_frame      0x000000000003c614      0x2b8 obj_cooja/mtype772.a(rpl-icmp6.o)
                                        0x2d0 (size before relaxing)
 .eh_frame      0x000000000003c8cc      0x124 obj_cooja/mtype772.a(rpl-mrhof.o)
                                        0x13c (size before relaxing)
 .eh_frame      0x000000000003c9f0      0x22c obj_cooja/mtype772.a(rpl-timers.o)
                                        0x244 (size before relaxing)
 .eh_frame      0x000000000003cc1c      0x140 obj_cooja/mtype772.a(rpl.o)
                                        0x158 (size before relaxing)
 .eh_frame      0x000000000003cd5c      0x100 obj_cooja/mtype772.a(link-stats.o)
                                        0x118 (size before relaxing)
 .eh_frame      0x000000000003ce5c       0x60 obj_cooja/mtype772.a(linkaddr.o)
                                         0x78 (size before relaxing)
 .eh_frame      0x000000000003cebc      0x2ac obj_cooja/mtype772.a(nbr-table.o)
                                        0x2c4 (size before relaxing)
 .eh_frame      0x000000000003d168       0x20 obj_cooja/mtype772.a(netstack.o)
                                         0x38 (size before relaxing)
 .eh_frame      0x000000000003d188      0x234 obj_cooja/mtype772.a(packetbuf.o)
                                        0x24c (size before relaxing)
 .eh_frame      0x000000000003d3bc      0x1a0 obj_cooja/mtype772.a(queuebuf.o)
                                        0x1b8 (size before relaxing)
 .eh_frame      0x000000000003d55c      0x28c obj_cooja/mtype772.a(csma.o)
                                        0x2a4 (size before relaxing)
 .eh_frame      0x000000000003d7e8      0x108 obj_cooja/mtype772.a(framer-802154.o)
                                        0x120 (size before relaxing)
 .eh_frame      0x000000000003d8f0       0x20 obj_cooja/mtype772.a(mac.o)
                                         0x38 (size before relaxing)
 .eh_frame      0x000000000003d910      0x16c obj_cooja/mtype772.a(nullrdc.o)
                                        0x184 (size before relaxing)
 .eh_frame      0x000000000003da7c       0x80 obj_cooja/mtype772.a(nullsec.o)
                                         0x98 (size before relaxing)
 .eh_frame      0x000000000003dafc       0xa0 obj_cooja/mtype772.a(watchdog.o)
                                         0xb8 (size before relaxing)
 .eh_frame      0x000000000003db9c       0xc4 obj_cooja/mtype772.a(stimer.o)
                                         0xdc (size before relaxing)
 .eh_frame      0x000000000003dc60      0x15c obj_cooja/mtype772.a(uip-icmp6.o)
                                        0x174 (size before relaxing)
 .eh_frame      0x000000000003ddbc       0xc0 obj_cooja/mtype772.a(rpl-nbr-policy.)
                                         0xd8 (size before relaxing)
 .eh_frame      0x000000000003de7c      0x1a4 obj_cooja/mtype772.a(frame802154.o)
                                        0x1bc (size before relaxing)
 .eh_frame      0x000000000003e020       0x88 obj_cooja/mtype772.a(mac-sequence.o)
                                         0xa0 (size before relaxing)
 .eh_frame      0x000000000003e0a8        0x4 /usr/lib/gcc/i686-linux-gnu/4.8/crtendS.o

.gcc_except_table
 *(.gcc_except_table .gcc_except_table.*)

.exception_ranges
 *(.exception_ranges .exception_ranges*)
                0x000000000003e0ac                . = (ALIGN (0x1000) - ((0x1000 - .) & 0xfff))
                0x000000000003fef8                . = DATA_SEGMENT_ALIGN (0x1000, 0x1000)

.eh_frame
 *(.eh_frame)

.gcc_except_table
 *(.gcc_except_table .gcc_except_table.*)

.exception_ranges
 *(.exception_ranges .exception_ranges*)

.tdata
 *(.tdata .tdata.* .gnu.linkonce.td.*)

.tbss
 *(.tbss .tbss.* .gnu.linkonce.tb.*)
 *(.tcommon)

.preinit_array
 *(.preinit_array)

.init_array     0x000000000003fef8        0x4
 *(SORT(.init_array.*) SORT(.ctors.*))
 *(.init_array EXCLUDE_FILE(*crtend?.o *crtend.o *crtbegin?.o *crtbegin.o) .ctors)
 .init_array    0x000000000003fef8        0x4 /usr/lib/gcc/i686-linux-gnu/4.8/crtbeginS.o

.fini_array     0x000000000003fefc        0x4
 *(SORT(.fini_array.*) SORT(.dtors.*))
 *(.fini_array EXCLUDE_FILE(*crtend?.o *crtend.o *crtbegin?.o *crtbegin.o) .dtors)
 .fini_array    0x000000000003fefc        0x4 /usr/lib/gcc/i686-linux-gnu/4.8/crtbeginS.o

.ctors
 *crtbegin.o(.ctors)
 *crtbegin?.o(.ctors)
 *(EXCLUDE_FILE(*crtend?.o *crtend.o) .ctors)
 *(SORT(.ctors.*))
 *(.ctors)

.dtors
 *crtbegin.o(.dtors)
 *crtbegin?.o(.dtors)
 *(EXCLUDE_FILE(*crtend?.o *crtend.o) .dtors)
 *(SORT(.dtors.*))
 *(.dtors)

.jcr            0x000000000003ff00        0x4
 *(.jcr)
 .jcr           0x000000000003ff00        0x0 /usr/lib/gcc/i686-linux-gnu/4.8/crtbeginS.o
 .jcr           0x000000000003ff00        0x4 /usr/lib/gcc/i686-linux-gnu/4.8/crtendS.o

.data.rel.ro
 *(.data.rel.ro.local* .gnu.linkonce.d.rel.ro.local.*)
 *(.data.rel.ro .data.rel.ro.* .gnu.linkonce.d.rel.ro.*)

.dynamic        0x000000000003ff04       0xe8
 *(.dynamic)
 .dynamic       0x000000000003ff04       0xe8 /usr/lib/gcc/i686-linux-gnu/4.8/../../../i386-linux-gnu/crti.o
                0x000000000003ff04                _DYNAMIC

.got            0x000000000003ffec       0x14
 *(.got)
 .got           0x000000000003ffec       0x14 /usr/lib/gcc/i686-linux-gnu/4.8/../../../i386-linux-gnu/crti.o
 *(.igot)
                0x0000000000040ff4                . = DATA_SEGMENT_RELRO_END (., (SIZEOF (.got.plt) >= 0xc)?0xc:0x0)

.got.plt        0x0000000000040000       0x14
 *(.got.plt)
 .got.plt       0x0000000000040000       0x14 /usr/lib/gcc/i686-linux-gnu/4.8/../../../i386-linux-gnu/crti.o
                0x0000000000040000                _GLOBAL_OFFSET_TABLE_
 *(.igot.plt)

.data           0x0000000000040020      0x30e
 *(.data .data.* .gnu.linkonce.d.*)
 .data          0x0000000000040020        0x0 /usr/lib/gcc/i686-linux-gnu/4.8/../../../i386-linux-gnu/crti.o
 .data          0x0000000000040020        0x0 /usr/lib/gcc/i686-linux-gnu/4.8/crtbeginS.o
 .data.rel      0x0000000000040020        0x4 /usr/lib/gcc/i686-linux-gnu/4.8/crtbeginS.o
                0x0000000000040020                __dso_handle
 .data          0x0000000000040024       0x20 sensor.co
                0x0000000000040024                udp_server_process
 *fill*         0x0000000000040044       0x1c 
 .data          0x0000000000040060       0x44 obj_cooja/mtype772.o
                0x0000000000040060                simInterfaces
                0x0000000000040094                sensors
 .data          0x00000000000400a4       0x10 obj_cooja/mtype772.a(dtls.o)
                0x00000000000400a4                dtls_retransmit_process
 .data          0x00000000000400b4       0x18 obj_cooja/mtype772.a(tinydtls-crypto)
 .data          0x00000000000400cc        0xc obj_cooja/mtype772.a(hmac.o)
 .data          0x00000000000400d8        0xc obj_cooja/mtype772.a(netq.o)
 .data          0x00000000000400e4        0x0 obj_cooja/mtype772.a(dtls_time.o)
 .data          0x00000000000400e4        0xc obj_cooja/mtype772.a(peer.o)
 .data          0x00000000000400f0        0x0 obj_cooja/mtype772.a(session.o)
 .data          0x00000000000400f0        0x0 obj_cooja/mtype772.a(rijndael.o)
 .data          0x00000000000400f0        0x0 obj_cooja/mtype772.a(tinydtls-ccm.o)
 .data          0x00000000000400f0        0x4 obj_cooja/mtype772.a(sha2.o)
 .data          0x00000000000400f4       0x20 obj_cooja/mtype772.a(debug.o)
 .data          0x0000000000040114        0x0 obj_cooja/mtype772.a(simEnvChange.o)
 .data          0x0000000000040114        0x0 obj_cooja/mtype772.a(cooja_mt.o)
 .data          0x0000000000040114        0x0 obj_cooja/mtype772.a(cooja_mtarch.o)
 .data          0x0000000000040114        0x0 obj_cooja/mtype772.a(rtimer-arch.o)
 .data          0x0000000000040114        0x0 obj_cooja/mtype772.a(beep.o)
 .data          0x0000000000040114        0x0 obj_cooja/mtype772.a(button-sensor.o)
 .data          0x0000000000040114        0x0 obj_cooja/mtype772.a(leds-arch.o)
 .data          0x0000000000040114        0x0 obj_cooja/mtype772.a(moteid.o)
 .data          0x0000000000040114        0x0 obj_cooja/mtype772.a(pir-sensor.o)
 .data          0x0000000000040114        0x0 obj_cooja/mtype772.a(rs232.o)
 .data          0x0000000000040114        0x0 obj_cooja/mtype772.a(vib-sensor.o)
 .data          0x0000000000040114        0x0 obj_cooja/mtype772.a(clock.o)
 .data          0x0000000000040114        0x0 obj_cooja/mtype772.a(log.o)
 .data          0x0000000000040114        0x0 obj_cooja/mtype772.a(cfs-cooja.o)
 .data          0x0000000000040114       0x2c obj_cooja/mtype772.a(cooja-radio.o)
                0x0000000000040114                simRadioHWOn
                0x0000000000040118                simSignalStrength
                0x000000000004011c                simLastSignalStrength
                0x0000000000040120                simPower
                0x0000000000040124                simRadioChannel
                0x0000000000040128                simLQI
                0x0000000000040130                cooja_radio_process
 .data          0x0000000000040140        0x0 obj_cooja/mtype772.a(eeprom.o)
 .data          0x0000000000040140        0x0 obj_cooja/mtype772.a(random.o)
 .data          0x0000000000040140       0x10 obj_cooja/mtype772.a(sensors.o)
                0x0000000000040140                sensors_process
 .data          0x0000000000040150        0x0 obj_cooja/mtype772.a(autostart.o)
 .data          0x0000000000040150       0x14 obj_cooja/mtype772.a(ctimer.o)
                0x0000000000040154                ctimer_process
 .data          0x0000000000040164       0x10 obj_cooja/mtype772.a(etimer.o)
                0x0000000000040164                etimer_process
 .data          0x0000000000040174        0x0 obj_cooja/mtype772.a(process.o)
 .data          0x0000000000040174        0x0 obj_cooja/mtype772.a(rtimer.o)
 .data          0x0000000000040174        0x0 obj_cooja/mtype772.a(timer.o)
 .data          0x0000000000040174       0x10 obj_cooja/mtype772.a(serial-line.o)
                0x0000000000040174                serial_line_process
 .data          0x0000000000040184        0x0 obj_cooja/mtype772.a(assert.o)
 .data          0x0000000000040184        0x0 obj_cooja/mtype772.a(list.o)
 .data          0x0000000000040184        0x0 obj_cooja/mtype772.a(memb.o)
 .data          0x0000000000040184        0x0 obj_cooja/mtype772.a(ringbuf.o)
 .data          0x0000000000040184        0x0 obj_cooja/mtype772.a(sicslowpan.o)
 .data          0x0000000000040184       0x14 obj_cooja/mtype772.a(uip-ds6-nbr.o)
                0x0000000000040194                ds6_neighbors
 .data          0x0000000000040198       0x44 obj_cooja/mtype772.a(uip-ds6-route.o)
                0x00000000000401a8                nbr_routes
 .data          0x00000000000401dc        0x0 obj_cooja/mtype772.a(uip-ds6.o)
 .data          0x00000000000401dc       0x18 obj_cooja/mtype772.a(uip-nd6.o)
 .data          0x00000000000401f4        0x0 obj_cooja/mtype772.a(uip6.o)
 .data          0x00000000000401f4       0x20 obj_cooja/mtype772.a(resolv.o)
                0x00000000000401f4                resolv_process
                0x0000000000040204                mdns_probe_process
 .data          0x0000000000040214       0x10 obj_cooja/mtype772.a(tcpip.o)
                0x0000000000040214                tcpip_process
 .data          0x0000000000040224        0x0 obj_cooja/mtype772.a(uip-debug.o)
 .data          0x0000000000040224        0x0 obj_cooja/mtype772.a(uip-nameserver.)
 .data          0x0000000000040224        0xc obj_cooja/mtype772.a(uip-packetqueue)
 .data          0x0000000000040230        0x0 obj_cooja/mtype772.a(uip-udp-packet.)
 .data          0x0000000000040230       0x14 obj_cooja/mtype772.a(rpl-dag.o)
                0x0000000000040240                rpl_parents
 .data          0x0000000000040244        0x0 obj_cooja/mtype772.a(rpl-ext-header.)
 .data          0x0000000000040244       0x34 obj_cooja/mtype772.a(rpl-icmp6.o)
 *fill*         0x0000000000040278        0x8 
 .data          0x0000000000040280       0x24 obj_cooja/mtype772.a(rpl-mrhof.o)
                0x0000000000040280                rpl_mrhof
 .data          0x00000000000402a4        0x0 obj_cooja/mtype772.a(rpl-timers.o)
 .data          0x00000000000402a4        0x0 obj_cooja/mtype772.a(rpl.o)
 .data          0x00000000000402a4       0x14 obj_cooja/mtype772.a(link-stats.o)
 .data          0x00000000000402b8        0x0 obj_cooja/mtype772.a(linkaddr.o)
 .data          0x00000000000402b8       0x10 obj_cooja/mtype772.a(nbr-table.o)
 .data          0x00000000000402c8        0x0 obj_cooja/mtype772.a(netstack.o)
 .data          0x00000000000402c8        0x4 obj_cooja/mtype772.a(packetbuf.o)
 .data          0x00000000000402cc       0x18 obj_cooja/mtype772.a(queuebuf.o)
 .data          0x00000000000402e4       0x28 obj_cooja/mtype772.a(csma.o)
 .data          0x000000000004030c        0x0 obj_cooja/mtype772.a(framer-802154.o)
 .data          0x000000000004030c        0x0 obj_cooja/mtype772.a(mac.o)
 .data          0x000000000004030c        0x0 obj_cooja/mtype772.a(nullrdc.o)
 .data          0x000000000004030c        0x0 obj_cooja/mtype772.a(nullsec.o)
 .data          0x000000000004030c        0x0 obj_cooja/mtype772.a(watchdog.o)
 .data          0x000000000004030c        0x0 obj_cooja/mtype772.a(rimestats.o)
 .data          0x000000000004030c        0x0 obj_cooja/mtype772.a(stimer.o)
 .data          0x000000000004030c       0x20 obj_cooja/mtype772.a(uip-icmp6.o)
 .data          0x000000000004032c        0x0 obj_cooja/mtype772.a(rpl-nbr-policy.)
 .data          0x000000000004032c        0x2 obj_cooja/mtype772.a(frame802154.o)
 .data          0x000000000004032e        0x0 obj_cooja/mtype772.a(mac-sequence.o)
 .data          0x000000000004032e        0x0 /usr/lib/gcc/i686-linux-gnu/4.8/crtendS.o
 .data          0x000000000004032e        0x0 /usr/lib/gcc/i686-linux-gnu/4.8/../../../i386-linux-gnu/crtn.o

.tm_clone_table
                0x0000000000040330        0x0
 .tm_clone_table
                0x0000000000040330        0x0 /usr/lib/gcc/i686-linux-gnu/4.8/crtbeginS.o
 .tm_clone_table
                0x0000000000040330        0x0 /usr/lib/gcc/i686-linux-gnu/4.8/crtendS.o

.data1
 *(.data1)
                0x0000000000040330                _edata = .
                0x0000000000040330                PROVIDE (edata, .)
                0x0000000000040330                . = .
                0x0000000000040330                __bss_start = .

.bss            0x0000000000040340    0x12cc8
 *(.dynbss)
 .dynbss        0x0000000000000000        0x0 /usr/lib/gcc/i686-linux-gnu/4.8/../../../i386-linux-gnu/crti.o
 *(.bss .bss.* .gnu.linkonce.b.*)
 .bss           0x0000000000040340        0x0 /usr/lib/gcc/i686-linux-gnu/4.8/../../../i386-linux-gnu/crti.o
 .bss           0x0000000000040340        0x1 /usr/lib/gcc/i686-linux-gnu/4.8/crtbeginS.o
 *fill*         0x0000000000040341        0x3 
 .bss           0x0000000000040344       0x14 sensor.co
 *fill*         0x0000000000040358        0x8 
 .bss           0x0000000000040360     0x2030 obj_cooja/mtype772.o
 *fill*         0x0000000000042390       0x10 
 .bss           0x00000000000423a0      0x165 obj_cooja/mtype772.a(dtls.o)
 *fill*         0x0000000000042505       0x1b 
 .bss           0x0000000000042520      0x274 obj_cooja/mtype772.a(tinydtls-crypto)
 *fill*         0x0000000000042794        0xc 
 .bss           0x00000000000427a0      0x410 obj_cooja/mtype772.a(hmac.o)
 *fill*         0x0000000000042bb0       0x10 
 .bss           0x0000000000042bc0      0x470 obj_cooja/mtype772.a(netq.o)
 .bss           0x0000000000043030        0x0 obj_cooja/mtype772.a(dtls_time.o)
 *fill*         0x0000000000043030       0x10 
 .bss           0x0000000000043040       0x80 obj_cooja/mtype772.a(peer.o)
 .bss           0x00000000000430c0        0x0 obj_cooja/mtype772.a(session.o)
 .bss           0x00000000000430c0        0x0 obj_cooja/mtype772.a(rijndael.o)
 .bss           0x00000000000430c0        0x4 obj_cooja/mtype772.a(tinydtls-ccm.o)
 .bss           0x00000000000430c4        0x0 obj_cooja/mtype772.a(sha2.o)
 *fill*         0x00000000000430c4       0x1c 
 .bss           0x00000000000430e0       0x20 obj_cooja/mtype772.a(debug.o)
 .bss           0x0000000000043100        0x1 obj_cooja/mtype772.a(simEnvChange.o)
                0x0000000000043100                simDontFallAsleep
 *fill*         0x0000000000043101        0x3 
 .bss           0x0000000000043104        0x4 obj_cooja/mtype772.a(cooja_mt.o)
 .bss           0x0000000000043108        0x4 obj_cooja/mtype772.a(cooja_mtarch.o)
 .bss           0x000000000004310c        0x0 obj_cooja/mtype772.a(rtimer-arch.o)
 .bss           0x000000000004310c        0x0 obj_cooja/mtype772.a(beep.o)
 .bss           0x000000000004310c        0x8 obj_cooja/mtype772.a(button-sensor.o)
 .bss           0x0000000000043114        0x0 obj_cooja/mtype772.a(leds-arch.o)
 .bss           0x0000000000043114        0x0 obj_cooja/mtype772.a(moteid.o)
 .bss           0x0000000000043114        0x1 obj_cooja/mtype772.a(pir-sensor.o)
                0x0000000000043114                simPirValue
 *fill*         0x0000000000043115        0x3 
 .bss           0x0000000000043118        0x4 obj_cooja/mtype772.a(rs232.o)
 .bss           0x000000000004311c        0x1 obj_cooja/mtype772.a(vib-sensor.o)
                0x000000000004311c                simVibValue
 .bss           0x000000000004311d        0x0 obj_cooja/mtype772.a(clock.o)
 *fill*         0x000000000004311d        0x3 
 .bss           0x0000000000043120      0x420 obj_cooja/mtype772.a(log.o)
 .bss           0x0000000000043540      0xfc0 obj_cooja/mtype772.a(cfs-cooja.o)
                0x0000000000043540                simCFSData
                0x00000000000444e0                simCFSSize
                0x00000000000444e4                simCFSChanged
                0x00000000000444e8                simCFSRead
                0x00000000000444ec                simCFSWritten
 .bss           0x0000000000044500       0x24 obj_cooja/mtype772.a(cooja-radio.o)
                0x0000000000044500                simReceiving
                0x0000000000044504                simInSize
                0x0000000000044508                simLastPacketTimestamp
                0x0000000000044510                simOutSize
 .bss           0x0000000000044524        0xc obj_cooja/mtype772.a(eeprom.o)
                0x0000000000044524                simEEPROMChanged
                0x0000000000044528                simEEPROMRead
                0x000000000004452c                simEEPROMWritten
 .bss           0x0000000000044530        0x0 obj_cooja/mtype772.a(random.o)
 .bss           0x0000000000044530        0xc obj_cooja/mtype772.a(sensors.o)
 .bss           0x000000000004453c        0x0 obj_cooja/mtype772.a(autostart.o)
 .bss           0x000000000004453c        0x5 obj_cooja/mtype772.a(ctimer.o)
 *fill*         0x0000000000044541        0x3 
 .bss           0x0000000000044544        0x8 obj_cooja/mtype772.a(etimer.o)
 *fill*         0x000000000004454c       0x14 
 .bss           0x0000000000044560      0x1a1 obj_cooja/mtype772.a(process.o)
                0x0000000000044560                process_list
                0x0000000000044564                process_current
 *fill*         0x0000000000044701        0x3 
 .bss           0x0000000000044704        0x4 obj_cooja/mtype772.a(rtimer.o)
 .bss           0x0000000000044708        0x0 obj_cooja/mtype772.a(timer.o)
 *fill*         0x0000000000044708       0x18 
 .bss           0x0000000000044720      0x140 obj_cooja/mtype772.a(serial-line.o)
 .bss           0x0000000000044860        0x0 obj_cooja/mtype772.a(assert.o)
 .bss           0x0000000000044860        0x0 obj_cooja/mtype772.a(list.o)
 .bss           0x0000000000044860        0x0 obj_cooja/mtype772.a(memb.o)
 .bss           0x0000000000044860        0x0 obj_cooja/mtype772.a(ringbuf.o)
 .bss           0x0000000000044860      0x70c obj_cooja/mtype772.a(sicslowpan.o)
 *fill*         0x0000000000044f6c       0x14 
 .bss           0x0000000000044f80     0x3390 obj_cooja/mtype772.a(uip-ds6-nbr.o)
 *fill*         0x0000000000048310       0x10 
 .bss           0x0000000000048320     0x44a4 obj_cooja/mtype772.a(uip-ds6-route.o)
 .bss           0x000000000004c7c4       0x20 obj_cooja/mtype772.a(uip-ds6.o)
 .bss           0x000000000004c7e4       0x14 obj_cooja/mtype772.a(uip-nd6.o)
 .bss           0x000000000004c7f8        0xa obj_cooja/mtype772.a(uip6.o)
                0x000000000004c7f8                uip_ext_bitmap
                0x000000000004c7f9                uip_ext_len
                0x000000000004c7fa                uip_ext_opt_offset
 *fill*         0x000000000004c802       0x1e 
 .bss           0x000000000004c820      0x1a1 obj_cooja/mtype772.a(resolv.o)
 *fill*         0x000000000004c9c1       0x1f 
 .bss           0x000000000004c9e0       0x6a obj_cooja/mtype772.a(tcpip.o)
 .bss           0x000000000004ca4a        0x0 obj_cooja/mtype772.a(uip-debug.o)
 *fill*         0x000000000004ca4a        0x2 
 .bss           0x000000000004ca4c       0x14 obj_cooja/mtype772.a(uip-nameserver.)
 .bss           0x000000000004ca60      0xcf8 obj_cooja/mtype772.a(uip-packetqueue)
 .bss           0x000000000004d758        0x0 obj_cooja/mtype772.a(uip-udp-packet.)
 *fill*         0x000000000004d758        0x8 
 .bss           0x000000000004d760      0x960 obj_cooja/mtype772.a(rpl-dag.o)
 .bss           0x000000000004e0c0        0x0 obj_cooja/mtype772.a(rpl-ext-header.)
 .bss           0x000000000004e0c0        0x0 obj_cooja/mtype772.a(rpl-icmp6.o)
 .bss           0x000000000004e0c0        0x0 obj_cooja/mtype772.a(rpl-mrhof.o)
 .bss           0x000000000004e0c0       0x23 obj_cooja/mtype772.a(rpl-timers.o)
 *fill*         0x000000000004e0e3        0x1 
 .bss           0x000000000004e0e4        0x4 obj_cooja/mtype772.a(rpl.o)
 *fill*         0x000000000004e0e8       0x18 
 .bss           0x000000000004e100      0xe10 obj_cooja/mtype772.a(link-stats.o)
 .bss           0x000000000004ef10        0x0 obj_cooja/mtype772.a(linkaddr.o)
 *fill*         0x000000000004ef10       0x10 
 .bss           0x000000000004ef20     0x1214 obj_cooja/mtype772.a(nbr-table.o)
 .bss           0x0000000000050134        0x0 obj_cooja/mtype772.a(netstack.o)
 *fill*         0x0000000000050134        0xc 
 .bss           0x0000000000050140       0xa0 obj_cooja/mtype772.a(packetbuf.o)
 .bss           0x00000000000501e0      0xb80 obj_cooja/mtype772.a(queuebuf.o)
 .bss           0x0000000000050d60      0x248 obj_cooja/mtype772.a(csma.o)
 .bss           0x0000000000050fa8        0x2 obj_cooja/mtype772.a(framer-802154.o)
 .bss           0x0000000000050faa        0x0 obj_cooja/mtype772.a(mac.o)
 .bss           0x0000000000050faa        0x0 obj_cooja/mtype772.a(nullrdc.o)
 .bss           0x0000000000050faa        0x0 obj_cooja/mtype772.a(nullsec.o)
 .bss           0x0000000000050faa        0x0 obj_cooja/mtype772.a(watchdog.o)
 .bss           0x0000000000050faa        0x0 obj_cooja/mtype772.a(rimestats.o)
 .bss           0x0000000000050faa        0x0 obj_cooja/mtype772.a(stimer.o)
 *fill*         0x0000000000050faa        0x2 
 .bss           0x0000000000050fac       0x18 obj_cooja/mtype772.a(uip-icmp6.o)
 *fill*         0x0000000000050fc4       0x1c 
 .bss           0x0000000000050fe0       0x44 obj_cooja/mtype772.a(rpl-nbr-policy.)
 .bss           0x0000000000051024        0x0 obj_cooja/mtype772.a(frame802154.o)
 *fill*         0x0000000000051024       0x1c 
 .bss           0x0000000000051040      0x100 obj_cooja/mtype772.a(mac-sequence.o)
 .bss           0x0000000000051140        0x0 /usr/lib/gcc/i686-linux-gnu/4.8/crtendS.o
 .bss           0x0000000000051140        0x0 /usr/lib/gcc/i686-linux-gnu/4.8/../../../i386-linux-gnu/crtn.o
 *(COMMON)
 COMMON         0x0000000000051140       0x24 sensor.co
                0x0000000000051140                cfs_buf
                0x0000000000051160                fd
 COMMON         0x0000000000051164        0x8 obj_cooja/mtype772.o
                0x0000000000051164                referenceVar
                0x0000000000051168                sensors_flags
 COMMON         0x000000000005116c        0x4 obj_cooja/mtype772.a(dtls_time.o)
                0x000000000005116c                dtls_clock_offset
 COMMON         0x0000000000051170        0xc obj_cooja/mtype772.a(simEnvChange.o)
                0x0000000000051170                simEtimerPending
                0x0000000000051174                simProcessRunValue
                0x0000000000051178                simEtimerNextExpirationTime
 *fill*         0x000000000005117c        0x4 
 COMMON         0x0000000000051180       0x18 obj_cooja/mtype772.a(rtimer-arch.o)
                0x0000000000051180                simRtimerPending
                0x0000000000051188                simRtimerCurrentTicks
                0x0000000000051190                simRtimerNextExpirationTime
 COMMON         0x0000000000051198        0x1 obj_cooja/mtype772.a(beep.o)
                0x0000000000051198                simBeeped
 COMMON         0x0000000000051199        0x3 obj_cooja/mtype772.a(button-sensor.o)
                0x0000000000051199                simButtonIsActive
                0x000000000005119a                simButtonIsDown
                0x000000000005119b                simButtonChanged
 COMMON         0x000000000005119c        0x1 obj_cooja/mtype772.a(leds-arch.o)
                0x000000000005119c                simLedsValue
 *fill*         0x000000000005119d        0x3 
 COMMON         0x00000000000511a0        0xc obj_cooja/mtype772.a(moteid.o)
                0x00000000000511a0                simRandomSeed
                0x00000000000511a4                simMoteIDChanged
                0x00000000000511a8                simMoteID
 COMMON         0x00000000000511ac        0x2 obj_cooja/mtype772.a(pir-sensor.o)
                0x00000000000511ac                simPirIsActive
                0x00000000000511ad                simPirChanged
 *fill*         0x00000000000511ae       0x12 
 COMMON         0x00000000000511c0      0x820 obj_cooja/mtype772.a(rs232.o)
                0x00000000000511c0                simSerialReceivingFlag
                0x00000000000511c4                simSerialReceivingLength
                0x00000000000511e0                simSerialReceivingData
 COMMON         0x00000000000519e0        0x2 obj_cooja/mtype772.a(vib-sensor.o)
                0x00000000000519e0                simVibChanged
                0x00000000000519e1                simVibIsActive
 *fill*         0x00000000000519e2        0x2 
 COMMON         0x00000000000519e4        0x4 obj_cooja/mtype772.a(clock.o)
                0x00000000000519e4                simCurrentTime
 *fill*         0x00000000000519e8       0x18 
 COMMON         0x0000000000051a00      0x420 obj_cooja/mtype772.a(log.o)
                0x0000000000051a00                simLoggedLength
                0x0000000000051a04                simLoggedFlag
                0x0000000000051a20                simLoggedData
 COMMON         0x0000000000051e20      0x100 obj_cooja/mtype772.a(cooja-radio.o)
                0x0000000000051e20                simOutDataBuffer
                0x0000000000051ea0                simInDataBuffer
 COMMON         0x0000000000051f20      0x400 obj_cooja/mtype772.a(eeprom.o)
                0x0000000000051f20                simEEPROMData
 COMMON         0x0000000000052320        0x1 obj_cooja/mtype772.a(sensors.o)
                0x0000000000052320                sensors_event
 COMMON         0x0000000000052321        0x1 obj_cooja/mtype772.a(serial-line.o)
                0x0000000000052321                serial_line_event_message
 *fill*         0x0000000000052322       0x1e 
 COMMON         0x0000000000052340      0x181 obj_cooja/mtype772.a(uip-ds6.o)
                0x0000000000052340                uip_ds6_prefix_list
                0x00000000000523a0                uip_ds6_timer_periodic
                0x00000000000523b0                uip_ds6_netif_addr_list_offset
                0x00000000000523c0                uip_ds6_if
                0x00000000000524b8                uip_ds6_timer_ra
                0x00000000000524c0                uip_ds6_addr_size
 *fill*         0x00000000000524c1       0x1f 
 COMMON         0x00000000000524e0      0x8ec obj_cooja/mtype772.a(uip6.o)
                0x00000000000524e0                uip_slen
                0x00000000000524e2                uip_acc32
                0x0000000000052500                uip_conns
                0x00000000000525c0                uip_lladdr
                0x00000000000525c8                uip_appdata
                0x00000000000525cc                uip_flags
                0x00000000000525e0                uip_aligned_buf
                0x0000000000052c20                uip_listenports
                0x0000000000052c30                uip_len
                0x0000000000052c34                uip_sappdata
                0x0000000000052c40                uip_udp_conns
                0x0000000000052dc0                uip_udp_conn
                0x0000000000052dc4                uip_next_hdr
                0x0000000000052dc8                uip_conn
 COMMON         0x0000000000052dcc        0x1 obj_cooja/mtype772.a(resolv.o)
                0x0000000000052dcc                resolv_event_found
 COMMON         0x0000000000052dcd        0x1 obj_cooja/mtype772.a(tcpip.o)
                0x0000000000052dcd                tcpip_event
 *fill*         0x0000000000052dce       0x12 
 COMMON         0x0000000000052de0      0x174 obj_cooja/mtype772.a(rpl-dag.o)
                0x0000000000052de0                default_instance
                0x0000000000052e00                instance_table
 *fill*         0x0000000000052f54        0xc 
 COMMON         0x0000000000052f60       0x20 obj_cooja/mtype772.a(link-stats.o)
                0x0000000000052f60                periodic_timer
 COMMON         0x0000000000052f80        0x8 obj_cooja/mtype772.a(linkaddr.o)
                0x0000000000052f80                linkaddr_node_addr
 COMMON         0x0000000000052f88       0x2e obj_cooja/mtype772.a(packetbuf.o)
                0x0000000000052f88                packetbuf_attrs
                0x0000000000052fa6                packetbuf_addrs
 *fill*         0x0000000000052fb6        0xa 
 COMMON         0x0000000000052fc0       0x48 obj_cooja/mtype772.a(rimestats.o)
                0x0000000000052fc0                rimestats
                0x0000000000053008                . = ALIGN ((. != 0x0)?0x4:0x1)
                0x0000000000053008                . = ALIGN (0x4)
                0x0000000000053008                . = SEGMENT_START ("ldata-segment", .)
                0x0000000000053008                . = ALIGN (0x4)
                0x0000000000053008                _end = .
                0x0000000000053008                PROVIDE (end, .)
                0x0000000000053008                . = DATA_SEGMENT_END (.)

.stab
 *(.stab)

.stabstr
 *(.stabstr)

.stab.excl
 *(.stab.excl)

.stab.exclstr
 *(.stab.exclstr)

.stab.index
 *(.stab.index)

.stab.indexstr
 *(.stab.indexstr)

.comment        0x0000000000000000       0x29
 *(.comment)
 .comment       0x0000000000000000       0x29 /usr/lib/gcc/i686-linux-gnu/4.8/crtbeginS.o
                                         0x2a (size before relaxing)
 .comment       0x0000000000000000       0x2a sensor.co
 .comment       0x0000000000000000       0x2a obj_cooja/mtype772.o
 .comment       0x0000000000000000       0x2a obj_cooja/mtype772.a(dtls.o)
 .comment       0x0000000000000000       0x2a obj_cooja/mtype772.a(tinydtls-crypto)
 .comment       0x0000000000000000       0x2a obj_cooja/mtype772.a(hmac.o)
 .comment       0x0000000000000000       0x2a obj_cooja/mtype772.a(netq.o)
 .comment       0x0000000000000000       0x2a obj_cooja/mtype772.a(dtls_time.o)
 .comment       0x0000000000000000       0x2a obj_cooja/mtype772.a(peer.o)
 .comment       0x0000000000000000       0x2a obj_cooja/mtype772.a(session.o)
 .comment       0x0000000000000000       0x2a obj_cooja/mtype772.a(rijndael.o)
 .comment       0x0000000000000000       0x2a obj_cooja/mtype772.a(tinydtls-ccm.o)
 .comment       0x0000000000000000       0x2a obj_cooja/mtype772.a(sha2.o)
 .comment       0x0000000000000000       0x2a obj_cooja/mtype772.a(debug.o)
 .comment       0x0000000000000000       0x2a obj_cooja/mtype772.a(simEnvChange.o)
 .comment       0x0000000000000000       0x2a obj_cooja/mtype772.a(cooja_mt.o)
 .comment       0x0000000000000000       0x2a obj_cooja/mtype772.a(cooja_mtarch.o)
 .comment       0x0000000000000000       0x2a obj_cooja/mtype772.a(rtimer-arch.o)
 .comment       0x0000000000000000       0x2a obj_cooja/mtype772.a(beep.o)
 .comment       0x0000000000000000       0x2a obj_cooja/mtype772.a(button-sensor.o)
 .comment       0x0000000000000000       0x2a obj_cooja/mtype772.a(leds-arch.o)
 .comment       0x0000000000000000       0x2a obj_cooja/mtype772.a(moteid.o)
 .comment       0x0000000000000000       0x2a obj_cooja/mtype772.a(pir-sensor.o)
 .comment       0x0000000000000000       0x2a obj_cooja/mtype772.a(rs232.o)
 .comment       0x0000000000000000       0x2a obj_cooja/mtype772.a(vib-sensor.o)
 .comment       0x0000000000000000       0x2a obj_cooja/mtype772.a(clock.o)
 .comment       0x0000000000000000       0x2a obj_cooja/mtype772.a(log.o)
 .comment       0x0000000000000000       0x2a obj_cooja/mtype772.a(cfs-cooja.o)
 .comment       0x0000000000000000       0x2a obj_cooja/mtype772.a(cooja-radio.o)
 .comment       0x0000000000000000       0x2a obj_cooja/mtype772.a(eeprom.o)
 .comment       0x0000000000000000       0x2a obj_cooja/mtype772.a(random.o)
 .comment       0x0000000000000000       0x2a obj_cooja/mtype772.a(sensors.o)
 .comment       0x0000000000000000       0x2a obj_cooja/mtype772.a(autostart.o)
 .comment       0x0000000000000000       0x2a obj_cooja/mtype772.a(ctimer.o)
 .comment       0x0000000000000000       0x2a obj_cooja/mtype772.a(etimer.o)
 .comment       0x0000000000000000       0x2a obj_cooja/mtype772.a(process.o)
 .comment       0x0000000000000000       0x2a obj_cooja/mtype772.a(rtimer.o)
 .comment       0x0000000000000000       0x2a obj_cooja/mtype772.a(timer.o)
 .comment       0x0000000000000000       0x2a obj_cooja/mtype772.a(serial-line.o)
 .comment       0x0000000000000000       0x2a obj_cooja/mtype772.a(assert.o)
 .comment       0x0000000000000000       0x2a obj_cooja/mtype772.a(list.o)
 .comment       0x0000000000000000       0x2a obj_cooja/mtype772.a(memb.o)
 .comment       0x0000000000000000       0x2a obj_cooja/mtype772.a(ringbuf.o)
 .comment       0x0000000000000000       0x2a obj_cooja/mtype772.a(sicslowpan.o)
 .comment       0x0000000000000000       0x2a obj_cooja/mtype772.a(uip-ds6-nbr.o)
 .comment       0x0000000000000000       0x2a obj_cooja/mtype772.a(uip-ds6-route.o)
 .comment       0x0000000000000000       0x2a obj_cooja/mtype772.a(uip-ds6.o)
 .comment       0x0000000000000000       0x2a obj_cooja/mtype772.a(uip-nd6.o)
 .comment       0x0000000000000000       0x2a obj_cooja/mtype772.a(uip6.o)
 .comment       0x0000000000000000       0x2a obj_cooja/mtype772.a(resolv.o)
 .comment       0x0000000000000000       0x2a obj_cooja/mtype772.a(tcpip.o)
 .comment       0x0000000000000000       0x2a obj_cooja/mtype772.a(uip-debug.o)
 .comment       0x0000000000000000       0x2a obj_cooja/mtype772.a(uip-nameserver.)
 .comment       0x0000000000000000       0x2a obj_cooja/mtype772.a(uip-packetqueue)
 .comment       0x0000000000000000       0x2a obj_cooja/mtype772.a(uip-udp-packet.)
 .comment       0x0000000000000000       0x2a obj_cooja/mtype772.a(rpl-dag.o)
 .comment       0x0000000000000000       0x2a obj_cooja/mtype772.a(rpl-ext-header.)
 .comment       0x0000000000000000       0x2a obj_cooja/mtype772.a(rpl-icmp6.o)
 .comment       0x0000000000000000       0x2a obj_cooja/mtype772.a(rpl-mrhof.o)
 .comment       0x0000000000000000       0x2a obj_cooja/mtype772.a(rpl-timers.o)
 .comment       0x0000000000000000       0x2a obj_cooja/mtype772.a(rpl.o)
 .comment       0x0000000000000000       0x2a obj_cooja/mtype772.a(link-stats.o)
 .comment       0x0000000000000000       0x2a obj_cooja/mtype772.a(linkaddr.o)
 .comment       0x0000000000000000       0x2a obj_cooja/mtype772.a(nbr-table.o)
 .comment       0x0000000000000000       0x2a obj_cooja/mtype772.a(netstack.o)
 .comment       0x0000000000000000       0x2a obj_cooja/mtype772.a(packetbuf.o)
 .comment       0x0000000000000000       0x2a obj_cooja/mtype772.a(queuebuf.o)
 .comment       0x0000000000000000       0x2a obj_cooja/mtype772.a(csma.o)
 .comment       0x0000000000000000       0x2a obj_cooja/mtype772.a(framer-802154.o)
 .comment       0x0000000000000000       0x2a obj_cooja/mtype772.a(mac.o)
 .comment       0x0000000000000000       0x2a obj_cooja/mtype772.a(nullrdc.o)
 .comment       0x0000000000000000       0x2a obj_cooja/mtype772.a(nullsec.o)
 .comment       0x0000000000000000       0x2a obj_cooja/mtype772.a(watchdog.o)
 .comment       0x0000000000000000       0x2a obj_cooja/mtype772.a(rimestats.o)
 .comment       0x0000000000000000       0x2a obj_cooja/mtype772.a(stimer.o)
 .comment       0x0000000000000000       0x2a obj_cooja/mtype772.a(uip-icmp6.o)
 .comment       0x0000000000000000       0x2a obj_cooja/mtype772.a(rpl-nbr-policy.)
 .comment       0x0000000000000000       0x2a obj_cooja/mtype772.a(frame802154.o)
 .comment       0x0000000000000000       0x2a obj_cooja/mtype772.a(mac-sequence.o)
 .comment       0x0000000000000000       0x2a /usr/lib/gcc/i686-linux-gnu/4.8/crtendS.o

.debug
 *(.debug)

.line
 *(.line)

.debug_srcinfo
 *(.debug_srcinfo)

.debug_sfnames
 *(.debug_sfnames)

.debug_aranges  0x0000000000000000     0x2148
 *(.debug_aranges)
 .debug_aranges
                0x0000000000000000       0x78 sensor.co
 .debug_aranges
                0x0000000000000078       0x68 obj_cooja/mtype772.o
 .debug_aranges
                0x00000000000000e0      0x300 obj_cooja/mtype772.a(dtls.o)
 .debug_aranges
                0x00000000000003e0       0xc8 obj_cooja/mtype772.a(tinydtls-crypto)
 .debug_aranges
                0x00000000000004a8       0x70 obj_cooja/mtype772.a(hmac.o)
 .debug_aranges
                0x0000000000000518       0x70 obj_cooja/mtype772.a(netq.o)
 .debug_aranges
                0x0000000000000588       0x28 obj_cooja/mtype772.a(dtls_time.o)
 .debug_aranges
                0x00000000000005b0       0x38 obj_cooja/mtype772.a(peer.o)
 .debug_aranges
                0x00000000000005e8       0x28 obj_cooja/mtype772.a(session.o)
 .debug_aranges
                0x0000000000000610       0x38 obj_cooja/mtype772.a(rijndael.o)
 .debug_aranges
                0x0000000000000648       0x60 obj_cooja/mtype772.a(tinydtls-ccm.o)
 .debug_aranges
                0x00000000000006a8       0x48 obj_cooja/mtype772.a(sha2.o)
 .debug_aranges
                0x00000000000006f0       0x68 obj_cooja/mtype772.a(debug.o)
 .debug_aranges
                0x0000000000000758       0x28 obj_cooja/mtype772.a(simEnvChange.o)
 .debug_aranges
                0x0000000000000780       0x48 obj_cooja/mtype772.a(cooja_mt.o)
 .debug_aranges
                0x00000000000007c8       0x60 obj_cooja/mtype772.a(cooja_mtarch.o)
 .debug_aranges
                0x0000000000000828       0x48 obj_cooja/mtype772.a(rtimer-arch.o)
 .debug_aranges
                0x0000000000000870       0x70 obj_cooja/mtype772.a(beep.o)
 .debug_aranges
                0x00000000000008e0       0x40 obj_cooja/mtype772.a(button-sensor.o)
 .debug_aranges
                0x0000000000000920       0x40 obj_cooja/mtype772.a(leds-arch.o)
 .debug_aranges
                0x0000000000000960       0x28 obj_cooja/mtype772.a(moteid.o)
 .debug_aranges
                0x0000000000000988       0x40 obj_cooja/mtype772.a(pir-sensor.o)
 .debug_aranges
                0x00000000000009c8       0x58 obj_cooja/mtype772.a(rs232.o)
 .debug_aranges
                0x0000000000000a20       0x40 obj_cooja/mtype772.a(vib-sensor.o)
 .debug_aranges
                0x0000000000000a60       0x48 obj_cooja/mtype772.a(clock.o)
 .debug_aranges
                0x0000000000000aa8       0x60 obj_cooja/mtype772.a(log.o)
 .debug_aranges
                0x0000000000000b08       0x70 obj_cooja/mtype772.a(cfs-cooja.o)
 .debug_aranges
                0x0000000000000b78       0xf0 obj_cooja/mtype772.a(cooja-radio.o)
 .debug_aranges
                0x0000000000000c68       0x40 obj_cooja/mtype772.a(eeprom.o)
 .debug_aranges
                0x0000000000000ca8       0x28 obj_cooja/mtype772.a(random.o)
 .debug_aranges
                0x0000000000000cd0       0x48 obj_cooja/mtype772.a(sensors.o)
 .debug_aranges
                0x0000000000000d18       0x28 obj_cooja/mtype772.a(autostart.o)
 .debug_aranges
                0x0000000000000d40       0x58 obj_cooja/mtype772.a(ctimer.o)
 .debug_aranges
                0x0000000000000d98       0x90 obj_cooja/mtype772.a(etimer.o)
 .debug_aranges
                0x0000000000000e28       0x88 obj_cooja/mtype772.a(process.o)
 .debug_aranges
                0x0000000000000eb0       0x30 obj_cooja/mtype772.a(rtimer.o)
 .debug_aranges
                0x0000000000000ee0       0x40 obj_cooja/mtype772.a(timer.o)
 .debug_aranges
                0x0000000000000f20       0x30 obj_cooja/mtype772.a(serial-line.o)
 .debug_aranges
                0x0000000000000f50       0x20 obj_cooja/mtype772.a(assert.o)
 .debug_aranges
                0x0000000000000f70       0x78 obj_cooja/mtype772.a(list.o)
 .debug_aranges
                0x0000000000000fe8       0x40 obj_cooja/mtype772.a(memb.o)
 .debug_aranges
                0x0000000000001028       0x40 obj_cooja/mtype772.a(ringbuf.o)
 .debug_aranges
                0x0000000000001068       0xe0 obj_cooja/mtype772.a(sicslowpan.o)
 .debug_aranges
                0x0000000000001148       0x90 obj_cooja/mtype772.a(uip-ds6-nbr.o)
 .debug_aranges
                0x00000000000011d8       0xc8 obj_cooja/mtype772.a(uip-ds6-route.o)
 .debug_aranges
                0x00000000000012a0       0xc8 obj_cooja/mtype772.a(uip-ds6.o)
 .debug_aranges
                0x0000000000001368       0x48 obj_cooja/mtype772.a(uip-nd6.o)
 .debug_aranges
                0x00000000000013b0       0xb0 obj_cooja/mtype772.a(uip6.o)
 .debug_aranges
                0x0000000000001460       0xb8 obj_cooja/mtype772.a(resolv.o)
 .debug_aranges
                0x0000000000001518       0xb0 obj_cooja/mtype772.a(tcpip.o)
 .debug_aranges
                0x00000000000015c8       0x20 obj_cooja/mtype772.a(uip-debug.o)
 .debug_aranges
                0x00000000000015e8       0x38 obj_cooja/mtype772.a(uip-nameserver.)
 .debug_aranges
                0x0000000000001620       0x50 obj_cooja/mtype772.a(uip-packetqueue)
 .debug_aranges
                0x0000000000001670       0x28 obj_cooja/mtype772.a(uip-udp-packet.)
 .debug_aranges
                0x0000000000001698      0x1d8 obj_cooja/mtype772.a(rpl-dag.o)
 .debug_aranges
                0x0000000000001870       0x48 obj_cooja/mtype772.a(rpl-ext-header.)
 .debug_aranges
                0x00000000000018b8       0xc0 obj_cooja/mtype772.a(rpl-icmp6.o)
 .debug_aranges
                0x0000000000001978       0x60 obj_cooja/mtype772.a(rpl-mrhof.o)
 .debug_aranges
                0x00000000000019d8       0xa0 obj_cooja/mtype772.a(rpl-timers.o)
 .debug_aranges
                0x0000000000001a78       0x68 obj_cooja/mtype772.a(rpl.o)
 .debug_aranges
                0x0000000000001ae0       0x58 obj_cooja/mtype772.a(link-stats.o)
 .debug_aranges
                0x0000000000001b38       0x30 obj_cooja/mtype772.a(linkaddr.o)
 .debug_aranges
                0x0000000000001b68       0xc0 obj_cooja/mtype772.a(nbr-table.o)
 .debug_aranges
                0x0000000000001c28       0x20 obj_cooja/mtype772.a(netstack.o)
 .debug_aranges
                0x0000000000001c48       0xa0 obj_cooja/mtype772.a(packetbuf.o)
 .debug_aranges
                0x0000000000001ce8       0x80 obj_cooja/mtype772.a(queuebuf.o)
 .debug_aranges
                0x0000000000001d68       0xb8 obj_cooja/mtype772.a(csma.o)
 .debug_aranges
                0x0000000000001e20       0x58 obj_cooja/mtype772.a(framer-802154.o)
 .debug_aranges
                0x0000000000001e78       0x20 obj_cooja/mtype772.a(mac.o)
 .debug_aranges
                0x0000000000001e98       0x70 obj_cooja/mtype772.a(nullrdc.o)
 .debug_aranges
                0x0000000000001f08       0x38 obj_cooja/mtype772.a(nullsec.o)
 .debug_aranges
                0x0000000000001f40       0x40 obj_cooja/mtype772.a(watchdog.o)
 .debug_aranges
                0x0000000000001f80       0x18 obj_cooja/mtype772.a(rimestats.o)
 .debug_aranges
                0x0000000000001f98       0x48 obj_cooja/mtype772.a(stimer.o)
 .debug_aranges
                0x0000000000001fe0       0x68 obj_cooja/mtype772.a(uip-icmp6.o)
 .debug_aranges
                0x0000000000002048       0x48 obj_cooja/mtype772.a(rpl-nbr-policy.)
 .debug_aranges
                0x0000000000002090       0x80 obj_cooja/mtype772.a(frame802154.o)
 .debug_aranges
                0x0000000000002110       0x38 obj_cooja/mtype772.a(mac-sequence.o)

.debug_pubnames
 *(.debug_pubnames)

.debug_info     0x0000000000000000    0x2491d
 *(.debug_info .gnu.linkonce.wi.*)
 .debug_info    0x0000000000000000      0xf59 sensor.co
 .debug_info    0x0000000000000f59     0x36d8 obj_cooja/mtype772.o
 .debug_info    0x0000000000004631     0x3461 obj_cooja/mtype772.a(dtls.o)
 .debug_info    0x0000000000007a92      0xe43 obj_cooja/mtype772.a(tinydtls-crypto)
 .debug_info    0x00000000000088d5      0x4e9 obj_cooja/mtype772.a(hmac.o)
 .debug_info    0x0000000000008dbe      0x8d5 obj_cooja/mtype772.a(netq.o)
 .debug_info    0x0000000000009693      0x17e obj_cooja/mtype772.a(dtls_time.o)
 .debug_info    0x0000000000009811      0x6d1 obj_cooja/mtype772.a(peer.o)
 .debug_info    0x0000000000009ee2      0x22c obj_cooja/mtype772.a(session.o)
 .debug_info    0x000000000000a10e      0x37f obj_cooja/mtype772.a(rijndael.o)
 .debug_info    0x000000000000a48d      0x650 obj_cooja/mtype772.a(tinydtls-ccm.o)
 .debug_info    0x000000000000aadd      0x560 obj_cooja/mtype772.a(sha2.o)
 .debug_info    0x000000000000b03d      0x518 obj_cooja/mtype772.a(debug.o)
 .debug_info    0x000000000000b555      0x15a obj_cooja/mtype772.a(simEnvChange.o)
 .debug_info    0x000000000000b6af      0x1e2 obj_cooja/mtype772.a(cooja_mt.o)
 .debug_info    0x000000000000b891      0x2e7 obj_cooja/mtype772.a(cooja_mtarch.o)
 .debug_info    0x000000000000bb78      0x14a obj_cooja/mtype772.a(rtimer-arch.o)
 .debug_info    0x000000000000bcc2      0x1f3 obj_cooja/mtype772.a(beep.o)
 .debug_info    0x000000000000beb5      0x257 obj_cooja/mtype772.a(button-sensor.o)
 .debug_info    0x000000000000c10c      0x132 obj_cooja/mtype772.a(leds-arch.o)
 .debug_info    0x000000000000c23e      0x10a obj_cooja/mtype772.a(moteid.o)
 .debug_info    0x000000000000c348      0x216 obj_cooja/mtype772.a(pir-sensor.o)
 .debug_info    0x000000000000c55e      0x21e obj_cooja/mtype772.a(rs232.o)
 .debug_info    0x000000000000c77c      0x216 obj_cooja/mtype772.a(vib-sensor.o)
 .debug_info    0x000000000000c992      0x152 obj_cooja/mtype772.a(clock.o)
 .debug_info    0x000000000000cae4      0x2bb obj_cooja/mtype772.a(log.o)
 .debug_info    0x000000000000cd9f      0x3cf obj_cooja/mtype772.a(cfs-cooja.o)
 .debug_info    0x000000000000d16e      0xd1b obj_cooja/mtype772.a(cooja-radio.o)
 .debug_info    0x000000000000de89      0x1d5 obj_cooja/mtype772.a(eeprom.o)
 .debug_info    0x000000000000e05e       0xb3 obj_cooja/mtype772.a(random.o)
 .debug_info    0x000000000000e111      0x36d obj_cooja/mtype772.a(sensors.o)
 .debug_info    0x000000000000e47e      0x1a5 obj_cooja/mtype772.a(autostart.o)
 .debug_info    0x000000000000e623      0x46c obj_cooja/mtype772.a(ctimer.o)
 .debug_info    0x000000000000ea8f      0x49c obj_cooja/mtype772.a(etimer.o)
 .debug_info    0x000000000000ef2b      0x4ab obj_cooja/mtype772.a(process.o)
 .debug_info    0x000000000000f3d6      0x1b6 obj_cooja/mtype772.a(rtimer.o)
 .debug_info    0x000000000000f58c      0x16c obj_cooja/mtype772.a(timer.o)
 .debug_info    0x000000000000f6f8      0x2de obj_cooja/mtype772.a(serial-line.o)
 .debug_info    0x000000000000f9d6       0xb3 obj_cooja/mtype772.a(assert.o)
 .debug_info    0x000000000000fa89      0x2ed obj_cooja/mtype772.a(list.o)
 .debug_info    0x000000000000fd76      0x1d7 obj_cooja/mtype772.a(memb.o)
 .debug_info    0x000000000000ff4d      0x1aa obj_cooja/mtype772.a(ringbuf.o)
 .debug_info    0x00000000000100f7     0x105d obj_cooja/mtype772.a(sicslowpan.o)
 .debug_info    0x0000000000011154      0xb48 obj_cooja/mtype772.a(uip-ds6-nbr.o)
 .debug_info    0x0000000000011c9c      0xd6b obj_cooja/mtype772.a(uip-ds6-route.o)
 .debug_info    0x0000000000012a07      0xa4b obj_cooja/mtype772.a(uip-ds6.o)
 .debug_info    0x0000000000013452      0x97b obj_cooja/mtype772.a(uip-nd6.o)
 .debug_info    0x0000000000013dcd      0xe68 obj_cooja/mtype772.a(uip6.o)
 .debug_info    0x0000000000014c35     0x1075 obj_cooja/mtype772.a(resolv.o)
 .debug_info    0x0000000000015caa     0x1602 obj_cooja/mtype772.a(tcpip.o)
 .debug_info    0x00000000000172ac      0x13b obj_cooja/mtype772.a(uip-debug.o)
 .debug_info    0x00000000000173e7      0x243 obj_cooja/mtype772.a(uip-nameserver.)
 .debug_info    0x000000000001762a      0x470 obj_cooja/mtype772.a(uip-packetqueue)
 .debug_info    0x0000000000017a9a      0x37a obj_cooja/mtype772.a(uip-udp-packet.)
 .debug_info    0x0000000000017e14     0x1b58 obj_cooja/mtype772.a(rpl-dag.o)
 .debug_info    0x000000000001996c      0xf73 obj_cooja/mtype772.a(rpl-ext-header.)
 .debug_info    0x000000000001a8df     0x16db obj_cooja/mtype772.a(rpl-icmp6.o)
 .debug_info    0x000000000001bfba      0xa3d obj_cooja/mtype772.a(rpl-mrhof.o)
 .debug_info    0x000000000001c9f7      0xcc0 obj_cooja/mtype772.a(rpl-timers.o)
 .debug_info    0x000000000001d6b7      0xd0d obj_cooja/mtype772.a(rpl.o)
 .debug_info    0x000000000001e3c4      0x691 obj_cooja/mtype772.a(link-stats.o)
 .debug_info    0x000000000001ea55      0x165 obj_cooja/mtype772.a(linkaddr.o)
 .debug_info    0x000000000001ebba      0x969 obj_cooja/mtype772.a(nbr-table.o)
 .debug_info    0x000000000001f523      0x4b9 obj_cooja/mtype772.a(netstack.o)
 .debug_info    0x000000000001f9dc      0x48d obj_cooja/mtype772.a(packetbuf.o)
 .debug_info    0x000000000001fe69      0x57d obj_cooja/mtype772.a(queuebuf.o)
 .debug_info    0x00000000000203e6      0xc0d obj_cooja/mtype772.a(csma.o)
 .debug_info    0x0000000000020ff3      0x5ed obj_cooja/mtype772.a(framer-802154.o)
 .debug_info    0x00000000000215e0      0x112 obj_cooja/mtype772.a(mac.o)
 .debug_info    0x00000000000216f2      0xc3c obj_cooja/mtype772.a(nullrdc.o)
 .debug_info    0x000000000002232e      0x3aa obj_cooja/mtype772.a(nullsec.o)
 .debug_info    0x00000000000226d8       0x7b obj_cooja/mtype772.a(watchdog.o)
 .debug_info    0x0000000000022753      0x119 obj_cooja/mtype772.a(rimestats.o)
 .debug_info    0x000000000002286c      0x179 obj_cooja/mtype772.a(stimer.o)
 .debug_info    0x00000000000229e5      0x761 obj_cooja/mtype772.a(uip-icmp6.o)
 .debug_info    0x0000000000023146      0xdee obj_cooja/mtype772.a(rpl-nbr-policy.)
 .debug_info    0x0000000000023f34      0x72d obj_cooja/mtype772.a(frame802154.o)
 .debug_info    0x0000000000024661      0x2bc obj_cooja/mtype772.a(mac-sequence.o)

.debug_abbrev   0x0000000000000000     0x823c
 *(.debug_abbrev)
 .debug_abbrev  0x0000000000000000      0x2ef sensor.co
 .debug_abbrev  0x00000000000002ef      0x2b3 obj_cooja/mtype772.o
 .debug_abbrev  0x00000000000005a2      0x3b1 obj_cooja/mtype772.a(dtls.o)
 .debug_abbrev  0x0000000000000953      0x2b3 obj_cooja/mtype772.a(tinydtls-crypto)
 .debug_abbrev  0x0000000000000c06      0x19a obj_cooja/mtype772.a(hmac.o)
 .debug_abbrev  0x0000000000000da0      0x1d3 obj_cooja/mtype772.a(netq.o)
 .debug_abbrev  0x0000000000000f73      0x101 obj_cooja/mtype772.a(dtls_time.o)
 .debug_abbrev  0x0000000000001074      0x191 obj_cooja/mtype772.a(peer.o)
 .debug_abbrev  0x0000000000001205      0x126 obj_cooja/mtype772.a(session.o)
 .debug_abbrev  0x000000000000132b      0x12c obj_cooja/mtype772.a(rijndael.o)
 .debug_abbrev  0x0000000000001457      0x1a2 obj_cooja/mtype772.a(tinydtls-ccm.o)
 .debug_abbrev  0x00000000000015f9      0x165 obj_cooja/mtype772.a(sha2.o)
 .debug_abbrev  0x000000000000175e      0x1e0 obj_cooja/mtype772.a(debug.o)
 .debug_abbrev  0x000000000000193e       0xc3 obj_cooja/mtype772.a(simEnvChange.o)
 .debug_abbrev  0x0000000000001a01       0xe6 obj_cooja/mtype772.a(cooja_mt.o)
 .debug_abbrev  0x0000000000001ae7      0x147 obj_cooja/mtype772.a(cooja_mtarch.o)
 .debug_abbrev  0x0000000000001c2e       0xbd obj_cooja/mtype772.a(rtimer-arch.o)
 .debug_abbrev  0x0000000000001ceb       0xe3 obj_cooja/mtype772.a(beep.o)
 .debug_abbrev  0x0000000000001dce      0x11c obj_cooja/mtype772.a(button-sensor.o)
 .debug_abbrev  0x0000000000001eea       0xe1 obj_cooja/mtype772.a(leds-arch.o)
 .debug_abbrev  0x0000000000001fcb       0x9c obj_cooja/mtype772.a(moteid.o)
 .debug_abbrev  0x0000000000002067       0xe6 obj_cooja/mtype772.a(pir-sensor.o)
 .debug_abbrev  0x000000000000214d      0x14a obj_cooja/mtype772.a(rs232.o)
 .debug_abbrev  0x0000000000002297       0xe6 obj_cooja/mtype772.a(vib-sensor.o)
 .debug_abbrev  0x000000000000237d       0xee obj_cooja/mtype772.a(clock.o)
 .debug_abbrev  0x000000000000246b      0x141 obj_cooja/mtype772.a(log.o)
 .debug_abbrev  0x00000000000025ac      0x139 obj_cooja/mtype772.a(cfs-cooja.o)
 .debug_abbrev  0x00000000000026e5      0x324 obj_cooja/mtype772.a(cooja-radio.o)
 .debug_abbrev  0x0000000000002a09       0xf5 obj_cooja/mtype772.a(eeprom.o)
 .debug_abbrev  0x0000000000002afe       0x6d obj_cooja/mtype772.a(random.o)
 .debug_abbrev  0x0000000000002b6b      0x1c2 obj_cooja/mtype772.a(sensors.o)
 .debug_abbrev  0x0000000000002d2d       0xfb obj_cooja/mtype772.a(autostart.o)
 .debug_abbrev  0x0000000000002e28      0x1a1 obj_cooja/mtype772.a(ctimer.o)
 .debug_abbrev  0x0000000000002fc9      0x1f1 obj_cooja/mtype772.a(etimer.o)
 .debug_abbrev  0x00000000000031ba      0x244 obj_cooja/mtype772.a(process.o)
 .debug_abbrev  0x00000000000033fe      0x124 obj_cooja/mtype772.a(rtimer.o)
 .debug_abbrev  0x0000000000003522       0xf5 obj_cooja/mtype772.a(timer.o)
 .debug_abbrev  0x0000000000003617      0x190 obj_cooja/mtype772.a(serial-line.o)
 .debug_abbrev  0x00000000000037a7       0x61 obj_cooja/mtype772.a(assert.o)
 .debug_abbrev  0x0000000000003808      0x145 obj_cooja/mtype772.a(list.o)
 .debug_abbrev  0x000000000000394d       0xe4 obj_cooja/mtype772.a(memb.o)
 .debug_abbrev  0x0000000000003a31       0xdb obj_cooja/mtype772.a(ringbuf.o)
 .debug_abbrev  0x0000000000003b0c      0x290 obj_cooja/mtype772.a(sicslowpan.o)
 .debug_abbrev  0x0000000000003d9c      0x2cf obj_cooja/mtype772.a(uip-ds6-nbr.o)
 .debug_abbrev  0x000000000000406b      0x317 obj_cooja/mtype772.a(uip-ds6-route.o)
 .debug_abbrev  0x0000000000004382      0x23a obj_cooja/mtype772.a(uip-ds6.o)
 .debug_abbrev  0x00000000000045bc      0x27e obj_cooja/mtype772.a(uip-nd6.o)
 .debug_abbrev  0x000000000000483a      0x2c9 obj_cooja/mtype772.a(uip6.o)
 .debug_abbrev  0x0000000000004b03      0x2a4 obj_cooja/mtype772.a(resolv.o)
 .debug_abbrev  0x0000000000004da7      0x349 obj_cooja/mtype772.a(tcpip.o)
 .debug_abbrev  0x00000000000050f0       0xad obj_cooja/mtype772.a(uip-debug.o)
 .debug_abbrev  0x000000000000519d      0x142 obj_cooja/mtype772.a(uip-nameserver.)
 .debug_abbrev  0x00000000000052df      0x1d4 obj_cooja/mtype772.a(uip-packetqueue)
 .debug_abbrev  0x00000000000054b3      0x195 obj_cooja/mtype772.a(uip-udp-packet.)
 .debug_abbrev  0x0000000000005648      0x373 obj_cooja/mtype772.a(rpl-dag.o)
 .debug_abbrev  0x00000000000059bb      0x25f obj_cooja/mtype772.a(rpl-ext-header.)
 .debug_abbrev  0x0000000000005c1a      0x37a obj_cooja/mtype772.a(rpl-icmp6.o)
 .debug_abbrev  0x0000000000005f94      0x1c4 obj_cooja/mtype772.a(rpl-mrhof.o)
 .debug_abbrev  0x0000000000006158      0x283 obj_cooja/mtype772.a(rpl-timers.o)
 .debug_abbrev  0x00000000000063db      0x25a obj_cooja/mtype772.a(rpl.o)
 .debug_abbrev  0x0000000000006635      0x23f obj_cooja/mtype772.a(link-stats.o)
 .debug_abbrev  0x0000000000006874       0xd8 obj_cooja/mtype772.a(linkaddr.o)
 .debug_abbrev  0x000000000000694c      0x1f8 obj_cooja/mtype772.a(nbr-table.o)
 .debug_abbrev  0x0000000000006b44      0x111 obj_cooja/mtype772.a(netstack.o)
 .debug_abbrev  0x0000000000006c55      0x1d8 obj_cooja/mtype772.a(packetbuf.o)
 .debug_abbrev  0x0000000000006e2d      0x1ba obj_cooja/mtype772.a(queuebuf.o)
 .debug_abbrev  0x0000000000006fe7      0x2aa obj_cooja/mtype772.a(csma.o)
 .debug_abbrev  0x0000000000007291      0x195 obj_cooja/mtype772.a(framer-802154.o)
 .debug_abbrev  0x0000000000007426       0xa3 obj_cooja/mtype772.a(mac.o)
 .debug_abbrev  0x00000000000074c9      0x2a9 obj_cooja/mtype772.a(nullrdc.o)
 .debug_abbrev  0x0000000000007772      0x1ba obj_cooja/mtype772.a(nullsec.o)
 .debug_abbrev  0x000000000000792c       0x2c obj_cooja/mtype772.a(watchdog.o)
 .debug_abbrev  0x0000000000007958       0x59 obj_cooja/mtype772.a(rimestats.o)
 .debug_abbrev  0x00000000000079b1       0xd9 obj_cooja/mtype772.a(stimer.o)
 .debug_abbrev  0x0000000000007a8a      0x232 obj_cooja/mtype772.a(uip-icmp6.o)
 .debug_abbrev  0x0000000000007cbc      0x23c obj_cooja/mtype772.a(rpl-nbr-policy.)
 .debug_abbrev  0x0000000000007ef8      0x1fb obj_cooja/mtype772.a(frame802154.o)
 .debug_abbrev  0x00000000000080f3      0x149 obj_cooja/mtype772.a(mac-sequence.o)

.debug_line     0x0000000000000000     0xd506
 *(.debug_line .debug_line.* .debug_line_end)
 .debug_line    0x0000000000000000      0x3ee sensor.co
 .debug_line    0x00000000000003ee      0x4f5 obj_cooja/mtype772.o
 .debug_line    0x00000000000008e3     0x17b3 obj_cooja/mtype772.a(dtls.o)
 .debug_line    0x0000000000002096      0x455 obj_cooja/mtype772.a(tinydtls-crypto)
 .debug_line    0x00000000000024eb      0x254 obj_cooja/mtype772.a(hmac.o)
 .debug_line    0x000000000000273f      0x2d7 obj_cooja/mtype772.a(netq.o)
 .debug_line    0x0000000000002a16       0xf3 obj_cooja/mtype772.a(dtls_time.o)
 .debug_line    0x0000000000002b09      0x1c5 obj_cooja/mtype772.a(peer.o)
 .debug_line    0x0000000000002cce      0x11b obj_cooja/mtype772.a(session.o)
 .debug_line    0x0000000000002de9      0x1da obj_cooja/mtype772.a(rijndael.o)
 .debug_line    0x0000000000002fc3      0x30a obj_cooja/mtype772.a(tinydtls-ccm.o)
 .debug_line    0x00000000000032cd      0x2bf obj_cooja/mtype772.a(sha2.o)
 .debug_line    0x000000000000358c      0x25d obj_cooja/mtype772.a(debug.o)
 .debug_line    0x00000000000037e9       0xf4 obj_cooja/mtype772.a(simEnvChange.o)
 .debug_line    0x00000000000038dd      0x121 obj_cooja/mtype772.a(cooja_mt.o)
 .debug_line    0x00000000000039fe      0x182 obj_cooja/mtype772.a(cooja_mtarch.o)
 .debug_line    0x0000000000003b80       0xec obj_cooja/mtype772.a(rtimer-arch.o)
 .debug_line    0x0000000000003c6c      0x168 obj_cooja/mtype772.a(beep.o)
 .debug_line    0x0000000000003dd4      0x188 obj_cooja/mtype772.a(button-sensor.o)
 .debug_line    0x0000000000003f5c       0xd2 obj_cooja/mtype772.a(leds-arch.o)
 .debug_line    0x000000000000402e       0x9e obj_cooja/mtype772.a(moteid.o)
 .debug_line    0x00000000000040cc      0x10c obj_cooja/mtype772.a(pir-sensor.o)
 .debug_line    0x00000000000041d8      0x133 obj_cooja/mtype772.a(rs232.o)
 .debug_line    0x000000000000430b      0x10c obj_cooja/mtype772.a(vib-sensor.o)
 .debug_line    0x0000000000004417      0x10e obj_cooja/mtype772.a(clock.o)
 .debug_line    0x0000000000004525      0x195 obj_cooja/mtype772.a(log.o)
 .debug_line    0x00000000000046ba      0x1ac obj_cooja/mtype772.a(cfs-cooja.o)
 .debug_line    0x0000000000004866      0x4cb obj_cooja/mtype772.a(cooja-radio.o)
 .debug_line    0x0000000000004d31      0x101 obj_cooja/mtype772.a(eeprom.o)
 .debug_line    0x0000000000004e32       0x60 obj_cooja/mtype772.a(random.o)
 .debug_line    0x0000000000004e92      0x17c obj_cooja/mtype772.a(sensors.o)
 .debug_line    0x000000000000500e       0xc4 obj_cooja/mtype772.a(autostart.o)
 .debug_line    0x00000000000050d2      0x1f5 obj_cooja/mtype772.a(ctimer.o)
 .debug_line    0x00000000000052c7      0x26c obj_cooja/mtype772.a(etimer.o)
 .debug_line    0x0000000000005533      0x236 obj_cooja/mtype772.a(process.o)
 .debug_line    0x0000000000005769       0xf2 obj_cooja/mtype772.a(rtimer.o)
 .debug_line    0x000000000000585b       0xed obj_cooja/mtype772.a(timer.o)
 .debug_line    0x0000000000005948      0x13c obj_cooja/mtype772.a(serial-line.o)
 .debug_line    0x0000000000005a84       0x50 obj_cooja/mtype772.a(assert.o)
 .debug_line    0x0000000000005ad4      0x1a2 obj_cooja/mtype772.a(list.o)
 .debug_line    0x0000000000005c76      0x10a obj_cooja/mtype772.a(memb.o)
 .debug_line    0x0000000000005d80       0xf1 obj_cooja/mtype772.a(ringbuf.o)
 .debug_line    0x0000000000005e71      0x8a9 obj_cooja/mtype772.a(sicslowpan.o)
 .debug_line    0x000000000000671a      0x3e2 obj_cooja/mtype772.a(uip-ds6-nbr.o)
 .debug_line    0x0000000000006afc      0x49f obj_cooja/mtype772.a(uip-ds6-route.o)
 .debug_line    0x0000000000006f9b      0x473 obj_cooja/mtype772.a(uip-ds6.o)
 .debug_line    0x000000000000740e      0x3c1 obj_cooja/mtype772.a(uip-nd6.o)
 .debug_line    0x00000000000077cf      0x890 obj_cooja/mtype772.a(uip6.o)
 .debug_line    0x000000000000805f      0x731 obj_cooja/mtype772.a(resolv.o)
 .debug_line    0x0000000000008790      0x502 obj_cooja/mtype772.a(tcpip.o)
 .debug_line    0x0000000000008c92       0xcb obj_cooja/mtype772.a(uip-debug.o)
 .debug_line    0x0000000000008d5d      0x117 obj_cooja/mtype772.a(uip-nameserver.)
 .debug_line    0x0000000000008e74      0x1eb obj_cooja/mtype772.a(uip-packetqueue)
 .debug_line    0x000000000000905f      0x10b obj_cooja/mtype772.a(uip-udp-packet.)
 .debug_line    0x000000000000916a      0xbe7 obj_cooja/mtype772.a(rpl-dag.o)
 .debug_line    0x0000000000009d51      0x374 obj_cooja/mtype772.a(rpl-ext-header.)
 .debug_line    0x000000000000a0c5      0x761 obj_cooja/mtype772.a(rpl-icmp6.o)
 .debug_line    0x000000000000a826      0x32f obj_cooja/mtype772.a(rpl-mrhof.o)
 .debug_line    0x000000000000ab55      0x3d2 obj_cooja/mtype772.a(rpl-timers.o)
 .debug_line    0x000000000000af27      0x375 obj_cooja/mtype772.a(rpl.o)
 .debug_line    0x000000000000b29c      0x29a obj_cooja/mtype772.a(link-stats.o)
 .debug_line    0x000000000000b536       0x9e obj_cooja/mtype772.a(linkaddr.o)
 .debug_line    0x000000000000b5d4      0x383 obj_cooja/mtype772.a(nbr-table.o)
 .debug_line    0x000000000000b957      0x125 obj_cooja/mtype772.a(netstack.o)
 .debug_line    0x000000000000ba7c      0x225 obj_cooja/mtype772.a(packetbuf.o)
 .debug_line    0x000000000000bca1      0x1c6 obj_cooja/mtype772.a(queuebuf.o)
 .debug_line    0x000000000000be67      0x400 obj_cooja/mtype772.a(csma.o)
 .debug_line    0x000000000000c267      0x1cd obj_cooja/mtype772.a(framer-802154.o)
 .debug_line    0x000000000000c434       0x7e obj_cooja/mtype772.a(mac.o)
 .debug_line    0x000000000000c4b2      0x337 obj_cooja/mtype772.a(nullrdc.o)
 .debug_line    0x000000000000c7e9      0x13c obj_cooja/mtype772.a(nullsec.o)
 .debug_line    0x000000000000c925       0x9a obj_cooja/mtype772.a(watchdog.o)
 .debug_line    0x000000000000c9bf       0x71 obj_cooja/mtype772.a(rimestats.o)
 .debug_line    0x000000000000ca30       0xd1 obj_cooja/mtype772.a(stimer.o)
 .debug_line    0x000000000000cb01      0x29a obj_cooja/mtype772.a(uip-icmp6.o)
 .debug_line    0x000000000000cd9b      0x2b5 obj_cooja/mtype772.a(rpl-nbr-policy.)
 .debug_line    0x000000000000d050      0x366 obj_cooja/mtype772.a(frame802154.o)
 .debug_line    0x000000000000d3b6      0x150 obj_cooja/mtype772.a(mac-sequence.o)

.debug_frame
 *(.debug_frame)

.debug_str      0x0000000000000000     0x8ed2
 *(.debug_str)
 .debug_str     0x0000000000000000      0x990 sensor.co
                                        0xab3 (size before relaxing)
 .debug_str     0x0000000000000990     0x1790 obj_cooja/mtype772.o
                                       0x1b06 (size before relaxing)
 .debug_str     0x0000000000002120      0xeca obj_cooja/mtype772.a(dtls.o)
                                       0x1721 (size before relaxing)
 .debug_str     0x0000000000002fea      0x34c obj_cooja/mtype772.a(tinydtls-crypto)
                                        0x816 (size before relaxing)
 .debug_str     0x0000000000003336      0x112 obj_cooja/mtype772.a(hmac.o)
                                        0x373 (size before relaxing)
 .debug_str     0x0000000000003448       0xf3 obj_cooja/mtype772.a(netq.o)
                                        0x7a5 (size before relaxing)
 .debug_str     0x000000000000353b       0x53 obj_cooja/mtype772.a(dtls_time.o)
                                        0x1fc (size before relaxing)
 .debug_str     0x000000000000358e       0x94 obj_cooja/mtype772.a(peer.o)
                                        0x6ea (size before relaxing)
 .debug_str     0x0000000000003622       0x4f obj_cooja/mtype772.a(session.o)
                                        0x21e (size before relaxing)
 .debug_str     0x0000000000003671       0xae obj_cooja/mtype772.a(rijndael.o)
                                        0x1dc (size before relaxing)
 .debug_str     0x000000000000371f       0x83 obj_cooja/mtype772.a(tinydtls-ccm.o)
                                        0x281 (size before relaxing)
 .debug_str     0x00000000000037a2       0xe6 obj_cooja/mtype772.a(sha2.o)
                                        0x2d1 (size before relaxing)
 .debug_str     0x0000000000003888       0xee obj_cooja/mtype772.a(debug.o)
                                        0x356 (size before relaxing)
 .debug_str     0x0000000000003976       0x2e obj_cooja/mtype772.a(simEnvChange.o)
                                        0x1f7 (size before relaxing)
 .debug_str     0x00000000000039a4       0x8b obj_cooja/mtype772.a(cooja_mt.o)
                                        0x224 (size before relaxing)
 .debug_str     0x0000000000003a2f       0xfb obj_cooja/mtype772.a(cooja_mtarch.o)
                                        0x2a1 (size before relaxing)
 .debug_str     0x0000000000003b2a       0xea obj_cooja/mtype772.a(rtimer-arch.o)
                                        0x21b (size before relaxing)
 .debug_str     0x0000000000003c14       0xc4 obj_cooja/mtype772.a(beep.o)
                                        0x238 (size before relaxing)
 .debug_str     0x0000000000003cd8       0x70 obj_cooja/mtype772.a(button-sensor.o)
                                        0x268 (size before relaxing)
 .debug_str     0x0000000000003d48       0x68 obj_cooja/mtype772.a(leds-arch.o)
                                        0x203 (size before relaxing)
 .debug_str     0x0000000000003db0       0x47 obj_cooja/mtype772.a(moteid.o)
                                        0x1ee (size before relaxing)
 .debug_str     0x0000000000003df7       0x55 obj_cooja/mtype772.a(pir-sensor.o)
                                        0x225 (size before relaxing)
 .debug_str     0x0000000000003e4c       0xc1 obj_cooja/mtype772.a(rs232.o)
                                        0x282 (size before relaxing)
 .debug_str     0x0000000000003f0d       0x55 obj_cooja/mtype772.a(vib-sensor.o)
                                        0x225 (size before relaxing)
 .debug_str     0x0000000000003f62       0x66 obj_cooja/mtype772.a(clock.o)
                                        0x21a (size before relaxing)
 .debug_str     0x0000000000003fc8       0xd1 obj_cooja/mtype772.a(log.o)
                                        0x2a8 (size before relaxing)
 .debug_str     0x0000000000004099      0x111 obj_cooja/mtype772.a(cfs-cooja.o)
                                        0x2c4 (size before relaxing)
 .debug_str     0x00000000000041aa      0x732 obj_cooja/mtype772.a(cooja-radio.o)
                                        0xafe (size before relaxing)
 .debug_str     0x00000000000048dc       0x99 obj_cooja/mtype772.a(eeprom.o)
                                        0x244 (size before relaxing)
 .debug_str     0x0000000000004975       0x36 obj_cooja/mtype772.a(random.o)
                                        0x163 (size before relaxing)
 .debug_str     0x00000000000049ab       0xa1 obj_cooja/mtype772.a(sensors.o)
                                        0x293 (size before relaxing)
 .debug_str     0x0000000000004a4c       0x40 obj_cooja/mtype772.a(autostart.o)
                                        0x1b6 (size before relaxing)
 .debug_str     0x0000000000004a8c       0xd2 obj_cooja/mtype772.a(ctimer.o)
                                        0x2b7 (size before relaxing)
 .debug_str     0x0000000000004b5e      0x148 obj_cooja/mtype772.a(etimer.o)
                                        0x32a (size before relaxing)
 .debug_str     0x0000000000004ca6      0x15c obj_cooja/mtype772.a(process.o)
                                        0x2f5 (size before relaxing)
 .debug_str     0x0000000000004e02       0xb3 obj_cooja/mtype772.a(rtimer.o)
                                        0x201 (size before relaxing)
 .debug_str     0x0000000000004eb5       0x1d obj_cooja/mtype772.a(timer.o)
                                        0x1a0 (size before relaxing)
 .debug_str     0x0000000000004ed2       0xbf obj_cooja/mtype772.a(serial-line.o)
                                        0x27e (size before relaxing)
 .debug_str     0x0000000000004f91       0x2e obj_cooja/mtype772.a(assert.o)
                                        0x15b (size before relaxing)
 .debug_str     0x0000000000004fbf       0xae obj_cooja/mtype772.a(list.o)
                                        0x15f (size before relaxing)
 .debug_str     0x000000000000506d       0x62 obj_cooja/mtype772.a(memb.o)
                                        0x19a (size before relaxing)
 .debug_str     0x00000000000050cf       0x62 obj_cooja/mtype772.a(ringbuf.o)
                                        0x1b3 (size before relaxing)
 .debug_str     0x0000000000005131      0x4b9 obj_cooja/mtype772.a(sicslowpan.o)
                                        0xa9c (size before relaxing)
 .debug_str     0x00000000000055ea      0x3c2 obj_cooja/mtype772.a(uip-ds6-nbr.o)
                                        0x97f (size before relaxing)
 .debug_str     0x00000000000059ac      0x450 obj_cooja/mtype772.a(uip-ds6-route.o)
                                        0x949 (size before relaxing)
 .debug_str     0x0000000000005dfc      0x30f obj_cooja/mtype772.a(uip-ds6.o)
                                        0x674 (size before relaxing)
 .debug_str     0x000000000000610b      0x180 obj_cooja/mtype772.a(uip-nd6.o)
                                        0x64f (size before relaxing)
 .debug_str     0x000000000000628b      0x340 obj_cooja/mtype772.a(uip6.o)
                                        0x7fa (size before relaxing)
 .debug_str     0x00000000000065cb      0x428 obj_cooja/mtype772.a(resolv.o)
                                        0x8d3 (size before relaxing)
 .debug_str     0x00000000000069f3      0x40a obj_cooja/mtype772.a(tcpip.o)
                                        0xce9 (size before relaxing)
 .debug_str     0x0000000000006dfd       0x3b obj_cooja/mtype772.a(uip-debug.o)
                                        0x194 (size before relaxing)
 .debug_str     0x0000000000006e38       0xab obj_cooja/mtype772.a(uip-nameserver.)
                                        0x270 (size before relaxing)
 .debug_str     0x0000000000006ee3       0xfa obj_cooja/mtype772.a(uip-packetqueue)
                                        0x33d (size before relaxing)
 .debug_str     0x0000000000006fdd       0x71 obj_cooja/mtype772.a(uip-udp-packet.)
                                        0x28f (size before relaxing)
 .debug_str     0x000000000000704e      0x58f obj_cooja/mtype772.a(rpl-dag.o)
                                        0xdc9 (size before relaxing)
 .debug_str     0x00000000000075dd       0xf8 obj_cooja/mtype772.a(rpl-ext-header.)
                                        0xba6 (size before relaxing)
 .debug_str     0x00000000000076d5      0x239 obj_cooja/mtype772.a(rpl-icmp6.o)
                                        0xed4 (size before relaxing)
 .debug_str     0x000000000000790e       0x71 obj_cooja/mtype772.a(rpl-mrhof.o)
                                        0x63f (size before relaxing)
 .debug_str     0x000000000000797f      0x1d6 obj_cooja/mtype772.a(rpl-timers.o)
                                        0x86e (size before relaxing)
 .debug_str     0x0000000000007b55       0xfa obj_cooja/mtype772.a(rpl.o)
                                        0x88f (size before relaxing)
 .debug_str     0x0000000000007c4f       0xf3 obj_cooja/mtype772.a(link-stats.o)
                                        0x6d9 (size before relaxing)
 .debug_str     0x0000000000007d42       0x58 obj_cooja/mtype772.a(linkaddr.o)
                                        0x1b7 (size before relaxing)
 .debug_str     0x0000000000007d9a      0x2a5 obj_cooja/mtype772.a(nbr-table.o)
                                        0x589 (size before relaxing)
 .debug_str     0x000000000000803f       0x2e obj_cooja/mtype772.a(netstack.o)
                                        0x33d (size before relaxing)
 .debug_str     0x000000000000806d      0x188 obj_cooja/mtype772.a(packetbuf.o)
                                        0x53d (size before relaxing)
 .debug_str     0x00000000000081f5      0x1a5 obj_cooja/mtype772.a(queuebuf.o)
                                        0x53c (size before relaxing)
 .debug_str     0x000000000000839a      0x207 obj_cooja/mtype772.a(csma.o)
                                        0x793 (size before relaxing)
 .debug_str     0x00000000000085a1      0x218 obj_cooja/mtype772.a(framer-802154.o)
                                        0x61b (size before relaxing)
 .debug_str     0x00000000000087b9       0x3d obj_cooja/mtype772.a(mac.o)
                                        0x1cb (size before relaxing)
 .debug_str     0x00000000000087f6       0x86 obj_cooja/mtype772.a(nullrdc.o)
                                        0x97e (size before relaxing)
 .debug_str     0x000000000000887c       0x25 obj_cooja/mtype772.a(nullsec.o)
                                        0x439 (size before relaxing)
 .debug_str     0x00000000000088a1       0x77 obj_cooja/mtype772.a(watchdog.o)
                                        0x10d (size before relaxing)
 .debug_str     0x0000000000008918       0x26 obj_cooja/mtype772.a(rimestats.o)
                                        0x161 (size before relaxing)
 .debug_str     0x000000000000893e       0x74 obj_cooja/mtype772.a(stimer.o)
                                        0x1a4 (size before relaxing)
 .debug_str     0x00000000000089b2      0x1ef obj_cooja/mtype772.a(uip-icmp6.o)
                                        0x57e (size before relaxing)
 .debug_str     0x0000000000008ba1       0xd0 obj_cooja/mtype772.a(rpl-nbr-policy.)
                                        0x998 (size before relaxing)
 .debug_str     0x0000000000008c71      0x1f3 obj_cooja/mtype772.a(frame802154.o)
                                        0x571 (size before relaxing)
 .debug_str     0x0000000000008e64       0x6e obj_cooja/mtype772.a(mac-sequence.o)
                                        0x3ff (size before relaxing)

.debug_loc
 *(.debug_loc)

.debug_macinfo
 *(.debug_macinfo)

.debug_weaknames
 *(.debug_weaknames)

.debug_funcnames
 *(.debug_funcnames)

.debug_typenames
 *(.debug_typenames)

.debug_varnames
 *(.debug_varnames)

.debug_pubtypes
 *(.debug_pubtypes)

.debug_ranges   0x0000000000000000     0x1c60
 *(.debug_ranges)
 .debug_ranges  0x0000000000000000       0x68 sensor.co
 .debug_ranges  0x0000000000000068       0x58 obj_cooja/mtype772.o
 .debug_ranges  0x00000000000000c0      0x2f0 obj_cooja/mtype772.a(dtls.o)
 .debug_ranges  0x00000000000003b0       0xb8 obj_cooja/mtype772.a(tinydtls-crypto)
 .debug_ranges  0x0000000000000468       0x60 obj_cooja/mtype772.a(hmac.o)
 .debug_ranges  0x00000000000004c8       0x60 obj_cooja/mtype772.a(netq.o)
 .debug_ranges  0x0000000000000528       0x18 obj_cooja/mtype772.a(dtls_time.o)
 .debug_ranges  0x0000000000000540       0x28 obj_cooja/mtype772.a(peer.o)
 .debug_ranges  0x0000000000000568       0x18 obj_cooja/mtype772.a(session.o)
 .debug_ranges  0x0000000000000580       0x28 obj_cooja/mtype772.a(rijndael.o)
 .debug_ranges  0x00000000000005a8       0x50 obj_cooja/mtype772.a(tinydtls-ccm.o)
 .debug_ranges  0x00000000000005f8       0x38 obj_cooja/mtype772.a(sha2.o)
 .debug_ranges  0x0000000000000630       0x58 obj_cooja/mtype772.a(debug.o)
 .debug_ranges  0x0000000000000688       0x18 obj_cooja/mtype772.a(simEnvChange.o)
 .debug_ranges  0x00000000000006a0       0x38 obj_cooja/mtype772.a(cooja_mt.o)
 .debug_ranges  0x00000000000006d8       0x50 obj_cooja/mtype772.a(cooja_mtarch.o)
 .debug_ranges  0x0000000000000728       0x38 obj_cooja/mtype772.a(rtimer-arch.o)
 .debug_ranges  0x0000000000000760       0x60 obj_cooja/mtype772.a(beep.o)
 .debug_ranges  0x00000000000007c0       0x30 obj_cooja/mtype772.a(button-sensor.o)
 .debug_ranges  0x00000000000007f0       0x30 obj_cooja/mtype772.a(leds-arch.o)
 .debug_ranges  0x0000000000000820       0x18 obj_cooja/mtype772.a(moteid.o)
 .debug_ranges  0x0000000000000838       0x30 obj_cooja/mtype772.a(pir-sensor.o)
 .debug_ranges  0x0000000000000868       0x48 obj_cooja/mtype772.a(rs232.o)
 .debug_ranges  0x00000000000008b0       0x30 obj_cooja/mtype772.a(vib-sensor.o)
 .debug_ranges  0x00000000000008e0       0x38 obj_cooja/mtype772.a(clock.o)
 .debug_ranges  0x0000000000000918       0x50 obj_cooja/mtype772.a(log.o)
 .debug_ranges  0x0000000000000968       0x60 obj_cooja/mtype772.a(cfs-cooja.o)
 .debug_ranges  0x00000000000009c8       0xe0 obj_cooja/mtype772.a(cooja-radio.o)
 .debug_ranges  0x0000000000000aa8       0x30 obj_cooja/mtype772.a(eeprom.o)
 .debug_ranges  0x0000000000000ad8       0x18 obj_cooja/mtype772.a(random.o)
 .debug_ranges  0x0000000000000af0       0x38 obj_cooja/mtype772.a(sensors.o)
 .debug_ranges  0x0000000000000b28       0x18 obj_cooja/mtype772.a(autostart.o)
 .debug_ranges  0x0000000000000b40       0x48 obj_cooja/mtype772.a(ctimer.o)
 .debug_ranges  0x0000000000000b88       0x80 obj_cooja/mtype772.a(etimer.o)
 .debug_ranges  0x0000000000000c08       0x78 obj_cooja/mtype772.a(process.o)
 .debug_ranges  0x0000000000000c80       0x20 obj_cooja/mtype772.a(rtimer.o)
 .debug_ranges  0x0000000000000ca0       0x30 obj_cooja/mtype772.a(timer.o)
 .debug_ranges  0x0000000000000cd0       0x20 obj_cooja/mtype772.a(serial-line.o)
 .debug_ranges  0x0000000000000cf0       0x10 obj_cooja/mtype772.a(assert.o)
 .debug_ranges  0x0000000000000d00       0x68 obj_cooja/mtype772.a(list.o)
 .debug_ranges  0x0000000000000d68       0x30 obj_cooja/mtype772.a(memb.o)
 .debug_ranges  0x0000000000000d98       0x30 obj_cooja/mtype772.a(ringbuf.o)
 .debug_ranges  0x0000000000000dc8       0xd0 obj_cooja/mtype772.a(sicslowpan.o)
 .debug_ranges  0x0000000000000e98       0x80 obj_cooja/mtype772.a(uip-ds6-nbr.o)
 .debug_ranges  0x0000000000000f18       0xb8 obj_cooja/mtype772.a(uip-ds6-route.o)
 .debug_ranges  0x0000000000000fd0       0xb8 obj_cooja/mtype772.a(uip-ds6.o)
 .debug_ranges  0x0000000000001088       0x38 obj_cooja/mtype772.a(uip-nd6.o)
 .debug_ranges  0x00000000000010c0       0xa0 obj_cooja/mtype772.a(uip6.o)
 .debug_ranges  0x0000000000001160       0xa8 obj_cooja/mtype772.a(resolv.o)
 .debug_ranges  0x0000000000001208       0xa0 obj_cooja/mtype772.a(tcpip.o)
 .debug_ranges  0x00000000000012a8       0x10 obj_cooja/mtype772.a(uip-debug.o)
 .debug_ranges  0x00000000000012b8       0x28 obj_cooja/mtype772.a(uip-nameserver.)
 .debug_ranges  0x00000000000012e0       0x40 obj_cooja/mtype772.a(uip-packetqueue)
 .debug_ranges  0x0000000000001320       0x18 obj_cooja/mtype772.a(uip-udp-packet.)
 .debug_ranges  0x0000000000001338      0x1c8 obj_cooja/mtype772.a(rpl-dag.o)
 .debug_ranges  0x0000000000001500       0x38 obj_cooja/mtype772.a(rpl-ext-header.)
 .debug_ranges  0x0000000000001538       0xb0 obj_cooja/mtype772.a(rpl-icmp6.o)
 .debug_ranges  0x00000000000015e8       0x50 obj_cooja/mtype772.a(rpl-mrhof.o)
 .debug_ranges  0x0000000000001638       0x90 obj_cooja/mtype772.a(rpl-timers.o)
 .debug_ranges  0x00000000000016c8       0x58 obj_cooja/mtype772.a(rpl.o)
 .debug_ranges  0x0000000000001720       0x48 obj_cooja/mtype772.a(link-stats.o)
 .debug_ranges  0x0000000000001768       0x20 obj_cooja/mtype772.a(linkaddr.o)
 .debug_ranges  0x0000000000001788       0xb0 obj_cooja/mtype772.a(nbr-table.o)
 .debug_ranges  0x0000000000001838       0x10 obj_cooja/mtype772.a(netstack.o)
 .debug_ranges  0x0000000000001848       0x90 obj_cooja/mtype772.a(packetbuf.o)
 .debug_ranges  0x00000000000018d8       0x70 obj_cooja/mtype772.a(queuebuf.o)
 .debug_ranges  0x0000000000001948       0xa8 obj_cooja/mtype772.a(csma.o)
 .debug_ranges  0x00000000000019f0       0x48 obj_cooja/mtype772.a(framer-802154.o)
 .debug_ranges  0x0000000000001a38       0x10 obj_cooja/mtype772.a(mac.o)
 .debug_ranges  0x0000000000001a48       0x60 obj_cooja/mtype772.a(nullrdc.o)
 .debug_ranges  0x0000000000001aa8       0x28 obj_cooja/mtype772.a(nullsec.o)
 .debug_ranges  0x0000000000001ad0       0x30 obj_cooja/mtype772.a(watchdog.o)
 .debug_ranges  0x0000000000001b00       0x38 obj_cooja/mtype772.a(stimer.o)
 .debug_ranges  0x0000000000001b38       0x58 obj_cooja/mtype772.a(uip-icmp6.o)
 .debug_ranges  0x0000000000001b90       0x38 obj_cooja/mtype772.a(rpl-nbr-policy.)
 .debug_ranges  0x0000000000001bc8       0x70 obj_cooja/mtype772.a(frame802154.o)
 .debug_ranges  0x0000000000001c38       0x28 obj_cooja/mtype772.a(mac-sequence.o)

.debug_macro
 *(.debug_macro)

.gnu.attributes
 *(.gnu.attributes)

/DISCARD/
 *(.note.GNU-stack)
 *(.gnu_debuglink)
 *(.gnu.lto_*)
OUTPUT(obj_cooja/mtype772.cooja elf32-i386)
