Archive member included to satisfy reference by file (symbol)

obj_cooja/mtype67.a(dtls.o)   receiver.co (dtls_init)
obj_cooja/mtype67.a(tinydtls-crypto)
                              obj_cooja/mtype67.a(dtls.o) (dtls_crypto_init)
obj_cooja/mtype67.a(hmac.o)   obj_cooja/mtype67.a(dtls.o) (dtls_hmac_update)
obj_cooja/mtype67.a(netq.o)   obj_cooja/mtype67.a(dtls.o) (netq_init)
obj_cooja/mtype67.a(dtls_time.o)
                              obj_cooja/mtype67.a(dtls.o) (dtls_clock_init)
obj_cooja/mtype67.a(peer.o)   obj_cooja/mtype67.a(dtls.o) (peer_init)
obj_cooja/mtype67.a(session.o)
                              obj_cooja/mtype67.a(dtls.o) (dtls_session_equals)
obj_cooja/mtype67.a(rijndael.o)
                              obj_cooja/mtype67.a(tinydtls-crypto) (rijndael_set_key_enc_only)
obj_cooja/mtype67.a(tinydtls-ccm.o)
                              obj_cooja/mtype67.a(tinydtls-crypto) (dtls_ccm_encrypt_message)
obj_cooja/mtype67.a(sha2.o)   obj_cooja/mtype67.a(dtls.o) (SHA256_Init)
obj_cooja/mtype67.a(debug.o)  receiver.co (dtls_set_log_level)
obj_cooja/mtype67.a(simEnvChange.o)
                              obj_cooja/mtype67.o (simDontFallAsleep)
obj_cooja/mtype67.a(cooja_mt.o)
                              obj_cooja/mtype67.o (cooja_mt_start)
obj_cooja/mtype67.a(cooja_mtarch.o)
                              obj_cooja/mtype67.a(cooja_mt.o) (cooja_mtarch_init)
obj_cooja/mtype67.a(rtimer-arch.o)
                              obj_cooja/mtype67.o (rtimer_arch_check)
obj_cooja/mtype67.a(beep.o)   obj_cooja/mtype67.o (beep_interface)
obj_cooja/mtype67.a(button-sensor.o)
                              obj_cooja/mtype67.o (button_interface)
obj_cooja/mtype67.a(leds-arch.o)
                              obj_cooja/mtype67.o (leds_interface)
obj_cooja/mtype67.a(moteid.o)
                              obj_cooja/mtype67.o (moteid_interface)
obj_cooja/mtype67.a(pir-sensor.o)
                              obj_cooja/mtype67.o (pir_interface)
obj_cooja/mtype67.a(rs232.o)  obj_cooja/mtype67.o (rs232_interface)
obj_cooja/mtype67.a(vib-sensor.o)
                              obj_cooja/mtype67.o (vib_interface)
obj_cooja/mtype67.a(clock.o)  obj_cooja/mtype67.o (clock_interface)
obj_cooja/mtype67.a(log.o)    obj_cooja/mtype67.o (simlog_interface)
obj_cooja/mtype67.a(cfs-cooja.o)
                              obj_cooja/mtype67.o (cfs_interface)
obj_cooja/mtype67.a(cooja-radio.o)
                              obj_cooja/mtype67.o (radio_interface)
obj_cooja/mtype67.a(eeprom.o)
                              obj_cooja/mtype67.o (eeprom_interface)
obj_cooja/mtype67.a(random.o)
                              obj_cooja/mtype67.a(moteid.o) (random_init)
obj_cooja/mtype67.a(sensors.o)
                              obj_cooja/mtype67.o (sensors_process)
obj_cooja/mtype67.a(autostart.o)
                              obj_cooja/mtype67.o (autostart_start)
obj_cooja/mtype67.a(ctimer.o)
                              obj_cooja/mtype67.o (ctimer_init)
obj_cooja/mtype67.a(etimer.o)
                              obj_cooja/mtype67.o (etimer_process)
obj_cooja/mtype67.a(process.o)
                              obj_cooja/mtype67.a(dtls.o) (process_current)
obj_cooja/mtype67.a(rtimer.o)
                              obj_cooja/mtype67.a(rtimer-arch.o) (rtimer_run_next)
obj_cooja/mtype67.a(timer.o)  obj_cooja/mtype67.a(button-sensor.o) (timer_set)
obj_cooja/mtype67.a(serial-line.o)
                              obj_cooja/mtype67.a(rs232.o) (serial_line_input_byte)
obj_cooja/mtype67.a(assert.o)
                              obj_cooja/mtype67.a(dtls.o) (_xassert)
obj_cooja/mtype67.a(list.o)   obj_cooja/mtype67.a(dtls.o) (list_init)
obj_cooja/mtype67.a(memb.o)   obj_cooja/mtype67.a(tinydtls-crypto) (memb_init)
obj_cooja/mtype67.a(ringbuf.o)
                              obj_cooja/mtype67.a(serial-line.o) (ringbuf_init)
obj_cooja/mtype67.a(sicslowpan.o)
                              obj_cooja/mtype67.o (sicslowpan_driver)
obj_cooja/mtype67.a(uip-ds6-nbr.o)
                              obj_cooja/mtype67.a(sicslowpan.o) (uip_ds6_link_neighbor_callback)
obj_cooja/mtype67.a(uip-ds6-route.o)
                              obj_cooja/mtype67.a(uip-ds6-nbr.o) (uip_ds6_defrt_lookup)
obj_cooja/mtype67.a(uip-ds6.o)
                              receiver.co (uip_ds6_if)
obj_cooja/mtype67.a(uip-nd6.o)
                              obj_cooja/mtype67.a(uip-ds6-nbr.o) (uip_nd6_ns_output)
obj_cooja/mtype67.a(uip6.o)   receiver.co (uip_lladdr)
obj_cooja/mtype67.a(resolv.o)
                              receiver.co (resolv_query)
obj_cooja/mtype67.a(tcpip.o)  receiver.co (tcpip_event)
obj_cooja/mtype67.a(uip-debug.o)
                              receiver.co (uip_debug_ipaddr_print)
obj_cooja/mtype67.a(uip-nameserver.)
                              obj_cooja/mtype67.a(resolv.o) (uip_nameserver_get)
obj_cooja/mtype67.a(uip-packetqueue)
                              obj_cooja/mtype67.a(uip-ds6-nbr.o) (uip_packetqueue_new)
obj_cooja/mtype67.a(uip-udp-packet.)
                              receiver.co (uip_udp_packet_send)
obj_cooja/mtype67.a(uiplib.o)
                              receiver.co (uiplib_ip6addrconv)
obj_cooja/mtype67.a(rpl-dag.o)
                              obj_cooja/mtype67.a(tcpip.o) (rpl_repair_root)
obj_cooja/mtype67.a(rpl-ext-header.)
                              obj_cooja/mtype67.a(uip6.o) (rpl_verify_hbh_header)
obj_cooja/mtype67.a(rpl-icmp6.o)
                              obj_cooja/mtype67.a(rpl-dag.o) (rpl_icmp6_update_nbr_table)
obj_cooja/mtype67.a(rpl-mrhof.o)
                              obj_cooja/mtype67.a(rpl-dag.o) (rpl_mrhof)
obj_cooja/mtype67.a(rpl-timers.o)
                              obj_cooja/mtype67.a(rpl-dag.o) (rpl_reset_dio_timer)
obj_cooja/mtype67.a(rpl.o)    obj_cooja/mtype67.a(rpl-icmp6.o) (rpl_get_mode)
obj_cooja/mtype67.a(link-stats.o)
                              obj_cooja/mtype67.a(rpl-dag.o) (link_stats_from_lladdr)
obj_cooja/mtype67.a(linkaddr.o)
                              obj_cooja/mtype67.o (linkaddr_node_addr)
obj_cooja/mtype67.a(nbr-table.o)
                              obj_cooja/mtype67.a(uip-ds6-nbr.o) (nbr_table_register)
obj_cooja/mtype67.a(netstack.o)
                              obj_cooja/mtype67.o (netstack_init)
obj_cooja/mtype67.a(packetbuf.o)
                              obj_cooja/mtype67.a(cooja-radio.o) (packetbuf_attrs)
obj_cooja/mtype67.a(queuebuf.o)
                              obj_cooja/mtype67.o (queuebuf_init)
obj_cooja/mtype67.a(csma.o)   obj_cooja/mtype67.o (csma_driver)
obj_cooja/mtype67.a(framer-802154.o)
                              obj_cooja/mtype67.a(sicslowpan.o) (framer_802154)
obj_cooja/mtype67.a(mac.o)    obj_cooja/mtype67.a(csma.o) (mac_call_sent_callback)
obj_cooja/mtype67.a(nullrdc.o)
                              obj_cooja/mtype67.o (nullrdc_driver)
obj_cooja/mtype67.a(nullsec.o)
                              obj_cooja/mtype67.a(sicslowpan.o) (nullsec_driver)
obj_cooja/mtype67.a(watchdog.o)
                              obj_cooja/mtype67.a(sicslowpan.o) (watchdog_periodic)
obj_cooja/mtype67.a(rimestats.o)
                              obj_cooja/mtype67.a(cooja-radio.o) (rimestats)
obj_cooja/mtype67.a(stimer.o)
                              obj_cooja/mtype67.a(uip-ds6-nbr.o) (stimer_set)
obj_cooja/mtype67.a(uip-icmp6.o)
                              obj_cooja/mtype67.a(uip6.o) (uip_icmp6_input)
obj_cooja/mtype67.a(rpl-nbr-policy.)
                              obj_cooja/mtype67.a(nbr-table.o) (rpl_nbr_policy_find_removable)
obj_cooja/mtype67.a(frame802154.o)
                              obj_cooja/mtype67.a(framer-802154.o) (frame802154_get_pan_id)
obj_cooja/mtype67.a(mac-sequence.o)
                              obj_cooja/mtype67.a(nullrdc.o) (mac_sequence_is_duplicate)

Allocating common symbols
Common symbol       size              file

default_instance    0x4               obj_cooja/mtype67.a(rpl-dag.o)
simButtonIsActive   0x1               obj_cooja/mtype67.a(button-sensor.o)
simButtonIsDown     0x1               obj_cooja/mtype67.a(button-sensor.o)
cfs_buf             0x1e              receiver.co
simOutDataBuffer    0x80              obj_cooja/mtype67.a(cooja-radio.o)
uip_ds6_prefix_list
                    0x60              obj_cooja/mtype67.a(uip-ds6.o)
linkaddr_node_addr  0x8               obj_cooja/mtype67.a(linkaddr.o)
simSerialReceivingFlag
                    0x1               obj_cooja/mtype67.a(rs232.o)
simEEPROMData       0x400             obj_cooja/mtype67.a(eeprom.o)
periodic_timer      0x20              obj_cooja/mtype67.a(link-stats.o)
simLoggedLength     0x4               obj_cooja/mtype67.a(log.o)
simSerialReceivingLength
                    0x4               obj_cooja/mtype67.a(rs232.o)
simEtimerPending    0x4               obj_cooja/mtype67.a(simEnvChange.o)
uip_slen            0x2               obj_cooja/mtype67.a(uip6.o)
uip_ds6_timer_periodic
                    0x10              obj_cooja/mtype67.a(uip-ds6.o)
uip_acc32           0x4               obj_cooja/mtype67.a(uip6.o)
j                   0x4               receiver.co
uip_conns           0xc0              obj_cooja/mtype67.a(uip6.o)
simVibChanged       0x1               obj_cooja/mtype67.a(vib-sensor.o)
rimestats           0x48              obj_cooja/mtype67.a(rimestats.o)
simRtimerPending    0x4               obj_cooja/mtype67.a(rtimer-arch.o)
read_buf            0xc8              receiver.co
data_len            0x4               receiver.co
uip_ds6_netif_addr_list_offset
                    0x1               obj_cooja/mtype67.a(uip-ds6.o)
uip_lladdr          0x8               obj_cooja/mtype67.a(uip6.o)
instance_table      0x154             obj_cooja/mtype67.a(rpl-dag.o)
simProcessRunValue  0x4               obj_cooja/mtype67.a(simEnvChange.o)
serial_line_event_message
                    0x1               obj_cooja/mtype67.a(serial-line.o)
uip_appdata         0x4               obj_cooja/mtype67.a(uip6.o)
resolv_event_found  0x1               obj_cooja/mtype67.a(resolv.o)
referenceVar        0x4               obj_cooja/mtype67.o
simCurrentTime      0x4               obj_cooja/mtype67.a(clock.o)
simVibIsActive      0x1               obj_cooja/mtype67.a(vib-sensor.o)
uip_ds6_if          0xf8              obj_cooja/mtype67.a(uip-ds6.o)
uip_flags           0x1               obj_cooja/mtype67.a(uip6.o)
uip_ds6_timer_ra    0x8               obj_cooja/mtype67.a(uip-ds6.o)
simSerialReceivingData
                    0x800             obj_cooja/mtype67.a(rs232.o)
filename            0x4               receiver.co
simLoggedFlag       0x1               obj_cooja/mtype67.a(log.o)
packetbuf_attrs     0x1e              obj_cooja/mtype67.a(packetbuf.o)
uip_ds6_addr_size   0x1               obj_cooja/mtype67.a(uip-ds6.o)
uip_aligned_buf     0x640             obj_cooja/mtype67.a(uip6.o)
simRtimerCurrentTicks
                    0x8               obj_cooja/mtype67.a(rtimer-arch.o)
iterator            0x4               receiver.co
simRandomSeed       0x4               obj_cooja/mtype67.a(moteid.o)
simLoggedData       0x400             obj_cooja/mtype67.a(log.o)
simLedsValue        0x1               obj_cooja/mtype67.a(leds-arch.o)
simEtimerNextExpirationTime
                    0x4               obj_cooja/mtype67.a(simEnvChange.o)
uip_listenports     0x10              obj_cooja/mtype67.a(uip6.o)
uip_len             0x2               obj_cooja/mtype67.a(uip6.o)
simButtonChanged    0x1               obj_cooja/mtype67.a(button-sensor.o)
simRtimerNextExpirationTime
                    0x8               obj_cooja/mtype67.a(rtimer-arch.o)
simPirIsActive      0x1               obj_cooja/mtype67.a(pir-sensor.o)
simInDataBuffer     0x80              obj_cooja/mtype67.a(cooja-radio.o)
simPirChanged       0x1               obj_cooja/mtype67.a(pir-sensor.o)
simBeeped           0x1               obj_cooja/mtype67.a(beep.o)
tcpip_event         0x1               obj_cooja/mtype67.a(tcpip.o)
uip_sappdata        0x4               obj_cooja/mtype67.a(uip6.o)
sensors_event       0x1               obj_cooja/mtype67.a(sensors.o)
dtls_clock_offset   0x4               obj_cooja/mtype67.a(dtls_time.o)
uip_udp_conns       0x180             obj_cooja/mtype67.a(uip6.o)
packetbuf_addrs     0x10              obj_cooja/mtype67.a(packetbuf.o)
uip_udp_conn        0x4               obj_cooja/mtype67.a(uip6.o)
simMoteIDChanged    0x1               obj_cooja/mtype67.a(moteid.o)
sensors_flags       0x4               obj_cooja/mtype67.o
uip_next_hdr        0x4               obj_cooja/mtype67.a(uip6.o)
it                  0x4               receiver.co
simMoteID           0x4               obj_cooja/mtype67.a(moteid.o)
uip_conn            0x4               obj_cooja/mtype67.a(uip6.o)

Discarded input sections

 .note.GNU-stack
                0x0000000000000000        0x0 /usr/lib/gcc/i686-linux-gnu/4.8/../../../i386-linux-gnu/crti.o
 .gnu_debuglink
                0x0000000000000000        0xc /usr/lib/gcc/i686-linux-gnu/4.8/../../../i386-linux-gnu/crti.o
 .group         0x0000000000000000        0x8 /usr/lib/gcc/i686-linux-gnu/4.8/crtbeginS.o
 .text.__x86.get_pc_thunk.bx
                0x0000000000000000        0x4 /usr/lib/gcc/i686-linux-gnu/4.8/crtbeginS.o
 .note.GNU-stack
                0x0000000000000000        0x0 /usr/lib/gcc/i686-linux-gnu/4.8/crtbeginS.o
 .note.GNU-stack
                0x0000000000000000        0x0 receiver.co
 .note.GNU-stack
                0x0000000000000000        0x0 obj_cooja/mtype67.o
 .note.GNU-stack
                0x0000000000000000        0x0 obj_cooja/mtype67.a(dtls.o)
 .note.GNU-stack
                0x0000000000000000        0x0 obj_cooja/mtype67.a(tinydtls-crypto)
 .note.GNU-stack
                0x0000000000000000        0x0 obj_cooja/mtype67.a(hmac.o)
 .note.GNU-stack
                0x0000000000000000        0x0 obj_cooja/mtype67.a(netq.o)
 .note.GNU-stack
                0x0000000000000000        0x0 obj_cooja/mtype67.a(dtls_time.o)
 .note.GNU-stack
                0x0000000000000000        0x0 obj_cooja/mtype67.a(peer.o)
 .note.GNU-stack
                0x0000000000000000        0x0 obj_cooja/mtype67.a(session.o)
 .note.GNU-stack
                0x0000000000000000        0x0 obj_cooja/mtype67.a(rijndael.o)
 .note.GNU-stack
                0x0000000000000000        0x0 obj_cooja/mtype67.a(tinydtls-ccm.o)
 .note.GNU-stack
                0x0000000000000000        0x0 obj_cooja/mtype67.a(sha2.o)
 .note.GNU-stack
                0x0000000000000000        0x0 obj_cooja/mtype67.a(debug.o)
 .note.GNU-stack
                0x0000000000000000        0x0 obj_cooja/mtype67.a(simEnvChange.o)
 .note.GNU-stack
                0x0000000000000000        0x0 obj_cooja/mtype67.a(cooja_mt.o)
 .note.GNU-stack
                0x0000000000000000        0x0 obj_cooja/mtype67.a(cooja_mtarch.o)
 .note.GNU-stack
                0x0000000000000000        0x0 obj_cooja/mtype67.a(rtimer-arch.o)
 .note.GNU-stack
                0x0000000000000000        0x0 obj_cooja/mtype67.a(beep.o)
 .note.GNU-stack
                0x0000000000000000        0x0 obj_cooja/mtype67.a(button-sensor.o)
 .note.GNU-stack
                0x0000000000000000        0x0 obj_cooja/mtype67.a(leds-arch.o)
 .note.GNU-stack
                0x0000000000000000        0x0 obj_cooja/mtype67.a(moteid.o)
 .note.GNU-stack
                0x0000000000000000        0x0 obj_cooja/mtype67.a(pir-sensor.o)
 .note.GNU-stack
                0x0000000000000000        0x0 obj_cooja/mtype67.a(rs232.o)
 .note.GNU-stack
                0x0000000000000000        0x0 obj_cooja/mtype67.a(vib-sensor.o)
 .note.GNU-stack
                0x0000000000000000        0x0 obj_cooja/mtype67.a(clock.o)
 .note.GNU-stack
                0x0000000000000000        0x0 obj_cooja/mtype67.a(log.o)
 .note.GNU-stack
                0x0000000000000000        0x0 obj_cooja/mtype67.a(cfs-cooja.o)
 .note.GNU-stack
                0x0000000000000000        0x0 obj_cooja/mtype67.a(cooja-radio.o)
 .note.GNU-stack
                0x0000000000000000        0x0 obj_cooja/mtype67.a(eeprom.o)
 .note.GNU-stack
                0x0000000000000000        0x0 obj_cooja/mtype67.a(random.o)
 .note.GNU-stack
                0x0000000000000000        0x0 obj_cooja/mtype67.a(sensors.o)
 .note.GNU-stack
                0x0000000000000000        0x0 obj_cooja/mtype67.a(autostart.o)
 .note.GNU-stack
                0x0000000000000000        0x0 obj_cooja/mtype67.a(ctimer.o)
 .note.GNU-stack
                0x0000000000000000        0x0 obj_cooja/mtype67.a(etimer.o)
 .note.GNU-stack
                0x0000000000000000        0x0 obj_cooja/mtype67.a(process.o)
 .note.GNU-stack
                0x0000000000000000        0x0 obj_cooja/mtype67.a(rtimer.o)
 .note.GNU-stack
                0x0000000000000000        0x0 obj_cooja/mtype67.a(timer.o)
 .note.GNU-stack
                0x0000000000000000        0x0 obj_cooja/mtype67.a(serial-line.o)
 .note.GNU-stack
                0x0000000000000000        0x0 obj_cooja/mtype67.a(assert.o)
 .note.GNU-stack
                0x0000000000000000        0x0 obj_cooja/mtype67.a(list.o)
 .note.GNU-stack
                0x0000000000000000        0x0 obj_cooja/mtype67.a(memb.o)
 .note.GNU-stack
                0x0000000000000000        0x0 obj_cooja/mtype67.a(ringbuf.o)
 .note.GNU-stack
                0x0000000000000000        0x0 obj_cooja/mtype67.a(sicslowpan.o)
 .note.GNU-stack
                0x0000000000000000        0x0 obj_cooja/mtype67.a(uip-ds6-nbr.o)
 .note.GNU-stack
                0x0000000000000000        0x0 obj_cooja/mtype67.a(uip-ds6-route.o)
 .note.GNU-stack
                0x0000000000000000        0x0 obj_cooja/mtype67.a(uip-ds6.o)
 .note.GNU-stack
                0x0000000000000000        0x0 obj_cooja/mtype67.a(uip-nd6.o)
 .note.GNU-stack
                0x0000000000000000        0x0 obj_cooja/mtype67.a(uip6.o)
 .note.GNU-stack
                0x0000000000000000        0x0 obj_cooja/mtype67.a(resolv.o)
 .note.GNU-stack
                0x0000000000000000        0x0 obj_cooja/mtype67.a(tcpip.o)
 .note.GNU-stack
                0x0000000000000000        0x0 obj_cooja/mtype67.a(uip-debug.o)
 .note.GNU-stack
                0x0000000000000000        0x0 obj_cooja/mtype67.a(uip-nameserver.)
 .note.GNU-stack
                0x0000000000000000        0x0 obj_cooja/mtype67.a(uip-packetqueue)
 .note.GNU-stack
                0x0000000000000000        0x0 obj_cooja/mtype67.a(uip-udp-packet.)
 .note.GNU-stack
                0x0000000000000000        0x0 obj_cooja/mtype67.a(uiplib.o)
 .note.GNU-stack
                0x0000000000000000        0x0 obj_cooja/mtype67.a(rpl-dag.o)
 .note.GNU-stack
                0x0000000000000000        0x0 obj_cooja/mtype67.a(rpl-ext-header.)
 .note.GNU-stack
                0x0000000000000000        0x0 obj_cooja/mtype67.a(rpl-icmp6.o)
 .note.GNU-stack
                0x0000000000000000        0x0 obj_cooja/mtype67.a(rpl-mrhof.o)
 .note.GNU-stack
                0x0000000000000000        0x0 obj_cooja/mtype67.a(rpl-timers.o)
 .note.GNU-stack
                0x0000000000000000        0x0 obj_cooja/mtype67.a(rpl.o)
 .note.GNU-stack
                0x0000000000000000        0x0 obj_cooja/mtype67.a(link-stats.o)
 .note.GNU-stack
                0x0000000000000000        0x0 obj_cooja/mtype67.a(linkaddr.o)
 .note.GNU-stack
                0x0000000000000000        0x0 obj_cooja/mtype67.a(nbr-table.o)
 .note.GNU-stack
                0x0000000000000000        0x0 obj_cooja/mtype67.a(netstack.o)
 .note.GNU-stack
                0x0000000000000000        0x0 obj_cooja/mtype67.a(packetbuf.o)
 .note.GNU-stack
                0x0000000000000000        0x0 obj_cooja/mtype67.a(queuebuf.o)
 .note.GNU-stack
                0x0000000000000000        0x0 obj_cooja/mtype67.a(csma.o)
 .note.GNU-stack
                0x0000000000000000        0x0 obj_cooja/mtype67.a(framer-802154.o)
 .note.GNU-stack
                0x0000000000000000        0x0 obj_cooja/mtype67.a(mac.o)
 .note.GNU-stack
                0x0000000000000000        0x0 obj_cooja/mtype67.a(nullrdc.o)
 .note.GNU-stack
                0x0000000000000000        0x0 obj_cooja/mtype67.a(nullsec.o)
 .note.GNU-stack
                0x0000000000000000        0x0 obj_cooja/mtype67.a(watchdog.o)
 .note.GNU-stack
                0x0000000000000000        0x0 obj_cooja/mtype67.a(rimestats.o)
 .note.GNU-stack
                0x0000000000000000        0x0 obj_cooja/mtype67.a(stimer.o)
 .note.GNU-stack
                0x0000000000000000        0x0 obj_cooja/mtype67.a(uip-icmp6.o)
 .note.GNU-stack
                0x0000000000000000        0x0 obj_cooja/mtype67.a(rpl-nbr-policy.)
 .note.GNU-stack
                0x0000000000000000        0x0 obj_cooja/mtype67.a(frame802154.o)
 .note.GNU-stack
                0x0000000000000000        0x0 obj_cooja/mtype67.a(mac-sequence.o)
 .note.GNU-stack
                0x0000000000000000        0x0 /usr/lib/gcc/i686-linux-gnu/4.8/crtendS.o
 .note.GNU-stack
                0x0000000000000000        0x0 /usr/lib/gcc/i686-linux-gnu/4.8/../../../i386-linux-gnu/crtn.o
 .gnu_debuglink
                0x0000000000000000        0xc /usr/lib/gcc/i686-linux-gnu/4.8/../../../i386-linux-gnu/crtn.o

Memory Configuration

Name             Origin             Length             Attributes
*default*        0x0000000000000000 0xffffffffffffffff

Linker script and memory map

LOAD /usr/lib/gcc/i686-linux-gnu/4.8/../../../i386-linux-gnu/crti.o
LOAD /usr/lib/gcc/i686-linux-gnu/4.8/crtbeginS.o
LOAD receiver.co
LOAD obj_cooja/mtype67.o
LOAD obj_cooja/mtype67.a
LOAD /usr/lib/gcc/i686-linux-gnu/4.8/libgcc.a
LOAD /usr/lib/gcc/i686-linux-gnu/4.8/libgcc_s.so
LOAD /usr/lib/gcc/i686-linux-gnu/4.8/../../../i386-linux-gnu/libc.so
START GROUP
LOAD /lib/i386-linux-gnu/libc.so.6
LOAD /usr/lib/i386-linux-gnu/libc_nonshared.a
LOAD /lib/i386-linux-gnu/ld-linux.so.2
END GROUP
LOAD /usr/lib/gcc/i686-linux-gnu/4.8/libgcc.a
LOAD /usr/lib/gcc/i686-linux-gnu/4.8/libgcc_s.so
LOAD /usr/lib/gcc/i686-linux-gnu/4.8/crtendS.o
LOAD /usr/lib/gcc/i686-linux-gnu/4.8/../../../i386-linux-gnu/crtn.o
                0x0000000000000114                . = (0x0 + SIZEOF_HEADERS)

.note.gnu.build-id
                0x0000000000000114       0x24
 *(.note.gnu.build-id)
 .note.gnu.build-id
                0x0000000000000114       0x24 /usr/lib/gcc/i686-linux-gnu/4.8/../../../i386-linux-gnu/crti.o

.hash
 *(.hash)

.gnu.hash       0x0000000000000138     0x13ec
 *(.gnu.hash)
 .gnu.hash      0x0000000000000138     0x13ec /usr/lib/gcc/i686-linux-gnu/4.8/../../../i386-linux-gnu/crti.o

.dynsym         0x0000000000001524     0x2850
 *(.dynsym)
 .dynsym        0x0000000000001524     0x2850 /usr/lib/gcc/i686-linux-gnu/4.8/../../../i386-linux-gnu/crti.o

.dynstr         0x0000000000003d74     0x297d
 *(.dynstr)
 .dynstr        0x0000000000003d74     0x297d /usr/lib/gcc/i686-linux-gnu/4.8/../../../i386-linux-gnu/crti.o

.gnu.version    0x00000000000066f2      0x50a
 *(.gnu.version)
 .gnu.version   0x00000000000066f2      0x50a /usr/lib/gcc/i686-linux-gnu/4.8/../../../i386-linux-gnu/crti.o

.gnu.version_d  0x0000000000006bfc        0x0
 *(.gnu.version_d)
 .gnu.version_d
                0x0000000000000000        0x0 /usr/lib/gcc/i686-linux-gnu/4.8/../../../i386-linux-gnu/crti.o

.gnu.version_r  0x0000000000006bfc       0x40
 *(.gnu.version_r)
 .gnu.version_r
                0x0000000000006bfc       0x40 /usr/lib/gcc/i686-linux-gnu/4.8/../../../i386-linux-gnu/crti.o

.rel.dyn        0x0000000000006c3c     0xac38
 *(.rel.init)
 .rel.init      0x0000000000000000        0x0 /usr/lib/gcc/i686-linux-gnu/4.8/../../../i386-linux-gnu/crti.o
 *(.rel.text .rel.text.* .rel.gnu.linkonce.t.*)
 .rel.text      0x0000000000000000        0x0 /usr/lib/gcc/i686-linux-gnu/4.8/../../../i386-linux-gnu/crti.o
 .rel.text.try_send
                0x0000000000006c3c       0x48 /usr/lib/gcc/i686-linux-gnu/4.8/../../../i386-linux-gnu/crti.o
 .rel.text.read_from_peer
                0x0000000000006c84       0x78 /usr/lib/gcc/i686-linux-gnu/4.8/../../../i386-linux-gnu/crti.o
 .rel.text.send_to_peer
                0x0000000000006cfc       0x18 /usr/lib/gcc/i686-linux-gnu/4.8/../../../i386-linux-gnu/crti.o
 .rel.text.get_psk_info
                0x0000000000006d14       0xa8 /usr/lib/gcc/i686-linux-gnu/4.8/../../../i386-linux-gnu/crti.o
 .rel.text.dtls_handle_read
                0x0000000000006dbc       0x80 /usr/lib/gcc/i686-linux-gnu/4.8/../../../i386-linux-gnu/crti.o
 .rel.text.print_local_addresses
                0x0000000000006e3c       0x40 /usr/lib/gcc/i686-linux-gnu/4.8/../../../i386-linux-gnu/crti.o
 .rel.text.set_global_address
                0x0000000000006e7c       0x20 /usr/lib/gcc/i686-linux-gnu/4.8/../../../i386-linux-gnu/crti.o
 .rel.text.set_connection_address
                0x0000000000006e9c       0x90 /usr/lib/gcc/i686-linux-gnu/4.8/../../../i386-linux-gnu/crti.o
 .rel.text.dtls_complete
                0x0000000000006f2c        0x8 /usr/lib/gcc/i686-linux-gnu/4.8/../../../i386-linux-gnu/crti.o
 .rel.text.init_dtls
                0x0000000000006f34       0x90 /usr/lib/gcc/i686-linux-gnu/4.8/../../../i386-linux-gnu/crti.o
 .rel.text.join_mcast_group
                0x0000000000006fc4       0x58 /usr/lib/gcc/i686-linux-gnu/4.8/../../../i386-linux-gnu/crti.o
 .rel.text.dtls_reqeust
                0x000000000000701c       0x20 /usr/lib/gcc/i686-linux-gnu/4.8/../../../i386-linux-gnu/crti.o
 .rel.text.process_thread_udp_client_process
                0x000000000000703c       0xf0 /usr/lib/gcc/i686-linux-gnu/4.8/../../../i386-linux-gnu/crti.o
 .rel.text.print_processes
                0x000000000000712c       0x28 /usr/lib/gcc/i686-linux-gnu/4.8/../../../i386-linux-gnu/crti.o
 .rel.text.rtimer_thread_loop
                0x0000000000007154       0x10 /usr/lib/gcc/i686-linux-gnu/4.8/../../../i386-linux-gnu/crti.o
 .rel.text.set_rime_addr
                0x0000000000007164       0x58 /usr/lib/gcc/i686-linux-gnu/4.8/../../../i386-linux-gnu/crti.o
 .rel.text.contiki_init
                0x00000000000071bc      0x1d0 /usr/lib/gcc/i686-linux-gnu/4.8/../../../i386-linux-gnu/crti.o
 .rel.text.process_run_thread_loop
                0x000000000000738c       0x70 /usr/lib/gcc/i686-linux-gnu/4.8/../../../i386-linux-gnu/crti.o
 .rel.text.Java_org_contikios_cooja_corecomm_Lib2_init
                0x00000000000073fc       0x30 /usr/lib/gcc/i686-linux-gnu/4.8/../../../i386-linux-gnu/crti.o
 .rel.text.Java_org_contikios_cooja_corecomm_Lib2_getMemory
                0x000000000000742c        0x8 /usr/lib/gcc/i686-linux-gnu/4.8/../../../i386-linux-gnu/crti.o
 .rel.text.Java_org_contikios_cooja_corecomm_Lib2_setMemory
                0x0000000000007434       0x10 /usr/lib/gcc/i686-linux-gnu/4.8/../../../i386-linux-gnu/crti.o
 .rel.text.Java_org_contikios_cooja_corecomm_Lib2_tick
                0x0000000000007444       0x70 /usr/lib/gcc/i686-linux-gnu/4.8/../../../i386-linux-gnu/crti.o
 .rel.text.Java_org_contikios_cooja_corecomm_Lib2_setReferenceAddress
                0x00000000000074b4       0x10 /usr/lib/gcc/i686-linux-gnu/4.8/../../../i386-linux-gnu/crti.o
 .rel.text.dtls_hash_init
                0x00000000000074c4       0x18 /usr/lib/gcc/i686-linux-gnu/4.8/../../../i386-linux-gnu/crti.o
 .rel.text.dtls_hash_update
                0x00000000000074dc       0x10 /usr/lib/gcc/i686-linux-gnu/4.8/../../../i386-linux-gnu/crti.o
 .rel.text.dtls_hash_finalize
                0x00000000000074ec       0x10 /usr/lib/gcc/i686-linux-gnu/4.8/../../../i386-linux-gnu/crti.o
 .rel.text.dtls_security_params_next
                0x00000000000074fc       0x10 /usr/lib/gcc/i686-linux-gnu/4.8/../../../i386-linux-gnu/crti.o
 .rel.text.dtls_security_params_free_other
                0x000000000000750c        0x8 /usr/lib/gcc/i686-linux-gnu/4.8/../../../i386-linux-gnu/crti.o
 .rel.text.dtls_prng
                0x0000000000007514       0x18 /usr/lib/gcc/i686-linux-gnu/4.8/../../../i386-linux-gnu/crti.o
 .rel.text.malloc_context
                0x000000000000752c        0x8 /usr/lib/gcc/i686-linux-gnu/4.8/../../../i386-linux-gnu/crti.o
 .rel.text.dtls_init
                0x0000000000007534       0x20 /usr/lib/gcc/i686-linux-gnu/4.8/../../../i386-linux-gnu/crti.o
 .rel.text.dtls_get_peer
                0x0000000000007554       0x18 /usr/lib/gcc/i686-linux-gnu/4.8/../../../i386-linux-gnu/crti.o
 .rel.text.dtls_add_peer
                0x000000000000756c        0x8 /usr/lib/gcc/i686-linux-gnu/4.8/../../../i386-linux-gnu/crti.o
 .rel.text.dtls_write
                0x0000000000007574       0x20 /usr/lib/gcc/i686-linux-gnu/4.8/../../../i386-linux-gnu/crti.o
 .rel.text.dtls_create_cookie
                0x0000000000007594       0x40 /usr/lib/gcc/i686-linux-gnu/4.8/../../../i386-linux-gnu/crti.o
 .rel.text.dtls_set_record_header
                0x00000000000075d4       0x10 /usr/lib/gcc/i686-linux-gnu/4.8/../../../i386-linux-gnu/crti.o
 .rel.text.dtls_set_handshake_header
                0x00000000000075e4        0x8 /usr/lib/gcc/i686-linux-gnu/4.8/../../../i386-linux-gnu/crti.o
 .rel.text.dtls_debug_keyblock
                0x00000000000075ec       0x70 /usr/lib/gcc/i686-linux-gnu/4.8/../../../i386-linux-gnu/crti.o
 .rel.text.dtls_handshake_type_to_name
                0x000000000000765c       0x68 /usr/lib/gcc/i686-linux-gnu/4.8/../../../i386-linux-gnu/crti.o
 .rel.text.calculate_key_block
                0x00000000000076c4       0xb8 /usr/lib/gcc/i686-linux-gnu/4.8/../../../i386-linux-gnu/crti.o
 .rel.text.dtls_check_tls_extension
                0x000000000000777c       0x30 /usr/lib/gcc/i686-linux-gnu/4.8/../../../i386-linux-gnu/crti.o
 .rel.text.dtls_update_parameters
                0x00000000000077ac       0x48 /usr/lib/gcc/i686-linux-gnu/4.8/../../../i386-linux-gnu/crti.o
 .rel.text.check_client_keyexchange
                0x00000000000077f4       0x38 /usr/lib/gcc/i686-linux-gnu/4.8/../../../i386-linux-gnu/crti.o
 .rel.text.update_hs_hash
                0x000000000000782c       0x10 /usr/lib/gcc/i686-linux-gnu/4.8/../../../i386-linux-gnu/crti.o
 .rel.text.copy_hs_hash
                0x000000000000783c        0x8 /usr/lib/gcc/i686-linux-gnu/4.8/../../../i386-linux-gnu/crti.o
 .rel.text.clear_hs_hash
                0x0000000000007844       0x20 /usr/lib/gcc/i686-linux-gnu/4.8/../../../i386-linux-gnu/crti.o
 .rel.text.check_finished
                0x0000000000007864       0x58 /usr/lib/gcc/i686-linux-gnu/4.8/../../../i386-linux-gnu/crti.o
 .rel.text.dtls_prepare_record
                0x00000000000078bc      0x130 /usr/lib/gcc/i686-linux-gnu/4.8/../../../i386-linux-gnu/crti.o
 .rel.text.dtls_send_handshake_msg_hash
                0x00000000000079ec       0x18 /usr/lib/gcc/i686-linux-gnu/4.8/../../../i386-linux-gnu/crti.o
 .rel.text.dtls_encrypt_data
                0x0000000000007a04       0x20 /usr/lib/gcc/i686-linux-gnu/4.8/../../../i386-linux-gnu/crti.o
 .rel.text.dtls_encrypt_x
                0x0000000000007a24       0x10 /usr/lib/gcc/i686-linux-gnu/4.8/../../../i386-linux-gnu/crti.o
 .rel.text.dtls_prepare_record_x
                0x0000000000007a34       0x80 /usr/lib/gcc/i686-linux-gnu/4.8/../../../i386-linux-gnu/crti.o
 .rel.text.dtls_send_multi
                0x0000000000007ab4       0x98 /usr/lib/gcc/i686-linux-gnu/4.8/../../../i386-linux-gnu/crti.o
 .rel.text.dtls_close
                0x0000000000007b4c       0x30 /usr/lib/gcc/i686-linux-gnu/4.8/../../../i386-linux-gnu/crti.o
 .rel.text.dtls_destroy_peer
                0x0000000000007b7c       0x28 /usr/lib/gcc/i686-linux-gnu/4.8/../../../i386-linux-gnu/crti.o
 .rel.text.dtls_verify_peer
                0x0000000000007ba4       0xa0 /usr/lib/gcc/i686-linux-gnu/4.8/../../../i386-linux-gnu/crti.o
 .rel.text.dtls_send_server_hello
                0x0000000000007c44       0x30 /usr/lib/gcc/i686-linux-gnu/4.8/../../../i386-linux-gnu/crti.o
 .rel.text.dtls_send_server_key_exchange_psk
                0x0000000000007c74       0x40 /usr/lib/gcc/i686-linux-gnu/4.8/../../../i386-linux-gnu/crti.o
 .rel.text.dtls_send_server_hello_msgs
                0x0000000000007cb4       0x48 /usr/lib/gcc/i686-linux-gnu/4.8/../../../i386-linux-gnu/crti.o
 .rel.text.dtls_send_client_key_exchange
                0x0000000000007cfc       0x60 /usr/lib/gcc/i686-linux-gnu/4.8/../../../i386-linux-gnu/crti.o
 .rel.text.dtls_send_finished
                0x0000000000007d5c       0x38 /usr/lib/gcc/i686-linux-gnu/4.8/../../../i386-linux-gnu/crti.o
 .rel.text.dtls_send_client_hello
                0x0000000000007d94       0x50 /usr/lib/gcc/i686-linux-gnu/4.8/../../../i386-linux-gnu/crti.o
 .rel.text.check_server_hello
                0x0000000000007de4       0x38 /usr/lib/gcc/i686-linux-gnu/4.8/../../../i386-linux-gnu/crti.o
 .rel.text.check_server_hello_verify_request
                0x0000000000007e1c       0x10 /usr/lib/gcc/i686-linux-gnu/4.8/../../../i386-linux-gnu/crti.o
 .rel.text.check_server_key_exchange_psk
                0x0000000000007e2c       0x48 /usr/lib/gcc/i686-linux-gnu/4.8/../../../i386-linux-gnu/crti.o
 .rel.text.check_certificate_request
                0x0000000000007e74       0x60 /usr/lib/gcc/i686-linux-gnu/4.8/../../../i386-linux-gnu/crti.o
 .rel.text.check_server_hellodone
                0x0000000000007ed4       0x28 /usr/lib/gcc/i686-linux-gnu/4.8/../../../i386-linux-gnu/crti.o
 .rel.text.decrypt_verify
                0x0000000000007efc       0xc8 /usr/lib/gcc/i686-linux-gnu/4.8/../../../i386-linux-gnu/crti.o
 .rel.text.dtls_renegotiate
                0x0000000000007fc4       0x20 /usr/lib/gcc/i686-linux-gnu/4.8/../../../i386-linux-gnu/crti.o
 .rel.text.handle_handshake_msg
                0x0000000000007fe4      0x150 /usr/lib/gcc/i686-linux-gnu/4.8/../../../i386-linux-gnu/crti.o
 .rel.text.handle_handshake
                0x0000000000008134       0xe8 /usr/lib/gcc/i686-linux-gnu/4.8/../../../i386-linux-gnu/crti.o
 .rel.text.handle_ccs
                0x000000000000821c       0x10 /usr/lib/gcc/i686-linux-gnu/4.8/../../../i386-linux-gnu/crti.o
 .rel.text.handle_alert
                0x000000000000822c       0x48 /usr/lib/gcc/i686-linux-gnu/4.8/../../../i386-linux-gnu/crti.o
 .rel.text.dtls_alert_send_from_err
                0x0000000000008274       0x10 /usr/lib/gcc/i686-linux-gnu/4.8/../../../i386-linux-gnu/crti.o
 .rel.text.dtls_handle_message
                0x0000000000008284      0x180 /usr/lib/gcc/i686-linux-gnu/4.8/../../../i386-linux-gnu/crti.o
 .rel.text.dtls_new_context
                0x0000000000008404       0x70 /usr/lib/gcc/i686-linux-gnu/4.8/../../../i386-linux-gnu/crti.o
 .rel.text.dtls_free_context
                0x0000000000008474       0x20 /usr/lib/gcc/i686-linux-gnu/4.8/../../../i386-linux-gnu/crti.o
 .rel.text.dtls_connect_peer
                0x0000000000008494       0x50 /usr/lib/gcc/i686-linux-gnu/4.8/../../../i386-linux-gnu/crti.o
 .rel.text.dtls_connect
                0x00000000000084e4       0x38 /usr/lib/gcc/i686-linux-gnu/4.8/../../../i386-linux-gnu/crti.o
 .rel.text.dtls_retransmit
                0x000000000000851c       0x98 /usr/lib/gcc/i686-linux-gnu/4.8/../../../i386-linux-gnu/crti.o
 .rel.text.dtls_stop_retransmission
                0x00000000000085b4       0x30 /usr/lib/gcc/i686-linux-gnu/4.8/../../../i386-linux-gnu/crti.o
 .rel.text.dtls_check_retransmit
                0x00000000000085e4       0x20 /usr/lib/gcc/i686-linux-gnu/4.8/../../../i386-linux-gnu/crti.o
 .rel.text.process_thread_dtls_retransmit_process
                0x0000000000008604       0xb0 /usr/lib/gcc/i686-linux-gnu/4.8/../../../i386-linux-gnu/crti.o
 .rel.text.dtls_cipher_context_get
                0x00000000000086b4        0x8 /usr/lib/gcc/i686-linux-gnu/4.8/../../../i386-linux-gnu/crti.o
 .rel.text.dtls_crypto_init
                0x00000000000086bc       0x20 /usr/lib/gcc/i686-linux-gnu/4.8/../../../i386-linux-gnu/crti.o
 .rel.text.dtls_handshake_malloc
                0x00000000000086dc       0x10 /usr/lib/gcc/i686-linux-gnu/4.8/../../../i386-linux-gnu/crti.o
 .rel.text.dtls_handshake_dealloc
                0x00000000000086ec       0x10 /usr/lib/gcc/i686-linux-gnu/4.8/../../../i386-linux-gnu/crti.o
 .rel.text.dtls_security_malloc
                0x00000000000086fc       0x10 /usr/lib/gcc/i686-linux-gnu/4.8/../../../i386-linux-gnu/crti.o
 .rel.text.dtls_security_dealloc
                0x000000000000870c       0x10 /usr/lib/gcc/i686-linux-gnu/4.8/../../../i386-linux-gnu/crti.o
 .rel.text.dtls_handshake_new
                0x000000000000871c       0x28 /usr/lib/gcc/i686-linux-gnu/4.8/../../../i386-linux-gnu/crti.o
 .rel.text.dtls_handshake_free
                0x0000000000008744        0x8 /usr/lib/gcc/i686-linux-gnu/4.8/../../../i386-linux-gnu/crti.o
 .rel.text.dtls_security_new
                0x000000000000874c       0x18 /usr/lib/gcc/i686-linux-gnu/4.8/../../../i386-linux-gnu/crti.o
 .rel.text.dtls_p_hash
                0x0000000000008764       0xd0 /usr/lib/gcc/i686-linux-gnu/4.8/../../../i386-linux-gnu/crti.o
 .rel.text.dtls_prf
                0x0000000000008834       0x10 /usr/lib/gcc/i686-linux-gnu/4.8/../../../i386-linux-gnu/crti.o
 .rel.text.dtls_prf_custom
                0x0000000000008844       0x18 /usr/lib/gcc/i686-linux-gnu/4.8/../../../i386-linux-gnu/crti.o
 .rel.text.dtls_mac
                0x000000000000885c       0x38 /usr/lib/gcc/i686-linux-gnu/4.8/../../../i386-linux-gnu/crti.o
 .rel.text.dtls_ccm_encrypt
                0x0000000000008894       0x18 /usr/lib/gcc/i686-linux-gnu/4.8/../../../i386-linux-gnu/crti.o
 .rel.text.dtls_ccm_decrypt
                0x00000000000088ac       0x18 /usr/lib/gcc/i686-linux-gnu/4.8/../../../i386-linux-gnu/crti.o
 .rel.text.dtls_psk_pre_master_secret
                0x00000000000088c4       0x18 /usr/lib/gcc/i686-linux-gnu/4.8/../../../i386-linux-gnu/crti.o
 .rel.text.dtls_encrypt
                0x00000000000088dc       0x20 /usr/lib/gcc/i686-linux-gnu/4.8/../../../i386-linux-gnu/crti.o
 .rel.text.dtls_decrypt
                0x00000000000088fc       0x20 /usr/lib/gcc/i686-linux-gnu/4.8/../../../i386-linux-gnu/crti.o
 .rel.text.dtls_hmac_context_new
                0x000000000000891c       0x10 /usr/lib/gcc/i686-linux-gnu/4.8/../../../i386-linux-gnu/crti.o
 .rel.text.dtls_hmac_context_free
                0x000000000000892c       0x10 /usr/lib/gcc/i686-linux-gnu/4.8/../../../i386-linux-gnu/crti.o
 .rel.text.dtls_hmac_storage_init
                0x000000000000893c       0x10 /usr/lib/gcc/i686-linux-gnu/4.8/../../../i386-linux-gnu/crti.o
 .rel.text.dtls_hmac_update
                0x000000000000894c       0x10 /usr/lib/gcc/i686-linux-gnu/4.8/../../../i386-linux-gnu/crti.o
 .rel.text.dtls_hmac_new
                0x000000000000895c        0x8 /usr/lib/gcc/i686-linux-gnu/4.8/../../../i386-linux-gnu/crti.o
 .rel.text.dtls_hmac_init
                0x0000000000008964       0x28 /usr/lib/gcc/i686-linux-gnu/4.8/../../../i386-linux-gnu/crti.o
 .rel.text.dtls_hmac_finalize
                0x000000000000898c       0x28 /usr/lib/gcc/i686-linux-gnu/4.8/../../../i386-linux-gnu/crti.o
 .rel.text.netq_malloc_node
                0x00000000000089b4       0x10 /usr/lib/gcc/i686-linux-gnu/4.8/../../../i386-linux-gnu/crti.o
 .rel.text.netq_free_node
                0x00000000000089c4       0x10 /usr/lib/gcc/i686-linux-gnu/4.8/../../../i386-linux-gnu/crti.o
 .rel.text.netq_init
                0x00000000000089d4       0x10 /usr/lib/gcc/i686-linux-gnu/4.8/../../../i386-linux-gnu/crti.o
 .rel.text.netq_insert_node
                0x00000000000089e4       0x48 /usr/lib/gcc/i686-linux-gnu/4.8/../../../i386-linux-gnu/crti.o
 .rel.text.netq_head
                0x0000000000008a2c        0x8 /usr/lib/gcc/i686-linux-gnu/4.8/../../../i386-linux-gnu/crti.o
 .rel.text.netq_next
                0x0000000000008a34        0x8 /usr/lib/gcc/i686-linux-gnu/4.8/../../../i386-linux-gnu/crti.o
 .rel.text.netq_remove
                0x0000000000008a3c        0x8 /usr/lib/gcc/i686-linux-gnu/4.8/../../../i386-linux-gnu/crti.o
 .rel.text.netq_pop_first
                0x0000000000008a44        0x8 /usr/lib/gcc/i686-linux-gnu/4.8/../../../i386-linux-gnu/crti.o
 .rel.text.netq_node_new
                0x0000000000008a4c       0x18 /usr/lib/gcc/i686-linux-gnu/4.8/../../../i386-linux-gnu/crti.o
 .rel.text.netq_delete_all
                0x0000000000008a64        0x8 /usr/lib/gcc/i686-linux-gnu/4.8/../../../i386-linux-gnu/crti.o
 .rel.text.dtls_clock_init
                0x0000000000008a6c       0x10 /usr/lib/gcc/i686-linux-gnu/4.8/../../../i386-linux-gnu/crti.o
 .rel.text.dtls_ticks
                0x0000000000008a7c        0x8 /usr/lib/gcc/i686-linux-gnu/4.8/../../../i386-linux-gnu/crti.o
 .rel.text.peer_init
                0x0000000000008a84       0x10 /usr/lib/gcc/i686-linux-gnu/4.8/../../../i386-linux-gnu/crti.o
 .rel.text.dtls_malloc_peer
                0x0000000000008a94       0x10 /usr/lib/gcc/i686-linux-gnu/4.8/../../../i386-linux-gnu/crti.o
 .rel.text.dtls_free_peer
                0x0000000000008aa4       0x28 /usr/lib/gcc/i686-linux-gnu/4.8/../../../i386-linux-gnu/crti.o
 .rel.text.dtls_new_peer
                0x0000000000008acc       0x30 /usr/lib/gcc/i686-linux-gnu/4.8/../../../i386-linux-gnu/crti.o
 .rel.text.dtls_session_init
                0x0000000000008afc       0x18 /usr/lib/gcc/i686-linux-gnu/4.8/../../../i386-linux-gnu/crti.o
 .rel.text.dtls_session_equals
                0x0000000000008b14       0x28 /usr/lib/gcc/i686-linux-gnu/4.8/../../../i386-linux-gnu/crti.o
 .rel.text.rijndaelKeySetupEnc
                0x0000000000008b3c       0x98 /usr/lib/gcc/i686-linux-gnu/4.8/../../../i386-linux-gnu/crti.o
 .rel.text.rijndaelEncrypt
                0x0000000000008bd4      0x180 /usr/lib/gcc/i686-linux-gnu/4.8/../../../i386-linux-gnu/crti.o
 .rel.text.rijndael_set_key_enc_only
                0x0000000000008d54        0x8 /usr/lib/gcc/i686-linux-gnu/4.8/../../../i386-linux-gnu/crti.o
 .rel.text.rijndael_encrypt
                0x0000000000008d5c        0x8 /usr/lib/gcc/i686-linux-gnu/4.8/../../../i386-linux-gnu/crti.o
 .rel.text.block0
                0x0000000000008d64        0x8 /usr/lib/gcc/i686-linux-gnu/4.8/../../../i386-linux-gnu/crti.o
 .rel.text.add_auth_data
                0x0000000000008d6c       0x50 /usr/lib/gcc/i686-linux-gnu/4.8/../../../i386-linux-gnu/crti.o
 .rel.text.encrypt
                0x0000000000008dbc       0x38 /usr/lib/gcc/i686-linux-gnu/4.8/../../../i386-linux-gnu/crti.o
 .rel.text.mac  0x0000000000008df4        0x8 /usr/lib/gcc/i686-linux-gnu/4.8/../../../i386-linux-gnu/crti.o
 .rel.text.dtls_ccm_encrypt_message
                0x0000000000008dfc       0x28 /usr/lib/gcc/i686-linux-gnu/4.8/../../../i386-linux-gnu/crti.o
 .rel.text.dtls_ccm_decrypt_message
                0x0000000000008e24       0x28 /usr/lib/gcc/i686-linux-gnu/4.8/../../../i386-linux-gnu/crti.o
 .rel.text.SHA256_Init
                0x0000000000008e4c       0x18 /usr/lib/gcc/i686-linux-gnu/4.8/../../../i386-linux-gnu/crti.o
 .rel.text.SHA256_Transform
                0x0000000000008e64       0x10 /usr/lib/gcc/i686-linux-gnu/4.8/../../../i386-linux-gnu/crti.o
 .rel.text.SHA256_Update
                0x0000000000008e74       0x38 /usr/lib/gcc/i686-linux-gnu/4.8/../../../i386-linux-gnu/crti.o
 .rel.text.SHA256_Final
                0x0000000000008eac       0x48 /usr/lib/gcc/i686-linux-gnu/4.8/../../../i386-linux-gnu/crti.o
 .rel.text.SHA256_End
                0x0000000000008ef4       0x40 /usr/lib/gcc/i686-linux-gnu/4.8/../../../i386-linux-gnu/crti.o
 .rel.text.SHA256_Data
                0x0000000000008f34       0x20 /usr/lib/gcc/i686-linux-gnu/4.8/../../../i386-linux-gnu/crti.o
 .rel.text.dtls_package_name
                0x0000000000008f54        0x8 /usr/lib/gcc/i686-linux-gnu/4.8/../../../i386-linux-gnu/crti.o
 .rel.text.dtls_package_version
                0x0000000000008f5c        0x8 /usr/lib/gcc/i686-linux-gnu/4.8/../../../i386-linux-gnu/crti.o
 .rel.text.dtls_get_log_level
                0x0000000000008f64        0x8 /usr/lib/gcc/i686-linux-gnu/4.8/../../../i386-linux-gnu/crti.o
 .rel.text.dtls_set_log_level
                0x0000000000008f6c        0x8 /usr/lib/gcc/i686-linux-gnu/4.8/../../../i386-linux-gnu/crti.o
 .rel.text.dsrv_print_addr
                0x0000000000008f74       0x20 /usr/lib/gcc/i686-linux-gnu/4.8/../../../i386-linux-gnu/crti.o
 .rel.text.hexdump
                0x0000000000008f94       0x40 /usr/lib/gcc/i686-linux-gnu/4.8/../../../i386-linux-gnu/crti.o
 .rel.text.dump
                0x0000000000008fd4       0x10 /usr/lib/gcc/i686-linux-gnu/4.8/../../../i386-linux-gnu/crti.o
 .rel.text.dtls_dsrv_log_addr
                0x0000000000008fe4       0x18 /usr/lib/gcc/i686-linux-gnu/4.8/../../../i386-linux-gnu/crti.o
 .rel.text.dtls_dsrv_hexdump_log
                0x0000000000008ffc       0xc8 /usr/lib/gcc/i686-linux-gnu/4.8/../../../i386-linux-gnu/crti.o
 .rel.text.doActionsBeforeTick
                0x00000000000090c4       0x10 /usr/lib/gcc/i686-linux-gnu/4.8/../../../i386-linux-gnu/crti.o
 .rel.text.doActionsAfterTick
                0x00000000000090d4       0x10 /usr/lib/gcc/i686-linux-gnu/4.8/../../../i386-linux-gnu/crti.o
 .rel.text.cooja_mt_init
                0x00000000000090e4        0x8 /usr/lib/gcc/i686-linux-gnu/4.8/../../../i386-linux-gnu/crti.o
 .rel.text.cooja_mt_remove
                0x00000000000090ec        0x8 /usr/lib/gcc/i686-linux-gnu/4.8/../../../i386-linux-gnu/crti.o
 .rel.text.cooja_mt_start
                0x00000000000090f4        0x8 /usr/lib/gcc/i686-linux-gnu/4.8/../../../i386-linux-gnu/crti.o
 .rel.text.cooja_mt_exec
                0x00000000000090fc       0x10 /usr/lib/gcc/i686-linux-gnu/4.8/../../../i386-linux-gnu/crti.o
 .rel.text.cooja_mt_exit
                0x000000000000910c       0x18 /usr/lib/gcc/i686-linux-gnu/4.8/../../../i386-linux-gnu/crti.o
 .rel.text.cooja_mt_yield
                0x0000000000009124       0x18 /usr/lib/gcc/i686-linux-gnu/4.8/../../../i386-linux-gnu/crti.o
 .rel.text.cooja_mtarch_start
                0x000000000000913c        0x8 /usr/lib/gcc/i686-linux-gnu/4.8/../../../i386-linux-gnu/crti.o
 .rel.text.cooja_sw
                0x0000000000009144        0x8 /usr/lib/gcc/i686-linux-gnu/4.8/../../../i386-linux-gnu/crti.o
 .rel.text.cooja_mtarch_exec
                0x000000000000914c       0x18 /usr/lib/gcc/i686-linux-gnu/4.8/../../../i386-linux-gnu/crti.o
 .rel.text.cooja_mtarch_yield
                0x0000000000009164        0x8 /usr/lib/gcc/i686-linux-gnu/4.8/../../../i386-linux-gnu/crti.o
 .rel.text.rtimer_arch_init
                0x000000000000916c       0x18 /usr/lib/gcc/i686-linux-gnu/4.8/../../../i386-linux-gnu/crti.o
 .rel.text.rtimer_arch_schedule
                0x0000000000009184       0x18 /usr/lib/gcc/i686-linux-gnu/4.8/../../../i386-linux-gnu/crti.o
 .rel.text.rtimer_arch_next
                0x000000000000919c       0x10 /usr/lib/gcc/i686-linux-gnu/4.8/../../../i386-linux-gnu/crti.o
 .rel.text.rtimer_arch_pending
                0x00000000000091ac        0x8 /usr/lib/gcc/i686-linux-gnu/4.8/../../../i386-linux-gnu/crti.o
 .rel.text.rtimer_arch_check
                0x00000000000091b4       0x30 /usr/lib/gcc/i686-linux-gnu/4.8/../../../i386-linux-gnu/crti.o
 .rel.text.rtimer_arch_now
                0x00000000000091e4       0x10 /usr/lib/gcc/i686-linux-gnu/4.8/../../../i386-linux-gnu/crti.o
 .rel.text.beep_alarm
                0x00000000000091f4        0x8 /usr/lib/gcc/i686-linux-gnu/4.8/../../../i386-linux-gnu/crti.o
 .rel.text.beep_beep
                0x00000000000091fc        0x8 /usr/lib/gcc/i686-linux-gnu/4.8/../../../i386-linux-gnu/crti.o
 .rel.text.beep
                0x0000000000009204        0x8 /usr/lib/gcc/i686-linux-gnu/4.8/../../../i386-linux-gnu/crti.o
 .rel.text.beep_down
                0x000000000000920c        0x8 /usr/lib/gcc/i686-linux-gnu/4.8/../../../i386-linux-gnu/crti.o
 .rel.text.beep_on
                0x0000000000009214        0x8 /usr/lib/gcc/i686-linux-gnu/4.8/../../../i386-linux-gnu/crti.o
 .rel.text.beep_off
                0x000000000000921c        0x8 /usr/lib/gcc/i686-linux-gnu/4.8/../../../i386-linux-gnu/crti.o
 .rel.text.beep_spinup
                0x0000000000009224        0x8 /usr/lib/gcc/i686-linux-gnu/4.8/../../../i386-linux-gnu/crti.o
 .rel.text.beep_quick
                0x000000000000922c        0x8 /usr/lib/gcc/i686-linux-gnu/4.8/../../../i386-linux-gnu/crti.o
 .rel.text.beep_long
                0x0000000000009234        0x8 /usr/lib/gcc/i686-linux-gnu/4.8/../../../i386-linux-gnu/crti.o
 .rel.text.value
                0x000000000000923c       0x28 /usr/lib/gcc/i686-linux-gnu/4.8/../../../i386-linux-gnu/crti.o
 .rel.text.configure
                0x0000000000009264       0x40 /usr/lib/gcc/i686-linux-gnu/4.8/../../../i386-linux-gnu/crti.o
 .rel.text.status
                0x00000000000092a4       0x18 /usr/lib/gcc/i686-linux-gnu/4.8/../../../i386-linux-gnu/crti.o
 .rel.text.doInterfaceActionsBeforeTick
                0x00000000000092bc      0x188 /usr/lib/gcc/i686-linux-gnu/4.8/../../../i386-linux-gnu/crti.o
 .rel.text.leds_arch_init
                0x0000000000009444        0x8 /usr/lib/gcc/i686-linux-gnu/4.8/../../../i386-linux-gnu/crti.o
 .rel.text.leds_arch_get
                0x000000000000944c        0x8 /usr/lib/gcc/i686-linux-gnu/4.8/../../../i386-linux-gnu/crti.o
 .rel.text.leds_arch_set
                0x0000000000009454       0x10 /usr/lib/gcc/i686-linux-gnu/4.8/../../../i386-linux-gnu/crti.o
 .rel.text.rs232_set_input
                0x0000000000009464        0x8 /usr/lib/gcc/i686-linux-gnu/4.8/../../../i386-linux-gnu/crti.o
 .rel.text.rs232_send
                0x000000000000946c       0x10 /usr/lib/gcc/i686-linux-gnu/4.8/../../../i386-linux-gnu/crti.o
 .rel.text.rs232_print
                0x000000000000947c       0x10 /usr/lib/gcc/i686-linux-gnu/4.8/../../../i386-linux-gnu/crti.o
 .rel.text.slip_arch_writeb
                0x000000000000948c        0x8 /usr/lib/gcc/i686-linux-gnu/4.8/../../../i386-linux-gnu/crti.o
 .rel.text.clock_time
                0x0000000000009494        0x8 /usr/lib/gcc/i686-linux-gnu/4.8/../../../i386-linux-gnu/crti.o
 .rel.text.clock_seconds
                0x000000000000949c        0x8 /usr/lib/gcc/i686-linux-gnu/4.8/../../../i386-linux-gnu/crti.o
 .rel.text.simlog_char
                0x00000000000094a4       0x30 /usr/lib/gcc/i686-linux-gnu/4.8/../../../i386-linux-gnu/crti.o
 .rel.text.simlog
                0x00000000000094d4       0x50 /usr/lib/gcc/i686-linux-gnu/4.8/../../../i386-linux-gnu/crti.o
 .rel.text.log_message
                0x0000000000009524       0x10 /usr/lib/gcc/i686-linux-gnu/4.8/../../../i386-linux-gnu/crti.o
 .rel.text.log_set_putchar_with_slip
                0x0000000000009534        0x8 /usr/lib/gcc/i686-linux-gnu/4.8/../../../i386-linux-gnu/crti.o
 .rel.text.putchar
                0x000000000000953c       0x50 /usr/lib/gcc/i686-linux-gnu/4.8/../../../i386-linux-gnu/crti.o
 .rel.text.puts
                0x000000000000958c       0x10 /usr/lib/gcc/i686-linux-gnu/4.8/../../../i386-linux-gnu/crti.o
 .rel.text.printf
                0x000000000000959c       0x20 /usr/lib/gcc/i686-linux-gnu/4.8/../../../i386-linux-gnu/crti.o
 .rel.text.cfs_open
                0x00000000000095bc       0x48 /usr/lib/gcc/i686-linux-gnu/4.8/../../../i386-linux-gnu/crti.o
 .rel.text.cfs_close
                0x0000000000009604        0x8 /usr/lib/gcc/i686-linux-gnu/4.8/../../../i386-linux-gnu/crti.o
 .rel.text.cfs_read
                0x000000000000960c       0x70 /usr/lib/gcc/i686-linux-gnu/4.8/../../../i386-linux-gnu/crti.o
 .rel.text.cfs_write
                0x000000000000967c       0xb0 /usr/lib/gcc/i686-linux-gnu/4.8/../../../i386-linux-gnu/crti.o
 .rel.text.cfs_seek
                0x000000000000972c       0x68 /usr/lib/gcc/i686-linux-gnu/4.8/../../../i386-linux-gnu/crti.o
 .rel.text.cfs_remove
                0x0000000000009794       0x10 /usr/lib/gcc/i686-linux-gnu/4.8/../../../i386-linux-gnu/crti.o
 .rel.text.packetbuf_set_attr
                0x00000000000097a4       0x30 /usr/lib/gcc/i686-linux-gnu/4.8/../../../i386-linux-gnu/crti.o
 .rel.text.set_send_on_cca
                0x00000000000097d4        0x8 /usr/lib/gcc/i686-linux-gnu/4.8/../../../i386-linux-gnu/crti.o
 .rel.text.set_frame_filtering
                0x00000000000097dc        0x8 /usr/lib/gcc/i686-linux-gnu/4.8/../../../i386-linux-gnu/crti.o
 .rel.text.set_auto_ack
                0x00000000000097e4        0x8 /usr/lib/gcc/i686-linux-gnu/4.8/../../../i386-linux-gnu/crti.o
 .rel.text.set_poll_mode
                0x00000000000097ec        0x8 /usr/lib/gcc/i686-linux-gnu/4.8/../../../i386-linux-gnu/crti.o
 .rel.text.radio_set_channel
                0x00000000000097f4        0x8 /usr/lib/gcc/i686-linux-gnu/4.8/../../../i386-linux-gnu/crti.o
 .rel.text.radio_set_txpower
                0x00000000000097fc        0x8 /usr/lib/gcc/i686-linux-gnu/4.8/../../../i386-linux-gnu/crti.o
 .rel.text.radio_signal_strength_last
                0x0000000000009804        0x8 /usr/lib/gcc/i686-linux-gnu/4.8/../../../i386-linux-gnu/crti.o
 .rel.text.radio_signal_strength_current
                0x000000000000980c        0x8 /usr/lib/gcc/i686-linux-gnu/4.8/../../../i386-linux-gnu/crti.o
 .rel.text.radio_LQI
                0x0000000000009814        0x8 /usr/lib/gcc/i686-linux-gnu/4.8/../../../i386-linux-gnu/crti.o
 .rel.text.radio_on
                0x000000000000981c        0x8 /usr/lib/gcc/i686-linux-gnu/4.8/../../../i386-linux-gnu/crti.o
 .rel.text.radio_off
                0x0000000000009824        0x8 /usr/lib/gcc/i686-linux-gnu/4.8/../../../i386-linux-gnu/crti.o
 .rel.text.radio_read
                0x000000000000982c       0x68 /usr/lib/gcc/i686-linux-gnu/4.8/../../../i386-linux-gnu/crti.o
 .rel.text.channel_clear
                0x0000000000009894        0x8 /usr/lib/gcc/i686-linux-gnu/4.8/../../../i386-linux-gnu/crti.o
 .rel.text.radio_send
                0x000000000000989c       0x78 /usr/lib/gcc/i686-linux-gnu/4.8/../../../i386-linux-gnu/crti.o
 .rel.text.prepare_packet
                0x0000000000009914        0x8 /usr/lib/gcc/i686-linux-gnu/4.8/../../../i386-linux-gnu/crti.o
 .rel.text.transmit_packet
                0x000000000000991c       0x10 /usr/lib/gcc/i686-linux-gnu/4.8/../../../i386-linux-gnu/crti.o
 .rel.text.receiving_packet
                0x000000000000992c        0x8 /usr/lib/gcc/i686-linux-gnu/4.8/../../../i386-linux-gnu/crti.o
 .rel.text.pending_packet
                0x0000000000009934       0x10 /usr/lib/gcc/i686-linux-gnu/4.8/../../../i386-linux-gnu/crti.o
 .rel.text.process_thread_cooja_radio_process
                0x0000000000009944       0x28 /usr/lib/gcc/i686-linux-gnu/4.8/../../../i386-linux-gnu/crti.o
 .rel.text.init
                0x000000000000996c       0x60 /usr/lib/gcc/i686-linux-gnu/4.8/../../../i386-linux-gnu/crti.o
 .rel.text.get_value
                0x00000000000099cc       0x30 /usr/lib/gcc/i686-linux-gnu/4.8/../../../i386-linux-gnu/crti.o
 .rel.text.set_value
                0x00000000000099fc        0x8 /usr/lib/gcc/i686-linux-gnu/4.8/../../../i386-linux-gnu/crti.o
 .rel.text.get_object
                0x0000000000009a04       0x10 /usr/lib/gcc/i686-linux-gnu/4.8/../../../i386-linux-gnu/crti.o
 .rel.text.eeprom_read
                0x0000000000009a14       0x28 /usr/lib/gcc/i686-linux-gnu/4.8/../../../i386-linux-gnu/crti.o
 .rel.text.eeprom_write
                0x0000000000009a3c       0x28 /usr/lib/gcc/i686-linux-gnu/4.8/../../../i386-linux-gnu/crti.o
 .rel.text.random_init
                0x0000000000009a64        0x8 /usr/lib/gcc/i686-linux-gnu/4.8/../../../i386-linux-gnu/crti.o
 .rel.text.random_rand
                0x0000000000009a6c        0x8 /usr/lib/gcc/i686-linux-gnu/4.8/../../../i386-linux-gnu/crti.o
 .rel.text.get_sensor_index
                0x0000000000009a74       0x10 /usr/lib/gcc/i686-linux-gnu/4.8/../../../i386-linux-gnu/crti.o
 .rel.text.sensors_first
                0x0000000000009a84        0x8 /usr/lib/gcc/i686-linux-gnu/4.8/../../../i386-linux-gnu/crti.o
 .rel.text.sensors_next
                0x0000000000009a8c        0x8 /usr/lib/gcc/i686-linux-gnu/4.8/../../../i386-linux-gnu/crti.o
 .rel.text.sensors_changed
                0x0000000000009a94       0x20 /usr/lib/gcc/i686-linux-gnu/4.8/../../../i386-linux-gnu/crti.o
 .rel.text.sensors_find
                0x0000000000009ab4       0x28 /usr/lib/gcc/i686-linux-gnu/4.8/../../../i386-linux-gnu/crti.o
 .rel.text.process_thread_sensors_process
                0x0000000000009adc      0x108 /usr/lib/gcc/i686-linux-gnu/4.8/../../../i386-linux-gnu/crti.o
 .rel.text.autostart_start
                0x0000000000009be4        0x8 /usr/lib/gcc/i686-linux-gnu/4.8/../../../i386-linux-gnu/crti.o
 .rel.text.autostart_exit
                0x0000000000009bec        0x8 /usr/lib/gcc/i686-linux-gnu/4.8/../../../i386-linux-gnu/crti.o
 .rel.text.process_thread_ctimer_process
                0x0000000000009bf4       0x58 /usr/lib/gcc/i686-linux-gnu/4.8/../../../i386-linux-gnu/crti.o
 .rel.text.ctimer_init
                0x0000000000009c4c       0x28 /usr/lib/gcc/i686-linux-gnu/4.8/../../../i386-linux-gnu/crti.o
 .rel.text.ctimer_set
                0x0000000000009c74       0x10 /usr/lib/gcc/i686-linux-gnu/4.8/../../../i386-linux-gnu/crti.o
 .rel.text.ctimer_set_with_process
                0x0000000000009c84       0x40 /usr/lib/gcc/i686-linux-gnu/4.8/../../../i386-linux-gnu/crti.o
 .rel.text.ctimer_reset
                0x0000000000009cc4       0x40 /usr/lib/gcc/i686-linux-gnu/4.8/../../../i386-linux-gnu/crti.o
 .rel.text.ctimer_restart
                0x0000000000009d04       0x40 /usr/lib/gcc/i686-linux-gnu/4.8/../../../i386-linux-gnu/crti.o
 .rel.text.ctimer_stop
                0x0000000000009d44       0x20 /usr/lib/gcc/i686-linux-gnu/4.8/../../../i386-linux-gnu/crti.o
 .rel.text.ctimer_expired
                0x0000000000009d64       0x20 /usr/lib/gcc/i686-linux-gnu/4.8/../../../i386-linux-gnu/crti.o
 .rel.text.update_time
                0x0000000000009d84       0x28 /usr/lib/gcc/i686-linux-gnu/4.8/../../../i386-linux-gnu/crti.o
 .rel.text.process_thread_etimer_process
                0x0000000000009dac       0x60 /usr/lib/gcc/i686-linux-gnu/4.8/../../../i386-linux-gnu/crti.o
 .rel.text.etimer_request_poll
                0x0000000000009e0c       0x10 /usr/lib/gcc/i686-linux-gnu/4.8/../../../i386-linux-gnu/crti.o
 .rel.text.add_timer
                0x0000000000009e1c       0x30 /usr/lib/gcc/i686-linux-gnu/4.8/../../../i386-linux-gnu/crti.o
 .rel.text.etimer_set
                0x0000000000009e4c        0x8 /usr/lib/gcc/i686-linux-gnu/4.8/../../../i386-linux-gnu/crti.o
 .rel.text.etimer_reset_with_new_interval
                0x0000000000009e54        0x8 /usr/lib/gcc/i686-linux-gnu/4.8/../../../i386-linux-gnu/crti.o
 .rel.text.etimer_reset
                0x0000000000009e5c        0x8 /usr/lib/gcc/i686-linux-gnu/4.8/../../../i386-linux-gnu/crti.o
 .rel.text.etimer_restart
                0x0000000000009e64        0x8 /usr/lib/gcc/i686-linux-gnu/4.8/../../../i386-linux-gnu/crti.o
 .rel.text.etimer_pending
                0x0000000000009e6c        0x8 /usr/lib/gcc/i686-linux-gnu/4.8/../../../i386-linux-gnu/crti.o
 .rel.text.etimer_next_expiration_time
                0x0000000000009e74       0x10 /usr/lib/gcc/i686-linux-gnu/4.8/../../../i386-linux-gnu/crti.o
 .rel.text.etimer_stop
                0x0000000000009e84       0x20 /usr/lib/gcc/i686-linux-gnu/4.8/../../../i386-linux-gnu/crti.o
 .rel.text.process_alloc_event
                0x0000000000009ea4       0x10 /usr/lib/gcc/i686-linux-gnu/4.8/../../../i386-linux-gnu/crti.o
 .rel.text.process_start
                0x0000000000009eb4       0x20 /usr/lib/gcc/i686-linux-gnu/4.8/../../../i386-linux-gnu/crti.o
 .rel.text.exit_process
                0x0000000000009ed4       0x50 /usr/lib/gcc/i686-linux-gnu/4.8/../../../i386-linux-gnu/crti.o
 .rel.text.call_process
                0x0000000000009f24        0x8 /usr/lib/gcc/i686-linux-gnu/4.8/../../../i386-linux-gnu/crti.o
 .rel.text.process_exit
                0x0000000000009f2c        0x8 /usr/lib/gcc/i686-linux-gnu/4.8/../../../i386-linux-gnu/crti.o
 .rel.text.process_init
                0x0000000000009f34       0x38 /usr/lib/gcc/i686-linux-gnu/4.8/../../../i386-linux-gnu/crti.o
 .rel.text.do_poll
                0x0000000000009f6c       0x10 /usr/lib/gcc/i686-linux-gnu/4.8/../../../i386-linux-gnu/crti.o
 .rel.text.do_event
                0x0000000000009f7c       0x68 /usr/lib/gcc/i686-linux-gnu/4.8/../../../i386-linux-gnu/crti.o
 .rel.text.process_run
                0x0000000000009fe4       0x18 /usr/lib/gcc/i686-linux-gnu/4.8/../../../i386-linux-gnu/crti.o
 .rel.text.process_nevents
                0x0000000000009ffc       0x10 /usr/lib/gcc/i686-linux-gnu/4.8/../../../i386-linux-gnu/crti.o
 .rel.text.process_post
                0x000000000000a00c       0x40 /usr/lib/gcc/i686-linux-gnu/4.8/../../../i386-linux-gnu/crti.o
 .rel.text.process_post_synch
                0x000000000000a04c       0x10 /usr/lib/gcc/i686-linux-gnu/4.8/../../../i386-linux-gnu/crti.o
 .rel.text.process_poll
                0x000000000000a05c        0x8 /usr/lib/gcc/i686-linux-gnu/4.8/../../../i386-linux-gnu/crti.o
 .rel.text.rtimer_init
                0x000000000000a064        0x8 /usr/lib/gcc/i686-linux-gnu/4.8/../../../i386-linux-gnu/crti.o
 .rel.text.rtimer_set
                0x000000000000a06c       0x18 /usr/lib/gcc/i686-linux-gnu/4.8/../../../i386-linux-gnu/crti.o
 .rel.text.rtimer_run_next
                0x000000000000a084       0x30 /usr/lib/gcc/i686-linux-gnu/4.8/../../../i386-linux-gnu/crti.o
 .rel.text.timer_set
                0x000000000000a0b4        0x8 /usr/lib/gcc/i686-linux-gnu/4.8/../../../i386-linux-gnu/crti.o
 .rel.text.timer_restart
                0x000000000000a0bc        0x8 /usr/lib/gcc/i686-linux-gnu/4.8/../../../i386-linux-gnu/crti.o
 .rel.text.timer_expired
                0x000000000000a0c4        0x8 /usr/lib/gcc/i686-linux-gnu/4.8/../../../i386-linux-gnu/crti.o
 .rel.text.timer_remaining
                0x000000000000a0cc        0x8 /usr/lib/gcc/i686-linux-gnu/4.8/../../../i386-linux-gnu/crti.o
 .rel.text.serial_line_input_byte
                0x000000000000a0d4       0x48 /usr/lib/gcc/i686-linux-gnu/4.8/../../../i386-linux-gnu/crti.o
 .rel.text.process_thread_serial_line_process
                0x000000000000a11c       0x90 /usr/lib/gcc/i686-linux-gnu/4.8/../../../i386-linux-gnu/crti.o
 .rel.text.serial_line_init
                0x000000000000a1ac       0x28 /usr/lib/gcc/i686-linux-gnu/4.8/../../../i386-linux-gnu/crti.o
 .rel.text._xassert
                0x000000000000a1d4       0x10 /usr/lib/gcc/i686-linux-gnu/4.8/../../../i386-linux-gnu/crti.o
 .rel.text.list_add
                0x000000000000a1e4       0x10 /usr/lib/gcc/i686-linux-gnu/4.8/../../../i386-linux-gnu/crti.o
 .rel.text.list_push
                0x000000000000a1f4        0x8 /usr/lib/gcc/i686-linux-gnu/4.8/../../../i386-linux-gnu/crti.o
 .rel.text.list_insert
                0x000000000000a1fc        0x8 /usr/lib/gcc/i686-linux-gnu/4.8/../../../i386-linux-gnu/crti.o
 .rel.text.memb_init
                0x000000000000a204       0x10 /usr/lib/gcc/i686-linux-gnu/4.8/../../../i386-linux-gnu/crti.o
 .rel.text.packetbuf_attr
                0x000000000000a214       0x28 /usr/lib/gcc/i686-linux-gnu/4.8/../../../i386-linux-gnu/crti.o
 .rel.text.packetbuf_set_addr
                0x000000000000a23c       0x30 /usr/lib/gcc/i686-linux-gnu/4.8/../../../i386-linux-gnu/crti.o
 .rel.text.packetbuf_addr
                0x000000000000a26c       0x40 /usr/lib/gcc/i686-linux-gnu/4.8/../../../i386-linux-gnu/crti.o
 .rel.text.clear_fragments
                0x000000000000a2ac       0x20 /usr/lib/gcc/i686-linux-gnu/4.8/../../../i386-linux-gnu/crti.o
 .rel.text.timeout_fragments
                0x000000000000a2cc       0x18 /usr/lib/gcc/i686-linux-gnu/4.8/../../../i386-linux-gnu/crti.o
 .rel.text.store_fragment
                0x000000000000a2e4       0x68 /usr/lib/gcc/i686-linux-gnu/4.8/../../../i386-linux-gnu/crti.o
 .rel.text.add_fragment
                0x000000000000a34c       0x80 /usr/lib/gcc/i686-linux-gnu/4.8/../../../i386-linux-gnu/crti.o
 .rel.text.copy_frags2uip
                0x000000000000a3cc       0x58 /usr/lib/gcc/i686-linux-gnu/4.8/../../../i386-linux-gnu/crti.o
 .rel.text.rime_sniffer_add
                0x000000000000a424        0x8 /usr/lib/gcc/i686-linux-gnu/4.8/../../../i386-linux-gnu/crti.o
 .rel.text.rime_sniffer_remove
                0x000000000000a42c        0x8 /usr/lib/gcc/i686-linux-gnu/4.8/../../../i386-linux-gnu/crti.o
 .rel.text.set_packet_attrs
                0x000000000000a434       0x60 /usr/lib/gcc/i686-linux-gnu/4.8/../../../i386-linux-gnu/crti.o
 .rel.text.addr_context_lookup_by_prefix
                0x000000000000a494       0x20 /usr/lib/gcc/i686-linux-gnu/4.8/../../../i386-linux-gnu/crti.o
 .rel.text.addr_context_lookup_by_number
                0x000000000000a4b4       0x18 /usr/lib/gcc/i686-linux-gnu/4.8/../../../i386-linux-gnu/crti.o
 .rel.text.compress_addr_64
                0x000000000000a4cc       0x40 /usr/lib/gcc/i686-linux-gnu/4.8/../../../i386-linux-gnu/crti.o
 .rel.text.uncompress_addr
                0x000000000000a50c       0x38 /usr/lib/gcc/i686-linux-gnu/4.8/../../../i386-linux-gnu/crti.o
 .rel.text.compress_hdr_iphc
                0x000000000000a544      0x5f8 /usr/lib/gcc/i686-linux-gnu/4.8/../../../i386-linux-gnu/crti.o
 .rel.text.uncompress_hdr_iphc
                0x000000000000ab3c      0x2f0 /usr/lib/gcc/i686-linux-gnu/4.8/../../../i386-linux-gnu/crti.o
 .rel.text.compress_hdr_ipv6
                0x000000000000ae2c       0x58 /usr/lib/gcc/i686-linux-gnu/4.8/../../../i386-linux-gnu/crti.o
 .rel.text.packet_sent
                0x000000000000ae84       0x38 /usr/lib/gcc/i686-linux-gnu/4.8/../../../i386-linux-gnu/crti.o
 .rel.text.send_packet
                0x000000000000aebc      0x120 /usr/lib/gcc/i686-linux-gnu/4.8/../../../i386-linux-gnu/crti.o
 .rel.text.output
                0x000000000000afdc      0x2c8 /usr/lib/gcc/i686-linux-gnu/4.8/../../../i386-linux-gnu/crti.o
 .rel.text.input
                0x000000000000b2a4      0x200 /usr/lib/gcc/i686-linux-gnu/4.8/../../../i386-linux-gnu/crti.o
 .rel.text.sicslowpan_init
                0x000000000000b4a4       0x38 /usr/lib/gcc/i686-linux-gnu/4.8/../../../i386-linux-gnu/crti.o
 .rel.text.sicslowpan_get_last_rssi
                0x000000000000b4dc        0x8 /usr/lib/gcc/i686-linux-gnu/4.8/../../../i386-linux-gnu/crti.o
 .rel.text.uip_ds6_neighbors_init
                0x000000000000b4e4       0x20 /usr/lib/gcc/i686-linux-gnu/4.8/../../../i386-linux-gnu/crti.o
 .rel.text.uip_ds6_nbr_add
                0x000000000000b504       0x38 /usr/lib/gcc/i686-linux-gnu/4.8/../../../i386-linux-gnu/crti.o
 .rel.text.uip_ds6_nbr_rm
                0x000000000000b53c       0x20 /usr/lib/gcc/i686-linux-gnu/4.8/../../../i386-linux-gnu/crti.o
 .rel.text.uip_ds6_nbr_get_ll
                0x000000000000b55c       0x10 /usr/lib/gcc/i686-linux-gnu/4.8/../../../i386-linux-gnu/crti.o
 .rel.text.uip_ds6_nbr_num
                0x000000000000b56c       0x20 /usr/lib/gcc/i686-linux-gnu/4.8/../../../i386-linux-gnu/crti.o
 .rel.text.uip_ds6_nbr_lookup
                0x000000000000b58c       0x28 /usr/lib/gcc/i686-linux-gnu/4.8/../../../i386-linux-gnu/crti.o
 .rel.text.uip_ds6_nbr_ll_lookup
                0x000000000000b5b4       0x10 /usr/lib/gcc/i686-linux-gnu/4.8/../../../i386-linux-gnu/crti.o
 .rel.text.uip_ds6_nbr_ipaddr_from_lladdr
                0x000000000000b5c4        0x8 /usr/lib/gcc/i686-linux-gnu/4.8/../../../i386-linux-gnu/crti.o
 .rel.text.uip_ds6_nbr_lladdr_from_ipaddr
                0x000000000000b5cc       0x10 /usr/lib/gcc/i686-linux-gnu/4.8/../../../i386-linux-gnu/crti.o
 .rel.text.uip_ds6_link_neighbor_callback
                0x000000000000b5dc       0x20 /usr/lib/gcc/i686-linux-gnu/4.8/../../../i386-linux-gnu/crti.o
 .rel.text.uip_ds6_neighbor_periodic
                0x000000000000b5fc       0xb8 /usr/lib/gcc/i686-linux-gnu/4.8/../../../i386-linux-gnu/crti.o
 .rel.text.uip_ds6_nbr_refresh_reachable_state
                0x000000000000b6b4       0x10 /usr/lib/gcc/i686-linux-gnu/4.8/../../../i386-linux-gnu/crti.o
 .rel.text.uip_ds6_get_least_lifetime_neighbor
                0x000000000000b6c4       0x30 /usr/lib/gcc/i686-linux-gnu/4.8/../../../i386-linux-gnu/crti.o
 .rel.text.call_route_callback
                0x000000000000b6f4       0x30 /usr/lib/gcc/i686-linux-gnu/4.8/../../../i386-linux-gnu/crti.o
 .rel.text.uip_ds6_notification_add
                0x000000000000b724       0x10 /usr/lib/gcc/i686-linux-gnu/4.8/../../../i386-linux-gnu/crti.o
 .rel.text.uip_ds6_notification_rm
                0x000000000000b734       0x10 /usr/lib/gcc/i686-linux-gnu/4.8/../../../i386-linux-gnu/crti.o
 .rel.text.uip_ds6_route_init
                0x000000000000b744       0x68 /usr/lib/gcc/i686-linux-gnu/4.8/../../../i386-linux-gnu/crti.o
 .rel.text.uip_ds6_route_nexthop_lladdr
                0x000000000000b7ac       0x10 /usr/lib/gcc/i686-linux-gnu/4.8/../../../i386-linux-gnu/crti.o
 .rel.text.uip_ds6_route_nexthop
                0x000000000000b7bc        0x8 /usr/lib/gcc/i686-linux-gnu/4.8/../../../i386-linux-gnu/crti.o
 .rel.text.uip_ds6_route_head
                0x000000000000b7c4       0x10 /usr/lib/gcc/i686-linux-gnu/4.8/../../../i386-linux-gnu/crti.o
 .rel.text.uip_ds6_route_next
                0x000000000000b7d4        0x8 /usr/lib/gcc/i686-linux-gnu/4.8/../../../i386-linux-gnu/crti.o
 .rel.text.uip_ds6_route_is_nexthop
                0x000000000000b7dc       0x18 /usr/lib/gcc/i686-linux-gnu/4.8/../../../i386-linux-gnu/crti.o
 .rel.text.uip_ds6_route_num_routes
                0x000000000000b7f4        0x8 /usr/lib/gcc/i686-linux-gnu/4.8/../../../i386-linux-gnu/crti.o
 .rel.text.uip_ds6_route_lookup
                0x000000000000b7fc       0x48 /usr/lib/gcc/i686-linux-gnu/4.8/../../../i386-linux-gnu/crti.o
 .rel.text.uip_ds6_route_add
                0x000000000000b844       0xd0 /usr/lib/gcc/i686-linux-gnu/4.8/../../../i386-linux-gnu/crti.o
 .rel.text.uip_ds6_route_rm
                0x000000000000b914       0x80 /usr/lib/gcc/i686-linux-gnu/4.8/../../../i386-linux-gnu/crti.o
 .rel.text.rm_routelist
                0x000000000000b994       0x28 /usr/lib/gcc/i686-linux-gnu/4.8/../../../i386-linux-gnu/crti.o
 .rel.text.uip_ds6_route_rm_by_nexthop
                0x000000000000b9bc       0x18 /usr/lib/gcc/i686-linux-gnu/4.8/../../../i386-linux-gnu/crti.o
 .rel.text.uip_ds6_defrt_head
                0x000000000000b9d4       0x10 /usr/lib/gcc/i686-linux-gnu/4.8/../../../i386-linux-gnu/crti.o
 .rel.text.uip_ds6_defrt_add
                0x000000000000b9e4       0x30 /usr/lib/gcc/i686-linux-gnu/4.8/../../../i386-linux-gnu/crti.o
 .rel.text.uip_ds6_defrt_rm
                0x000000000000ba14       0x38 /usr/lib/gcc/i686-linux-gnu/4.8/../../../i386-linux-gnu/crti.o
 .rel.text.uip_ds6_defrt_lookup
                0x000000000000ba4c       0x20 /usr/lib/gcc/i686-linux-gnu/4.8/../../../i386-linux-gnu/crti.o
 .rel.text.uip_ds6_defrt_choose
                0x000000000000ba6c       0x20 /usr/lib/gcc/i686-linux-gnu/4.8/../../../i386-linux-gnu/crti.o
 .rel.text.uip_ds6_defrt_periodic
                0x000000000000ba8c       0x38 /usr/lib/gcc/i686-linux-gnu/4.8/../../../i386-linux-gnu/crti.o
 .rel.text.uip_ds6_init
                0x000000000000bac4      0x180 /usr/lib/gcc/i686-linux-gnu/4.8/../../../i386-linux-gnu/crti.o
 .rel.text.uip_ds6_periodic
                0x000000000000bc44       0x80 /usr/lib/gcc/i686-linux-gnu/4.8/../../../i386-linux-gnu/crti.o
 .rel.text.uip_ds6_list_loop
                0x000000000000bcc4        0x8 /usr/lib/gcc/i686-linux-gnu/4.8/../../../i386-linux-gnu/crti.o
 .rel.text.uip_ds6_prefix_add
                0x000000000000bccc       0x58 /usr/lib/gcc/i686-linux-gnu/4.8/../../../i386-linux-gnu/crti.o
 .rel.text.uip_ds6_prefix_lookup
                0x000000000000bd24       0x20 /usr/lib/gcc/i686-linux-gnu/4.8/../../../i386-linux-gnu/crti.o
 .rel.text.uip_ds6_is_addr_onlink
                0x000000000000bd44       0x50 /usr/lib/gcc/i686-linux-gnu/4.8/../../../i386-linux-gnu/crti.o
 .rel.text.uip_ds6_addr_add
                0x000000000000bd94       0xc8 /usr/lib/gcc/i686-linux-gnu/4.8/../../../i386-linux-gnu/crti.o
 .rel.text.uip_ds6_addr_rm
                0x000000000000be5c       0x88 /usr/lib/gcc/i686-linux-gnu/4.8/../../../i386-linux-gnu/crti.o
 .rel.text.uip_ds6_addr_lookup
                0x000000000000bee4       0x20 /usr/lib/gcc/i686-linux-gnu/4.8/../../../i386-linux-gnu/crti.o
 .rel.text.uip_ds6_get_link_local
                0x000000000000bf04       0x58 /usr/lib/gcc/i686-linux-gnu/4.8/../../../i386-linux-gnu/crti.o
 .rel.text.uip_ds6_get_global
                0x000000000000bf5c       0x58 /usr/lib/gcc/i686-linux-gnu/4.8/../../../i386-linux-gnu/crti.o
 .rel.text.uip_ds6_maddr_add
                0x000000000000bfb4       0x30 /usr/lib/gcc/i686-linux-gnu/4.8/../../../i386-linux-gnu/crti.o
 .rel.text.uip_ds6_maddr_lookup
                0x000000000000bfe4       0x20 /usr/lib/gcc/i686-linux-gnu/4.8/../../../i386-linux-gnu/crti.o
 .rel.text.uip_ds6_aaddr_add
                0x000000000000c004       0x30 /usr/lib/gcc/i686-linux-gnu/4.8/../../../i386-linux-gnu/crti.o
 .rel.text.uip_ds6_aaddr_lookup
                0x000000000000c034       0x20 /usr/lib/gcc/i686-linux-gnu/4.8/../../../i386-linux-gnu/crti.o
 .rel.text.uip_ds6_select_src
                0x000000000000c054       0x70 /usr/lib/gcc/i686-linux-gnu/4.8/../../../i386-linux-gnu/crti.o
 .rel.text.uip_ds6_set_addr_iid
                0x000000000000c0c4        0x8 /usr/lib/gcc/i686-linux-gnu/4.8/../../../i386-linux-gnu/crti.o
 .rel.text.uip_ds6_compute_reachable_time
                0x000000000000c0cc       0x30 /usr/lib/gcc/i686-linux-gnu/4.8/../../../i386-linux-gnu/crti.o
 .rel.text.extract_lladdr_from_llao_aligned
                0x000000000000c0fc       0x18 /usr/lib/gcc/i686-linux-gnu/4.8/../../../i386-linux-gnu/crti.o
 .rel.text.create_llao
                0x000000000000c114       0x18 /usr/lib/gcc/i686-linux-gnu/4.8/../../../i386-linux-gnu/crti.o
 .rel.text.ns_input
                0x000000000000c12c      0x388 /usr/lib/gcc/i686-linux-gnu/4.8/../../../i386-linux-gnu/crti.o
 .rel.text.uip_nd6_ns_output
                0x000000000000c4b4      0x1e8 /usr/lib/gcc/i686-linux-gnu/4.8/../../../i386-linux-gnu/crti.o
 .rel.text.na_input
                0x000000000000c69c      0x280 /usr/lib/gcc/i686-linux-gnu/4.8/../../../i386-linux-gnu/crti.o
 .rel.text.uip_nd6_init
                0x000000000000c91c       0x20 /usr/lib/gcc/i686-linux-gnu/4.8/../../../i386-linux-gnu/crti.o
 .rel.text.uip_add32
                0x000000000000c93c       0x98 /usr/lib/gcc/i686-linux-gnu/4.8/../../../i386-linux-gnu/crti.o
 .rel.text.uip_chksum
                0x000000000000c9d4        0x8 /usr/lib/gcc/i686-linux-gnu/4.8/../../../i386-linux-gnu/crti.o
 .rel.text.upper_layer_chksum
                0x000000000000c9dc       0x38 /usr/lib/gcc/i686-linux-gnu/4.8/../../../i386-linux-gnu/crti.o
 .rel.text.uip_init
                0x000000000000ca14       0x38 /usr/lib/gcc/i686-linux-gnu/4.8/../../../i386-linux-gnu/crti.o
 .rel.text.uip_connect
                0x000000000000ca4c       0x70 /usr/lib/gcc/i686-linux-gnu/4.8/../../../i386-linux-gnu/crti.o
 .rel.text.remove_ext_hdr
                0x000000000000cabc       0x98 /usr/lib/gcc/i686-linux-gnu/4.8/../../../i386-linux-gnu/crti.o
 .rel.text.uip_udp_new
                0x000000000000cb54       0x68 /usr/lib/gcc/i686-linux-gnu/4.8/../../../i386-linux-gnu/crti.o
 .rel.text.uip_unlisten
                0x000000000000cbbc       0x10 /usr/lib/gcc/i686-linux-gnu/4.8/../../../i386-linux-gnu/crti.o
 .rel.text.uip_listen
                0x000000000000cbcc       0x10 /usr/lib/gcc/i686-linux-gnu/4.8/../../../i386-linux-gnu/crti.o
 .rel.text.uip_add_rcv_nxt
                0x000000000000cbdc       0x50 /usr/lib/gcc/i686-linux-gnu/4.8/../../../i386-linux-gnu/crti.o
 .rel.text.ext_hdr_options_process
                0x000000000000cc2c      0x108 /usr/lib/gcc/i686-linux-gnu/4.8/../../../i386-linux-gnu/crti.o
 .rel.text.uip_process
                0x000000000000cd34      0xf70 /usr/lib/gcc/i686-linux-gnu/4.8/../../../i386-linux-gnu/crti.o
 .rel.text.uip_send
                0x000000000000dca4       0x60 /usr/lib/gcc/i686-linux-gnu/4.8/../../../i386-linux-gnu/crti.o
 .rel.text.dns_name_isequal
                0x000000000000dd04       0x10 /usr/lib/gcc/i686-linux-gnu/4.8/../../../i386-linux-gnu/crti.o
 .rel.text.mdns_announce_requested
                0x000000000000dd14        0x8 /usr/lib/gcc/i686-linux-gnu/4.8/../../../i386-linux-gnu/crti.o
 .rel.text.start_name_collision_check
                0x000000000000dd1c       0x20 /usr/lib/gcc/i686-linux-gnu/4.8/../../../i386-linux-gnu/crti.o
 .rel.text.mdns_write_announce_records
                0x000000000000dd3c       0x28 /usr/lib/gcc/i686-linux-gnu/4.8/../../../i386-linux-gnu/crti.o
 .rel.text.mdns_prep_host_announce_packet
                0x000000000000dd64       0x50 /usr/lib/gcc/i686-linux-gnu/4.8/../../../i386-linux-gnu/crti.o
 .rel.text.try_next_server
                0x000000000000ddb4        0x8 /usr/lib/gcc/i686-linux-gnu/4.8/../../../i386-linux-gnu/crti.o
 .rel.text.check_entries
                0x000000000000ddbc       0xc0 /usr/lib/gcc/i686-linux-gnu/4.8/../../../i386-linux-gnu/crti.o
 .rel.text.newdata
                0x000000000000de7c      0x180 /usr/lib/gcc/i686-linux-gnu/4.8/../../../i386-linux-gnu/crti.o
 .rel.text.resolv_set_hostname
                0x000000000000dffc       0x88 /usr/lib/gcc/i686-linux-gnu/4.8/../../../i386-linux-gnu/crti.o
 .rel.text.resolv_get_hostname
                0x000000000000e084        0x8 /usr/lib/gcc/i686-linux-gnu/4.8/../../../i386-linux-gnu/crti.o
 .rel.text.process_thread_mdns_probe_process
                0x000000000000e08c       0x98 /usr/lib/gcc/i686-linux-gnu/4.8/../../../i386-linux-gnu/crti.o
 .rel.text.process_thread_resolv_process
                0x000000000000e124      0x130 /usr/lib/gcc/i686-linux-gnu/4.8/../../../i386-linux-gnu/crti.o
 .rel.text.remove_trailing_dots
                0x000000000000e254       0x30 /usr/lib/gcc/i686-linux-gnu/4.8/../../../i386-linux-gnu/crti.o
 .rel.text.resolv_query
                0x000000000000e284       0xb8 /usr/lib/gcc/i686-linux-gnu/4.8/../../../i386-linux-gnu/crti.o
 .rel.text.resolv_lookup
                0x000000000000e33c       0x20 /usr/lib/gcc/i686-linux-gnu/4.8/../../../i386-linux-gnu/crti.o
 .rel.text.resolv_found
                0x000000000000e35c       0xd8 /usr/lib/gcc/i686-linux-gnu/4.8/../../../i386-linux-gnu/crti.o
 .rel.text.tcpip_output
                0x000000000000e434       0x10 /usr/lib/gcc/i686-linux-gnu/4.8/../../../i386-linux-gnu/crti.o
 .rel.text.tcpip_set_outputfunc
                0x000000000000e444        0x8 /usr/lib/gcc/i686-linux-gnu/4.8/../../../i386-linux-gnu/crti.o
 .rel.text.start_periodic_tcp_timer
                0x000000000000e44c       0x20 /usr/lib/gcc/i686-linux-gnu/4.8/../../../i386-linux-gnu/crti.o
 .rel.text.check_for_tcp_syn
                0x000000000000e46c       0x10 /usr/lib/gcc/i686-linux-gnu/4.8/../../../i386-linux-gnu/crti.o
 .rel.text.packet_input
                0x000000000000e47c       0x98 /usr/lib/gcc/i686-linux-gnu/4.8/../../../i386-linux-gnu/crti.o
 .rel.text.tcp_connect
                0x000000000000e514       0x18 /usr/lib/gcc/i686-linux-gnu/4.8/../../../i386-linux-gnu/crti.o
 .rel.text.tcp_unlisten
                0x000000000000e52c       0x18 /usr/lib/gcc/i686-linux-gnu/4.8/../../../i386-linux-gnu/crti.o
 .rel.text.tcp_listen
                0x000000000000e544       0x18 /usr/lib/gcc/i686-linux-gnu/4.8/../../../i386-linux-gnu/crti.o
 .rel.text.tcp_attach
                0x000000000000e55c        0x8 /usr/lib/gcc/i686-linux-gnu/4.8/../../../i386-linux-gnu/crti.o
 .rel.text.udp_attach
                0x000000000000e564        0x8 /usr/lib/gcc/i686-linux-gnu/4.8/../../../i386-linux-gnu/crti.o
 .rel.text.udp_new
                0x000000000000e56c       0x10 /usr/lib/gcc/i686-linux-gnu/4.8/../../../i386-linux-gnu/crti.o
 .rel.text.udp_broadcast_new
                0x000000000000e57c       0x10 /usr/lib/gcc/i686-linux-gnu/4.8/../../../i386-linux-gnu/crti.o
 .rel.text.eventhandler
                0x000000000000e58c       0xd8 /usr/lib/gcc/i686-linux-gnu/4.8/../../../i386-linux-gnu/crti.o
 .rel.text.tcpip_input
                0x000000000000e664       0x20 /usr/lib/gcc/i686-linux-gnu/4.8/../../../i386-linux-gnu/crti.o
 .rel.text.tcpip_ipv6_output
                0x000000000000e684      0x290 /usr/lib/gcc/i686-linux-gnu/4.8/../../../i386-linux-gnu/crti.o
 .rel.text.tcpip_poll_udp
                0x000000000000e914       0x10 /usr/lib/gcc/i686-linux-gnu/4.8/../../../i386-linux-gnu/crti.o
 .rel.text.tcpip_poll_tcp
                0x000000000000e924       0x10 /usr/lib/gcc/i686-linux-gnu/4.8/../../../i386-linux-gnu/crti.o
 .rel.text.tcpip_uipcall
                0x000000000000e934       0x40 /usr/lib/gcc/i686-linux-gnu/4.8/../../../i386-linux-gnu/crti.o
 .rel.text.process_thread_tcpip_process
                0x000000000000e974       0x48 /usr/lib/gcc/i686-linux-gnu/4.8/../../../i386-linux-gnu/crti.o
 .rel.text.uip_debug_ipaddr_print
                0x000000000000e9bc       0x50 /usr/lib/gcc/i686-linux-gnu/4.8/../../../i386-linux-gnu/crti.o
 .rel.text.uip_nameserver_update
                0x000000000000ea0c       0x28 /usr/lib/gcc/i686-linux-gnu/4.8/../../../i386-linux-gnu/crti.o
 .rel.text.uip_nameserver_get
                0x000000000000ea34        0x8 /usr/lib/gcc/i686-linux-gnu/4.8/../../../i386-linux-gnu/crti.o
 .rel.text.uip_nameserver_next_expiration
                0x000000000000ea3c        0x8 /usr/lib/gcc/i686-linux-gnu/4.8/../../../i386-linux-gnu/crti.o
 .rel.text.uip_nameserver_count
                0x000000000000ea44       0x40 /usr/lib/gcc/i686-linux-gnu/4.8/../../../i386-linux-gnu/crti.o
 .rel.text.packet_timedout
                0x000000000000ea84       0x10 /usr/lib/gcc/i686-linux-gnu/4.8/../../../i386-linux-gnu/crti.o
 .rel.text.uip_packetqueue_alloc
                0x000000000000ea94       0x20 /usr/lib/gcc/i686-linux-gnu/4.8/../../../i386-linux-gnu/crti.o
 .rel.text.uip_packetqueue_free
                0x000000000000eab4       0x18 /usr/lib/gcc/i686-linux-gnu/4.8/../../../i386-linux-gnu/crti.o
 .rel.text.uip_udp_packet_send
                0x000000000000eacc       0x38 /usr/lib/gcc/i686-linux-gnu/4.8/../../../i386-linux-gnu/crti.o
 .rel.text.uip_udp_packet_sendto
                0x000000000000eb04       0x10 /usr/lib/gcc/i686-linux-gnu/4.8/../../../i386-linux-gnu/crti.o
 .rel.text.uiplib_ip6addrconv
                0x000000000000eb14       0x10 /usr/lib/gcc/i686-linux-gnu/4.8/../../../i386-linux-gnu/crti.o
 .rel.text.rpl_print_neighbor_list
                0x000000000000eb24       0xc8 /usr/lib/gcc/i686-linux-gnu/4.8/../../../i386-linux-gnu/crti.o
 .rel.text.rpl_get_nbr
                0x000000000000ebec       0x18 /usr/lib/gcc/i686-linux-gnu/4.8/../../../i386-linux-gnu/crti.o
 .rel.text.nbr_callback
                0x000000000000ec04        0x8 /usr/lib/gcc/i686-linux-gnu/4.8/../../../i386-linux-gnu/crti.o
 .rel.text.rpl_dag_init
                0x000000000000ec0c       0x18 /usr/lib/gcc/i686-linux-gnu/4.8/../../../i386-linux-gnu/crti.o
 .rel.text.rpl_get_parent
                0x000000000000ec24       0x10 /usr/lib/gcc/i686-linux-gnu/4.8/../../../i386-linux-gnu/crti.o
 .rel.text.rpl_get_parent_rank
                0x000000000000ec34       0x10 /usr/lib/gcc/i686-linux-gnu/4.8/../../../i386-linux-gnu/crti.o
 .rel.text.rpl_get_parent_lladdr
                0x000000000000ec44       0x10 /usr/lib/gcc/i686-linux-gnu/4.8/../../../i386-linux-gnu/crti.o
 .rel.text.rpl_get_parent_ipaddr
                0x000000000000ec54       0x10 /usr/lib/gcc/i686-linux-gnu/4.8/../../../i386-linux-gnu/crti.o
 .rel.text.rpl_get_parent_link_stats
                0x000000000000ec64       0x10 /usr/lib/gcc/i686-linux-gnu/4.8/../../../i386-linux-gnu/crti.o
 .rel.text.rpl_parent_is_fresh
                0x000000000000ec74       0x10 /usr/lib/gcc/i686-linux-gnu/4.8/../../../i386-linux-gnu/crti.o
 .rel.text.rpl_parent_is_reachable
                0x000000000000ec84       0x10 /usr/lib/gcc/i686-linux-gnu/4.8/../../../i386-linux-gnu/crti.o
 .rel.text.rpl_set_preferred_parent
                0x000000000000ec94       0x20 /usr/lib/gcc/i686-linux-gnu/4.8/../../../i386-linux-gnu/crti.o
 .rel.text.remove_parents
                0x000000000000ecb4       0x28 /usr/lib/gcc/i686-linux-gnu/4.8/../../../i386-linux-gnu/crti.o
 .rel.text.nullify_parents
                0x000000000000ecdc       0x28 /usr/lib/gcc/i686-linux-gnu/4.8/../../../i386-linux-gnu/crti.o
 .rel.text.get_dag
                0x000000000000ed04       0x10 /usr/lib/gcc/i686-linux-gnu/4.8/../../../i386-linux-gnu/crti.o
 .rel.text.rpl_set_root
                0x000000000000ed14       0x48 /usr/lib/gcc/i686-linux-gnu/4.8/../../../i386-linux-gnu/crti.o
 .rel.text.rpl_repair_root
                0x000000000000ed5c       0x10 /usr/lib/gcc/i686-linux-gnu/4.8/../../../i386-linux-gnu/crti.o
 .rel.text.set_ip_from_prefix
                0x000000000000ed6c       0x20 /usr/lib/gcc/i686-linux-gnu/4.8/../../../i386-linux-gnu/crti.o
 .rel.text.check_prefix
                0x000000000000ed8c       0x30 /usr/lib/gcc/i686-linux-gnu/4.8/../../../i386-linux-gnu/crti.o
 .rel.text.rpl_set_prefix
                0x000000000000edbc       0x20 /usr/lib/gcc/i686-linux-gnu/4.8/../../../i386-linux-gnu/crti.o
 .rel.text.rpl_set_default_route
                0x000000000000eddc       0x10 /usr/lib/gcc/i686-linux-gnu/4.8/../../../i386-linux-gnu/crti.o
 .rel.text.rpl_alloc_instance
                0x000000000000edec       0x18 /usr/lib/gcc/i686-linux-gnu/4.8/../../../i386-linux-gnu/crti.o
 .rel.text.rpl_alloc_dag
                0x000000000000ee04       0x18 /usr/lib/gcc/i686-linux-gnu/4.8/../../../i386-linux-gnu/crti.o
 .rel.text.rpl_set_default_instance
                0x000000000000ee1c        0x8 /usr/lib/gcc/i686-linux-gnu/4.8/../../../i386-linux-gnu/crti.o
 .rel.text.rpl_get_default_instance
                0x000000000000ee24        0x8 /usr/lib/gcc/i686-linux-gnu/4.8/../../../i386-linux-gnu/crti.o
 .rel.text.rpl_free_instance
                0x000000000000ee2c       0x40 /usr/lib/gcc/i686-linux-gnu/4.8/../../../i386-linux-gnu/crti.o
 .rel.text.rpl_free_dag
                0x000000000000ee6c        0x8 /usr/lib/gcc/i686-linux-gnu/4.8/../../../i386-linux-gnu/crti.o
 .rel.text.rpl_add_parent
                0x000000000000ee74       0x18 /usr/lib/gcc/i686-linux-gnu/4.8/../../../i386-linux-gnu/crti.o
 .rel.text.find_parent_any_dag_any_instance
                0x000000000000ee8c       0x20 /usr/lib/gcc/i686-linux-gnu/4.8/../../../i386-linux-gnu/crti.o
 .rel.text.rpl_select_dag
                0x000000000000eeac       0x48 /usr/lib/gcc/i686-linux-gnu/4.8/../../../i386-linux-gnu/crti.o
 .rel.text.best_parent
                0x000000000000eef4       0x30 /usr/lib/gcc/i686-linux-gnu/4.8/../../../i386-linux-gnu/crti.o
 .rel.text.rpl_select_parent
                0x000000000000ef24       0x18 /usr/lib/gcc/i686-linux-gnu/4.8/../../../i386-linux-gnu/crti.o
 .rel.text.rpl_remove_parent
                0x000000000000ef3c       0x18 /usr/lib/gcc/i686-linux-gnu/4.8/../../../i386-linux-gnu/crti.o
 .rel.text.rpl_nullify_parent
                0x000000000000ef54       0x10 /usr/lib/gcc/i686-linux-gnu/4.8/../../../i386-linux-gnu/crti.o
 .rel.text.rpl_move_parent
                0x000000000000ef64       0x18 /usr/lib/gcc/i686-linux-gnu/4.8/../../../i386-linux-gnu/crti.o
 .rel.text.rpl_has_downward_route
                0x000000000000ef7c       0x10 /usr/lib/gcc/i686-linux-gnu/4.8/../../../i386-linux-gnu/crti.o
 .rel.text.rpl_get_dag
                0x000000000000ef8c       0x30 /usr/lib/gcc/i686-linux-gnu/4.8/../../../i386-linux-gnu/crti.o
 .rel.text.rpl_get_any_dag
                0x000000000000efbc       0x18 /usr/lib/gcc/i686-linux-gnu/4.8/../../../i386-linux-gnu/crti.o
 .rel.text.rpl_get_instance
                0x000000000000efd4       0x18 /usr/lib/gcc/i686-linux-gnu/4.8/../../../i386-linux-gnu/crti.o
 .rel.text.rpl_find_of
                0x000000000000efec       0x10 /usr/lib/gcc/i686-linux-gnu/4.8/../../../i386-linux-gnu/crti.o
 .rel.text.rpl_join_instance
                0x000000000000effc       0x58 /usr/lib/gcc/i686-linux-gnu/4.8/../../../i386-linux-gnu/crti.o
 .rel.text.rpl_add_dag
                0x000000000000f054       0x50 /usr/lib/gcc/i686-linux-gnu/4.8/../../../i386-linux-gnu/crti.o
 .rel.text.global_repair
                0x000000000000f0a4       0x18 /usr/lib/gcc/i686-linux-gnu/4.8/../../../i386-linux-gnu/crti.o
 .rel.text.rpl_local_repair
                0x000000000000f0bc        0x8 /usr/lib/gcc/i686-linux-gnu/4.8/../../../i386-linux-gnu/crti.o
 .rel.text.rpl_recalculate_ranks
                0x000000000000f0c4       0x28 /usr/lib/gcc/i686-linux-gnu/4.8/../../../i386-linux-gnu/crti.o
 .rel.text.rpl_process_parent_event
                0x000000000000f0ec       0x40 /usr/lib/gcc/i686-linux-gnu/4.8/../../../i386-linux-gnu/crti.o
 .rel.text.add_nbr_from_dio
                0x000000000000f12c        0x8 /usr/lib/gcc/i686-linux-gnu/4.8/../../../i386-linux-gnu/crti.o
 .rel.text.rpl_process_dio
                0x000000000000f134       0x78 /usr/lib/gcc/i686-linux-gnu/4.8/../../../i386-linux-gnu/crti.o
 .rel.text.rpl_verify_hbh_header
                0x000000000000f1ac      0x108 /usr/lib/gcc/i686-linux-gnu/4.8/../../../i386-linux-gnu/crti.o
 .rel.text.update_hbh_header
                0x000000000000f2b4      0x138 /usr/lib/gcc/i686-linux-gnu/4.8/../../../i386-linux-gnu/crti.o
 .rel.text.insert_hbh_header
                0x000000000000f3ec      0x128 /usr/lib/gcc/i686-linux-gnu/4.8/../../../i386-linux-gnu/crti.o
 .rel.text.rpl_remove_header
                0x000000000000f514       0xc8 /usr/lib/gcc/i686-linux-gnu/4.8/../../../i386-linux-gnu/crti.o
 .rel.text.rpl_update_header
                0x000000000000f5dc       0x80 /usr/lib/gcc/i686-linux-gnu/4.8/../../../i386-linux-gnu/crti.o
 .rel.text.prepare_for_dao_fwd
                0x000000000000f65c       0x38 /usr/lib/gcc/i686-linux-gnu/4.8/../../../i386-linux-gnu/crti.o
 .rel.text.get_global_addr
                0x000000000000f694       0x30 /usr/lib/gcc/i686-linux-gnu/4.8/../../../i386-linux-gnu/crti.o
 .rel.text.rpl_icmp6_update_nbr_table
                0x000000000000f6c4       0x10 /usr/lib/gcc/i686-linux-gnu/4.8/../../../i386-linux-gnu/crti.o
 .rel.text.dis_input
                0x000000000000f6d4       0x48 /usr/lib/gcc/i686-linux-gnu/4.8/../../../i386-linux-gnu/crti.o
 .rel.text.dis_output
                0x000000000000f71c       0x20 /usr/lib/gcc/i686-linux-gnu/4.8/../../../i386-linux-gnu/crti.o
 .rel.text.dio_input
                0x000000000000f73c       0x58 /usr/lib/gcc/i686-linux-gnu/4.8/../../../i386-linux-gnu/crti.o
 .rel.text.dio_output
                0x000000000000f794       0x40 /usr/lib/gcc/i686-linux-gnu/4.8/../../../i386-linux-gnu/crti.o
 .rel.text.dao_input_storing
                0x000000000000f7d4      0x120 /usr/lib/gcc/i686-linux-gnu/4.8/../../../i386-linux-gnu/crti.o
 .rel.text.dao_input
                0x000000000000f8f4       0x28 /usr/lib/gcc/i686-linux-gnu/4.8/../../../i386-linux-gnu/crti.o
 .rel.text.dao_output
                0x000000000000f91c       0x38 /usr/lib/gcc/i686-linux-gnu/4.8/../../../i386-linux-gnu/crti.o
 .rel.text.dao_output_target
                0x000000000000f954        0x8 /usr/lib/gcc/i686-linux-gnu/4.8/../../../i386-linux-gnu/crti.o
 .rel.text.dao_output_target_seq
                0x000000000000f95c       0x48 /usr/lib/gcc/i686-linux-gnu/4.8/../../../i386-linux-gnu/crti.o
 .rel.text.dao_ack_input
                0x000000000000f9a4       0x10 /usr/lib/gcc/i686-linux-gnu/4.8/../../../i386-linux-gnu/crti.o
 .rel.text.rpl_icmp6_register_handlers
                0x000000000000f9b4       0x40 /usr/lib/gcc/i686-linux-gnu/4.8/../../../i386-linux-gnu/crti.o
 .rel.text.parent_link_metric
                0x000000000000f9f4        0x8 /usr/lib/gcc/i686-linux-gnu/4.8/../../../i386-linux-gnu/crti.o
 .rel.text.handle_periodic_timer
                0x000000000000f9fc       0x68 /usr/lib/gcc/i686-linux-gnu/4.8/../../../i386-linux-gnu/crti.o
 .rel.text.new_dio_interval
                0x000000000000fa64       0x18 /usr/lib/gcc/i686-linux-gnu/4.8/../../../i386-linux-gnu/crti.o
 .rel.text.handle_dio_timer
                0x000000000000fa7c       0x40 /usr/lib/gcc/i686-linux-gnu/4.8/../../../i386-linux-gnu/crti.o
 .rel.text.rpl_reset_periodic_timer
                0x000000000000fabc       0x28 /usr/lib/gcc/i686-linux-gnu/4.8/../../../i386-linux-gnu/crti.o
 .rel.text.set_dao_lifetime_timer
                0x000000000000fae4       0x20 /usr/lib/gcc/i686-linux-gnu/4.8/../../../i386-linux-gnu/crti.o
 .rel.text.handle_dao_timer
                0x000000000000fb04       0x38 /usr/lib/gcc/i686-linux-gnu/4.8/../../../i386-linux-gnu/crti.o
 .rel.text.schedule_dao
                0x000000000000fb3c       0x30 /usr/lib/gcc/i686-linux-gnu/4.8/../../../i386-linux-gnu/crti.o
 .rel.text.rpl_cancel_dao
                0x000000000000fb6c       0x10 /usr/lib/gcc/i686-linux-gnu/4.8/../../../i386-linux-gnu/crti.o
 .rel.text.handle_unicast_dio_timer
                0x000000000000fb7c       0x10 /usr/lib/gcc/i686-linux-gnu/4.8/../../../i386-linux-gnu/crti.o
 .rel.text.rpl_schedule_unicast_dio_immediately
                0x000000000000fb8c       0x10 /usr/lib/gcc/i686-linux-gnu/4.8/../../../i386-linux-gnu/crti.o
 .rel.text.get_probing_delay
                0x000000000000fb9c       0x10 /usr/lib/gcc/i686-linux-gnu/4.8/../../../i386-linux-gnu/crti.o
 .rel.text.get_probing_target
                0x000000000000fbac       0x70 /usr/lib/gcc/i686-linux-gnu/4.8/../../../i386-linux-gnu/crti.o
 .rel.text.handle_probing_timer
                0x000000000000fc1c       0x28 /usr/lib/gcc/i686-linux-gnu/4.8/../../../i386-linux-gnu/crti.o
 .rel.text.rpl_schedule_probing
                0x000000000000fc44       0x18 /usr/lib/gcc/i686-linux-gnu/4.8/../../../i386-linux-gnu/crti.o
 .rel.text.rpl_get_mode
                0x000000000000fc5c        0x8 /usr/lib/gcc/i686-linux-gnu/4.8/../../../i386-linux-gnu/crti.o
 .rel.text.rpl_set_mode
                0x000000000000fc64       0x68 /usr/lib/gcc/i686-linux-gnu/4.8/../../../i386-linux-gnu/crti.o
 .rel.text.rpl_purge_routes
                0x000000000000fccc       0x50 /usr/lib/gcc/i686-linux-gnu/4.8/../../../i386-linux-gnu/crti.o
 .rel.text.rpl_remove_routes
                0x000000000000fd1c       0x20 /usr/lib/gcc/i686-linux-gnu/4.8/../../../i386-linux-gnu/crti.o
 .rel.text.rpl_remove_routes_by_nexthop
                0x000000000000fd3c       0x20 /usr/lib/gcc/i686-linux-gnu/4.8/../../../i386-linux-gnu/crti.o
 .rel.text.rpl_add_route
                0x000000000000fd5c        0x8 /usr/lib/gcc/i686-linux-gnu/4.8/../../../i386-linux-gnu/crti.o
 .rel.text.rpl_link_neighbor_callback
                0x000000000000fd64       0x20 /usr/lib/gcc/i686-linux-gnu/4.8/../../../i386-linux-gnu/crti.o
 .rel.text.rpl_ipv6_neighbor_callback
                0x000000000000fd84       0x10 /usr/lib/gcc/i686-linux-gnu/4.8/../../../i386-linux-gnu/crti.o
 .rel.text.rpl_purge_dags
                0x000000000000fd94       0x10 /usr/lib/gcc/i686-linux-gnu/4.8/../../../i386-linux-gnu/crti.o
 .rel.text.rpl_init
                0x000000000000fda4       0x30 /usr/lib/gcc/i686-linux-gnu/4.8/../../../i386-linux-gnu/crti.o
 .rel.text.link_stats_from_lladdr
                0x000000000000fdd4       0x10 /usr/lib/gcc/i686-linux-gnu/4.8/../../../i386-linux-gnu/crti.o
 .rel.text.link_stats_is_fresh
                0x000000000000fde4        0x8 /usr/lib/gcc/i686-linux-gnu/4.8/../../../i386-linux-gnu/crti.o
 .rel.text.link_stats_packet_sent
                0x000000000000fdec       0x30 /usr/lib/gcc/i686-linux-gnu/4.8/../../../i386-linux-gnu/crti.o
 .rel.text.link_stats_input_callback
                0x000000000000fe1c       0x20 /usr/lib/gcc/i686-linux-gnu/4.8/../../../i386-linux-gnu/crti.o
 .rel.text.periodic
                0x000000000000fe3c       0x30 /usr/lib/gcc/i686-linux-gnu/4.8/../../../i386-linux-gnu/crti.o
 .rel.text.link_stats_init
                0x000000000000fe6c       0x28 /usr/lib/gcc/i686-linux-gnu/4.8/../../../i386-linux-gnu/crti.o
 .rel.text.linkaddr_copy
                0x000000000000fe94        0x8 /usr/lib/gcc/i686-linux-gnu/4.8/../../../i386-linux-gnu/crti.o
 .rel.text.linkaddr_cmp
                0x000000000000fe9c        0x8 /usr/lib/gcc/i686-linux-gnu/4.8/../../../i386-linux-gnu/crti.o
 .rel.text.linkaddr_set_node_addr
                0x000000000000fea4       0x10 /usr/lib/gcc/i686-linux-gnu/4.8/../../../i386-linux-gnu/crti.o
 .rel.text.key_from_index
                0x000000000000feb4        0x8 /usr/lib/gcc/i686-linux-gnu/4.8/../../../i386-linux-gnu/crti.o
 .rel.text.index_from_key
                0x000000000000febc        0x8 /usr/lib/gcc/i686-linux-gnu/4.8/../../../i386-linux-gnu/crti.o
 .rel.text.index_from_lladdr
                0x000000000000fec4       0x28 /usr/lib/gcc/i686-linux-gnu/4.8/../../../i386-linux-gnu/crti.o
 .rel.text.remove_key
                0x000000000000feec       0x48 /usr/lib/gcc/i686-linux-gnu/4.8/../../../i386-linux-gnu/crti.o
 .rel.text.nbr_table_allocate
                0x000000000000ff34       0x50 /usr/lib/gcc/i686-linux-gnu/4.8/../../../i386-linux-gnu/crti.o
 .rel.text.nbr_table_register
                0x000000000000ff84       0x20 /usr/lib/gcc/i686-linux-gnu/4.8/../../../i386-linux-gnu/crti.o
 .rel.text.nbr_table_head
                0x000000000000ffa4       0x20 /usr/lib/gcc/i686-linux-gnu/4.8/../../../i386-linux-gnu/crti.o
 .rel.text.nbr_table_next
                0x000000000000ffc4       0x10 /usr/lib/gcc/i686-linux-gnu/4.8/../../../i386-linux-gnu/crti.o
 .rel.text.nbr_table_add_lladdr
                0x000000000000ffd4       0x30 /usr/lib/gcc/i686-linux-gnu/4.8/../../../i386-linux-gnu/crti.o
 .rel.text.nbr_table_get_from_lladdr
                0x0000000000010004        0x8 /usr/lib/gcc/i686-linux-gnu/4.8/../../../i386-linux-gnu/crti.o
 .rel.text.nbr_table_remove
                0x000000000001000c       0x10 /usr/lib/gcc/i686-linux-gnu/4.8/../../../i386-linux-gnu/crti.o
 .rel.text.nbr_table_lock
                0x000000000001001c        0x8 /usr/lib/gcc/i686-linux-gnu/4.8/../../../i386-linux-gnu/crti.o
 .rel.text.nbr_table_unlock
                0x0000000000010024        0x8 /usr/lib/gcc/i686-linux-gnu/4.8/../../../i386-linux-gnu/crti.o
 .rel.text.nbr_table_update_lladdr
                0x000000000001002c        0x8 /usr/lib/gcc/i686-linux-gnu/4.8/../../../i386-linux-gnu/crti.o
 .rel.text.netstack_init
                0x0000000000010034       0x28 /usr/lib/gcc/i686-linux-gnu/4.8/../../../i386-linux-gnu/crti.o
 .rel.text.packetbuf_clear
                0x000000000001005c       0x28 /usr/lib/gcc/i686-linux-gnu/4.8/../../../i386-linux-gnu/crti.o
 .rel.text.packetbuf_copyfrom
                0x0000000000010084       0x20 /usr/lib/gcc/i686-linux-gnu/4.8/../../../i386-linux-gnu/crti.o
 .rel.text.packetbuf_compact
                0x00000000000100a4       0x38 /usr/lib/gcc/i686-linux-gnu/4.8/../../../i386-linux-gnu/crti.o
 .rel.text.packetbuf_copyto
                0x00000000000100dc       0x58 /usr/lib/gcc/i686-linux-gnu/4.8/../../../i386-linux-gnu/crti.o
 .rel.text.packetbuf_hdralloc
                0x0000000000010134       0x30 /usr/lib/gcc/i686-linux-gnu/4.8/../../../i386-linux-gnu/crti.o
 .rel.text.packetbuf_hdrreduce
                0x0000000000010164       0x28 /usr/lib/gcc/i686-linux-gnu/4.8/../../../i386-linux-gnu/crti.o
 .rel.text.packetbuf_set_datalen
                0x000000000001018c        0x8 /usr/lib/gcc/i686-linux-gnu/4.8/../../../i386-linux-gnu/crti.o
 .rel.text.packetbuf_dataptr
                0x0000000000010194       0x10 /usr/lib/gcc/i686-linux-gnu/4.8/../../../i386-linux-gnu/crti.o
 .rel.text.packetbuf_hdrptr
                0x00000000000101a4        0x8 /usr/lib/gcc/i686-linux-gnu/4.8/../../../i386-linux-gnu/crti.o
 .rel.text.packetbuf_datalen
                0x00000000000101ac        0x8 /usr/lib/gcc/i686-linux-gnu/4.8/../../../i386-linux-gnu/crti.o
 .rel.text.packetbuf_hdrlen
                0x00000000000101b4       0x10 /usr/lib/gcc/i686-linux-gnu/4.8/../../../i386-linux-gnu/crti.o
 .rel.text.packetbuf_totlen
                0x00000000000101c4       0x10 /usr/lib/gcc/i686-linux-gnu/4.8/../../../i386-linux-gnu/crti.o
 .rel.text.packetbuf_remaininglen
                0x00000000000101d4        0x8 /usr/lib/gcc/i686-linux-gnu/4.8/../../../i386-linux-gnu/crti.o
 .rel.text.packetbuf_attr_clear
                0x00000000000101dc       0x28 /usr/lib/gcc/i686-linux-gnu/4.8/../../../i386-linux-gnu/crti.o
 .rel.text.packetbuf_attr_copyto
                0x0000000000010204       0x30 /usr/lib/gcc/i686-linux-gnu/4.8/../../../i386-linux-gnu/crti.o
 .rel.text.packetbuf_attr_copyfrom
                0x0000000000010234       0x30 /usr/lib/gcc/i686-linux-gnu/4.8/../../../i386-linux-gnu/crti.o
 .rel.text.packetbuf_holds_broadcast
                0x0000000000010264       0x18 /usr/lib/gcc/i686-linux-gnu/4.8/../../../i386-linux-gnu/crti.o
 .rel.text.queuebuf_init
                0x000000000001027c       0x20 /usr/lib/gcc/i686-linux-gnu/4.8/../../../i386-linux-gnu/crti.o
 .rel.text.queuebuf_numfree
                0x000000000001029c       0x10 /usr/lib/gcc/i686-linux-gnu/4.8/../../../i386-linux-gnu/crti.o
 .rel.text.queuebuf_new_from_packetbuf
                0x00000000000102ac       0x40 /usr/lib/gcc/i686-linux-gnu/4.8/../../../i386-linux-gnu/crti.o
 .rel.text.queuebuf_update_attr_from_packetbuf
                0x00000000000102ec        0x8 /usr/lib/gcc/i686-linux-gnu/4.8/../../../i386-linux-gnu/crti.o
 .rel.text.queuebuf_update_from_packetbuf
                0x00000000000102f4       0x10 /usr/lib/gcc/i686-linux-gnu/4.8/../../../i386-linux-gnu/crti.o
 .rel.text.queuebuf_free
                0x0000000000010304       0x30 /usr/lib/gcc/i686-linux-gnu/4.8/../../../i386-linux-gnu/crti.o
 .rel.text.queuebuf_to_packetbuf
                0x0000000000010334       0x20 /usr/lib/gcc/i686-linux-gnu/4.8/../../../i386-linux-gnu/crti.o
 .rel.text.queuebuf_dataptr
                0x0000000000010354       0x10 /usr/lib/gcc/i686-linux-gnu/4.8/../../../i386-linux-gnu/crti.o
 .rel.text.neighbor_queue_from_addr
                0x0000000000010364       0x20 /usr/lib/gcc/i686-linux-gnu/4.8/../../../i386-linux-gnu/crti.o
 .rel.text.backoff_period
                0x0000000000010384        0x8 /usr/lib/gcc/i686-linux-gnu/4.8/../../../i386-linux-gnu/crti.o
 .rel.text.transmit_packet_list
                0x000000000001038c       0x18 /usr/lib/gcc/i686-linux-gnu/4.8/../../../i386-linux-gnu/crti.o
 .rel.text.schedule_transmission
                0x00000000000103a4       0x18 /usr/lib/gcc/i686-linux-gnu/4.8/../../../i386-linux-gnu/crti.o
 .rel.text.free_packet
                0x00000000000103bc       0x60 /usr/lib/gcc/i686-linux-gnu/4.8/../../../i386-linux-gnu/crti.o
 .rel.text.tx_done
                0x000000000001041c        0x8 /usr/lib/gcc/i686-linux-gnu/4.8/../../../i386-linux-gnu/crti.o
 .rel.text.rexmit
                0x0000000000010424        0x8 /usr/lib/gcc/i686-linux-gnu/4.8/../../../i386-linux-gnu/crti.o
 .rel.text.input_packet
                0x000000000001042c        0x8 /usr/lib/gcc/i686-linux-gnu/4.8/../../../i386-linux-gnu/crti.o
 .rel.text.on   0x0000000000010434       0x10 /usr/lib/gcc/i686-linux-gnu/4.8/../../../i386-linux-gnu/crti.o
 .rel.text.off  0x0000000000010444       0x18 /usr/lib/gcc/i686-linux-gnu/4.8/../../../i386-linux-gnu/crti.o
 .rel.text.channel_check_interval
                0x000000000001045c       0x10 /usr/lib/gcc/i686-linux-gnu/4.8/../../../i386-linux-gnu/crti.o
 .rel.text.create_frame
                0x000000000001046c       0xc0 /usr/lib/gcc/i686-linux-gnu/4.8/../../../i386-linux-gnu/crti.o
 .rel.text.parse
                0x000000000001052c       0x38 /usr/lib/gcc/i686-linux-gnu/4.8/../../../i386-linux-gnu/crti.o
 .rel.text.send_one_packet
                0x0000000000010564       0xd0 /usr/lib/gcc/i686-linux-gnu/4.8/../../../i386-linux-gnu/crti.o
 .rel.text.send_list
                0x0000000000010634        0x8 /usr/lib/gcc/i686-linux-gnu/4.8/../../../i386-linux-gnu/crti.o
 .rel.text.send
                0x000000000001063c        0x8 /usr/lib/gcc/i686-linux-gnu/4.8/../../../i386-linux-gnu/crti.o
 .rel.text.stimer_set
                0x0000000000010644        0x8 /usr/lib/gcc/i686-linux-gnu/4.8/../../../i386-linux-gnu/crti.o
 .rel.text.stimer_restart
                0x000000000001064c        0x8 /usr/lib/gcc/i686-linux-gnu/4.8/../../../i386-linux-gnu/crti.o
 .rel.text.stimer_expired
                0x0000000000010654        0x8 /usr/lib/gcc/i686-linux-gnu/4.8/../../../i386-linux-gnu/crti.o
 .rel.text.stimer_remaining
                0x000000000001065c        0x8 /usr/lib/gcc/i686-linux-gnu/4.8/../../../i386-linux-gnu/crti.o
 .rel.text.stimer_elapsed
                0x0000000000010664        0x8 /usr/lib/gcc/i686-linux-gnu/4.8/../../../i386-linux-gnu/crti.o
 .rel.text.input_handler_lookup
                0x000000000001066c       0x18 /usr/lib/gcc/i686-linux-gnu/4.8/../../../i386-linux-gnu/crti.o
 .rel.text.uip_icmp6_register_input_handler
                0x0000000000010684       0x10 /usr/lib/gcc/i686-linux-gnu/4.8/../../../i386-linux-gnu/crti.o
 .rel.text.echo_request_input
                0x0000000000010694      0x160 /usr/lib/gcc/i686-linux-gnu/4.8/../../../i386-linux-gnu/crti.o
 .rel.text.uip_icmp6_error_output
                0x00000000000107f4      0x250 /usr/lib/gcc/i686-linux-gnu/4.8/../../../i386-linux-gnu/crti.o
 .rel.text.uip_icmp6_send
                0x0000000000010a44       0xc0 /usr/lib/gcc/i686-linux-gnu/4.8/../../../i386-linux-gnu/crti.o
 .rel.text.echo_reply_input
                0x0000000000010b04       0xd0 /usr/lib/gcc/i686-linux-gnu/4.8/../../../i386-linux-gnu/crti.o
 .rel.text.uip_icmp6_echo_reply_callback_add
                0x0000000000010bd4       0x10 /usr/lib/gcc/i686-linux-gnu/4.8/../../../i386-linux-gnu/crti.o
 .rel.text.uip_icmp6_echo_reply_callback_rm
                0x0000000000010be4       0x10 /usr/lib/gcc/i686-linux-gnu/4.8/../../../i386-linux-gnu/crti.o
 .rel.text.uip_icmp6_init
                0x0000000000010bf4       0x20 /usr/lib/gcc/i686-linux-gnu/4.8/../../../i386-linux-gnu/crti.o
 .rel.text.update_nbr
                0x0000000000010c14       0xe0 /usr/lib/gcc/i686-linux-gnu/4.8/../../../i386-linux-gnu/crti.o
 .rel.text.find_removable_dis
                0x0000000000010cf4       0x10 /usr/lib/gcc/i686-linux-gnu/4.8/../../../i386-linux-gnu/crti.o
 .rel.text.find_removable_dio
                0x0000000000010d04       0x18 /usr/lib/gcc/i686-linux-gnu/4.8/../../../i386-linux-gnu/crti.o
 .rel.text.find_removable_dao
                0x0000000000010d1c       0x10 /usr/lib/gcc/i686-linux-gnu/4.8/../../../i386-linux-gnu/crti.o
 .rel.text.rpl_nbr_policy_find_removable
                0x0000000000010d2c       0x30 /usr/lib/gcc/i686-linux-gnu/4.8/../../../i386-linux-gnu/crti.o
 .rel.text.frame802154_get_pan_id
                0x0000000000010d5c        0x8 /usr/lib/gcc/i686-linux-gnu/4.8/../../../i386-linux-gnu/crti.o
 .rel.text.frame802154_set_pan_id
                0x0000000000010d64        0x8 /usr/lib/gcc/i686-linux-gnu/4.8/../../../i386-linux-gnu/crti.o
 .rel.text.frame802154_check_dest_panid
                0x0000000000010d6c       0x10 /usr/lib/gcc/i686-linux-gnu/4.8/../../../i386-linux-gnu/crti.o
 .rel.text.frame802154_extract_linkaddr
                0x0000000000010d7c       0x40 /usr/lib/gcc/i686-linux-gnu/4.8/../../../i386-linux-gnu/crti.o
 .rel.text.field_len
                0x0000000000010dbc       0x10 /usr/lib/gcc/i686-linux-gnu/4.8/../../../i386-linux-gnu/crti.o
 .rel.text.frame802154_create
                0x0000000000010dcc        0x8 /usr/lib/gcc/i686-linux-gnu/4.8/../../../i386-linux-gnu/crti.o
 .rel.text.frame802154_parse
                0x0000000000010dd4       0x50 /usr/lib/gcc/i686-linux-gnu/4.8/../../../i386-linux-gnu/crti.o
 .rel.text.mac_sequence_is_duplicate
                0x0000000000010e24       0x28 /usr/lib/gcc/i686-linux-gnu/4.8/../../../i386-linux-gnu/crti.o
 .rel.text.mac_sequence_register_seqno
                0x0000000000010e4c       0x48 /usr/lib/gcc/i686-linux-gnu/4.8/../../../i386-linux-gnu/crti.o
 *(.rel.fini)
 .rel.fini      0x0000000000000000        0x0 /usr/lib/gcc/i686-linux-gnu/4.8/../../../i386-linux-gnu/crti.o
 *(.rel.rodata .rel.rodata.* .rel.gnu.linkonce.r.*)
 .rel.rodata    0x0000000000010e94      0x630 /usr/lib/gcc/i686-linux-gnu/4.8/../../../i386-linux-gnu/crti.o
 *(.rel.data.rel.ro .rel.data.rel.ro.* .rel.gnu.linkonce.d.rel.ro.*)
 *(.rel.data .rel.data.* .rel.gnu.linkonce.d.*)
 .rel.data.rel  0x00000000000114c4        0x8 /usr/lib/gcc/i686-linux-gnu/4.8/../../../i386-linux-gnu/crti.o
 .rel.data      0x00000000000114cc      0x370 /usr/lib/gcc/i686-linux-gnu/4.8/../../../i386-linux-gnu/crti.o
 *(.rel.tdata .rel.tdata.* .rel.gnu.linkonce.td.*)
 *(.rel.tbss .rel.tbss.* .rel.gnu.linkonce.tb.*)
 *(.rel.ctors)
 *(.rel.dtors)
 *(.rel.got)
 .rel.got       0x000000000001183c       0x28 /usr/lib/gcc/i686-linux-gnu/4.8/../../../i386-linux-gnu/crti.o
 *(.rel.bss .rel.bss.* .rel.gnu.linkonce.b.*)
 *(.rel.ifunc)
 .rel.ifunc     0x0000000000000000        0x0 /usr/lib/gcc/i686-linux-gnu/4.8/../../../i386-linux-gnu/crti.o
 .rel.fini_array
                0x0000000000011864        0x8 /usr/lib/gcc/i686-linux-gnu/4.8/../../../i386-linux-gnu/crti.o
 .rel.init_array
                0x000000000001186c        0x8 /usr/lib/gcc/i686-linux-gnu/4.8/../../../i386-linux-gnu/crti.o

.rel.plt        0x0000000000011874       0x10
 *(.rel.plt)
 .rel.plt       0x0000000000011874       0x10 /usr/lib/gcc/i686-linux-gnu/4.8/../../../i386-linux-gnu/crti.o
 *(.rel.iplt)

.init           0x0000000000011884       0x23
 *(SORT(.init))
 .init          0x0000000000011884       0x1e /usr/lib/gcc/i686-linux-gnu/4.8/../../../i386-linux-gnu/crti.o
                0x0000000000011884                _init
 .init          0x00000000000118a2        0x5 /usr/lib/gcc/i686-linux-gnu/4.8/../../../i386-linux-gnu/crtn.o

.plt            0x00000000000118b0       0x30
 *(.plt)
 .plt           0x00000000000118b0       0x30 /usr/lib/gcc/i686-linux-gnu/4.8/../../../i386-linux-gnu/crti.o
 *(.iplt)

.text           0x00000000000118e0    0x212c4
 *(.text.unlikely .text.*_unlikely .text.unlikely.*)
 *(.text.exit .text.exit.*)
 *(.text.startup .text.startup.*)
 *(.text.hot .text.hot.*)
 *(.text .stub .text.* .gnu.linkonce.t.*)
 .text          0x00000000000118e0        0x0 /usr/lib/gcc/i686-linux-gnu/4.8/../../../i386-linux-gnu/crti.o
 .gnu.linkonce.t.__x86.get_pc_thunk.bx
                0x00000000000118e0        0x4 /usr/lib/gcc/i686-linux-gnu/4.8/../../../i386-linux-gnu/crti.o
                0x00000000000118e0                __x86.get_pc_thunk.bx
 *fill*         0x00000000000118e4        0xc 
 .text          0x00000000000118f0      0x11b /usr/lib/gcc/i686-linux-gnu/4.8/crtbeginS.o
 .text          0x0000000000011a0b        0x0 receiver.co
 .text.dtls_alert_create
                0x0000000000011a0b       0x10 receiver.co
 .text.dtls_alert_fatal_create
                0x0000000000011a1b       0x1b receiver.co
 .text.dtls_set_handler
                0x0000000000011a36        0xe receiver.co
 .text.try_send
                0x0000000000011a44       0x6d receiver.co
 .text.read_from_peer
                0x0000000000011ab1      0x14e receiver.co
 .text.send_to_peer
                0x0000000000011bff       0x8c receiver.co
 .text.get_psk_info
                0x0000000000011c8b      0x10f receiver.co
 .text.dtls_handle_read
                0x0000000000011d9a      0x100 receiver.co
 .text.print_local_addresses
                0x0000000000011e9a       0x80 receiver.co
 .text.set_global_address
                0x0000000000011f1a       0x82 receiver.co
 .text.set_connection_address
                0x0000000000011f9c      0x100 receiver.co
 .text.dtls_complete
                0x000000000001209c       0x21 receiver.co
 .text.init_dtls
                0x00000000000120bd       0xd7 receiver.co
                0x00000000000120bd                init_dtls
 .text.join_mcast_group
                0x0000000000012194       0xf7 receiver.co
 .text.dtls_reqeust
                0x000000000001228b       0x44 receiver.co
                0x000000000001228b                dtls_reqeust
 .text.process_thread_udp_client_process
                0x00000000000122cf      0x1b5 receiver.co
 .text          0x0000000000012484        0x0 obj_cooja/mtype67.o
 .text.print_processes
                0x0000000000012484       0x47 obj_cooja/mtype67.o
 .text.rtimer_thread_loop
                0x00000000000124cb       0x12 obj_cooja/mtype67.o
 .text.set_rime_addr
                0x00000000000124dd       0xdd obj_cooja/mtype67.o
 .text.contiki_init
                0x00000000000125ba      0x385 obj_cooja/mtype67.o
                0x00000000000125ba                contiki_init
 .text.process_run_thread_loop
                0x000000000001293f       0x6a obj_cooja/mtype67.o
 .text.Java_org_contikios_cooja_corecomm_Lib2_init
                0x00000000000129a9       0x40 obj_cooja/mtype67.o
                0x00000000000129a9                Java_org_contikios_cooja_corecomm_Lib2_init
 .text.Java_org_contikios_cooja_corecomm_Lib2_getMemory
                0x00000000000129e9       0x40 obj_cooja/mtype67.o
                0x00000000000129e9                Java_org_contikios_cooja_corecomm_Lib2_getMemory
 .text.Java_org_contikios_cooja_corecomm_Lib2_setMemory
                0x0000000000012a29       0x77 obj_cooja/mtype67.o
                0x0000000000012a29                Java_org_contikios_cooja_corecomm_Lib2_setMemory
 .text.Java_org_contikios_cooja_corecomm_Lib2_tick
                0x0000000000012aa0       0x5f obj_cooja/mtype67.o
                0x0000000000012aa0                Java_org_contikios_cooja_corecomm_Lib2_tick
 .text.Java_org_contikios_cooja_corecomm_Lib2_setReferenceAddress
                0x0000000000012aff       0x12 obj_cooja/mtype67.o
                0x0000000000012aff                Java_org_contikios_cooja_corecomm_Lib2_setReferenceAddress
 .text          0x0000000000012b11        0x0 obj_cooja/mtype67.a(dtls.o)
 .text.equals   0x0000000000012b11       0x44 obj_cooja/mtype67.a(dtls.o)
 .text.check_stack
                0x0000000000012b55        0x5 obj_cooja/mtype67.a(dtls.o)
 .text.dtls_int_to_uint8
                0x0000000000012b5a       0x1c obj_cooja/mtype67.a(dtls.o)
 .text.dtls_int_to_uint16
                0x0000000000012b76       0x2f obj_cooja/mtype67.a(dtls.o)
 .text.dtls_int_to_uint24
                0x0000000000012ba5       0x30 obj_cooja/mtype67.a(dtls.o)
 .text.dtls_int_to_uint32
                0x0000000000012bd5       0x3e obj_cooja/mtype67.a(dtls.o)
 .text.dtls_int_to_uint48
                0x0000000000012c13       0x89 obj_cooja/mtype67.a(dtls.o)
 .text.dtls_uint8_to_int
                0x0000000000012c9c        0xb obj_cooja/mtype67.a(dtls.o)
 .text.dtls_uint16_to_int
                0x0000000000012ca7       0x21 obj_cooja/mtype67.a(dtls.o)
 .text.dtls_uint24_to_int
                0x0000000000012cc8       0x32 obj_cooja/mtype67.a(dtls.o)
 .text.dtls_hash_init
                0x0000000000012cfa       0x13 obj_cooja/mtype67.a(dtls.o)
 .text.dtls_hash_update
                0x0000000000012d0d       0x21 obj_cooja/mtype67.a(dtls.o)
 .text.dtls_hash_finalize
                0x0000000000012d2e       0x1f obj_cooja/mtype67.a(dtls.o)
 .text.dtls_security_params_epoch
                0x0000000000012d4d       0x58 obj_cooja/mtype67.a(dtls.o)
 .text.dtls_security_params
                0x0000000000012da5        0xb obj_cooja/mtype67.a(dtls.o)
 .text.dtls_security_params_next
                0x0000000000012db0       0x59 obj_cooja/mtype67.a(dtls.o)
 .text.dtls_security_params_free_other
                0x0000000000012e09       0x50 obj_cooja/mtype67.a(dtls.o)
 .text.dtls_security_params_switch
                0x0000000000012e59       0x26 obj_cooja/mtype67.a(dtls.o)
 .text.dtls_alert_create
                0x0000000000012e7f       0x10 obj_cooja/mtype67.a(dtls.o)
 .text.dtls_alert_fatal_create
                0x0000000000012e8f       0x1b obj_cooja/mtype67.a(dtls.o)
 .text.dtls_prng
                0x0000000000012eaa       0x52 obj_cooja/mtype67.a(dtls.o)
 .text.dtls_prng_init
                0x0000000000012efc        0xf obj_cooja/mtype67.a(dtls.o)
 .text.malloc_context
                0x0000000000012f0b        0xa obj_cooja/mtype67.a(dtls.o)
 .text.free_context
                0x0000000000012f15        0x5 obj_cooja/mtype67.a(dtls.o)
 .text.dtls_init
                0x0000000000012f1a       0x1c obj_cooja/mtype67.a(dtls.o)
                0x0000000000012f1a                dtls_init
 .text.dtls_send
                0x0000000000012f36       0x5e obj_cooja/mtype67.a(dtls.o)
 .text.dtls_get_peer
                0x0000000000012f94       0x57 obj_cooja/mtype67.a(dtls.o)
                0x0000000000012f94                dtls_get_peer
 .text.dtls_add_peer
                0x0000000000012feb       0x1d obj_cooja/mtype67.a(dtls.o)
 .text.dtls_write
                0x0000000000013008       0x94 obj_cooja/mtype67.a(dtls.o)
                0x0000000000013008                dtls_write
 .text.dtls_get_cookie
                0x000000000001309c       0xd8 obj_cooja/mtype67.a(dtls.o)
 .text.dtls_create_cookie
                0x0000000000013174      0x233 obj_cooja/mtype67.a(dtls.o)
 .text.is_record
                0x00000000000133a7       0x58 obj_cooja/mtype67.a(dtls.o)
 .text.dtls_set_record_header
                0x00000000000133ff       0xd9 obj_cooja/mtype67.a(dtls.o)
 .text.dtls_set_handshake_header
                0x00000000000134d8       0xc8 obj_cooja/mtype67.a(dtls.o)
 .text.is_tls_ecdhe_ecdsa_with_aes_128_ccm_8
                0x00000000000135a0        0xa obj_cooja/mtype67.a(dtls.o)
 .text.is_tls_psk_with_aes_128_ccm_8
                0x00000000000135aa       0x12 obj_cooja/mtype67.a(dtls.o)
 .text.is_psk_supported
                0x00000000000135bc       0x2e obj_cooja/mtype67.a(dtls.o)
 .text.is_rpk_supported
                0x00000000000135ea        0xa obj_cooja/mtype67.a(dtls.o)
 .text.is_cert_supported
                0x00000000000135f4        0xa obj_cooja/mtype67.a(dtls.o)
 .text.known_cipher
                0x00000000000135fe       0x7c obj_cooja/mtype67.a(dtls.o)
 .text.dtls_debug_keyblock
                0x000000000001367a      0x130 obj_cooja/mtype67.a(dtls.o)
 .text.dtls_handshake_type_to_name
                0x00000000000137aa       0x6c obj_cooja/mtype67.a(dtls.o)
 .text.calculate_key_block
                0x0000000000013816      0x39e obj_cooja/mtype67.a(dtls.o)
 .text.dtls_check_tls_extension
                0x0000000000013bb4      0x1a0 obj_cooja/mtype67.a(dtls.o)
 .text.dtls_update_parameters
                0x0000000000013d54      0x376 obj_cooja/mtype67.a(dtls.o)
 .text.check_client_keyexchange
                0x00000000000140ca       0xd5 obj_cooja/mtype67.a(dtls.o)
 .text.update_hs_hash
                0x000000000001419f       0x51 obj_cooja/mtype67.a(dtls.o)
 .text.copy_hs_hash
                0x00000000000141f0       0x28 obj_cooja/mtype67.a(dtls.o)
 .text.finalize_hs_hash
                0x0000000000014218       0x20 obj_cooja/mtype67.a(dtls.o)
 .text.clear_hs_hash
                0x0000000000014238       0x3f obj_cooja/mtype67.a(dtls.o)
 .text.check_finished
                0x0000000000014277      0x1ef obj_cooja/mtype67.a(dtls.o)
 .text.dtls_prepare_record
                0x0000000000014466      0x550 obj_cooja/mtype67.a(dtls.o)
 .text.dtls_send_handshake_msg_hash
                0x00000000000149b6      0x172 obj_cooja/mtype67.a(dtls.o)
 .text.dtls_send_handshake_msg
                0x0000000000014b28       0x48 obj_cooja/mtype67.a(dtls.o)
 .text.dtls_encrypt_data
                0x0000000000014b70       0xc1 obj_cooja/mtype67.a(dtls.o)
                0x0000000000014b70                dtls_encrypt_data
 .text.dtls_encrypt_x
                0x0000000000014c31       0x8c obj_cooja/mtype67.a(dtls.o)
 .text.dtls_prepare_record_x
                0x0000000000014cbd      0x3c4 obj_cooja/mtype67.a(dtls.o)
 .text.dtls_send_multi
                0x0000000000015081      0x42f obj_cooja/mtype67.a(dtls.o)
 .text.dtls_send_alert
                0x00000000000154b0       0x42 obj_cooja/mtype67.a(dtls.o)
 .text.dtls_close
                0x00000000000154f2       0x8c obj_cooja/mtype67.a(dtls.o)
                0x00000000000154f2                dtls_close
 .text.dtls_destroy_peer
                0x000000000001557e       0x77 obj_cooja/mtype67.a(dtls.o)
 .text.dtls_verify_peer
                0x00000000000155f5      0x26d obj_cooja/mtype67.a(dtls.o)
 .text.dtls_send_server_hello
                0x0000000000015862      0x1ab obj_cooja/mtype67.a(dtls.o)
 .text.dtls_send_server_key_exchange_psk
                0x0000000000015a0d      0x103 obj_cooja/mtype67.a(dtls.o)
 .text.dtls_send_server_hello_done
                0x0000000000015b10       0x32 obj_cooja/mtype67.a(dtls.o)
 .text.dtls_send_server_hello_msgs
                0x0000000000015b42      0x16b obj_cooja/mtype67.a(dtls.o)
 .text.dtls_send_ccs
                0x0000000000015cad       0x35 obj_cooja/mtype67.a(dtls.o)
 .text.dtls_send_client_key_exchange
                0x0000000000015ce2      0x231 obj_cooja/mtype67.a(dtls.o)
 .text.dtls_send_finished
                0x0000000000015f13      0x182 obj_cooja/mtype67.a(dtls.o)
 .text.dtls_send_client_hello
                0x0000000000016095      0x631 obj_cooja/mtype67.a(dtls.o)
 .text.check_server_hello
                0x00000000000166c6      0x1db obj_cooja/mtype67.a(dtls.o)
 .text.check_server_hello_verify_request
                0x00000000000168a1       0x67 obj_cooja/mtype67.a(dtls.o)
 .text.check_server_key_exchange_psk
                0x0000000000016908      0x109 obj_cooja/mtype67.a(dtls.o)
 .text.check_certificate_request
                0x0000000000016a11      0x1f7 obj_cooja/mtype67.a(dtls.o)
 .text.check_server_hellodone
                0x0000000000016c08       0xf3 obj_cooja/mtype67.a(dtls.o)
 .text.decrypt_verify
                0x0000000000016cfb      0x35a obj_cooja/mtype67.a(dtls.o)
 .text.dtls_send_hello_request
                0x0000000000017055       0x44 obj_cooja/mtype67.a(dtls.o)
 .text.dtls_renegotiate
                0x0000000000017099       0xf6 obj_cooja/mtype67.a(dtls.o)
                0x0000000000017099                dtls_renegotiate
 .text.handle_handshake_msg
                0x000000000001718f      0x7b9 obj_cooja/mtype67.a(dtls.o)
 .text.handle_handshake
                0x0000000000017948      0x424 obj_cooja/mtype67.a(dtls.o)
 .text.handle_ccs
                0x0000000000017d6c       0xa8 obj_cooja/mtype67.a(dtls.o)
 .text.handle_alert
                0x0000000000017e14      0x194 obj_cooja/mtype67.a(dtls.o)
 .text.dtls_alert_send_from_err
                0x0000000000017fa8       0xe0 obj_cooja/mtype67.a(dtls.o)
 .text.dtls_handle_message
                0x0000000000018088      0x665 obj_cooja/mtype67.a(dtls.o)
                0x0000000000018088                dtls_handle_message
 .text.dtls_new_context
                0x00000000000186ed      0x12b obj_cooja/mtype67.a(dtls.o)
                0x00000000000186ed                dtls_new_context
 .text.dtls_free_context
                0x0000000000018818       0x68 obj_cooja/mtype67.a(dtls.o)
                0x0000000000018818                dtls_free_context
 .text.dtls_connect_peer
                0x0000000000018880      0x13b obj_cooja/mtype67.a(dtls.o)
                0x0000000000018880                dtls_connect_peer
 .text.dtls_connect
                0x00000000000189bb      0x114 obj_cooja/mtype67.a(dtls.o)
                0x00000000000189bb                dtls_connect
 .text.dtls_retransmit
                0x0000000000018acf      0x32f obj_cooja/mtype67.a(dtls.o)
 .text.dtls_stop_retransmission
                0x0000000000018dfe       0x84 obj_cooja/mtype67.a(dtls.o)
 .text.dtls_check_retransmit
                0x0000000000018e82       0x81 obj_cooja/mtype67.a(dtls.o)
                0x0000000000018e82                dtls_check_retransmit
 .text.process_thread_dtls_retransmit_process
                0x0000000000018f03      0x1aa obj_cooja/mtype67.a(dtls.o)
 .text.change_sequence
                0x00000000000190ad       0x43 obj_cooja/mtype67.a(dtls.o)
                0x00000000000190ad                change_sequence
 .text          0x00000000000190f0        0x0 obj_cooja/mtype67.a(tinydtls-crypto)
 .text.dtls_int_to_uint16
                0x00000000000190f0       0x2f obj_cooja/mtype67.a(tinydtls-crypto)
 .text.dtls_hash_init
                0x000000000001911f       0x13 obj_cooja/mtype67.a(tinydtls-crypto)
 .text.dtls_cipher_context_get
                0x0000000000019132        0xa obj_cooja/mtype67.a(tinydtls-crypto)
 .text.dtls_cipher_context_release
                0x000000000001913c        0x5 obj_cooja/mtype67.a(tinydtls-crypto)
 .text.dtls_crypto_init
                0x0000000000019141       0x20 obj_cooja/mtype67.a(tinydtls-crypto)
                0x0000000000019141                dtls_crypto_init
 .text.dtls_handshake_malloc
                0x0000000000019161       0x14 obj_cooja/mtype67.a(tinydtls-crypto)
 .text.dtls_handshake_dealloc
                0x0000000000019175       0x1b obj_cooja/mtype67.a(tinydtls-crypto)
 .text.dtls_security_malloc
                0x0000000000019190       0x14 obj_cooja/mtype67.a(tinydtls-crypto)
 .text.dtls_security_dealloc
                0x00000000000191a4       0x1b obj_cooja/mtype67.a(tinydtls-crypto)
 .text.dtls_handshake_new
                0x00000000000191bf       0x67 obj_cooja/mtype67.a(tinydtls-crypto)
                0x00000000000191bf                dtls_handshake_new
 .text.dtls_handshake_free
                0x0000000000019226       0x29 obj_cooja/mtype67.a(tinydtls-crypto)
                0x0000000000019226                dtls_handshake_free
 .text.dtls_security_new
                0x000000000001924f       0x60 obj_cooja/mtype67.a(tinydtls-crypto)
                0x000000000001924f                dtls_security_new
 .text.dtls_security_free
                0x00000000000192af       0x1b obj_cooja/mtype67.a(tinydtls-crypto)
                0x00000000000192af                dtls_security_free
 .text.dtls_p_hash
                0x00000000000192ca      0x2fa obj_cooja/mtype67.a(tinydtls-crypto)
                0x00000000000192ca                dtls_p_hash
 .text.dtls_prf
                0x00000000000195c4       0x74 obj_cooja/mtype67.a(tinydtls-crypto)
                0x00000000000195c4                dtls_prf
 .text.dtls_prf_custom
                0x0000000000019638       0xd4 obj_cooja/mtype67.a(tinydtls-crypto)
                0x0000000000019638                dtls_prf_custom
 .text.dtls_mac
                0x000000000001970c       0xb3 obj_cooja/mtype67.a(tinydtls-crypto)
                0x000000000001970c                dtls_mac
 .text.dtls_ccm_encrypt
                0x00000000000197bf       0x66 obj_cooja/mtype67.a(tinydtls-crypto)
 .text.dtls_ccm_decrypt
                0x0000000000019825       0x66 obj_cooja/mtype67.a(tinydtls-crypto)
 .text.dtls_psk_pre_master_secret
                0x000000000001988b       0x9a obj_cooja/mtype67.a(tinydtls-crypto)
                0x000000000001988b                dtls_psk_pre_master_secret
 .text.dtls_encrypt
                0x0000000000019925       0xa6 obj_cooja/mtype67.a(tinydtls-crypto)
                0x0000000000019925                dtls_encrypt
 .text.dtls_decrypt
                0x00000000000199cb       0xa6 obj_cooja/mtype67.a(tinydtls-crypto)
                0x00000000000199cb                dtls_decrypt
 .text          0x0000000000019a71        0x0 obj_cooja/mtype67.a(hmac.o)
 .text.dtls_hash_init
                0x0000000000019a71       0x13 obj_cooja/mtype67.a(hmac.o)
 .text.dtls_hash_update
                0x0000000000019a84       0x21 obj_cooja/mtype67.a(hmac.o)
 .text.dtls_hash_finalize
                0x0000000000019aa5       0x1f obj_cooja/mtype67.a(hmac.o)
 .text.dtls_hmac_context_new
                0x0000000000019ac4       0x14 obj_cooja/mtype67.a(hmac.o)
 .text.dtls_hmac_context_free
                0x0000000000019ad8       0x1b obj_cooja/mtype67.a(hmac.o)
 .text.dtls_hmac_storage_init
                0x0000000000019af3       0x14 obj_cooja/mtype67.a(hmac.o)
                0x0000000000019af3                dtls_hmac_storage_init
 .text.dtls_hmac_update
                0x0000000000019b07       0x3e obj_cooja/mtype67.a(hmac.o)
                0x0000000000019b07                dtls_hmac_update
 .text.dtls_hmac_new
                0x0000000000019b45       0x32 obj_cooja/mtype67.a(hmac.o)
                0x0000000000019b45                dtls_hmac_new
 .text.dtls_hmac_init
                0x0000000000019b77      0x11b obj_cooja/mtype67.a(hmac.o)
                0x0000000000019b77                dtls_hmac_init
 .text.dtls_hmac_free
                0x0000000000019c92       0x19 obj_cooja/mtype67.a(hmac.o)
                0x0000000000019c92                dtls_hmac_free
 .text.dtls_hmac_finalize
                0x0000000000019cab       0xde obj_cooja/mtype67.a(hmac.o)
                0x0000000000019cab                dtls_hmac_finalize
 .text          0x0000000000019d89        0x0 obj_cooja/mtype67.a(netq.o)
 .text.netq_malloc_node
                0x0000000000019d89       0x14 obj_cooja/mtype67.a(netq.o)
 .text.netq_free_node
                0x0000000000019d9d       0x1b obj_cooja/mtype67.a(netq.o)
 .text.netq_init
                0x0000000000019db8       0x14 obj_cooja/mtype67.a(netq.o)
                0x0000000000019db8                netq_init
 .text.netq_insert_node
                0x0000000000019dcc       0xb7 obj_cooja/mtype67.a(netq.o)
                0x0000000000019dcc                netq_insert_node
 .text.netq_head
                0x0000000000019e83       0x20 obj_cooja/mtype67.a(netq.o)
                0x0000000000019e83                netq_head
 .text.netq_next
                0x0000000000019ea3       0x20 obj_cooja/mtype67.a(netq.o)
                0x0000000000019ea3                netq_next
 .text.netq_remove
                0x0000000000019ec3       0x28 obj_cooja/mtype67.a(netq.o)
                0x0000000000019ec3                netq_remove
 .text.netq_pop_first
                0x0000000000019eeb       0x20 obj_cooja/mtype67.a(netq.o)
                0x0000000000019eeb                netq_pop_first
 .text.netq_node_new
                0x0000000000019f0b       0x4c obj_cooja/mtype67.a(netq.o)
                0x0000000000019f0b                netq_node_new
 .text.netq_node_free
                0x0000000000019f57       0x19 obj_cooja/mtype67.a(netq.o)
                0x0000000000019f57                netq_node_free
 .text.netq_delete_all
                0x0000000000019f70       0x2f obj_cooja/mtype67.a(netq.o)
                0x0000000000019f70                netq_delete_all
 .text          0x0000000000019f9f        0x0 obj_cooja/mtype67.a(dtls_time.o)
 .text.dtls_clock_init
                0x0000000000019f9f       0x12 obj_cooja/mtype67.a(dtls_time.o)
                0x0000000000019f9f                dtls_clock_init
 .text.dtls_ticks
                0x0000000000019fb1       0x12 obj_cooja/mtype67.a(dtls_time.o)
                0x0000000000019fb1                dtls_ticks
 .text          0x0000000000019fc3        0x0 obj_cooja/mtype67.a(peer.o)
 .text.peer_init
                0x0000000000019fc3       0x14 obj_cooja/mtype67.a(peer.o)
                0x0000000000019fc3                peer_init
 .text.dtls_malloc_peer
                0x0000000000019fd7       0x14 obj_cooja/mtype67.a(peer.o)
 .text.dtls_free_peer
                0x0000000000019feb       0x45 obj_cooja/mtype67.a(peer.o)
                0x0000000000019feb                dtls_free_peer
 .text.dtls_new_peer
                0x000000000001a030       0x93 obj_cooja/mtype67.a(peer.o)
                0x000000000001a030                dtls_new_peer
 .text          0x000000000001a0c3        0x0 obj_cooja/mtype67.a(session.o)
 .text.dtls_session_init
                0x000000000001a0c3       0x43 obj_cooja/mtype67.a(session.o)
                0x000000000001a0c3                dtls_session_init
 .text.dtls_session_equals
                0x000000000001a106       0x9f obj_cooja/mtype67.a(session.o)
                0x000000000001a106                dtls_session_equals
 .text          0x000000000001a1a5        0x0 obj_cooja/mtype67.a(rijndael.o)
 .text.rijndaelKeySetupEnc
                0x000000000001a1a5      0x610 obj_cooja/mtype67.a(rijndael.o)
                0x000000000001a1a5                rijndaelKeySetupEnc
 .text.rijndaelEncrypt
                0x000000000001a7b5      0x613 obj_cooja/mtype67.a(rijndael.o)
                0x000000000001a7b5                rijndaelEncrypt
 .text.rijndael_set_key_enc_only
                0x000000000001adc8       0x41 obj_cooja/mtype67.a(rijndael.o)
                0x000000000001adc8                rijndael_set_key_enc_only
 .text.rijndael_encrypt
                0x000000000001ae09       0x2d obj_cooja/mtype67.a(rijndael.o)
                0x000000000001ae09                rijndael_encrypt
 .text          0x000000000001ae36        0x0 obj_cooja/mtype67.a(tinydtls-ccm.o)
 .text.memxor   0x000000000001ae36       0x2f obj_cooja/mtype67.a(tinydtls-ccm.o)
 .text.equals   0x000000000001ae65       0x44 obj_cooja/mtype67.a(tinydtls-ccm.o)
 .text.dtls_int_to_uint16
                0x000000000001aea9       0x2f obj_cooja/mtype67.a(tinydtls-ccm.o)
 .text.block0   0x000000000001aed8       0x82 obj_cooja/mtype67.a(tinydtls-ccm.o)
 .text.add_auth_data
                0x000000000001af5a      0x1c0 obj_cooja/mtype67.a(tinydtls-ccm.o)
 .text.encrypt  0x000000000001b11a       0xc3 obj_cooja/mtype67.a(tinydtls-ccm.o)
 .text.mac      0x000000000001b1dd       0x5d obj_cooja/mtype67.a(tinydtls-ccm.o)
 .text.dtls_ccm_encrypt_message
                0x000000000001b23a      0x298 obj_cooja/mtype67.a(tinydtls-ccm.o)
                0x000000000001b23a                dtls_ccm_encrypt_message
 .text.dtls_ccm_decrypt_message
                0x000000000001b4d2      0x2b2 obj_cooja/mtype67.a(tinydtls-ccm.o)
                0x000000000001b4d2                dtls_ccm_decrypt_message
 .text          0x000000000001b784        0x0 obj_cooja/mtype67.a(sha2.o)
 .text.SHA256_Init
                0x000000000001b784       0x5a obj_cooja/mtype67.a(sha2.o)
                0x000000000001b784                SHA256_Init
 .text.SHA256_Transform
                0x000000000001b7de      0x3c3 obj_cooja/mtype67.a(sha2.o)
                0x000000000001b7de                SHA256_Transform
 .text.SHA256_Update
                0x000000000001bba1      0x1b6 obj_cooja/mtype67.a(sha2.o)
                0x000000000001bba1                SHA256_Update
 .text.SHA256_Final
                0x000000000001bd57      0x2a4 obj_cooja/mtype67.a(sha2.o)
                0x000000000001bd57                SHA256_Final
 .text.SHA256_End
                0x000000000001bffb      0x109 obj_cooja/mtype67.a(sha2.o)
                0x000000000001bffb                SHA256_End
 .text.SHA256_Data
                0x000000000001c104       0x69 obj_cooja/mtype67.a(sha2.o)
                0x000000000001c104                SHA256_Data
 .text          0x000000000001c16d        0x0 obj_cooja/mtype67.a(debug.o)
 .text.dtls_package_name
                0x000000000001c16d        0xa obj_cooja/mtype67.a(debug.o)
                0x000000000001c16d                dtls_package_name
 .text.dtls_package_version
                0x000000000001c177        0xa obj_cooja/mtype67.a(debug.o)
                0x000000000001c177                dtls_package_version
 .text.dtls_get_log_level
                0x000000000001c181        0xa obj_cooja/mtype67.a(debug.o)
                0x000000000001c181                dtls_get_log_level
 .text.dtls_set_log_level
                0x000000000001c18b        0xd obj_cooja/mtype67.a(debug.o)
                0x000000000001c18b                dtls_set_log_level
 .text.print_timestamp
                0x000000000001c198        0xa obj_cooja/mtype67.a(debug.o)
 .text.dsrv_print_addr
                0x000000000001c1a2      0x190 obj_cooja/mtype67.a(debug.o)
 .text.hexdump  0x000000000001c332       0x8c obj_cooja/mtype67.a(debug.o)
                0x000000000001c332                hexdump
 .text.dump     0x000000000001c3be       0x36 obj_cooja/mtype67.a(debug.o)
                0x000000000001c3be                dump
 .text.dtls_dsrv_log_addr
                0x000000000001c3f4       0x76 obj_cooja/mtype67.a(debug.o)
                0x000000000001c3f4                dtls_dsrv_log_addr
 .text.dtls_dsrv_hexdump_log
                0x000000000001c46a      0x16a obj_cooja/mtype67.a(debug.o)
                0x000000000001c46a                dtls_dsrv_hexdump_log
 .text          0x000000000001c5d4        0x0 obj_cooja/mtype67.a(simEnvChange.o)
 .text.doActionsBeforeTick
                0x000000000001c5d4       0x31 obj_cooja/mtype67.a(simEnvChange.o)
                0x000000000001c5d4                doActionsBeforeTick
 .text.doActionsAfterTick
                0x000000000001c605       0x32 obj_cooja/mtype67.a(simEnvChange.o)
                0x000000000001c605                doActionsAfterTick
 .text          0x000000000001c637        0x0 obj_cooja/mtype67.a(cooja_mt.o)
 .text.cooja_mt_init
                0x000000000001c637        0xd obj_cooja/mtype67.a(cooja_mt.o)
                0x000000000001c637                cooja_mt_init
 .text.cooja_mt_remove
                0x000000000001c644        0xd obj_cooja/mtype67.a(cooja_mt.o)
                0x000000000001c644                cooja_mt_remove
 .text.cooja_mt_start
                0x000000000001c651       0x2d obj_cooja/mtype67.a(cooja_mt.o)
                0x000000000001c651                cooja_mt_start
 .text.cooja_mt_exec
                0x000000000001c67e       0x31 obj_cooja/mtype67.a(cooja_mt.o)
                0x000000000001c67e                cooja_mt_exec
 .text.cooja_mt_exit
                0x000000000001c6af       0x22 obj_cooja/mtype67.a(cooja_mt.o)
                0x000000000001c6af                cooja_mt_exit
 .text.cooja_mt_yield
                0x000000000001c6d1       0x22 obj_cooja/mtype67.a(cooja_mt.o)
                0x000000000001c6d1                cooja_mt_yield
 .text          0x000000000001c6f3        0x0 obj_cooja/mtype67.a(cooja_mtarch.o)
 .text.cooja_mtarch_init
                0x000000000001c6f3        0x5 obj_cooja/mtype67.a(cooja_mtarch.o)
                0x000000000001c6f3                cooja_mtarch_init
 .text.cooja_mtarch_start
                0x000000000001c6f8       0x7b obj_cooja/mtype67.a(cooja_mtarch.o)
                0x000000000001c6f8                cooja_mtarch_start
 .text.cooja_sw
                0x000000000001c773       0x22 obj_cooja/mtype67.a(cooja_mtarch.o)
                0x000000000001c773                cooja_sw
 .text.cooja_mtarch_exec
                0x000000000001c795       0x1c obj_cooja/mtype67.a(cooja_mtarch.o)
                0x000000000001c795                cooja_mtarch_exec
 .text.cooja_mtarch_remove
                0x000000000001c7b1        0x5 obj_cooja/mtype67.a(cooja_mtarch.o)
                0x000000000001c7b1                cooja_mtarch_remove
 .text.cooja_mtarch_yield
                0x000000000001c7b6        0xa obj_cooja/mtype67.a(cooja_mtarch.o)
                0x000000000001c7b6                cooja_mtarch_yield
 .text.cooja_mtarch_pstop
                0x000000000001c7c0        0x5 obj_cooja/mtype67.a(cooja_mtarch.o)
                0x000000000001c7c0                cooja_mtarch_pstop
 .text.cooja_mtarch_pstart
                0x000000000001c7c5        0x5 obj_cooja/mtype67.a(cooja_mtarch.o)
                0x000000000001c7c5                cooja_mtarch_pstart
 .text.cooja_mtarch_stack_usage
                0x000000000001c7ca       0x3e obj_cooja/mtype67.a(cooja_mtarch.o)
                0x000000000001c7ca                cooja_mtarch_stack_usage
 .text          0x000000000001c808        0x0 obj_cooja/mtype67.a(rtimer-arch.o)
 .text.rtimer_arch_init
                0x000000000001c808       0x23 obj_cooja/mtype67.a(rtimer-arch.o)
                0x000000000001c808                rtimer_arch_init
 .text.rtimer_arch_schedule
                0x000000000001c82b       0x2f obj_cooja/mtype67.a(rtimer-arch.o)
                0x000000000001c82b                rtimer_arch_schedule
 .text.rtimer_arch_next
                0x000000000001c85a       0x10 obj_cooja/mtype67.a(rtimer-arch.o)
                0x000000000001c85a                rtimer_arch_next
 .text.rtimer_arch_pending
                0x000000000001c86a        0xa obj_cooja/mtype67.a(rtimer-arch.o)
                0x000000000001c86a                rtimer_arch_pending
 .text.rtimer_arch_check
                0x000000000001c874       0x47 obj_cooja/mtype67.a(rtimer-arch.o)
                0x000000000001c874                rtimer_arch_check
 .text.rtimer_arch_now
                0x000000000001c8bb       0x10 obj_cooja/mtype67.a(rtimer-arch.o)
                0x000000000001c8bb                rtimer_arch_now
 .text          0x000000000001c8cb        0x0 obj_cooja/mtype67.a(beep.o)
 .text.beep_alarm
                0x000000000001c8cb        0xc obj_cooja/mtype67.a(beep.o)
                0x000000000001c8cb                beep_alarm
 .text.beep_beep
                0x000000000001c8d7        0xc obj_cooja/mtype67.a(beep.o)
                0x000000000001c8d7                beep_beep
 .text.beep     0x000000000001c8e3        0xc obj_cooja/mtype67.a(beep.o)
                0x000000000001c8e3                beep
 .text.beep_down
                0x000000000001c8ef        0xc obj_cooja/mtype67.a(beep.o)
                0x000000000001c8ef                beep_down
 .text.beep_on  0x000000000001c8fb        0xc obj_cooja/mtype67.a(beep.o)
                0x000000000001c8fb                beep_on
 .text.beep_off
                0x000000000001c907        0xc obj_cooja/mtype67.a(beep.o)
                0x000000000001c907                beep_off
 .text.beep_spinup
                0x000000000001c913        0xc obj_cooja/mtype67.a(beep.o)
                0x000000000001c913                beep_spinup
 .text.beep_quick
                0x000000000001c91f        0xc obj_cooja/mtype67.a(beep.o)
                0x000000000001c91f                beep_quick
 .text.beep_long
                0x000000000001c92b        0xc obj_cooja/mtype67.a(beep.o)
                0x000000000001c92b                beep_long
 .text.doInterfaceActionsBeforeTick
                0x000000000001c937        0x5 obj_cooja/mtype67.a(beep.o)
 .text.doInterfaceActionsAfterTick
                0x000000000001c93c        0x5 obj_cooja/mtype67.a(beep.o)
 .text          0x000000000001c941        0x0 obj_cooja/mtype67.a(button-sensor.o)
 .text.value    0x000000000001c941       0x2f obj_cooja/mtype67.a(button-sensor.o)
 .text.configure
                0x000000000001c970       0x50 obj_cooja/mtype67.a(button-sensor.o)
 .text.status   0x000000000001c9c0       0x1f obj_cooja/mtype67.a(button-sensor.o)
 .text.doInterfaceActionsBeforeTick
                0x000000000001c9df       0x60 obj_cooja/mtype67.a(button-sensor.o)
 .text.doInterfaceActionsAfterTick
                0x000000000001ca3f        0x5 obj_cooja/mtype67.a(button-sensor.o)
 .text          0x000000000001ca44        0x0 obj_cooja/mtype67.a(leds-arch.o)
 .text.leds_arch_init
                0x000000000001ca44        0xc obj_cooja/mtype67.a(leds-arch.o)
                0x000000000001ca44                leds_arch_init
 .text.leds_arch_get
                0x000000000001ca50        0xc obj_cooja/mtype67.a(leds-arch.o)
                0x000000000001ca50                leds_arch_get
 .text.leds_arch_set
                0x000000000001ca5c       0x23 obj_cooja/mtype67.a(leds-arch.o)
                0x000000000001ca5c                leds_arch_set
 .text.doInterfaceActionsBeforeTick
                0x000000000001ca7f        0x5 obj_cooja/mtype67.a(leds-arch.o)
 .text.doInterfaceActionsAfterTick
                0x000000000001ca84        0x5 obj_cooja/mtype67.a(leds-arch.o)
 .text          0x000000000001ca89        0x0 obj_cooja/mtype67.a(moteid.o)
 .text.doInterfaceActionsBeforeTick
                0x000000000001ca89       0x2a obj_cooja/mtype67.a(moteid.o)
 .text.doInterfaceActionsAfterTick
                0x000000000001cab3        0x5 obj_cooja/mtype67.a(moteid.o)
 .text          0x000000000001cab8        0x0 obj_cooja/mtype67.a(pir-sensor.o)
 .text.value    0x000000000001cab8        0xf obj_cooja/mtype67.a(pir-sensor.o)
 .text.configure
                0x000000000001cac7       0x3a obj_cooja/mtype67.a(pir-sensor.o)
 .text.status   0x000000000001cb01       0x23 obj_cooja/mtype67.a(pir-sensor.o)
 .text.doInterfaceActionsBeforeTick
                0x000000000001cb24       0x40 obj_cooja/mtype67.a(pir-sensor.o)
 .text.doInterfaceActionsAfterTick
                0x000000000001cb64        0x5 obj_cooja/mtype67.a(pir-sensor.o)
 .text          0x000000000001cb69        0x0 obj_cooja/mtype67.a(rs232.o)
 .text.rs232_init
                0x000000000001cb69        0x5 obj_cooja/mtype67.a(rs232.o)
                0x000000000001cb69                rs232_init
 .text.rs232_set_speed
                0x000000000001cb6e        0xe obj_cooja/mtype67.a(rs232.o)
                0x000000000001cb6e                rs232_set_speed
 .text.rs232_set_input
                0x000000000001cb7c        0xd obj_cooja/mtype67.a(rs232.o)
                0x000000000001cb7c                rs232_set_input
 .text.rs232_send
                0x000000000001cb89       0x22 obj_cooja/mtype67.a(rs232.o)
                0x000000000001cb89                rs232_send
 .text.rs232_print
                0x000000000001cbab       0x1b obj_cooja/mtype67.a(rs232.o)
                0x000000000001cbab                rs232_print
 .text.slip_arch_writeb
                0x000000000001cbc6       0x1d obj_cooja/mtype67.a(rs232.o)
                0x000000000001cbc6                slip_arch_writeb
 .text.doInterfaceActionsBeforeTick
                0x000000000001cbe3       0xb2 obj_cooja/mtype67.a(rs232.o)
 .text.doInterfaceActionsAfterTick
                0x000000000001cc95        0x5 obj_cooja/mtype67.a(rs232.o)
 .text          0x000000000001cc9a        0x0 obj_cooja/mtype67.a(vib-sensor.o)
 .text.value    0x000000000001cc9a        0xf obj_cooja/mtype67.a(vib-sensor.o)
 .text.configure
                0x000000000001cca9       0x3a obj_cooja/mtype67.a(vib-sensor.o)
 .text.status   0x000000000001cce3       0x23 obj_cooja/mtype67.a(vib-sensor.o)
 .text.doInterfaceActionsBeforeTick
                0x000000000001cd06       0x40 obj_cooja/mtype67.a(vib-sensor.o)
 .text.doInterfaceActionsAfterTick
                0x000000000001cd46        0x5 obj_cooja/mtype67.a(vib-sensor.o)
 .text          0x000000000001cd4b        0x0 obj_cooja/mtype67.a(clock.o)
 .text.clock_init
                0x000000000001cd4b        0x5 obj_cooja/mtype67.a(clock.o)
                0x000000000001cd4b                clock_init
 .text.clock_time
                0x000000000001cd50        0xa obj_cooja/mtype67.a(clock.o)
                0x000000000001cd50                clock_time
 .text.clock_seconds
                0x000000000001cd5a       0x16 obj_cooja/mtype67.a(clock.o)
                0x000000000001cd5a                clock_seconds
 .text.clock_delay
                0x000000000001cd70        0x5 obj_cooja/mtype67.a(clock.o)
                0x000000000001cd70                clock_delay
 .text.doInterfaceActionsBeforeTick
                0x000000000001cd75        0x5 obj_cooja/mtype67.a(clock.o)
 .text.doInterfaceActionsAfterTick
                0x000000000001cd7a        0x5 obj_cooja/mtype67.a(clock.o)
 .text          0x000000000001cd7f        0x0 obj_cooja/mtype67.a(log.o)
 .text.simlog_char
                0x000000000001cd7f       0x42 obj_cooja/mtype67.a(log.o)
                0x000000000001cd7f                simlog_char
 .text.simlog   0x000000000001cdc1       0x6d obj_cooja/mtype67.a(log.o)
                0x000000000001cdc1                simlog
 .text.log_message
                0x000000000001ce2e       0x1e obj_cooja/mtype67.a(log.o)
                0x000000000001ce2e                log_message
 .text.doInterfaceActionsBeforeTick
                0x000000000001ce4c        0x5 obj_cooja/mtype67.a(log.o)
 .text.doInterfaceActionsAfterTick
                0x000000000001ce51        0x5 obj_cooja/mtype67.a(log.o)
 .text.log_set_putchar_with_slip
                0x000000000001ce56        0xd obj_cooja/mtype67.a(log.o)
                0x000000000001ce56                log_set_putchar_with_slip
 .text.putchar  0x000000000001ce63       0x84 obj_cooja/mtype67.a(log.o)
                0x000000000001ce63                log_putchar
 .text.puts     0x000000000001cee7       0x24 obj_cooja/mtype67.a(log.o)
                0x000000000001cee7                log_puts
 .text.printf   0x000000000001cf0b       0x61 obj_cooja/mtype67.a(log.o)
                0x000000000001cf0b                log_printf
 .text          0x000000000001cf6c        0x0 obj_cooja/mtype67.a(cfs-cooja.o)
 .text.cfs_open
                0x000000000001cf6c       0x69 obj_cooja/mtype67.a(cfs-cooja.o)
                0x000000000001cf6c                cfs_open
 .text.cfs_close
                0x000000000001cfd5        0xc obj_cooja/mtype67.a(cfs-cooja.o)
                0x000000000001cfd5                cfs_close
 .text.cfs_read
                0x000000000001cfe1       0x9e obj_cooja/mtype67.a(cfs-cooja.o)
                0x000000000001cfe1                cfs_read
 .text.cfs_write
                0x000000000001d07f       0xdd obj_cooja/mtype67.a(cfs-cooja.o)
                0x000000000001d07f                cfs_write
 .text.cfs_seek
                0x000000000001d15c       0x88 obj_cooja/mtype67.a(cfs-cooja.o)
                0x000000000001d15c                cfs_seek
 .text.cfs_remove
                0x000000000001d1e4       0x29 obj_cooja/mtype67.a(cfs-cooja.o)
                0x000000000001d1e4                cfs_remove
 .text.cfs_opendir
                0x000000000001d20d        0xa obj_cooja/mtype67.a(cfs-cooja.o)
                0x000000000001d20d                cfs_opendir
 .text.cfs_readdir
                0x000000000001d217        0xa obj_cooja/mtype67.a(cfs-cooja.o)
                0x000000000001d217                cfs_readdir
 .text.cfs_closedir
                0x000000000001d221        0x5 obj_cooja/mtype67.a(cfs-cooja.o)
                0x000000000001d221                cfs_closedir
 .text.doInterfaceActionsBeforeTick
                0x000000000001d226        0x5 obj_cooja/mtype67.a(cfs-cooja.o)
 .text.doInterfaceActionsAfterTick
                0x000000000001d22b        0x5 obj_cooja/mtype67.a(cfs-cooja.o)
 .text          0x000000000001d230        0x0 obj_cooja/mtype67.a(cooja-radio.o)
 .text.packetbuf_set_attr
                0x000000000001d230       0x2a obj_cooja/mtype67.a(cooja-radio.o)
 .text.set_send_on_cca
                0x000000000001d25a       0x17 obj_cooja/mtype67.a(cooja-radio.o)
 .text.set_frame_filtering
                0x000000000001d271        0xd obj_cooja/mtype67.a(cooja-radio.o)
 .text.set_auto_ack
                0x000000000001d27e        0xd obj_cooja/mtype67.a(cooja-radio.o)
 .text.set_poll_mode
                0x000000000001d28b        0xd obj_cooja/mtype67.a(cooja-radio.o)
 .text.radio_set_channel
                0x000000000001d298        0xd obj_cooja/mtype67.a(cooja-radio.o)
                0x000000000001d298                radio_set_channel
 .text.radio_set_txpower
                0x000000000001d2a5       0x17 obj_cooja/mtype67.a(cooja-radio.o)
                0x000000000001d2a5                radio_set_txpower
 .text.radio_signal_strength_last
                0x000000000001d2bc        0xa obj_cooja/mtype67.a(cooja-radio.o)
                0x000000000001d2bc                radio_signal_strength_last
 .text.radio_signal_strength_current
                0x000000000001d2c6        0xa obj_cooja/mtype67.a(cooja-radio.o)
                0x000000000001d2c6                radio_signal_strength_current
 .text.radio_LQI
                0x000000000001d2d0        0xa obj_cooja/mtype67.a(cooja-radio.o)
                0x000000000001d2d0                radio_LQI
 .text.radio_on
                0x000000000001d2da       0x11 obj_cooja/mtype67.a(cooja-radio.o)
 .text.radio_off
                0x000000000001d2eb       0x11 obj_cooja/mtype67.a(cooja-radio.o)
 .text.doInterfaceActionsBeforeTick
                0x000000000001d2fc       0x4b obj_cooja/mtype67.a(cooja-radio.o)
 .text.doInterfaceActionsAfterTick
                0x000000000001d347        0x5 obj_cooja/mtype67.a(cooja-radio.o)
 .text.radio_read
                0x000000000001d34c       0xb7 obj_cooja/mtype67.a(cooja-radio.o)
 .text.channel_clear
                0x000000000001d403       0x1b obj_cooja/mtype67.a(cooja-radio.o)
 .text.radio_send
                0x000000000001d41e       0xda obj_cooja/mtype67.a(cooja-radio.o)
 .text.prepare_packet
                0x000000000001d4f8       0x1c obj_cooja/mtype67.a(cooja-radio.o)
 .text.transmit_packet
                0x000000000001d514       0x3a obj_cooja/mtype67.a(cooja-radio.o)
 .text.receiving_packet
                0x000000000001d54e        0xf obj_cooja/mtype67.a(cooja-radio.o)
 .text.pending_packet
                0x000000000001d55d       0x25 obj_cooja/mtype67.a(cooja-radio.o)
 .text.process_thread_cooja_radio_process
                0x000000000001d582       0x9f obj_cooja/mtype67.a(cooja-radio.o)
 .text.init     0x000000000001d621       0x21 obj_cooja/mtype67.a(cooja-radio.o)
 .text.get_value
                0x000000000001d642       0xdc obj_cooja/mtype67.a(cooja-radio.o)
 .text.set_value
                0x000000000001d71e      0x104 obj_cooja/mtype67.a(cooja-radio.o)
 .text.get_object
                0x000000000001d822       0x3d obj_cooja/mtype67.a(cooja-radio.o)
 .text.set_object
                0x000000000001d85f        0xa obj_cooja/mtype67.a(cooja-radio.o)
 .text          0x000000000001d869        0x0 obj_cooja/mtype67.a(eeprom.o)
 .text.eeprom_init
                0x000000000001d869        0x5 obj_cooja/mtype67.a(eeprom.o)
                0x000000000001d869                eeprom_init
 .text.eeprom_read
                0x000000000001d86e       0x70 obj_cooja/mtype67.a(eeprom.o)
                0x000000000001d86e                eeprom_read
 .text.eeprom_write
                0x000000000001d8de       0x70 obj_cooja/mtype67.a(eeprom.o)
                0x000000000001d8de                eeprom_write
 .text.doInterfaceActionsBeforeTick
                0x000000000001d94e        0x5 obj_cooja/mtype67.a(eeprom.o)
 .text.doInterfaceActionsAfterTick
                0x000000000001d953        0x5 obj_cooja/mtype67.a(eeprom.o)
 .text          0x000000000001d958        0x0 obj_cooja/mtype67.a(random.o)
 .text.random_init
                0x000000000001d958       0x1b obj_cooja/mtype67.a(random.o)
                0x000000000001d958                random_init
 .text.random_rand
                0x000000000001d973        0xd obj_cooja/mtype67.a(random.o)
                0x000000000001d973                random_rand
 .text          0x000000000001d980        0x0 obj_cooja/mtype67.a(sensors.o)
 .text.get_sensor_index
                0x000000000001d980       0x3b obj_cooja/mtype67.a(sensors.o)
 .text.sensors_first
                0x000000000001d9bb        0xa obj_cooja/mtype67.a(sensors.o)
                0x000000000001d9bb                sensors_first
 .text.sensors_next
                0x000000000001d9c5       0x1d obj_cooja/mtype67.a(sensors.o)
                0x000000000001d9c5                sensors_next
 .text.sensors_changed
                0x000000000001d9e2       0x2f obj_cooja/mtype67.a(sensors.o)
                0x000000000001d9e2                sensors_changed
 .text.sensors_find
                0x000000000001da11       0x6b obj_cooja/mtype67.a(sensors.o)
                0x000000000001da11                sensors_find
 .text.process_thread_sensors_process
                0x000000000001da7c      0x1a5 obj_cooja/mtype67.a(sensors.o)
 .text          0x000000000001dc21        0x0 obj_cooja/mtype67.a(autostart.o)
 .text.autostart_start
                0x000000000001dc21       0x4b obj_cooja/mtype67.a(autostart.o)
                0x000000000001dc21                autostart_start
 .text.autostart_exit
                0x000000000001dc6c       0x43 obj_cooja/mtype67.a(autostart.o)
                0x000000000001dc6c                autostart_exit
 .text          0x000000000001dcaf        0x0 obj_cooja/mtype67.a(ctimer.o)
 .text.process_thread_ctimer_process
                0x000000000001dcaf      0x117 obj_cooja/mtype67.a(ctimer.o)
 .text.ctimer_init
                0x000000000001ddc6       0x30 obj_cooja/mtype67.a(ctimer.o)
                0x000000000001ddc6                ctimer_init
 .text.ctimer_set
                0x000000000001ddf6       0x31 obj_cooja/mtype67.a(ctimer.o)
                0x000000000001ddf6                ctimer_set
 .text.ctimer_set_with_process
                0x000000000001de27       0x7c obj_cooja/mtype67.a(ctimer.o)
                0x000000000001de27                ctimer_set_with_process
 .text.ctimer_reset
                0x000000000001dea3       0x4f obj_cooja/mtype67.a(ctimer.o)
                0x000000000001dea3                ctimer_reset
 .text.ctimer_restart
                0x000000000001def2       0x4f obj_cooja/mtype67.a(ctimer.o)
                0x000000000001def2                ctimer_restart
 .text.ctimer_stop
                0x000000000001df41       0x4b obj_cooja/mtype67.a(ctimer.o)
                0x000000000001df41                ctimer_stop
 .text.ctimer_expired
                0x000000000001df8c       0x57 obj_cooja/mtype67.a(ctimer.o)
                0x000000000001df8c                ctimer_expired
 .text          0x000000000001dfe3        0x0 obj_cooja/mtype67.a(etimer.o)
 .text.update_time
                0x000000000001dfe3       0x8f obj_cooja/mtype67.a(etimer.o)
 .text.process_thread_etimer_process
                0x000000000001e072      0x184 obj_cooja/mtype67.a(etimer.o)
 .text.etimer_request_poll
                0x000000000001e1f6       0x14 obj_cooja/mtype67.a(etimer.o)
                0x000000000001e1f6                etimer_request_poll
 .text.add_timer
                0x000000000001e20a       0x70 obj_cooja/mtype67.a(etimer.o)
 .text.etimer_set
                0x000000000001e27a       0x25 obj_cooja/mtype67.a(etimer.o)
                0x000000000001e27a                etimer_set
 .text.etimer_reset_with_new_interval
                0x000000000001e29f       0x27 obj_cooja/mtype67.a(etimer.o)
                0x000000000001e29f                etimer_reset_with_new_interval
 .text.etimer_reset
                0x000000000001e2c6       0x1e obj_cooja/mtype67.a(etimer.o)
                0x000000000001e2c6                etimer_reset
 .text.etimer_restart
                0x000000000001e2e4       0x1e obj_cooja/mtype67.a(etimer.o)
                0x000000000001e2e4                etimer_restart
 .text.etimer_adjust
                0x000000000001e302       0x1c obj_cooja/mtype67.a(etimer.o)
                0x000000000001e302                etimer_adjust
 .text.etimer_expired
                0x000000000001e31e       0x13 obj_cooja/mtype67.a(etimer.o)
                0x000000000001e31e                etimer_expired
 .text.etimer_expiration_time
                0x000000000001e331       0x12 obj_cooja/mtype67.a(etimer.o)
                0x000000000001e331                etimer_expiration_time
 .text.etimer_start_time
                0x000000000001e343        0xa obj_cooja/mtype67.a(etimer.o)
                0x000000000001e343                etimer_start_time
 .text.etimer_pending
                0x000000000001e34d       0x12 obj_cooja/mtype67.a(etimer.o)
                0x000000000001e34d                etimer_pending
 .text.etimer_next_expiration_time
                0x000000000001e35f       0x1a obj_cooja/mtype67.a(etimer.o)
                0x000000000001e35f                etimer_next_expiration_time
 .text.etimer_stop
                0x000000000001e379       0x75 obj_cooja/mtype67.a(etimer.o)
                0x000000000001e379                etimer_stop
 .text          0x000000000001e3ee        0x0 obj_cooja/mtype67.a(process.o)
 .text.process_alloc_event
                0x000000000001e3ee       0x15 obj_cooja/mtype67.a(process.o)
                0x000000000001e3ee                process_alloc_event
 .text.process_start
                0x000000000001e403       0x6f obj_cooja/mtype67.a(process.o)
                0x000000000001e403                process_start
 .text.exit_process
                0x000000000001e472       0xea obj_cooja/mtype67.a(process.o)
 .text.call_process
                0x000000000001e55c       0x90 obj_cooja/mtype67.a(process.o)
 .text.process_exit
                0x000000000001e5ec       0x1c obj_cooja/mtype67.a(process.o)
                0x000000000001e5ec                process_exit
 .text.process_init
                0x000000000001e608       0x33 obj_cooja/mtype67.a(process.o)
                0x000000000001e608                process_init
 .text.do_poll  0x000000000001e63b       0x5b obj_cooja/mtype67.a(process.o)
 .text.do_event
                0x000000000001e696      0x114 obj_cooja/mtype67.a(process.o)
 .text.process_run
                0x000000000001e7aa       0x33 obj_cooja/mtype67.a(process.o)
                0x000000000001e7aa                process_run
 .text.process_nevents
                0x000000000001e7dd       0x1b obj_cooja/mtype67.a(process.o)
                0x000000000001e7dd                process_nevents
 .text.process_post
                0x000000000001e7f8       0x95 obj_cooja/mtype67.a(process.o)
                0x000000000001e7f8                process_post
 .text.process_post_synch
                0x000000000001e88d       0x38 obj_cooja/mtype67.a(process.o)
                0x000000000001e88d                process_post_synch
 .text.process_poll
                0x000000000001e8c5       0x2f obj_cooja/mtype67.a(process.o)
                0x000000000001e8c5                process_poll
 .text.process_is_running
                0x000000000001e8f4       0x14 obj_cooja/mtype67.a(process.o)
                0x000000000001e8f4                process_is_running
 .text          0x000000000001e908        0x0 obj_cooja/mtype67.a(rtimer.o)
 .text.rtimer_init
                0x000000000001e908        0xd obj_cooja/mtype67.a(rtimer.o)
                0x000000000001e908                rtimer_init
 .text.rtimer_set
                0x000000000001e915       0x7c obj_cooja/mtype67.a(rtimer.o)
                0x000000000001e915                rtimer_set
 .text.rtimer_run_next
                0x000000000001e991       0x5d obj_cooja/mtype67.a(rtimer.o)
                0x000000000001e991                rtimer_run_next
 .text          0x000000000001e9ee        0x0 obj_cooja/mtype67.a(timer.o)
 .text.timer_set
                0x000000000001e9ee       0x1b obj_cooja/mtype67.a(timer.o)
                0x000000000001e9ee                timer_set
 .text.timer_reset
                0x000000000001ea09       0x17 obj_cooja/mtype67.a(timer.o)
                0x000000000001ea09                timer_reset
 .text.timer_restart
                0x000000000001ea20       0x12 obj_cooja/mtype67.a(timer.o)
                0x000000000001ea20                timer_restart
 .text.timer_expired
                0x000000000001ea32       0x29 obj_cooja/mtype67.a(timer.o)
                0x000000000001ea32                timer_expired
 .text.timer_remaining
                0x000000000001ea5b       0x24 obj_cooja/mtype67.a(timer.o)
                0x000000000001ea5b                timer_remaining
 .text          0x000000000001ea7f        0x0 obj_cooja/mtype67.a(serial-line.o)
 .text.serial_line_input_byte
                0x000000000001ea7f       0x7d obj_cooja/mtype67.a(serial-line.o)
                0x000000000001ea7f                serial_line_input_byte
 .text.process_thread_serial_line_process
                0x000000000001eafc      0x146 obj_cooja/mtype67.a(serial-line.o)
 .text.serial_line_init
                0x000000000001ec42       0x38 obj_cooja/mtype67.a(serial-line.o)
                0x000000000001ec42                serial_line_init
 .text          0x000000000001ec7a        0x0 obj_cooja/mtype67.a(assert.o)
 .text._xassert
                0x000000000001ec7a       0x22 obj_cooja/mtype67.a(assert.o)
                0x000000000001ec7a                _xassert
 .text          0x000000000001ec9c        0x0 obj_cooja/mtype67.a(list.o)
 .text.list_init
                0x000000000001ec9c        0xe obj_cooja/mtype67.a(list.o)
                0x000000000001ec9c                list_init
 .text.list_head
                0x000000000001ecaa        0xa obj_cooja/mtype67.a(list.o)
                0x000000000001ecaa                list_head
 .text.list_copy
                0x000000000001ecb4        0xf obj_cooja/mtype67.a(list.o)
                0x000000000001ecb4                list_copy
 .text.list_tail
                0x000000000001ecc3       0x36 obj_cooja/mtype67.a(list.o)
                0x000000000001ecc3                list_tail
 .text.list_add
                0x000000000001ecf9       0x49 obj_cooja/mtype67.a(list.o)
                0x000000000001ecf9                list_add
 .text.list_push
                0x000000000001ed42       0x2c obj_cooja/mtype67.a(list.o)
                0x000000000001ed42                list_push
 .text.list_chop
                0x000000000001ed6e       0x6a obj_cooja/mtype67.a(list.o)
                0x000000000001ed6e                list_chop
 .text.list_pop
                0x000000000001edd8       0x28 obj_cooja/mtype67.a(list.o)
                0x000000000001edd8                list_pop
 .text.list_remove
                0x000000000001ee00       0x67 obj_cooja/mtype67.a(list.o)
                0x000000000001ee00                list_remove
 .text.list_length
                0x000000000001ee67       0x2e obj_cooja/mtype67.a(list.o)
                0x000000000001ee67                list_length
 .text.list_insert
                0x000000000001ee95       0x34 obj_cooja/mtype67.a(list.o)
                0x000000000001ee95                list_insert
 .text.list_item_next
                0x000000000001eec9       0x17 obj_cooja/mtype67.a(list.o)
                0x000000000001eec9                list_item_next
 .text          0x000000000001eee0        0x0 obj_cooja/mtype67.a(memb.o)
 .text.memb_init
                0x000000000001eee0       0x5e obj_cooja/mtype67.a(memb.o)
                0x000000000001eee0                memb_init
 .text.memb_alloc
                0x000000000001ef3e       0x65 obj_cooja/mtype67.a(memb.o)
                0x000000000001ef3e                memb_alloc
 .text.memb_free
                0x000000000001efa3       0x7b obj_cooja/mtype67.a(memb.o)
                0x000000000001efa3                memb_free
 .text.memb_inmemb
                0x000000000001f01e       0x3f obj_cooja/mtype67.a(memb.o)
                0x000000000001f01e                memb_inmemb
 .text.memb_numfree
                0x000000000001f05d       0x44 obj_cooja/mtype67.a(memb.o)
                0x000000000001f05d                memb_numfree
 .text          0x000000000001f0a1        0x0 obj_cooja/mtype67.a(ringbuf.o)
 .text.ringbuf_init
                0x000000000001f0a1       0x31 obj_cooja/mtype67.a(ringbuf.o)
                0x000000000001f0a1                ringbuf_init
 .text.ringbuf_put
                0x000000000001f0d2       0x7e obj_cooja/mtype67.a(ringbuf.o)
                0x000000000001f0d2                ringbuf_put
 .text.ringbuf_get
                0x000000000001f150       0x6d obj_cooja/mtype67.a(ringbuf.o)
                0x000000000001f150                ringbuf_get
 .text.ringbuf_size
                0x000000000001f1bd       0x12 obj_cooja/mtype67.a(ringbuf.o)
                0x000000000001f1bd                ringbuf_size
 .text.ringbuf_elements
                0x000000000001f1cf       0x27 obj_cooja/mtype67.a(ringbuf.o)
                0x000000000001f1cf                ringbuf_elements
 .text          0x000000000001f1f6        0x0 obj_cooja/mtype67.a(sicslowpan.o)
 .text.packetbuf_set_attr
                0x000000000001f1f6       0x2a obj_cooja/mtype67.a(sicslowpan.o)
 .text.packetbuf_attr
                0x000000000001f220       0x1a obj_cooja/mtype67.a(sicslowpan.o)
 .text.packetbuf_set_addr
                0x000000000001f23a       0x32 obj_cooja/mtype67.a(sicslowpan.o)
 .text.packetbuf_addr
                0x000000000001f26c       0x1d obj_cooja/mtype67.a(sicslowpan.o)
 .text.clear_fragments
                0x000000000001f289       0x79 obj_cooja/mtype67.a(sicslowpan.o)
 .text.timeout_fragments
                0x000000000001f302       0x75 obj_cooja/mtype67.a(sicslowpan.o)
 .text.store_fragment
                0x000000000001f377       0xe8 obj_cooja/mtype67.a(sicslowpan.o)
 .text.add_fragment
                0x000000000001f45f      0x23e obj_cooja/mtype67.a(sicslowpan.o)
 .text.copy_frags2uip
                0x000000000001f69d       0xe3 obj_cooja/mtype67.a(sicslowpan.o)
 .text.rime_sniffer_add
                0x000000000001f780        0xd obj_cooja/mtype67.a(sicslowpan.o)
                0x000000000001f780                rime_sniffer_add
 .text.rime_sniffer_remove
                0x000000000001f78d        0xf obj_cooja/mtype67.a(sicslowpan.o)
                0x000000000001f78d                rime_sniffer_remove
 .text.set_packet_attrs
                0x000000000001f79c       0xe9 obj_cooja/mtype67.a(sicslowpan.o)
 .text.addr_context_lookup_by_prefix
                0x000000000001f885       0x7a obj_cooja/mtype67.a(sicslowpan.o)
 .text.addr_context_lookup_by_number
                0x000000000001f8ff       0x6a obj_cooja/mtype67.a(sicslowpan.o)
 .text.compress_addr_64
                0x000000000001f969      0x16c obj_cooja/mtype67.a(sicslowpan.o)
 .text.uncompress_addr
                0x000000000001fad5      0x120 obj_cooja/mtype67.a(sicslowpan.o)
 .text.compress_hdr_iphc
                0x000000000001fbf5      0x994 obj_cooja/mtype67.a(sicslowpan.o)
 .text.uncompress_hdr_iphc
                0x0000000000020589      0x7dd obj_cooja/mtype67.a(sicslowpan.o)
 .text.compress_hdr_ipv6
                0x0000000000020d66       0x68 obj_cooja/mtype67.a(sicslowpan.o)
 .text.packet_sent
                0x0000000000020dce       0x3b obj_cooja/mtype67.a(sicslowpan.o)
 .text.send_packet
                0x0000000000020e09       0x36 obj_cooja/mtype67.a(sicslowpan.o)
 .text.output   0x0000000000020e3f      0x49d obj_cooja/mtype67.a(sicslowpan.o)
 .text.input    0x00000000000212dc      0x458 obj_cooja/mtype67.a(sicslowpan.o)
 .text.sicslowpan_init
                0x0000000000021734       0x57 obj_cooja/mtype67.a(sicslowpan.o)
                0x0000000000021734                sicslowpan_init
 .text.sicslowpan_get_last_rssi
                0x000000000002178b        0xa obj_cooja/mtype67.a(sicslowpan.o)
                0x000000000002178b                sicslowpan_get_last_rssi
 .text          0x0000000000021795        0x0 obj_cooja/mtype67.a(uip-ds6-nbr.o)
 .text.packetbuf_addr
                0x0000000000021795       0x1d obj_cooja/mtype67.a(uip-ds6-nbr.o)
 .text.uip_ds6_neighbors_init
                0x00000000000217b2       0x22 obj_cooja/mtype67.a(uip-ds6-nbr.o)
                0x00000000000217b2                uip_ds6_neighbors_init
 .text.uip_ds6_nbr_add
                0x00000000000217d4       0xe2 obj_cooja/mtype67.a(uip-ds6-nbr.o)
                0x00000000000217d4                uip_ds6_nbr_add
 .text.uip_ds6_nbr_rm
                0x00000000000218b6       0x42 obj_cooja/mtype67.a(uip-ds6-nbr.o)
                0x00000000000218b6                uip_ds6_nbr_rm
 .text.uip_ds6_nbr_get_ipaddr
                0x00000000000218f8       0x15 obj_cooja/mtype67.a(uip-ds6-nbr.o)
                0x00000000000218f8                uip_ds6_nbr_get_ipaddr
 .text.uip_ds6_nbr_get_ll
                0x000000000002190d       0x1c obj_cooja/mtype67.a(uip-ds6-nbr.o)
                0x000000000002190d                uip_ds6_nbr_get_ll
 .text.uip_ds6_nbr_num
                0x0000000000021929       0x45 obj_cooja/mtype67.a(uip-ds6-nbr.o)
                0x0000000000021929                uip_ds6_nbr_num
 .text.uip_ds6_nbr_lookup
                0x000000000002196e       0x65 obj_cooja/mtype67.a(uip-ds6-nbr.o)
                0x000000000002196e                uip_ds6_nbr_lookup
 .text.uip_ds6_nbr_ll_lookup
                0x00000000000219d3       0x1c obj_cooja/mtype67.a(uip-ds6-nbr.o)
                0x00000000000219d3                uip_ds6_nbr_ll_lookup
 .text.uip_ds6_nbr_ipaddr_from_lladdr
                0x00000000000219ef       0x26 obj_cooja/mtype67.a(uip-ds6-nbr.o)
                0x00000000000219ef                uip_ds6_nbr_ipaddr_from_lladdr
 .text.uip_ds6_nbr_lladdr_from_ipaddr
                0x0000000000021a15       0x2e obj_cooja/mtype67.a(uip-ds6-nbr.o)
                0x0000000000021a15                uip_ds6_nbr_lladdr_from_ipaddr
 .text.uip_ds6_link_neighbor_callback
                0x0000000000021a43       0x62 obj_cooja/mtype67.a(uip-ds6-nbr.o)
                0x0000000000021a43                uip_ds6_link_neighbor_callback
 .text.uip_ds6_neighbor_periodic
                0x0000000000021aa5      0x244 obj_cooja/mtype67.a(uip-ds6-nbr.o)
                0x0000000000021aa5                uip_ds6_neighbor_periodic
 .text.uip_ds6_nbr_refresh_reachable_state
                0x0000000000021ce9       0x40 obj_cooja/mtype67.a(uip-ds6-nbr.o)
                0x0000000000021ce9                uip_ds6_nbr_refresh_reachable_state
 .text.uip_ds6_get_least_lifetime_neighbor
                0x0000000000021d29       0x7b obj_cooja/mtype67.a(uip-ds6-nbr.o)
                0x0000000000021d29                uip_ds6_get_least_lifetime_neighbor
 .text          0x0000000000021da4        0x0 obj_cooja/mtype67.a(uip-ds6-route.o)
 .text.call_route_callback
                0x0000000000021da4       0x77 obj_cooja/mtype67.a(uip-ds6-route.o)
 .text.uip_ds6_notification_add
                0x0000000000021e1b       0x31 obj_cooja/mtype67.a(uip-ds6-route.o)
                0x0000000000021e1b                uip_ds6_notification_add
 .text.uip_ds6_notification_rm
                0x0000000000021e4c       0x1c obj_cooja/mtype67.a(uip-ds6-route.o)
                0x0000000000021e4c                uip_ds6_notification_rm
 .text.uip_ds6_route_init
                0x0000000000021e68       0x5c obj_cooja/mtype67.a(uip-ds6-route.o)
                0x0000000000021e68                uip_ds6_route_init
 .text.uip_ds6_route_nexthop_lladdr
                0x0000000000021ec4       0x2c obj_cooja/mtype67.a(uip-ds6-route.o)
 .text.uip_ds6_route_nexthop
                0x0000000000021ef0       0x28 obj_cooja/mtype67.a(uip-ds6-route.o)
                0x0000000000021ef0                uip_ds6_route_nexthop
 .text.uip_ds6_route_head
                0x0000000000021f18       0x15 obj_cooja/mtype67.a(uip-ds6-route.o)
                0x0000000000021f18                uip_ds6_route_head
 .text.uip_ds6_route_next
                0x0000000000021f2d       0x26 obj_cooja/mtype67.a(uip-ds6-route.o)
                0x0000000000021f2d                uip_ds6_route_next
 .text.uip_ds6_route_is_nexthop
                0x0000000000021f53       0x3f obj_cooja/mtype67.a(uip-ds6-route.o)
                0x0000000000021f53                uip_ds6_route_is_nexthop
 .text.uip_ds6_route_num_routes
                0x0000000000021f92        0xa obj_cooja/mtype67.a(uip-ds6-route.o)
                0x0000000000021f92                uip_ds6_route_num_routes
 .text.uip_ds6_route_lookup
                0x0000000000021f9c       0xc2 obj_cooja/mtype67.a(uip-ds6-route.o)
                0x0000000000021f9c                uip_ds6_route_lookup
 .text.uip_ds6_route_add
                0x000000000002205e      0x236 obj_cooja/mtype67.a(uip-ds6-route.o)
                0x000000000002205e                uip_ds6_route_add
 .text.uip_ds6_route_rm
                0x0000000000022294      0x11d obj_cooja/mtype67.a(uip-ds6-route.o)
                0x0000000000022294                uip_ds6_route_rm
 .text.rm_routelist
                0x00000000000223b1       0x64 obj_cooja/mtype67.a(uip-ds6-route.o)
 .text.rm_routelist_callback
                0x0000000000022415       0x13 obj_cooja/mtype67.a(uip-ds6-route.o)
 .text.uip_ds6_route_rm_by_nexthop
                0x0000000000022428       0x38 obj_cooja/mtype67.a(uip-ds6-route.o)
                0x0000000000022428                uip_ds6_route_rm_by_nexthop
 .text.uip_ds6_defrt_head
                0x0000000000022460       0x15 obj_cooja/mtype67.a(uip-ds6-route.o)
                0x0000000000022460                uip_ds6_defrt_head
 .text.uip_ds6_defrt_add
                0x0000000000022475       0xb1 obj_cooja/mtype67.a(uip-ds6-route.o)
                0x0000000000022475                uip_ds6_defrt_add
 .text.uip_ds6_defrt_rm
                0x0000000000022526       0x7f obj_cooja/mtype67.a(uip-ds6-route.o)
                0x0000000000022526                uip_ds6_defrt_rm
 .text.uip_ds6_defrt_lookup
                0x00000000000225a5       0x59 obj_cooja/mtype67.a(uip-ds6-route.o)
                0x00000000000225a5                uip_ds6_defrt_lookup
 .text.uip_ds6_defrt_choose
                0x00000000000225fe       0x6b obj_cooja/mtype67.a(uip-ds6-route.o)
                0x00000000000225fe                uip_ds6_defrt_choose
 .text.uip_ds6_defrt_periodic
                0x0000000000022669       0x68 obj_cooja/mtype67.a(uip-ds6-route.o)
                0x0000000000022669                uip_ds6_defrt_periodic
 .text          0x00000000000226d1        0x0 obj_cooja/mtype67.a(uip-ds6.o)
 .text.uip_ds6_init
                0x00000000000226d1      0x1d3 obj_cooja/mtype67.a(uip-ds6.o)
                0x00000000000226d1                uip_ds6_init
 .text.uip_ds6_periodic
                0x00000000000228a4       0x7e obj_cooja/mtype67.a(uip-ds6.o)
                0x00000000000228a4                uip_ds6_periodic
 .text.uip_ds6_list_loop
                0x0000000000022922       0xa7 obj_cooja/mtype67.a(uip-ds6.o)
                0x0000000000022922                uip_ds6_list_loop
 .text.uip_ds6_prefix_add
                0x00000000000229c9       0xbe obj_cooja/mtype67.a(uip-ds6.o)
                0x00000000000229c9                uip_ds6_prefix_add
 .text.uip_ds6_prefix_rm
                0x0000000000022a87       0x12 obj_cooja/mtype67.a(uip-ds6.o)
                0x0000000000022a87                uip_ds6_prefix_rm
 .text.uip_ds6_prefix_lookup
                0x0000000000022a99       0x51 obj_cooja/mtype67.a(uip-ds6.o)
                0x0000000000022a99                uip_ds6_prefix_lookup
 .text.uip_ds6_is_addr_onlink
                0x0000000000022aea       0x74 obj_cooja/mtype67.a(uip-ds6.o)
                0x0000000000022aea                uip_ds6_is_addr_onlink
 .text.uip_ds6_addr_add
                0x0000000000022b5e      0x12e obj_cooja/mtype67.a(uip-ds6.o)
                0x0000000000022b5e                uip_ds6_addr_add
 .text.uip_ds6_addr_rm
                0x0000000000022c8c       0xa0 obj_cooja/mtype67.a(uip-ds6.o)
                0x0000000000022c8c                uip_ds6_addr_rm
 .text.uip_ds6_addr_lookup
                0x0000000000022d2c       0x4b obj_cooja/mtype67.a(uip-ds6.o)
                0x0000000000022d2c                uip_ds6_addr_lookup
 .text.uip_ds6_get_link_local
                0x0000000000022d77       0x7f obj_cooja/mtype67.a(uip-ds6.o)
                0x0000000000022d77                uip_ds6_get_link_local
 .text.uip_ds6_get_global
                0x0000000000022df6       0x7f obj_cooja/mtype67.a(uip-ds6.o)
                0x0000000000022df6                uip_ds6_get_global
 .text.uip_ds6_maddr_add
                0x0000000000022e75       0x72 obj_cooja/mtype67.a(uip-ds6.o)
                0x0000000000022e75                uip_ds6_maddr_add
 .text.uip_ds6_maddr_rm
                0x0000000000022ee7       0x12 obj_cooja/mtype67.a(uip-ds6.o)
                0x0000000000022ee7                uip_ds6_maddr_rm
 .text.uip_ds6_maddr_lookup
                0x0000000000022ef9       0x4b obj_cooja/mtype67.a(uip-ds6.o)
                0x0000000000022ef9                uip_ds6_maddr_lookup
 .text.uip_ds6_aaddr_add
                0x0000000000022f44       0x72 obj_cooja/mtype67.a(uip-ds6.o)
                0x0000000000022f44                uip_ds6_aaddr_add
 .text.uip_ds6_aaddr_rm
                0x0000000000022fb6       0x12 obj_cooja/mtype67.a(uip-ds6.o)
                0x0000000000022fb6                uip_ds6_aaddr_rm
 .text.uip_ds6_aaddr_lookup
                0x0000000000022fc8       0x4b obj_cooja/mtype67.a(uip-ds6.o)
                0x0000000000022fc8                uip_ds6_aaddr_lookup
 .text.uip_ds6_select_src
                0x0000000000023013      0x145 obj_cooja/mtype67.a(uip-ds6.o)
                0x0000000000023013                uip_ds6_select_src
 .text.uip_ds6_set_addr_iid
                0x0000000000023158       0x37 obj_cooja/mtype67.a(uip-ds6.o)
                0x0000000000023158                uip_ds6_set_addr_iid
 .text.get_match_length
                0x000000000002318f       0x92 obj_cooja/mtype67.a(uip-ds6.o)
                0x000000000002318f                get_match_length
 .text.uip_ds6_compute_reachable_time
                0x0000000000023221       0x4c obj_cooja/mtype67.a(uip-ds6.o)
                0x0000000000023221                uip_ds6_compute_reachable_time
 .text          0x000000000002326d        0x0 obj_cooja/mtype67.a(uip-nd6.o)
 .text.extract_lladdr_from_llao_aligned
                0x000000000002326d       0x42 obj_cooja/mtype67.a(uip-nd6.o)
 .text.create_llao
                0x00000000000232af       0x54 obj_cooja/mtype67.a(uip-nd6.o)
 .text.ns_input
                0x0000000000023303      0x602 obj_cooja/mtype67.a(uip-nd6.o)
 .text.uip_nd6_ns_output
                0x0000000000023905      0x2ff obj_cooja/mtype67.a(uip-nd6.o)
                0x0000000000023905                uip_nd6_ns_output
 .text.na_input
                0x0000000000023c04      0x430 obj_cooja/mtype67.a(uip-nd6.o)
 .text.uip_nd6_init
                0x0000000000024034       0x20 obj_cooja/mtype67.a(uip-nd6.o)
                0x0000000000024034                uip_nd6_init
 .text          0x0000000000024054        0x0 obj_cooja/mtype67.a(uip6.o)
 .text.uip_add32
                0x0000000000024054       0xea obj_cooja/mtype67.a(uip6.o)
                0x0000000000024054                uip_add32
 .text.chksum   0x000000000002413e       0xaf obj_cooja/mtype67.a(uip6.o)
 .text.uip_chksum
                0x00000000000241ed       0x35 obj_cooja/mtype67.a(uip6.o)
                0x00000000000241ed                uip_chksum
 .text.upper_layer_chksum
                0x0000000000024222       0xb9 obj_cooja/mtype67.a(uip6.o)
 .text.uip_icmp6chksum
                0x00000000000242db       0x14 obj_cooja/mtype67.a(uip6.o)
                0x00000000000242db                uip_icmp6chksum
 .text.uip_tcpchksum
                0x00000000000242ef       0x14 obj_cooja/mtype67.a(uip6.o)
                0x00000000000242ef                uip_tcpchksum
 .text.uip_udpchksum
                0x0000000000024303       0x14 obj_cooja/mtype67.a(uip6.o)
                0x0000000000024303                uip_udpchksum
 .text.uip_init
                0x0000000000024317       0x8b obj_cooja/mtype67.a(uip6.o)
                0x0000000000024317                uip_init
 .text.uip_connect
                0x00000000000243a2      0x181 obj_cooja/mtype67.a(uip6.o)
                0x00000000000243a2                uip_connect
 .text.remove_ext_hdr
                0x0000000000024523       0xd5 obj_cooja/mtype67.a(uip6.o)
                0x0000000000024523                remove_ext_hdr
 .text.uip_udp_new
                0x00000000000245f8      0x127 obj_cooja/mtype67.a(uip6.o)
                0x00000000000245f8                uip_udp_new
 .text.uip_unlisten
                0x000000000002471f       0x42 obj_cooja/mtype67.a(uip6.o)
                0x000000000002471f                uip_unlisten
 .text.uip_listen
                0x0000000000024761       0x43 obj_cooja/mtype67.a(uip6.o)
                0x0000000000024761                uip_listen
 .text.uip_add_rcv_nxt
                0x00000000000247a4       0x64 obj_cooja/mtype67.a(uip6.o)
 .text.ext_hdr_options_process
                0x0000000000024808      0x1fd obj_cooja/mtype67.a(uip6.o)
 .text.uip_process
                0x0000000000024a05     0x1ca1 obj_cooja/mtype67.a(uip6.o)
                0x0000000000024a05                uip_process
 .text.uip_htons
                0x00000000000266a6       0x22 obj_cooja/mtype67.a(uip6.o)
                0x00000000000266a6                uip_htons
 .text.uip_htonl
                0x00000000000266c8       0x40 obj_cooja/mtype67.a(uip6.o)
                0x00000000000266c8                uip_htonl
 .text.uip_send
                0x0000000000026708       0xaa obj_cooja/mtype67.a(uip6.o)
                0x0000000000026708                uip_send
 .text          0x00000000000267b2        0x0 obj_cooja/mtype67.a(resolv.o)
 .text.decode_name
                0x00000000000267b2       0xe8 obj_cooja/mtype67.a(resolv.o)
 .text.dns_name_isequal
                0x000000000002689a      0x119 obj_cooja/mtype67.a(resolv.o)
 .text.skip_name
                0x00000000000269b3       0x48 obj_cooja/mtype67.a(resolv.o)
 .text.encode_name
                0x00000000000269fb       0x73 obj_cooja/mtype67.a(resolv.o)
 .text.mdns_announce_requested
                0x0000000000026a6e        0xf obj_cooja/mtype67.a(resolv.o)
 .text.start_name_collision_check
                0x0000000000026a7d       0x27 obj_cooja/mtype67.a(resolv.o)
 .text.mdns_write_announce_records
                0x0000000000026aa4      0x155 obj_cooja/mtype67.a(resolv.o)
 .text.mdns_prep_host_announce_packet
                0x0000000000026bf9       0xf5 obj_cooja/mtype67.a(resolv.o)
 .text.try_next_server
                0x0000000000026cee       0x48 obj_cooja/mtype67.a(resolv.o)
 .text.check_entries
                0x0000000000026d36      0x311 obj_cooja/mtype67.a(resolv.o)
 .text.newdata  0x0000000000027047      0x545 obj_cooja/mtype67.a(resolv.o)
 .text.resolv_set_hostname
                0x000000000002758c       0xa9 obj_cooja/mtype67.a(resolv.o)
                0x000000000002758c                resolv_set_hostname
 .text.resolv_get_hostname
                0x0000000000027635        0xa obj_cooja/mtype67.a(resolv.o)
                0x0000000000027635                resolv_get_hostname
 .text.process_thread_mdns_probe_process
                0x000000000002763f      0x178 obj_cooja/mtype67.a(resolv.o)
 .text.process_thread_resolv_process
                0x00000000000277b7      0x1f6 obj_cooja/mtype67.a(resolv.o)
 .text.init     0x00000000000279ad       0x2e obj_cooja/mtype67.a(resolv.o)
 .text.remove_trailing_dots
                0x00000000000279db       0x7b obj_cooja/mtype67.a(resolv.o)
 .text.resolv_query
                0x0000000000027a56      0x22e obj_cooja/mtype67.a(resolv.o)
                0x0000000000027a56                resolv_query
 .text.resolv_lookup
                0x0000000000027c84       0xcc obj_cooja/mtype67.a(resolv.o)
                0x0000000000027c84                resolv_lookup
 .text.resolv_found
                0x0000000000027d50      0x1da obj_cooja/mtype67.a(resolv.o)
 .text          0x0000000000027f2a        0x0 obj_cooja/mtype67.a(tcpip.o)
 .text.tcpip_output
                0x0000000000027f2a       0x2e obj_cooja/mtype67.a(tcpip.o)
                0x0000000000027f2a                tcpip_output
 .text.tcpip_set_outputfunc
                0x0000000000027f58        0xd obj_cooja/mtype67.a(tcpip.o)
                0x0000000000027f58                tcpip_set_outputfunc
 .text.start_periodic_tcp_timer
                0x0000000000027f65       0x24 obj_cooja/mtype67.a(tcpip.o)
 .text.check_for_tcp_syn
                0x0000000000027f89       0x2d obj_cooja/mtype67.a(tcpip.o)
 .text.packet_input
                0x0000000000027fb6       0x36 obj_cooja/mtype67.a(tcpip.o)
 .text.tcp_connect
                0x0000000000027fec       0x55 obj_cooja/mtype67.a(tcpip.o)
                0x0000000000027fec                tcp_connect
 .text.tcp_unlisten
                0x0000000000028041       0x5b obj_cooja/mtype67.a(tcpip.o)
                0x0000000000028041                tcp_unlisten
 .text.tcp_listen
                0x000000000002809c       0x59 obj_cooja/mtype67.a(tcpip.o)
                0x000000000002809c                tcp_listen
 .text.tcp_attach
                0x00000000000280f5       0x25 obj_cooja/mtype67.a(tcpip.o)
                0x00000000000280f5                tcp_attach
 .text.udp_attach
                0x000000000002811a       0x25 obj_cooja/mtype67.a(tcpip.o)
                0x000000000002811a                udp_attach
 .text.udp_new  0x000000000002813f       0x52 obj_cooja/mtype67.a(tcpip.o)
                0x000000000002813f                udp_new
 .text.udp_broadcast_new
                0x0000000000028191       0x92 obj_cooja/mtype67.a(tcpip.o)
                0x0000000000028191                udp_broadcast_new
 .text.eventhandler
                0x0000000000028223      0x1e2 obj_cooja/mtype67.a(tcpip.o)
 .text.tcpip_input
                0x0000000000028405       0x34 obj_cooja/mtype67.a(tcpip.o)
                0x0000000000028405                tcpip_input
 .text.tcpip_ipv6_output
                0x0000000000028439      0x4b5 obj_cooja/mtype67.a(tcpip.o)
                0x0000000000028439                tcpip_ipv6_output
 .text.tcpip_poll_udp
                0x00000000000288ee       0x23 obj_cooja/mtype67.a(tcpip.o)
                0x00000000000288ee                tcpip_poll_udp
 .text.tcpip_poll_tcp
                0x0000000000028911       0x23 obj_cooja/mtype67.a(tcpip.o)
                0x0000000000028911                tcpip_poll_tcp
 .text.tcpip_uipcall
                0x0000000000028934       0xbd obj_cooja/mtype67.a(tcpip.o)
                0x0000000000028934                tcpip_uipcall
 .text.process_thread_tcpip_process
                0x00000000000289f1       0xb7 obj_cooja/mtype67.a(tcpip.o)
 .text          0x0000000000028aa8        0x0 obj_cooja/mtype67.a(uip-debug.o)
 .text.uip_debug_ipaddr_print
                0x0000000000028aa8      0x162 obj_cooja/mtype67.a(uip-debug.o)
                0x0000000000028aa8                uip_debug_ipaddr_print
 .text          0x0000000000028c0a        0x0 obj_cooja/mtype67.a(uip-nameserver.)
 .text.uip_nameserver_update
                0x0000000000028c0a       0x32 obj_cooja/mtype67.a(uip-nameserver.)
                0x0000000000028c0a                uip_nameserver_update
 .text.uip_nameserver_get
                0x0000000000028c3c       0x20 obj_cooja/mtype67.a(uip-nameserver.)
                0x0000000000028c3c                uip_nameserver_get
 .text.uip_nameserver_next_expiration
                0x0000000000028c5c        0xa obj_cooja/mtype67.a(uip-nameserver.)
                0x0000000000028c5c                uip_nameserver_next_expiration
 .text.uip_nameserver_count
                0x0000000000028c66       0x71 obj_cooja/mtype67.a(uip-nameserver.)
                0x0000000000028c66                uip_nameserver_count
 .text          0x0000000000028cd7        0x0 obj_cooja/mtype67.a(uip-packetqueue)
 .text.packet_timedout
                0x0000000000028cd7       0x2c obj_cooja/mtype67.a(uip-packetqueue)
 .text.uip_packetqueue_new
                0x0000000000028d03        0xe obj_cooja/mtype67.a(uip-packetqueue)
                0x0000000000028d03                uip_packetqueue_new
 .text.uip_packetqueue_alloc
                0x0000000000028d11       0x60 obj_cooja/mtype67.a(uip-packetqueue)
                0x0000000000028d11                uip_packetqueue_alloc
 .text.uip_packetqueue_free
                0x0000000000028d71       0x41 obj_cooja/mtype67.a(uip-packetqueue)
                0x0000000000028d71                uip_packetqueue_free
 .text.uip_packetqueue_buf
                0x0000000000028db2       0x1d obj_cooja/mtype67.a(uip-packetqueue)
                0x0000000000028db2                uip_packetqueue_buf
 .text.uip_packetqueue_buflen
                0x0000000000028dcf       0x21 obj_cooja/mtype67.a(uip-packetqueue)
                0x0000000000028dcf                uip_packetqueue_buflen
 .text.uip_packetqueue_set_buflen
                0x0000000000028df0       0x28 obj_cooja/mtype67.a(uip-packetqueue)
                0x0000000000028df0                uip_packetqueue_set_buflen
 .text          0x0000000000028e18        0x0 obj_cooja/mtype67.a(uip-udp-packet.)
 .text.uip_udp_packet_send
                0x0000000000028e18       0x5c obj_cooja/mtype67.a(uip-udp-packet.)
                0x0000000000028e18                uip_udp_packet_send
 .text.uip_udp_packet_sendto
                0x0000000000028e74       0xd1 obj_cooja/mtype67.a(uip-udp-packet.)
                0x0000000000028e74                uip_udp_packet_sendto
 .text          0x0000000000028f45        0x0 obj_cooja/mtype67.a(uiplib.o)
 .text.uiplib_ip6addrconv
                0x0000000000028f45      0x1c0 obj_cooja/mtype67.a(uiplib.o)
                0x0000000000028f45                uiplib_ip6addrconv
 .text.uiplib_ip4addrconv
                0x0000000000029105       0xc3 obj_cooja/mtype67.a(uiplib.o)
                0x0000000000029105                uiplib_ip4addrconv
 .text          0x00000000000291c8        0x0 obj_cooja/mtype67.a(rpl-dag.o)
 .text.rpl_print_neighbor_list
                0x00000000000291c8      0x1e6 obj_cooja/mtype67.a(rpl-dag.o)
                0x00000000000291c8                rpl_print_neighbor_list
 .text.rpl_get_nbr
                0x00000000000293ae       0x37 obj_cooja/mtype67.a(rpl-dag.o)
                0x00000000000293ae                rpl_get_nbr
 .text.nbr_callback
                0x00000000000293e5       0x13 obj_cooja/mtype67.a(rpl-dag.o)
 .text.rpl_dag_init
                0x00000000000293f8       0x1d obj_cooja/mtype67.a(rpl-dag.o)
                0x00000000000293f8                rpl_dag_init
 .text.rpl_get_parent
                0x0000000000029415       0x22 obj_cooja/mtype67.a(rpl-dag.o)
                0x0000000000029415                rpl_get_parent
 .text.rpl_get_parent_rank
                0x0000000000029437       0x33 obj_cooja/mtype67.a(rpl-dag.o)
                0x0000000000029437                rpl_get_parent_rank
 .text.rpl_get_parent_link_metric
                0x000000000002946a       0x57 obj_cooja/mtype67.a(rpl-dag.o)
                0x000000000002946a                rpl_get_parent_link_metric
 .text.rpl_rank_via_parent
                0x00000000000294c1       0x57 obj_cooja/mtype67.a(rpl-dag.o)
                0x00000000000294c1                rpl_rank_via_parent
 .text.rpl_get_parent_lladdr
                0x0000000000029518       0x1c obj_cooja/mtype67.a(rpl-dag.o)
                0x0000000000029518                rpl_get_parent_lladdr
 .text.rpl_get_parent_ipaddr
                0x0000000000029534       0x21 obj_cooja/mtype67.a(rpl-dag.o)
                0x0000000000029534                rpl_get_parent_ipaddr
 .text.rpl_get_parent_link_stats
                0x0000000000029555       0x21 obj_cooja/mtype67.a(rpl-dag.o)
                0x0000000000029555                rpl_get_parent_link_stats
 .text.rpl_parent_is_fresh
                0x0000000000029576       0x21 obj_cooja/mtype67.a(rpl-dag.o)
                0x0000000000029576                rpl_parent_is_fresh
 .text.rpl_parent_is_reachable
                0x0000000000029597       0x94 obj_cooja/mtype67.a(rpl-dag.o)
                0x0000000000029597                rpl_parent_is_reachable
 .text.rpl_set_preferred_parent
                0x000000000002962b       0x4d obj_cooja/mtype67.a(rpl-dag.o)
 .text.lollipop_greater_than
                0x0000000000029678       0x61 obj_cooja/mtype67.a(rpl-dag.o)
 .text.remove_parents
                0x00000000000296d9       0x60 obj_cooja/mtype67.a(rpl-dag.o)
 .text.nullify_parents
                0x0000000000029739       0x60 obj_cooja/mtype67.a(rpl-dag.o)
 .text.should_refresh_routes
                0x0000000000029799       0x5b obj_cooja/mtype67.a(rpl-dag.o)
 .text.acceptable_rank
                0x00000000000297f4       0x8f obj_cooja/mtype67.a(rpl-dag.o)
 .text.get_dag  0x0000000000029883       0x81 obj_cooja/mtype67.a(rpl-dag.o)
 .text.rpl_set_root
                0x0000000000029904      0x257 obj_cooja/mtype67.a(rpl-dag.o)
                0x0000000000029904                rpl_set_root
 .text.rpl_repair_root
                0x0000000000029b5b       0xd6 obj_cooja/mtype67.a(rpl-dag.o)
                0x0000000000029b5b                rpl_repair_root
 .text.set_ip_from_prefix
                0x0000000000029c31       0x66 obj_cooja/mtype67.a(rpl-dag.o)
 .text.check_prefix
                0x0000000000029c97      0x100 obj_cooja/mtype67.a(rpl-dag.o)
 .text.rpl_set_prefix
                0x0000000000029d97       0xff obj_cooja/mtype67.a(rpl-dag.o)
                0x0000000000029d97                rpl_set_prefix
 .text.rpl_set_default_route
                0x0000000000029e96       0x6e obj_cooja/mtype67.a(rpl-dag.o)
                0x0000000000029e96                rpl_set_default_route
 .text.rpl_alloc_instance
                0x0000000000029f04       0x93 obj_cooja/mtype67.a(rpl-dag.o)
                0x0000000000029f04                rpl_alloc_instance
 .text.rpl_alloc_dag
                0x0000000000029f97       0xb1 obj_cooja/mtype67.a(rpl-dag.o)
                0x0000000000029f97                rpl_alloc_dag
 .text.rpl_set_default_instance
                0x000000000002a048        0xd obj_cooja/mtype67.a(rpl-dag.o)
                0x000000000002a048                rpl_set_default_instance
 .text.rpl_get_default_instance
                0x000000000002a055        0xa obj_cooja/mtype67.a(rpl-dag.o)
                0x000000000002a055                rpl_get_default_instance
 .text.rpl_free_instance
                0x000000000002a05f       0xaf obj_cooja/mtype67.a(rpl-dag.o)
                0x000000000002a05f                rpl_free_instance
 .text.rpl_free_dag
                0x000000000002a10e       0x81 obj_cooja/mtype67.a(rpl-dag.o)
                0x000000000002a10e                rpl_free_dag
 .text.rpl_add_parent
                0x000000000002a18f       0x75 obj_cooja/mtype67.a(rpl-dag.o)
                0x000000000002a18f                rpl_add_parent
 .text.find_parent_any_dag_any_instance
                0x000000000002a204       0x38 obj_cooja/mtype67.a(rpl-dag.o)
 .text.rpl_find_parent
                0x000000000002a23c       0x30 obj_cooja/mtype67.a(rpl-dag.o)
                0x000000000002a23c                rpl_find_parent
 .text.find_parent_dag
                0x000000000002a26c       0x28 obj_cooja/mtype67.a(rpl-dag.o)
 .text.rpl_find_parent_any_dag
                0x000000000002a294       0x3c obj_cooja/mtype67.a(rpl-dag.o)
                0x000000000002a294                rpl_find_parent_any_dag
 .text.rpl_select_dag
                0x000000000002a2d0      0x322 obj_cooja/mtype67.a(rpl-dag.o)
                0x000000000002a2d0                rpl_select_dag
 .text.best_parent
                0x000000000002a5f2       0xfd obj_cooja/mtype67.a(rpl-dag.o)
 .text.rpl_select_parent
                0x000000000002a6ef       0xda obj_cooja/mtype67.a(rpl-dag.o)
                0x000000000002a6ef                rpl_select_parent
 .text.rpl_remove_parent
                0x000000000002a7c9       0x27 obj_cooja/mtype67.a(rpl-dag.o)
                0x000000000002a7c9                rpl_remove_parent
 .text.rpl_nullify_parent
                0x000000000002a7f0       0xc1 obj_cooja/mtype67.a(rpl-dag.o)
                0x000000000002a7f0                rpl_nullify_parent
 .text.rpl_move_parent
                0x000000000002a8b1       0xb8 obj_cooja/mtype67.a(rpl-dag.o)
                0x000000000002a8b1                rpl_move_parent
 .text.rpl_has_downward_route
                0x000000000002a969       0x53 obj_cooja/mtype67.a(rpl-dag.o)
                0x000000000002a969                rpl_has_downward_route
 .text.rpl_get_dag
                0x000000000002a9bc       0xec obj_cooja/mtype67.a(rpl-dag.o)
                0x000000000002a9bc                rpl_get_dag
 .text.rpl_get_any_dag
                0x000000000002aaa8       0x62 obj_cooja/mtype67.a(rpl-dag.o)
                0x000000000002aaa8                rpl_get_any_dag
 .text.rpl_get_instance
                0x000000000002ab0a       0x63 obj_cooja/mtype67.a(rpl-dag.o)
                0x000000000002ab0a                rpl_get_instance
 .text.rpl_find_of
                0x000000000002ab6d       0x3d obj_cooja/mtype67.a(rpl-dag.o)
                0x000000000002ab6d                rpl_find_of
 .text.rpl_join_instance
                0x000000000002abaa      0x2c0 obj_cooja/mtype67.a(rpl-dag.o)
                0x000000000002abaa                rpl_join_instance
 .text.rpl_add_dag
                0x000000000002ae6a      0x27c obj_cooja/mtype67.a(rpl-dag.o)
                0x000000000002ae6a                rpl_add_dag
 .text.global_repair
                0x000000000002b0e6      0x154 obj_cooja/mtype67.a(rpl-dag.o)
 .text.rpl_local_repair
                0x000000000002b23a       0xd8 obj_cooja/mtype67.a(rpl-dag.o)
                0x000000000002b23a                rpl_local_repair
 .text.rpl_recalculate_ranks
                0x000000000002b312       0x86 obj_cooja/mtype67.a(rpl-dag.o)
                0x000000000002b312                rpl_recalculate_ranks
 .text.rpl_process_parent_event
                0x000000000002b398       0xfb obj_cooja/mtype67.a(rpl-dag.o)
                0x000000000002b398                rpl_process_parent_event
 .text.add_nbr_from_dio
                0x000000000002b493       0x32 obj_cooja/mtype67.a(rpl-dag.o)
 .text.rpl_process_dio
                0x000000000002b4c5      0x4da obj_cooja/mtype67.a(rpl-dag.o)
                0x000000000002b4c5                rpl_process_dio
 .text          0x000000000002b99f        0x0 obj_cooja/mtype67.a(rpl-ext-header.)
 .text.packetbuf_addr
                0x000000000002b99f       0x1d obj_cooja/mtype67.a(rpl-ext-header.)
 .text.rpl_verify_hbh_header
                0x000000000002b9bc      0x2c8 obj_cooja/mtype67.a(rpl-ext-header.)
                0x000000000002b9bc                rpl_verify_hbh_header
 .text.update_hbh_header
                0x000000000002bc84      0x2b8 obj_cooja/mtype67.a(rpl-ext-header.)
 .text.insert_hbh_header
                0x000000000002bf3c      0x203 obj_cooja/mtype67.a(rpl-ext-header.)
 .text.rpl_remove_header
                0x000000000002c13f      0x163 obj_cooja/mtype67.a(rpl-ext-header.)
                0x000000000002c13f                rpl_remove_header
 .text.rpl_update_header
                0x000000000002c2a2       0xcc obj_cooja/mtype67.a(rpl-ext-header.)
                0x000000000002c2a2                rpl_update_header
 .text          0x000000000002c36e        0x0 obj_cooja/mtype67.a(rpl-icmp6.o)
 .text.packetbuf_addr
                0x000000000002c36e       0x1d obj_cooja/mtype67.a(rpl-icmp6.o)
 .text.prepare_for_dao_fwd
                0x000000000002c38b       0x6c obj_cooja/mtype67.a(rpl-icmp6.o)
 .text.get_global_addr
                0x000000000002c3f7       0xb3 obj_cooja/mtype67.a(rpl-icmp6.o)
 .text.get32    0x000000000002c4aa       0x57 obj_cooja/mtype67.a(rpl-icmp6.o)
 .text.set32    0x000000000002c501       0x62 obj_cooja/mtype67.a(rpl-icmp6.o)
 .text.get16    0x000000000002c563       0x2b obj_cooja/mtype67.a(rpl-icmp6.o)
 .text.set16    0x000000000002c58e       0x3f obj_cooja/mtype67.a(rpl-icmp6.o)
 .text.rpl_icmp6_update_nbr_table
                0x000000000002c5cd       0x5b obj_cooja/mtype67.a(rpl-icmp6.o)
                0x000000000002c5cd                rpl_icmp6_update_nbr_table
 .text.dis_input
                0x000000000002c628       0x95 obj_cooja/mtype67.a(rpl-icmp6.o)
 .text.dis_output
                0x000000000002c6bd       0xaf obj_cooja/mtype67.a(rpl-icmp6.o)
                0x000000000002c6bd                dis_output
 .text.dio_input
                0x000000000002c76c      0x58a obj_cooja/mtype67.a(rpl-icmp6.o)
 .text.dio_output
                0x000000000002ccf6      0x622 obj_cooja/mtype67.a(rpl-icmp6.o)
                0x000000000002ccf6                dio_output
 .text.dao_input_storing
                0x000000000002d318      0x6d8 obj_cooja/mtype67.a(rpl-icmp6.o)
 .text.dao_input_nonstoring
                0x000000000002d9f0        0x5 obj_cooja/mtype67.a(rpl-icmp6.o)
 .text.dao_input
                0x000000000002d9f5       0x5f obj_cooja/mtype67.a(rpl-icmp6.o)
 .text.dao_output
                0x000000000002da54       0xbb obj_cooja/mtype67.a(rpl-icmp6.o)
                0x000000000002da54                dao_output
 .text.dao_output_target
                0x000000000002db0f       0x36 obj_cooja/mtype67.a(rpl-icmp6.o)
                0x000000000002db0f                dao_output_target
 .text.dao_output_target_seq
                0x000000000002db45      0x2ff obj_cooja/mtype67.a(rpl-icmp6.o)
 .text.dao_ack_input
                0x000000000002de44       0x15 obj_cooja/mtype67.a(rpl-icmp6.o)
 .text.dao_ack_output
                0x000000000002de59       0x14 obj_cooja/mtype67.a(rpl-icmp6.o)
                0x000000000002de59                dao_ack_output
 .text.rpl_icmp6_register_handlers
                0x000000000002de6d       0x38 obj_cooja/mtype67.a(rpl-icmp6.o)
                0x000000000002de6d                rpl_icmp6_register_handlers
 .text          0x000000000002dea5        0x0 obj_cooja/mtype67.a(rpl-mrhof.o)
 .text.reset    0x000000000002dea5        0x5 obj_cooja/mtype67.a(rpl-mrhof.o)
 .text.parent_link_metric
                0x000000000002deaa       0x29 obj_cooja/mtype67.a(rpl-mrhof.o)
 .text.parent_path_cost
                0x000000000002ded3       0x6d obj_cooja/mtype67.a(rpl-mrhof.o)
 .text.rank_via_parent
                0x000000000002df40       0x72 obj_cooja/mtype67.a(rpl-mrhof.o)
 .text.parent_is_acceptable
                0x000000000002dfb2       0x42 obj_cooja/mtype67.a(rpl-mrhof.o)
 .text.parent_has_usable_link
                0x000000000002dff4       0x23 obj_cooja/mtype67.a(rpl-mrhof.o)
 .text.best_parent
                0x000000000002e017       0xf7 obj_cooja/mtype67.a(rpl-mrhof.o)
 .text.best_dag
                0x000000000002e10e       0x75 obj_cooja/mtype67.a(rpl-mrhof.o)
 .text.update_metric_container
                0x000000000002e183        0xb obj_cooja/mtype67.a(rpl-mrhof.o)
 .text          0x000000000002e18e        0x0 obj_cooja/mtype67.a(rpl-timers.o)
 .text.handle_periodic_timer
                0x000000000002e18e       0x84 obj_cooja/mtype67.a(rpl-timers.o)
 .text.new_dio_interval
                0x000000000002e212       0xca obj_cooja/mtype67.a(rpl-timers.o)
 .text.handle_dio_timer
                0x000000000002e2dc      0x12d obj_cooja/mtype67.a(rpl-timers.o)
 .text.rpl_reset_periodic_timer
                0x000000000002e409       0x55 obj_cooja/mtype67.a(rpl-timers.o)
                0x000000000002e409                rpl_reset_periodic_timer
 .text.rpl_reset_dio_timer
                0x000000000002e45e       0x48 obj_cooja/mtype67.a(rpl-timers.o)
                0x000000000002e45e                rpl_reset_dio_timer
 .text.set_dao_lifetime_timer
                0x000000000002e4a6       0x8c obj_cooja/mtype67.a(rpl-timers.o)
 .text.handle_dao_timer
                0x000000000002e532       0xb1 obj_cooja/mtype67.a(rpl-timers.o)
 .text.schedule_dao
                0x000000000002e5e3       0xa2 obj_cooja/mtype67.a(rpl-timers.o)
 .text.rpl_schedule_dao
                0x000000000002e685       0x1b obj_cooja/mtype67.a(rpl-timers.o)
                0x000000000002e685                rpl_schedule_dao
 .text.rpl_schedule_dao_immediately
                0x000000000002e6a0       0x1b obj_cooja/mtype67.a(rpl-timers.o)
                0x000000000002e6a0                rpl_schedule_dao_immediately
 .text.rpl_cancel_dao
                0x000000000002e6bb       0x28 obj_cooja/mtype67.a(rpl-timers.o)
                0x000000000002e6bb                rpl_cancel_dao
 .text.handle_unicast_dio_timer
                0x000000000002e6e3       0x3a obj_cooja/mtype67.a(rpl-timers.o)
 .text.rpl_schedule_unicast_dio_immediately
                0x000000000002e71d       0x30 obj_cooja/mtype67.a(rpl-timers.o)
                0x000000000002e71d                rpl_schedule_unicast_dio_immediately
 .text.get_probing_delay
                0x000000000002e74d       0x7f obj_cooja/mtype67.a(rpl-timers.o)
                0x000000000002e74d                get_probing_delay
 .text.get_probing_target
                0x000000000002e7cc      0x18c obj_cooja/mtype67.a(rpl-timers.o)
                0x000000000002e7cc                get_probing_target
 .text.handle_probing_timer
                0x000000000002e958       0x6b obj_cooja/mtype67.a(rpl-timers.o)
 .text.rpl_schedule_probing
                0x000000000002e9c3       0x3a obj_cooja/mtype67.a(rpl-timers.o)
                0x000000000002e9c3                rpl_schedule_probing
 .text          0x000000000002e9fd        0x0 obj_cooja/mtype67.a(rpl.o)
 .text.rpl_get_mode
                0x000000000002e9fd        0xa obj_cooja/mtype67.a(rpl.o)
                0x000000000002e9fd                rpl_get_mode
 .text.rpl_set_mode
                0x000000000002ea07       0x8e obj_cooja/mtype67.a(rpl.o)
                0x000000000002ea07                rpl_set_mode
 .text.rpl_purge_routes
                0x000000000002ea95      0x105 obj_cooja/mtype67.a(rpl.o)
                0x000000000002ea95                rpl_purge_routes
 .text.rpl_remove_routes
                0x000000000002eb9a       0x46 obj_cooja/mtype67.a(rpl.o)
                0x000000000002eb9a                rpl_remove_routes
 .text.rpl_remove_routes_by_nexthop
                0x000000000002ebe0       0x61 obj_cooja/mtype67.a(rpl.o)
                0x000000000002ebe0                rpl_remove_routes_by_nexthop
 .text.rpl_add_route
                0x000000000002ec41       0x93 obj_cooja/mtype67.a(rpl.o)
                0x000000000002ec41                rpl_add_route
 .text.rpl_link_neighbor_callback
                0x000000000002ecd4       0xca obj_cooja/mtype67.a(rpl.o)
                0x000000000002ecd4                rpl_link_neighbor_callback
 .text.rpl_ipv6_neighbor_callback
                0x000000000002ed9e       0x6f obj_cooja/mtype67.a(rpl.o)
                0x000000000002ed9e                rpl_ipv6_neighbor_callback
 .text.rpl_purge_dags
                0x000000000002ee0d       0xe2 obj_cooja/mtype67.a(rpl.o)
                0x000000000002ee0d                rpl_purge_dags
 .text.rpl_init
                0x000000000002eeef       0x78 obj_cooja/mtype67.a(rpl.o)
                0x000000000002eeef                rpl_init
 .text          0x000000000002ef67        0x0 obj_cooja/mtype67.a(link-stats.o)
 .text.packetbuf_attr
                0x000000000002ef67       0x1a obj_cooja/mtype67.a(link-stats.o)
 .text.link_stats_from_lladdr
                0x000000000002ef81       0x1c obj_cooja/mtype67.a(link-stats.o)
                0x000000000002ef81                link_stats_from_lladdr
 .text.link_stats_is_fresh
                0x000000000002ef9d       0x39 obj_cooja/mtype67.a(link-stats.o)
                0x000000000002ef9d                link_stats_is_fresh
 .text.guess_etx_from_rssi
                0x000000000002efd6       0x7c obj_cooja/mtype67.a(link-stats.o)
                0x000000000002efd6                guess_etx_from_rssi
 .text.link_stats_packet_sent
                0x000000000002f052      0x10e obj_cooja/mtype67.a(link-stats.o)
                0x000000000002f052                link_stats_packet_sent
 .text.link_stats_input_callback
                0x000000000002f160       0xaf obj_cooja/mtype67.a(link-stats.o)
                0x000000000002f160                link_stats_input_callback
 .text.periodic
                0x000000000002f20f       0x54 obj_cooja/mtype67.a(link-stats.o)
 .text.link_stats_init
                0x000000000002f263       0x41 obj_cooja/mtype67.a(link-stats.o)
                0x000000000002f263                link_stats_init
 .text          0x000000000002f2a4        0x0 obj_cooja/mtype67.a(linkaddr.o)
 .text.linkaddr_copy
                0x000000000002f2a4       0x22 obj_cooja/mtype67.a(linkaddr.o)
                0x000000000002f2a4                linkaddr_copy
 .text.linkaddr_cmp
                0x000000000002f2c6       0x2a obj_cooja/mtype67.a(linkaddr.o)
                0x000000000002f2c6                linkaddr_cmp
 .text.linkaddr_set_node_addr
                0x000000000002f2f0       0x1b obj_cooja/mtype67.a(linkaddr.o)
                0x000000000002f2f0                linkaddr_set_node_addr
 .text          0x000000000002f30b        0x0 obj_cooja/mtype67.a(nbr-table.o)
 .text.key_from_index
                0x000000000002f30b       0x26 obj_cooja/mtype67.a(nbr-table.o)
 .text.item_from_index
                0x000000000002f331       0x2a obj_cooja/mtype67.a(nbr-table.o)
 .text.index_from_key
                0x000000000002f35b       0x27 obj_cooja/mtype67.a(nbr-table.o)
 .text.index_from_item
                0x000000000002f382       0x32 obj_cooja/mtype67.a(nbr-table.o)
 .text.item_from_key
                0x000000000002f3b4       0x22 obj_cooja/mtype67.a(nbr-table.o)
 .text.key_from_item
                0x000000000002f3d6       0x22 obj_cooja/mtype67.a(nbr-table.o)
 .text.index_from_lladdr
                0x000000000002f3f8       0x6c obj_cooja/mtype67.a(nbr-table.o)
 .text.nbr_get_bit
                0x000000000002f464       0x54 obj_cooja/mtype67.a(nbr-table.o)
 .text.nbr_set_bit
                0x000000000002f4b8       0x98 obj_cooja/mtype67.a(nbr-table.o)
 .text.remove_key
                0x000000000002f550       0xb7 obj_cooja/mtype67.a(nbr-table.o)
 .text.nbr_table_allocate
                0x000000000002f607      0x173 obj_cooja/mtype67.a(nbr-table.o)
 .text.nbr_table_register
                0x000000000002f77a       0x48 obj_cooja/mtype67.a(nbr-table.o)
                0x000000000002f77a                nbr_table_register
 .text.nbr_table_head
                0x000000000002f7c2       0x5c obj_cooja/mtype67.a(nbr-table.o)
                0x000000000002f7c2                nbr_table_head
 .text.nbr_table_next
                0x000000000002f81e       0x67 obj_cooja/mtype67.a(nbr-table.o)
                0x000000000002f81e                nbr_table_next
 .text.nbr_table_add_lladdr
                0x000000000002f885       0xdc obj_cooja/mtype67.a(nbr-table.o)
                0x000000000002f885                nbr_table_add_lladdr
 .text.nbr_table_get_from_lladdr
                0x000000000002f961       0x4d obj_cooja/mtype67.a(nbr-table.o)
                0x000000000002f961                nbr_table_get_from_lladdr
 .text.nbr_table_remove
                0x000000000002f9ae       0x52 obj_cooja/mtype67.a(nbr-table.o)
                0x000000000002f9ae                nbr_table_remove
 .text.nbr_table_lock
                0x000000000002fa00       0x2a obj_cooja/mtype67.a(nbr-table.o)
                0x000000000002fa00                nbr_table_lock
 .text.nbr_table_unlock
                0x000000000002fa2a       0x2a obj_cooja/mtype67.a(nbr-table.o)
                0x000000000002fa2a                nbr_table_unlock
 .text.nbr_table_get_lladdr
                0x000000000002fa54       0x30 obj_cooja/mtype67.a(nbr-table.o)
                0x000000000002fa54                nbr_table_get_lladdr
 .text.nbr_table_update_lladdr
                0x000000000002fa84       0x96 obj_cooja/mtype67.a(nbr-table.o)
                0x000000000002fa84                nbr_table_update_lladdr
 .text          0x000000000002fb1a        0x0 obj_cooja/mtype67.a(netstack.o)
 .text.netstack_init
                0x000000000002fb1a       0x2b obj_cooja/mtype67.a(netstack.o)
                0x000000000002fb1a                netstack_init
 .text          0x000000000002fb45        0x0 obj_cooja/mtype67.a(packetbuf.o)
 .text.packetbuf_clear
                0x000000000002fb45       0x2a obj_cooja/mtype67.a(packetbuf.o)
                0x000000000002fb45                packetbuf_clear
 .text.packetbuf_copyfrom
                0x000000000002fb6f       0x52 obj_cooja/mtype67.a(packetbuf.o)
                0x000000000002fb6f                packetbuf_copyfrom
 .text.packetbuf_compact
                0x000000000002fbc1       0x7d obj_cooja/mtype67.a(packetbuf.o)
                0x000000000002fbc1                packetbuf_compact
 .text.packetbuf_copyto
                0x000000000002fc3e       0x97 obj_cooja/mtype67.a(packetbuf.o)
                0x000000000002fc3e                packetbuf_copyto
 .text.packetbuf_hdralloc
                0x000000000002fcd5       0x7d obj_cooja/mtype67.a(packetbuf.o)
                0x000000000002fcd5                packetbuf_hdralloc
 .text.packetbuf_hdrreduce
                0x000000000002fd52       0x48 obj_cooja/mtype67.a(packetbuf.o)
                0x000000000002fd52                packetbuf_hdrreduce
 .text.packetbuf_set_datalen
                0x000000000002fd9a       0x19 obj_cooja/mtype67.a(packetbuf.o)
                0x000000000002fd9a                packetbuf_set_datalen
 .text.packetbuf_dataptr
                0x000000000002fdb3       0x1d obj_cooja/mtype67.a(packetbuf.o)
                0x000000000002fdb3                packetbuf_dataptr
 .text.packetbuf_hdrptr
                0x000000000002fdd0        0xa obj_cooja/mtype67.a(packetbuf.o)
                0x000000000002fdd0                packetbuf_hdrptr
 .text.packetbuf_datalen
                0x000000000002fdda        0xc obj_cooja/mtype67.a(packetbuf.o)
                0x000000000002fdda                packetbuf_datalen
 .text.packetbuf_hdrlen
                0x000000000002fde6       0x17 obj_cooja/mtype67.a(packetbuf.o)
                0x000000000002fde6                packetbuf_hdrlen
 .text.packetbuf_totlen
                0x000000000002fdfd       0x16 obj_cooja/mtype67.a(packetbuf.o)
                0x000000000002fdfd                packetbuf_totlen
 .text.packetbuf_remaininglen
                0x000000000002fe13       0x13 obj_cooja/mtype67.a(packetbuf.o)
                0x000000000002fe13                packetbuf_remaininglen
 .text.packetbuf_attr_clear
                0x000000000002fe26       0x52 obj_cooja/mtype67.a(packetbuf.o)
                0x000000000002fe26                packetbuf_attr_clear
 .text.packetbuf_attr_copyto
                0x000000000002fe78       0x49 obj_cooja/mtype67.a(packetbuf.o)
                0x000000000002fe78                packetbuf_attr_copyto
 .text.packetbuf_attr_copyfrom
                0x000000000002fec1       0x48 obj_cooja/mtype67.a(packetbuf.o)
                0x000000000002fec1                packetbuf_attr_copyfrom
 .text.packetbuf_holds_broadcast
                0x000000000002ff09       0x1c obj_cooja/mtype67.a(packetbuf.o)
                0x000000000002ff09                packetbuf_holds_broadcast
 .text          0x000000000002ff25        0x0 obj_cooja/mtype67.a(queuebuf.o)
 .text.queuebuf_load_to_ram
                0x000000000002ff25        0xa obj_cooja/mtype67.a(queuebuf.o)
 .text.queuebuf_init
                0x000000000002ff2f       0x20 obj_cooja/mtype67.a(queuebuf.o)
                0x000000000002ff2f                queuebuf_init
 .text.queuebuf_numfree
                0x000000000002ff4f       0x14 obj_cooja/mtype67.a(queuebuf.o)
                0x000000000002ff4f                queuebuf_numfree
 .text.queuebuf_new_from_packetbuf
                0x000000000002ff63       0x90 obj_cooja/mtype67.a(queuebuf.o)
                0x000000000002ff63                queuebuf_new_from_packetbuf
 .text.queuebuf_update_attr_from_packetbuf
                0x000000000002fff3       0x33 obj_cooja/mtype67.a(queuebuf.o)
                0x000000000002fff3                queuebuf_update_attr_from_packetbuf
 .text.queuebuf_update_from_packetbuf
                0x0000000000030026       0x4a obj_cooja/mtype67.a(queuebuf.o)
                0x0000000000030026                queuebuf_update_from_packetbuf
 .text.queuebuf_free
                0x0000000000030070       0x47 obj_cooja/mtype67.a(queuebuf.o)
                0x0000000000030070                queuebuf_free
 .text.queuebuf_to_packetbuf
                0x00000000000300b7       0x66 obj_cooja/mtype67.a(queuebuf.o)
                0x00000000000300b7                queuebuf_to_packetbuf
 .text.queuebuf_dataptr
                0x000000000003011d       0x37 obj_cooja/mtype67.a(queuebuf.o)
                0x000000000003011d                queuebuf_dataptr
 .text.queuebuf_datalen
                0x0000000000030154       0x23 obj_cooja/mtype67.a(queuebuf.o)
                0x0000000000030154                queuebuf_datalen
 .text.queuebuf_addr
                0x0000000000030177       0x32 obj_cooja/mtype67.a(queuebuf.o)
                0x0000000000030177                queuebuf_addr
 .text.queuebuf_attr
                0x00000000000301a9       0x2b obj_cooja/mtype67.a(queuebuf.o)
                0x00000000000301a9                queuebuf_attr
 .text.queuebuf_debug_print
                0x00000000000301d4        0x5 obj_cooja/mtype67.a(queuebuf.o)
                0x00000000000301d4                queuebuf_debug_print
 .text          0x00000000000301d9        0x0 obj_cooja/mtype67.a(csma.o)
 .text.packetbuf_set_attr
                0x00000000000301d9       0x2a obj_cooja/mtype67.a(csma.o)
 .text.packetbuf_attr
                0x0000000000030203       0x1a obj_cooja/mtype67.a(csma.o)
 .text.packetbuf_addr
                0x000000000003021d       0x1d obj_cooja/mtype67.a(csma.o)
 .text.neighbor_queue_from_addr
                0x000000000003023a       0x51 obj_cooja/mtype67.a(csma.o)
 .text.backoff_period
                0x000000000003028b       0x25 obj_cooja/mtype67.a(csma.o)
 .text.transmit_packet_list
                0x00000000000302b0       0x47 obj_cooja/mtype67.a(csma.o)
 .text.schedule_transmission
                0x00000000000302f7       0x87 obj_cooja/mtype67.a(csma.o)
 .text.free_packet
                0x000000000003037e       0xc0 obj_cooja/mtype67.a(csma.o)
 .text.tx_done  0x000000000003043e       0x7c obj_cooja/mtype67.a(csma.o)
 .text.rexmit   0x00000000000304ba       0x21 obj_cooja/mtype67.a(csma.o)
 .text.collision
                0x00000000000304db       0x85 obj_cooja/mtype67.a(csma.o)
 .text.noack    0x0000000000030560       0x6a obj_cooja/mtype67.a(csma.o)
 .text.tx_ok    0x00000000000305ca       0x3b obj_cooja/mtype67.a(csma.o)
 .text.packet_sent
                0x0000000000030605      0x117 obj_cooja/mtype67.a(csma.o)
 .text.send_packet
                0x000000000003071c      0x274 obj_cooja/mtype67.a(csma.o)
 .text.input_packet
                0x0000000000030990        0xf obj_cooja/mtype67.a(csma.o)
 .text.on       0x000000000003099f        0xf obj_cooja/mtype67.a(csma.o)
 .text.off      0x00000000000309ae       0x15 obj_cooja/mtype67.a(csma.o)
 .text.channel_check_interval
                0x00000000000309c3       0x1f obj_cooja/mtype67.a(csma.o)
 .text.init     0x00000000000309e2       0x2c obj_cooja/mtype67.a(csma.o)
 .text          0x0000000000030a0e        0x0 obj_cooja/mtype67.a(framer-802154.o)
 .text.packetbuf_set_attr
                0x0000000000030a0e       0x2a obj_cooja/mtype67.a(framer-802154.o)
 .text.packetbuf_attr
                0x0000000000030a38       0x1a obj_cooja/mtype67.a(framer-802154.o)
 .text.packetbuf_set_addr
                0x0000000000030a52       0x32 obj_cooja/mtype67.a(framer-802154.o)
 .text.packetbuf_addr
                0x0000000000030a84       0x1d obj_cooja/mtype67.a(framer-802154.o)
 .text.create_frame
                0x0000000000030aa1      0x1eb obj_cooja/mtype67.a(framer-802154.o)
 .text.hdr_length
                0x0000000000030c8c       0x1c obj_cooja/mtype67.a(framer-802154.o)
 .text.create   0x0000000000030ca8       0x1c obj_cooja/mtype67.a(framer-802154.o)
 .text.parse    0x0000000000030cc4      0x143 obj_cooja/mtype67.a(framer-802154.o)
 .text          0x0000000000030e07        0x0 obj_cooja/mtype67.a(mac.o)
 .text.mac_call_sent_callback
                0x0000000000030e07       0x3c obj_cooja/mtype67.a(mac.o)
                0x0000000000030e07                mac_call_sent_callback
 .text          0x0000000000030e43        0x0 obj_cooja/mtype67.a(nullrdc.o)
 .text.packetbuf_set_attr
                0x0000000000030e43       0x2a obj_cooja/mtype67.a(nullrdc.o)
 .text.packetbuf_set_addr
                0x0000000000030e6d       0x32 obj_cooja/mtype67.a(nullrdc.o)
 .text.packetbuf_addr
                0x0000000000030e9f       0x1d obj_cooja/mtype67.a(nullrdc.o)
 .text.send_one_packet
                0x0000000000030ebc      0x1ec obj_cooja/mtype67.a(nullrdc.o)
 .text.send_packet
                0x00000000000310a8       0x1a obj_cooja/mtype67.a(nullrdc.o)
 .text.send_list
                0x00000000000310c2       0x49 obj_cooja/mtype67.a(nullrdc.o)
 .text.packet_input
                0x000000000003110b      0x11a obj_cooja/mtype67.a(nullrdc.o)
 .text.on       0x0000000000031225        0xf obj_cooja/mtype67.a(nullrdc.o)
 .text.off      0x0000000000031234       0x1e obj_cooja/mtype67.a(nullrdc.o)
 .text.channel_check_interval
                0x0000000000031252        0xa obj_cooja/mtype67.a(nullrdc.o)
 .text.init     0x000000000003125c        0xd obj_cooja/mtype67.a(nullrdc.o)
 .text          0x0000000000031269        0x0 obj_cooja/mtype67.a(nullsec.o)
 .text.packetbuf_set_attr
                0x0000000000031269       0x2a obj_cooja/mtype67.a(nullsec.o)
 .text.init     0x0000000000031293        0x5 obj_cooja/mtype67.a(nullsec.o)
 .text.send     0x0000000000031298       0x30 obj_cooja/mtype67.a(nullsec.o)
 .text.input    0x00000000000312c8        0xf obj_cooja/mtype67.a(nullsec.o)
 .text          0x00000000000312d7        0x0 obj_cooja/mtype67.a(watchdog.o)
 .text.watchdog_init
                0x00000000000312d7        0x5 obj_cooja/mtype67.a(watchdog.o)
                0x00000000000312d7                watchdog_init
 .text.watchdog_start
                0x00000000000312dc        0x5 obj_cooja/mtype67.a(watchdog.o)
                0x00000000000312dc                watchdog_start
 .text.watchdog_periodic
                0x00000000000312e1        0x5 obj_cooja/mtype67.a(watchdog.o)
                0x00000000000312e1                watchdog_periodic
 .text.watchdog_stop
                0x00000000000312e6        0x5 obj_cooja/mtype67.a(watchdog.o)
                0x00000000000312e6                watchdog_stop
 .text.watchdog_reboot
                0x00000000000312eb        0x5 obj_cooja/mtype67.a(watchdog.o)
                0x00000000000312eb                watchdog_reboot
 .text          0x00000000000312f0        0x0 obj_cooja/mtype67.a(rimestats.o)
 .text          0x00000000000312f0        0x0 obj_cooja/mtype67.a(stimer.o)
 .text.stimer_set
                0x00000000000312f0       0x1b obj_cooja/mtype67.a(stimer.o)
                0x00000000000312f0                stimer_set
 .text.stimer_reset
                0x000000000003130b       0x17 obj_cooja/mtype67.a(stimer.o)
                0x000000000003130b                stimer_reset
 .text.stimer_restart
                0x0000000000031322       0x12 obj_cooja/mtype67.a(stimer.o)
                0x0000000000031322                stimer_restart
 .text.stimer_expired
                0x0000000000031334       0x27 obj_cooja/mtype67.a(stimer.o)
                0x0000000000031334                stimer_expired
 .text.stimer_remaining
                0x000000000003135b       0x24 obj_cooja/mtype67.a(stimer.o)
                0x000000000003135b                stimer_remaining
 .text.stimer_elapsed
                0x000000000003137f       0x14 obj_cooja/mtype67.a(stimer.o)
                0x000000000003137f                stimer_elapsed
 .text          0x0000000000031393        0x0 obj_cooja/mtype67.a(uip-icmp6.o)
 .text.input_handler_lookup
                0x0000000000031393       0x6e obj_cooja/mtype67.a(uip-icmp6.o)
 .text.uip_icmp6_input
                0x0000000000031401       0x56 obj_cooja/mtype67.a(uip-icmp6.o)
                0x0000000000031401                uip_icmp6_input
 .text.uip_icmp6_register_input_handler
                0x0000000000031457       0x1c obj_cooja/mtype67.a(uip-icmp6.o)
                0x0000000000031457                uip_icmp6_register_input_handler
 .text.echo_request_input
                0x0000000000031473      0x1c7 obj_cooja/mtype67.a(uip-icmp6.o)
 .text.uip_icmp6_error_output
                0x000000000003163a      0x340 obj_cooja/mtype67.a(uip-icmp6.o)
                0x000000000003163a                uip_icmp6_error_output
 .text.uip_icmp6_send
                0x000000000003197a      0x107 obj_cooja/mtype67.a(uip-icmp6.o)
                0x000000000003197a                uip_icmp6_send
 .text.echo_reply_input
                0x0000000000031a81      0x16d obj_cooja/mtype67.a(uip-icmp6.o)
 .text.uip_icmp6_echo_reply_callback_add
                0x0000000000031bee       0x31 obj_cooja/mtype67.a(uip-icmp6.o)
                0x0000000000031bee                uip_icmp6_echo_reply_callback_add
 .text.uip_icmp6_echo_reply_callback_rm
                0x0000000000031c1f       0x1c obj_cooja/mtype67.a(uip-icmp6.o)
                0x0000000000031c1f                uip_icmp6_echo_reply_callback_rm
 .text.uip_icmp6_init
                0x0000000000031c3b       0x20 obj_cooja/mtype67.a(uip-icmp6.o)
                0x0000000000031c3b                uip_icmp6_init
 .text          0x0000000000031c5b        0x0 obj_cooja/mtype67.a(rpl-nbr-policy.)
 .text.handle_periodic_timer
                0x0000000000031c5b       0x19 obj_cooja/mtype67.a(rpl-nbr-policy.)
 .text.update_nbr
                0x0000000000031c74      0x1b7 obj_cooja/mtype67.a(rpl-nbr-policy.)
 .text.find_removable_dis
                0x0000000000031e2b       0x25 obj_cooja/mtype67.a(rpl-nbr-policy.)
                0x0000000000031e2b                find_removable_dis
 .text.find_removable_dio
                0x0000000000031e50       0x81 obj_cooja/mtype67.a(rpl-nbr-policy.)
                0x0000000000031e50                find_removable_dio
 .text.find_removable_dao
                0x0000000000031ed1       0x50 obj_cooja/mtype67.a(rpl-nbr-policy.)
                0x0000000000031ed1                find_removable_dao
 .text.rpl_nbr_policy_find_removable
                0x0000000000031f21       0x57 obj_cooja/mtype67.a(rpl-nbr-policy.)
                0x0000000000031f21                rpl_nbr_policy_find_removable
 .text          0x0000000000031f78        0x0 obj_cooja/mtype67.a(frame802154.o)
 .text.addr_len
                0x0000000000031f78       0x31 obj_cooja/mtype67.a(frame802154.o)
 .text.frame802154_get_pan_id
                0x0000000000031fa9        0xc obj_cooja/mtype67.a(frame802154.o)
                0x0000000000031fa9                frame802154_get_pan_id
 .text.frame802154_set_pan_id
                0x0000000000031fb5       0x19 obj_cooja/mtype67.a(frame802154.o)
                0x0000000000031fb5                frame802154_set_pan_id
 .text.frame802154_has_panid
                0x0000000000031fce      0x1ad obj_cooja/mtype67.a(frame802154.o)
                0x0000000000031fce                frame802154_has_panid
 .text.frame802154_check_dest_panid
                0x000000000003217b       0x6f obj_cooja/mtype67.a(frame802154.o)
                0x000000000003217b                frame802154_check_dest_panid
 .text.frame802154_is_broadcast_addr
                0x00000000000321ea       0x4d obj_cooja/mtype67.a(frame802154.o)
                0x00000000000321ea                frame802154_is_broadcast_addr
 .text.frame802154_extract_linkaddr
                0x0000000000032237      0x148 obj_cooja/mtype67.a(frame802154.o)
                0x0000000000032237                frame802154_extract_linkaddr
 .text.field_len
                0x000000000003237f       0xf8 obj_cooja/mtype67.a(frame802154.o)
 .text.frame802154_hdrlen
                0x0000000000032477       0x51 obj_cooja/mtype67.a(frame802154.o)
                0x0000000000032477                frame802154_hdrlen
 .text.frame802154_create_fcf
                0x00000000000324c8       0xb7 obj_cooja/mtype67.a(frame802154.o)
                0x00000000000324c8                frame802154_create_fcf
 .text.frame802154_create
                0x000000000003257f      0x14d obj_cooja/mtype67.a(frame802154.o)
                0x000000000003257f                frame802154_create
 .text.frame802154_parse_fcf
                0x00000000000326cc       0xb9 obj_cooja/mtype67.a(frame802154.o)
                0x00000000000326cc                frame802154_parse_fcf
 .text.frame802154_parse
                0x0000000000032785      0x280 obj_cooja/mtype67.a(frame802154.o)
                0x0000000000032785                frame802154_parse
 .text          0x0000000000032a05        0x0 obj_cooja/mtype67.a(mac-sequence.o)
 .text.packetbuf_attr
                0x0000000000032a05       0x1a obj_cooja/mtype67.a(mac-sequence.o)
 .text.packetbuf_addr
                0x0000000000032a1f       0x1d obj_cooja/mtype67.a(mac-sequence.o)
 .text.mac_sequence_is_duplicate
                0x0000000000032a3c       0x9e obj_cooja/mtype67.a(mac-sequence.o)
                0x0000000000032a3c                mac_sequence_is_duplicate
 .text.mac_sequence_register_seqno
                0x0000000000032ada       0xca obj_cooja/mtype67.a(mac-sequence.o)
                0x0000000000032ada                mac_sequence_register_seqno
 .text          0x0000000000032ba4        0x0 /usr/lib/gcc/i686-linux-gnu/4.8/crtendS.o
 .text          0x0000000000032ba4        0x0 /usr/lib/gcc/i686-linux-gnu/4.8/../../../i386-linux-gnu/crtn.o
 *(.gnu.warning)

.fini           0x0000000000032ba4       0x14
 *(SORT(.fini))
 .fini          0x0000000000032ba4        0xf /usr/lib/gcc/i686-linux-gnu/4.8/../../../i386-linux-gnu/crti.o
                0x0000000000032ba4                _fini
 .fini          0x0000000000032bb3        0x5 /usr/lib/gcc/i686-linux-gnu/4.8/../../../i386-linux-gnu/crtn.o
                0x0000000000032bb8                PROVIDE (__etext, .)
                0x0000000000032bb8                PROVIDE (_etext, .)
                0x0000000000032bb8                PROVIDE (etext, .)

.rodata         0x0000000000032bc0     0x3638
 *(.rodata .rodata.* .gnu.linkonce.r.*)
 .rodata        0x0000000000032bc0      0x2d6 receiver.co
                0x0000000000032c34                autostart_processes
 *fill*         0x0000000000032e96        0x2 
 .rodata        0x0000000000032e98      0x133 obj_cooja/mtype67.o
 *fill*         0x0000000000032fcb        0x1 
 .rodata        0x0000000000032fcc     0x131a obj_cooja/mtype67.a(dtls.o)
 *fill*         0x00000000000342e6        0x2 
 .rodata        0x00000000000342e8       0xb5 obj_cooja/mtype67.a(tinydtls-crypto)
 *fill*         0x000000000003439d        0x3 
 .rodata        0x00000000000343a0       0x21 obj_cooja/mtype67.a(hmac.o)
 *fill*         0x00000000000343c1        0x3 
 .rodata        0x00000000000343c4       0x38 obj_cooja/mtype67.a(netq.o)
 .rodata        0x00000000000343fc        0xe obj_cooja/mtype67.a(peer.o)
 *fill*         0x000000000003440a        0x2 
 .rodata        0x000000000003440c       0x24 obj_cooja/mtype67.a(session.o)
 *fill*         0x0000000000034430       0x10 
 .rodata        0x0000000000034440     0x1428 obj_cooja/mtype67.a(rijndael.o)
 .rodata        0x0000000000035868       0x29 obj_cooja/mtype67.a(tinydtls-ccm.o)
 *fill*         0x0000000000035891        0xf 
 .rodata        0x00000000000358a0      0x15a obj_cooja/mtype67.a(sha2.o)
 .rodata        0x00000000000359fa       0x7e obj_cooja/mtype67.a(debug.o)
 .rodata        0x0000000000035a78        0x8 obj_cooja/mtype67.a(beep.o)
                0x0000000000035a78                beep_interface
 .rodata        0x0000000000035a80       0x20 obj_cooja/mtype67.a(button-sensor.o)
                0x0000000000035a80                button_interface
                0x0000000000035a90                button_sensor
 .rodata        0x0000000000035aa0        0x8 obj_cooja/mtype67.a(leds-arch.o)
                0x0000000000035aa0                leds_interface
 .rodata        0x0000000000035aa8        0x8 obj_cooja/mtype67.a(moteid.o)
                0x0000000000035aa8                moteid_interface
 .rodata        0x0000000000035ab0       0x1c obj_cooja/mtype67.a(pir-sensor.o)
                0x0000000000035ab0                pir_interface
                0x0000000000035abc                pir_sensor
 .rodata        0x0000000000035acc        0xe obj_cooja/mtype67.a(rs232.o)
                0x0000000000035acc                rs232_interface
 *fill*         0x0000000000035ada        0x2 
 .rodata        0x0000000000035adc       0x24 obj_cooja/mtype67.a(vib-sensor.o)
                0x0000000000035adc                vib_interface
                0x0000000000035af0                vib_sensor
 .rodata        0x0000000000035b00        0x8 obj_cooja/mtype67.a(clock.o)
                0x0000000000035b00                clock_interface
 .rodata        0x0000000000035b08        0x8 obj_cooja/mtype67.a(log.o)
                0x0000000000035b08                simlog_interface
 .rodata        0x0000000000035b10       0x2f obj_cooja/mtype67.a(cfs-cooja.o)
                0x0000000000035b10                cfs_interface
 *fill*         0x0000000000035b3f        0x1 
 .rodata        0x0000000000035b40       0x58 obj_cooja/mtype67.a(cooja-radio.o)
                0x0000000000035b40                radio_interface
                0x0000000000035b60                cooja_radio_driver
 .rodata        0x0000000000035b98        0x8 obj_cooja/mtype67.a(eeprom.o)
                0x0000000000035b98                eeprom_interface
 .rodata        0x0000000000035ba0        0x8 obj_cooja/mtype67.a(sensors.o)
 .rodata        0x0000000000035ba8        0xf obj_cooja/mtype67.a(ctimer.o)
 .rodata        0x0000000000035bb7        0xc obj_cooja/mtype67.a(etimer.o)
 .rodata        0x0000000000035bc3        0xe obj_cooja/mtype67.a(serial-line.o)
 *fill*         0x0000000000035bd1        0x3 
 .rodata        0x0000000000035bd4       0x25 obj_cooja/mtype67.a(assert.o)
 *fill*         0x0000000000035bf9        0x3 
 .rodata        0x0000000000035bfc       0x2c obj_cooja/mtype67.a(sicslowpan.o)
                0x0000000000035bfc                unc_llconf
                0x0000000000035c00                unc_ctxconf
                0x0000000000035c04                unc_mxconf
                0x0000000000035c08                llprefix
                0x0000000000035c1c                sicslowpan_driver
 .rodata        0x0000000000035c28      0x13c obj_cooja/mtype67.a(uip6.o)
 .rodata        0x0000000000035d64      0x306 obj_cooja/mtype67.a(resolv.o)
 .rodata        0x000000000003606a       0x29 obj_cooja/mtype67.a(tcpip.o)
 .rodata        0x0000000000036093       0x2a obj_cooja/mtype67.a(uip-debug.o)
 *fill*         0x00000000000360bd        0x3 
 .rodata        0x00000000000360c0       0x89 obj_cooja/mtype67.a(rpl-dag.o)
 .rodata        0x0000000000036149        0x8 obj_cooja/mtype67.a(linkaddr.o)
                0x0000000000036149                linkaddr_null
 *fill*         0x0000000000036151        0x3 
 .rodata        0x0000000000036154       0x24 obj_cooja/mtype67.a(csma.o)
                0x000000000003615c                csma_driver
 .rodata        0x0000000000036178        0xc obj_cooja/mtype67.a(framer-802154.o)
                0x0000000000036178                framer_802154
 *fill*         0x0000000000036184       0x1c 
 .rodata        0x00000000000361a0       0x40 obj_cooja/mtype67.a(nullrdc.o)
                0x00000000000361c0                nullrdc_driver
 .rodata        0x00000000000361e0       0x18 obj_cooja/mtype67.a(nullsec.o)
                0x00000000000361e8                nullsec_driver

.rodata1
 *(.rodata1)

.eh_frame_hdr   0x00000000000361f8     0x1a3c
 *(.eh_frame_hdr)
 .eh_frame_hdr  0x00000000000361f8     0x1a3c receiver.co

.eh_frame       0x0000000000037c34     0x6b88
 *(.eh_frame)
 .eh_frame      0x0000000000037c34       0x3c /usr/lib/gcc/i686-linux-gnu/4.8/../../../i386-linux-gnu/crti.o
                                         0x40 (size before relaxing)
 .eh_frame      0x0000000000037c70      0x210 receiver.co
                                        0x228 (size before relaxing)
 .eh_frame      0x0000000000037e80      0x148 obj_cooja/mtype67.o
                                        0x160 (size before relaxing)
 .eh_frame      0x0000000000037fc8      0xc58 obj_cooja/mtype67.a(dtls.o)
                                        0xc70 (size before relaxing)
 .eh_frame      0x0000000000038c20      0x2c0 obj_cooja/mtype67.a(tinydtls-crypto)
                                        0x2d8 (size before relaxing)
 .eh_frame      0x0000000000038ee0      0x160 obj_cooja/mtype67.a(hmac.o)
                                        0x178 (size before relaxing)
 .eh_frame      0x0000000000039040      0x160 obj_cooja/mtype67.a(netq.o)
                                        0x178 (size before relaxing)
 .eh_frame      0x00000000000391a0       0x40 obj_cooja/mtype67.a(dtls_time.o)
                                         0x58 (size before relaxing)
 .eh_frame      0x00000000000391e0       0x80 obj_cooja/mtype67.a(peer.o)
                                         0x98 (size before relaxing)
 .eh_frame      0x0000000000039260       0x40 obj_cooja/mtype67.a(session.o)
                                         0x58 (size before relaxing)
 .eh_frame      0x00000000000392a0       0x80 obj_cooja/mtype67.a(rijndael.o)
                                         0x98 (size before relaxing)
 .eh_frame      0x0000000000039320      0x144 obj_cooja/mtype67.a(tinydtls-ccm.o)
                                        0x15c (size before relaxing)
 .eh_frame      0x0000000000039464       0xec obj_cooja/mtype67.a(sha2.o)
                                        0x104 (size before relaxing)
 .eh_frame      0x0000000000039550      0x148 obj_cooja/mtype67.a(debug.o)
                                        0x160 (size before relaxing)
 .eh_frame      0x0000000000039698       0x40 obj_cooja/mtype67.a(simEnvChange.o)
                                         0x58 (size before relaxing)
 .eh_frame      0x00000000000396d8       0xc0 obj_cooja/mtype67.a(cooja_mt.o)
                                         0xd8 (size before relaxing)
 .eh_frame      0x0000000000039798      0x120 obj_cooja/mtype67.a(cooja_mtarch.o)
                                        0x138 (size before relaxing)
 .eh_frame      0x00000000000398b8       0xc8 obj_cooja/mtype67.a(rtimer-arch.o)
                                         0xe0 (size before relaxing)
 .eh_frame      0x0000000000039980      0x160 obj_cooja/mtype67.a(beep.o)
                                        0x178 (size before relaxing)
 .eh_frame      0x0000000000039ae0       0xa0 obj_cooja/mtype67.a(button-sensor.o)
                                         0xb8 (size before relaxing)
 .eh_frame      0x0000000000039b80       0xa0 obj_cooja/mtype67.a(leds-arch.o)
                                         0xb8 (size before relaxing)
 .eh_frame      0x0000000000039c20       0x40 obj_cooja/mtype67.a(moteid.o)
                                         0x58 (size before relaxing)
 .eh_frame      0x0000000000039c60       0xa0 obj_cooja/mtype67.a(pir-sensor.o)
                                         0xb8 (size before relaxing)
 .eh_frame      0x0000000000039d00      0x100 obj_cooja/mtype67.a(rs232.o)
                                        0x118 (size before relaxing)
 .eh_frame      0x0000000000039e00       0xa0 obj_cooja/mtype67.a(vib-sensor.o)
                                         0xb8 (size before relaxing)
 .eh_frame      0x0000000000039ea0       0xc0 obj_cooja/mtype67.a(clock.o)
                                         0xd8 (size before relaxing)
 .eh_frame      0x0000000000039f60      0x120 obj_cooja/mtype67.a(log.o)
                                        0x138 (size before relaxing)
 .eh_frame      0x000000000003a080      0x160 obj_cooja/mtype67.a(cfs-cooja.o)
                                        0x178 (size before relaxing)
 .eh_frame      0x000000000003a1e0      0x360 obj_cooja/mtype67.a(cooja-radio.o)
                                        0x378 (size before relaxing)
 .eh_frame      0x000000000003a540       0xa0 obj_cooja/mtype67.a(eeprom.o)
                                         0xb8 (size before relaxing)
 .eh_frame      0x000000000003a5e0       0x40 obj_cooja/mtype67.a(random.o)
                                         0x58 (size before relaxing)
 .eh_frame      0x000000000003a620       0xc0 obj_cooja/mtype67.a(sensors.o)
                                         0xd8 (size before relaxing)
 .eh_frame      0x000000000003a6e0       0x40 obj_cooja/mtype67.a(autostart.o)
                                         0x58 (size before relaxing)
 .eh_frame      0x000000000003a720      0x100 obj_cooja/mtype67.a(ctimer.o)
                                        0x118 (size before relaxing)
 .eh_frame      0x000000000003a820      0x1e0 obj_cooja/mtype67.a(etimer.o)
                                        0x1f8 (size before relaxing)
 .eh_frame      0x000000000003aa00      0x1c8 obj_cooja/mtype67.a(process.o)
                                        0x1e0 (size before relaxing)
 .eh_frame      0x000000000003abc8       0x60 obj_cooja/mtype67.a(rtimer.o)
                                         0x78 (size before relaxing)
 .eh_frame      0x000000000003ac28       0xa4 obj_cooja/mtype67.a(timer.o)
                                         0xbc (size before relaxing)
 .eh_frame      0x000000000003accc       0x60 obj_cooja/mtype67.a(serial-line.o)
                                         0x78 (size before relaxing)
 .eh_frame      0x000000000003ad2c       0x20 obj_cooja/mtype67.a(assert.o)
                                         0x38 (size before relaxing)
 .eh_frame      0x000000000003ad4c      0x180 obj_cooja/mtype67.a(list.o)
                                        0x198 (size before relaxing)
 .eh_frame      0x000000000003aecc       0xa0 obj_cooja/mtype67.a(memb.o)
                                         0xb8 (size before relaxing)
 .eh_frame      0x000000000003af6c       0xa0 obj_cooja/mtype67.a(ringbuf.o)
                                         0xb8 (size before relaxing)
 .eh_frame      0x000000000003b00c      0x350 obj_cooja/mtype67.a(sicslowpan.o)
                                        0x368 (size before relaxing)
 .eh_frame      0x000000000003b35c      0x1e0 obj_cooja/mtype67.a(uip-ds6-nbr.o)
                                        0x1f8 (size before relaxing)
 .eh_frame      0x000000000003b53c      0x2c0 obj_cooja/mtype67.a(uip-ds6-route.o)
                                        0x2d8 (size before relaxing)
 .eh_frame      0x000000000003b7fc      0x2c8 obj_cooja/mtype67.a(uip-ds6.o)
                                        0x2e0 (size before relaxing)
 .eh_frame      0x000000000003bac4       0xd8 obj_cooja/mtype67.a(uip-nd6.o)
                                         0xf0 (size before relaxing)
 .eh_frame      0x000000000003bb9c      0x27c obj_cooja/mtype67.a(uip6.o)
                                        0x294 (size before relaxing)
 .eh_frame      0x000000000003be18      0x2ac obj_cooja/mtype67.a(resolv.o)
                                        0x2c4 (size before relaxing)
 .eh_frame      0x000000000003c0c4      0x270 obj_cooja/mtype67.a(tcpip.o)
                                        0x288 (size before relaxing)
 .eh_frame      0x000000000003c334       0x28 obj_cooja/mtype67.a(uip-debug.o)
                                         0x40 (size before relaxing)
 .eh_frame      0x000000000003c35c       0x80 obj_cooja/mtype67.a(uip-nameserver.)
                                         0x98 (size before relaxing)
 .eh_frame      0x000000000003c3dc       0xe0 obj_cooja/mtype67.a(uip-packetqueue)
                                         0xf8 (size before relaxing)
 .eh_frame      0x000000000003c4bc       0x40 obj_cooja/mtype67.a(uip-udp-packet.)
                                         0x58 (size before relaxing)
 .eh_frame      0x000000000003c4fc       0x48 obj_cooja/mtype67.a(uiplib.o)
                                         0x60 (size before relaxing)
 .eh_frame      0x000000000003c544      0x720 obj_cooja/mtype67.a(rpl-dag.o)
                                        0x738 (size before relaxing)
 .eh_frame      0x000000000003cc64       0xc0 obj_cooja/mtype67.a(rpl-ext-header.)
                                         0xd8 (size before relaxing)
 .eh_frame      0x000000000003cd24      0x2b8 obj_cooja/mtype67.a(rpl-icmp6.o)
                                        0x2d0 (size before relaxing)
 .eh_frame      0x000000000003cfdc      0x124 obj_cooja/mtype67.a(rpl-mrhof.o)
                                        0x13c (size before relaxing)
 .eh_frame      0x000000000003d100      0x22c obj_cooja/mtype67.a(rpl-timers.o)
                                        0x244 (size before relaxing)
 .eh_frame      0x000000000003d32c      0x140 obj_cooja/mtype67.a(rpl.o)
                                        0x158 (size before relaxing)
 .eh_frame      0x000000000003d46c      0x100 obj_cooja/mtype67.a(link-stats.o)
                                        0x118 (size before relaxing)
 .eh_frame      0x000000000003d56c       0x60 obj_cooja/mtype67.a(linkaddr.o)
                                         0x78 (size before relaxing)
 .eh_frame      0x000000000003d5cc      0x2ac obj_cooja/mtype67.a(nbr-table.o)
                                        0x2c4 (size before relaxing)
 .eh_frame      0x000000000003d878       0x20 obj_cooja/mtype67.a(netstack.o)
                                         0x38 (size before relaxing)
 .eh_frame      0x000000000003d898      0x234 obj_cooja/mtype67.a(packetbuf.o)
                                        0x24c (size before relaxing)
 .eh_frame      0x000000000003dacc      0x1a0 obj_cooja/mtype67.a(queuebuf.o)
                                        0x1b8 (size before relaxing)
 .eh_frame      0x000000000003dc6c      0x28c obj_cooja/mtype67.a(csma.o)
                                        0x2a4 (size before relaxing)
 .eh_frame      0x000000000003def8      0x108 obj_cooja/mtype67.a(framer-802154.o)
                                        0x120 (size before relaxing)
 .eh_frame      0x000000000003e000       0x20 obj_cooja/mtype67.a(mac.o)
                                         0x38 (size before relaxing)
 .eh_frame      0x000000000003e020      0x16c obj_cooja/mtype67.a(nullrdc.o)
                                        0x184 (size before relaxing)
 .eh_frame      0x000000000003e18c       0x80 obj_cooja/mtype67.a(nullsec.o)
                                         0x98 (size before relaxing)
 .eh_frame      0x000000000003e20c       0xa0 obj_cooja/mtype67.a(watchdog.o)
                                         0xb8 (size before relaxing)
 .eh_frame      0x000000000003e2ac       0xc4 obj_cooja/mtype67.a(stimer.o)
                                         0xdc (size before relaxing)
 .eh_frame      0x000000000003e370      0x15c obj_cooja/mtype67.a(uip-icmp6.o)
                                        0x174 (size before relaxing)
 .eh_frame      0x000000000003e4cc       0xc0 obj_cooja/mtype67.a(rpl-nbr-policy.)
                                         0xd8 (size before relaxing)
 .eh_frame      0x000000000003e58c      0x1a4 obj_cooja/mtype67.a(frame802154.o)
                                        0x1bc (size before relaxing)
 .eh_frame      0x000000000003e730       0x88 obj_cooja/mtype67.a(mac-sequence.o)
                                         0xa0 (size before relaxing)
 .eh_frame      0x000000000003e7b8        0x4 /usr/lib/gcc/i686-linux-gnu/4.8/crtendS.o

.gcc_except_table
 *(.gcc_except_table .gcc_except_table.*)

.exception_ranges
 *(.exception_ranges .exception_ranges*)
                0x000000000003e7bc                . = (ALIGN (0x1000) - ((0x1000 - .) & 0xfff))
                0x000000000003fef8                . = DATA_SEGMENT_ALIGN (0x1000, 0x1000)

.eh_frame
 *(.eh_frame)

.gcc_except_table
 *(.gcc_except_table .gcc_except_table.*)

.exception_ranges
 *(.exception_ranges .exception_ranges*)

.tdata
 *(.tdata .tdata.* .gnu.linkonce.td.*)

.tbss
 *(.tbss .tbss.* .gnu.linkonce.tb.*)
 *(.tcommon)

.preinit_array
 *(.preinit_array)

.init_array     0x000000000003fef8        0x4
 *(SORT(.init_array.*) SORT(.ctors.*))
 *(.init_array EXCLUDE_FILE(*crtend?.o *crtend.o *crtbegin?.o *crtbegin.o) .ctors)
 .init_array    0x000000000003fef8        0x4 /usr/lib/gcc/i686-linux-gnu/4.8/crtbeginS.o

.fini_array     0x000000000003fefc        0x4
 *(SORT(.fini_array.*) SORT(.dtors.*))
 *(.fini_array EXCLUDE_FILE(*crtend?.o *crtend.o *crtbegin?.o *crtbegin.o) .dtors)
 .fini_array    0x000000000003fefc        0x4 /usr/lib/gcc/i686-linux-gnu/4.8/crtbeginS.o

.ctors
 *crtbegin.o(.ctors)
 *crtbegin?.o(.ctors)
 *(EXCLUDE_FILE(*crtend?.o *crtend.o) .ctors)
 *(SORT(.ctors.*))
 *(.ctors)

.dtors
 *crtbegin.o(.dtors)
 *crtbegin?.o(.dtors)
 *(EXCLUDE_FILE(*crtend?.o *crtend.o) .dtors)
 *(SORT(.dtors.*))
 *(.dtors)

.jcr            0x000000000003ff00        0x4
 *(.jcr)
 .jcr           0x000000000003ff00        0x0 /usr/lib/gcc/i686-linux-gnu/4.8/crtbeginS.o
 .jcr           0x000000000003ff00        0x4 /usr/lib/gcc/i686-linux-gnu/4.8/crtendS.o

.data.rel.ro
 *(.data.rel.ro.local* .gnu.linkonce.d.rel.ro.local.*)
 *(.data.rel.ro .data.rel.ro.* .gnu.linkonce.d.rel.ro.*)

.dynamic        0x000000000003ff04       0xe8
 *(.dynamic)
 .dynamic       0x000000000003ff04       0xe8 /usr/lib/gcc/i686-linux-gnu/4.8/../../../i386-linux-gnu/crti.o
                0x000000000003ff04                _DYNAMIC

.got            0x000000000003ffec       0x14
 *(.got)
 .got           0x000000000003ffec       0x14 /usr/lib/gcc/i686-linux-gnu/4.8/../../../i386-linux-gnu/crti.o
 *(.igot)
                0x0000000000040ff4                . = DATA_SEGMENT_RELRO_END (., (SIZEOF (.got.plt) >= 0xc)?0xc:0x0)

.got.plt        0x0000000000040000       0x14
 *(.got.plt)
 .got.plt       0x0000000000040000       0x14 /usr/lib/gcc/i686-linux-gnu/4.8/../../../i386-linux-gnu/crti.o
                0x0000000000040000                _GLOBAL_OFFSET_TABLE_
 *(.igot.plt)

.data           0x0000000000040020      0x38e
 *(.data .data.* .gnu.linkonce.d.*)
 .data          0x0000000000040020        0x0 /usr/lib/gcc/i686-linux-gnu/4.8/../../../i386-linux-gnu/crti.o
 .data          0x0000000000040020        0x0 /usr/lib/gcc/i686-linux-gnu/4.8/crtbeginS.o
 .data.rel      0x0000000000040020        0x4 /usr/lib/gcc/i686-linux-gnu/4.8/crtbeginS.o
                0x0000000000040020                __dso_handle
 *fill*         0x0000000000040024       0x1c 
 .data          0x0000000000040040       0x94 receiver.co
                0x0000000000040040                packet_count
                0x0000000000040048                udp_client_process
 *fill*         0x00000000000400d4        0xc 
 .data          0x00000000000400e0       0x44 obj_cooja/mtype67.o
                0x00000000000400e0                simInterfaces
                0x0000000000040114                sensors
 .data          0x0000000000040124       0x10 obj_cooja/mtype67.a(dtls.o)
                0x0000000000040124                dtls_retransmit_process
 .data          0x0000000000040134       0x18 obj_cooja/mtype67.a(tinydtls-crypto)
 .data          0x000000000004014c        0xc obj_cooja/mtype67.a(hmac.o)
 .data          0x0000000000040158        0xc obj_cooja/mtype67.a(netq.o)
 .data          0x0000000000040164        0x0 obj_cooja/mtype67.a(dtls_time.o)
 .data          0x0000000000040164        0xc obj_cooja/mtype67.a(peer.o)
 .data          0x0000000000040170        0x0 obj_cooja/mtype67.a(session.o)
 .data          0x0000000000040170        0x0 obj_cooja/mtype67.a(rijndael.o)
 .data          0x0000000000040170        0x0 obj_cooja/mtype67.a(tinydtls-ccm.o)
 .data          0x0000000000040170        0x4 obj_cooja/mtype67.a(sha2.o)
 .data          0x0000000000040174       0x20 obj_cooja/mtype67.a(debug.o)
 .data          0x0000000000040194        0x0 obj_cooja/mtype67.a(simEnvChange.o)
 .data          0x0000000000040194        0x0 obj_cooja/mtype67.a(cooja_mt.o)
 .data          0x0000000000040194        0x0 obj_cooja/mtype67.a(cooja_mtarch.o)
 .data          0x0000000000040194        0x0 obj_cooja/mtype67.a(rtimer-arch.o)
 .data          0x0000000000040194        0x0 obj_cooja/mtype67.a(beep.o)
 .data          0x0000000000040194        0x0 obj_cooja/mtype67.a(button-sensor.o)
 .data          0x0000000000040194        0x0 obj_cooja/mtype67.a(leds-arch.o)
 .data          0x0000000000040194        0x0 obj_cooja/mtype67.a(moteid.o)
 .data          0x0000000000040194        0x0 obj_cooja/mtype67.a(pir-sensor.o)
 .data          0x0000000000040194        0x0 obj_cooja/mtype67.a(rs232.o)
 .data          0x0000000000040194        0x0 obj_cooja/mtype67.a(vib-sensor.o)
 .data          0x0000000000040194        0x0 obj_cooja/mtype67.a(clock.o)
 .data          0x0000000000040194        0x0 obj_cooja/mtype67.a(log.o)
 .data          0x0000000000040194        0x0 obj_cooja/mtype67.a(cfs-cooja.o)
 .data          0x0000000000040194       0x2c obj_cooja/mtype67.a(cooja-radio.o)
                0x0000000000040194                simRadioHWOn
                0x0000000000040198                simSignalStrength
                0x000000000004019c                simLastSignalStrength
                0x00000000000401a0                simPower
                0x00000000000401a4                simRadioChannel
                0x00000000000401a8                simLQI
                0x00000000000401b0                cooja_radio_process
 .data          0x00000000000401c0        0x0 obj_cooja/mtype67.a(eeprom.o)
 .data          0x00000000000401c0        0x0 obj_cooja/mtype67.a(random.o)
 .data          0x00000000000401c0       0x10 obj_cooja/mtype67.a(sensors.o)
                0x00000000000401c0                sensors_process
 .data          0x00000000000401d0        0x0 obj_cooja/mtype67.a(autostart.o)
 .data          0x00000000000401d0       0x14 obj_cooja/mtype67.a(ctimer.o)
                0x00000000000401d4                ctimer_process
 .data          0x00000000000401e4       0x10 obj_cooja/mtype67.a(etimer.o)
                0x00000000000401e4                etimer_process
 .data          0x00000000000401f4        0x0 obj_cooja/mtype67.a(process.o)
 .data          0x00000000000401f4        0x0 obj_cooja/mtype67.a(rtimer.o)
 .data          0x00000000000401f4        0x0 obj_cooja/mtype67.a(timer.o)
 .data          0x00000000000401f4       0x10 obj_cooja/mtype67.a(serial-line.o)
                0x00000000000401f4                serial_line_process
 .data          0x0000000000040204        0x0 obj_cooja/mtype67.a(assert.o)
 .data          0x0000000000040204        0x0 obj_cooja/mtype67.a(list.o)
 .data          0x0000000000040204        0x0 obj_cooja/mtype67.a(memb.o)
 .data          0x0000000000040204        0x0 obj_cooja/mtype67.a(ringbuf.o)
 .data          0x0000000000040204        0x0 obj_cooja/mtype67.a(sicslowpan.o)
 .data          0x0000000000040204       0x14 obj_cooja/mtype67.a(uip-ds6-nbr.o)
                0x0000000000040214                ds6_neighbors
 .data          0x0000000000040218       0x44 obj_cooja/mtype67.a(uip-ds6-route.o)
                0x0000000000040228                nbr_routes
 .data          0x000000000004025c        0x0 obj_cooja/mtype67.a(uip-ds6.o)
 .data          0x000000000004025c       0x18 obj_cooja/mtype67.a(uip-nd6.o)
 .data          0x0000000000040274        0x0 obj_cooja/mtype67.a(uip6.o)
 .data          0x0000000000040274       0x20 obj_cooja/mtype67.a(resolv.o)
                0x0000000000040274                resolv_process
                0x0000000000040284                mdns_probe_process
 .data          0x0000000000040294       0x10 obj_cooja/mtype67.a(tcpip.o)
                0x0000000000040294                tcpip_process
 .data          0x00000000000402a4        0x0 obj_cooja/mtype67.a(uip-debug.o)
 .data          0x00000000000402a4        0x0 obj_cooja/mtype67.a(uip-nameserver.)
 .data          0x00000000000402a4        0xc obj_cooja/mtype67.a(uip-packetqueue)
 .data          0x00000000000402b0        0x0 obj_cooja/mtype67.a(uip-udp-packet.)
 .data          0x00000000000402b0        0x0 obj_cooja/mtype67.a(uiplib.o)
 .data          0x00000000000402b0       0x14 obj_cooja/mtype67.a(rpl-dag.o)
                0x00000000000402c0                rpl_parents
 .data          0x00000000000402c4        0x0 obj_cooja/mtype67.a(rpl-ext-header.)
 .data          0x00000000000402c4       0x34 obj_cooja/mtype67.a(rpl-icmp6.o)
 *fill*         0x00000000000402f8        0x8 
 .data          0x0000000000040300       0x24 obj_cooja/mtype67.a(rpl-mrhof.o)
                0x0000000000040300                rpl_mrhof
 .data          0x0000000000040324        0x0 obj_cooja/mtype67.a(rpl-timers.o)
 .data          0x0000000000040324        0x0 obj_cooja/mtype67.a(rpl.o)
 .data          0x0000000000040324       0x14 obj_cooja/mtype67.a(link-stats.o)
 .data          0x0000000000040338        0x0 obj_cooja/mtype67.a(linkaddr.o)
 .data          0x0000000000040338       0x10 obj_cooja/mtype67.a(nbr-table.o)
 .data          0x0000000000040348        0x0 obj_cooja/mtype67.a(netstack.o)
 .data          0x0000000000040348        0x4 obj_cooja/mtype67.a(packetbuf.o)
 .data          0x000000000004034c       0x18 obj_cooja/mtype67.a(queuebuf.o)
 .data          0x0000000000040364       0x28 obj_cooja/mtype67.a(csma.o)
 .data          0x000000000004038c        0x0 obj_cooja/mtype67.a(framer-802154.o)
 .data          0x000000000004038c        0x0 obj_cooja/mtype67.a(mac.o)
 .data          0x000000000004038c        0x0 obj_cooja/mtype67.a(nullrdc.o)
 .data          0x000000000004038c        0x0 obj_cooja/mtype67.a(nullsec.o)
 .data          0x000000000004038c        0x0 obj_cooja/mtype67.a(watchdog.o)
 .data          0x000000000004038c        0x0 obj_cooja/mtype67.a(rimestats.o)
 .data          0x000000000004038c        0x0 obj_cooja/mtype67.a(stimer.o)
 .data          0x000000000004038c       0x20 obj_cooja/mtype67.a(uip-icmp6.o)
 .data          0x00000000000403ac        0x0 obj_cooja/mtype67.a(rpl-nbr-policy.)
 .data          0x00000000000403ac        0x2 obj_cooja/mtype67.a(frame802154.o)
 .data          0x00000000000403ae        0x0 obj_cooja/mtype67.a(mac-sequence.o)
 .data          0x00000000000403ae        0x0 /usr/lib/gcc/i686-linux-gnu/4.8/crtendS.o
 .data          0x00000000000403ae        0x0 /usr/lib/gcc/i686-linux-gnu/4.8/../../../i386-linux-gnu/crtn.o

.tm_clone_table
                0x00000000000403b0        0x0
 .tm_clone_table
                0x00000000000403b0        0x0 /usr/lib/gcc/i686-linux-gnu/4.8/crtbeginS.o
 .tm_clone_table
                0x00000000000403b0        0x0 /usr/lib/gcc/i686-linux-gnu/4.8/crtendS.o

.data1
 *(.data1)
                0x00000000000403b0                _edata = .
                0x00000000000403b0                PROVIDE (edata, .)
                0x00000000000403b0                . = .
                0x00000000000403b0                __bss_start = .

.bss            0x00000000000403c0    0x13948
 *(.dynbss)
 .dynbss        0x0000000000000000        0x0 /usr/lib/gcc/i686-linux-gnu/4.8/../../../i386-linux-gnu/crti.o
 *(.bss .bss.* .gnu.linkonce.b.*)
 .bss           0x00000000000403c0        0x0 /usr/lib/gcc/i686-linux-gnu/4.8/../../../i386-linux-gnu/crti.o
 .bss           0x00000000000403c0        0x1 /usr/lib/gcc/i686-linux-gnu/4.8/crtbeginS.o
 *fill*         0x00000000000403c1       0x1f 
 .bss           0x00000000000403e0      0x190 receiver.co
                0x00000000000403e0                iv
 *fill*         0x0000000000040570       0x10 
 .bss           0x0000000000040580     0x2030 obj_cooja/mtype67.o
 *fill*         0x00000000000425b0       0x10 
 .bss           0x00000000000425c0      0x165 obj_cooja/mtype67.a(dtls.o)
 *fill*         0x0000000000042725       0x1b 
 .bss           0x0000000000042740      0xc70 obj_cooja/mtype67.a(tinydtls-crypto)
 *fill*         0x00000000000433b0       0x10 
 .bss           0x00000000000433c0      0x410 obj_cooja/mtype67.a(hmac.o)
 *fill*         0x00000000000437d0       0x10 
 .bss           0x00000000000437e0      0x470 obj_cooja/mtype67.a(netq.o)
 .bss           0x0000000000043c50        0x0 obj_cooja/mtype67.a(dtls_time.o)
 *fill*         0x0000000000043c50       0x10 
 .bss           0x0000000000043c60       0x80 obj_cooja/mtype67.a(peer.o)
 .bss           0x0000000000043ce0        0x0 obj_cooja/mtype67.a(session.o)
 .bss           0x0000000000043ce0        0x0 obj_cooja/mtype67.a(rijndael.o)
 .bss           0x0000000000043ce0        0x4 obj_cooja/mtype67.a(tinydtls-ccm.o)
 .bss           0x0000000000043ce4        0x0 obj_cooja/mtype67.a(sha2.o)
 *fill*         0x0000000000043ce4       0x1c 
 .bss           0x0000000000043d00       0x20 obj_cooja/mtype67.a(debug.o)
 .bss           0x0000000000043d20        0x1 obj_cooja/mtype67.a(simEnvChange.o)
                0x0000000000043d20                simDontFallAsleep
 *fill*         0x0000000000043d21        0x3 
 .bss           0x0000000000043d24        0x4 obj_cooja/mtype67.a(cooja_mt.o)
 .bss           0x0000000000043d28        0x4 obj_cooja/mtype67.a(cooja_mtarch.o)
 .bss           0x0000000000043d2c        0x0 obj_cooja/mtype67.a(rtimer-arch.o)
 .bss           0x0000000000043d2c        0x0 obj_cooja/mtype67.a(beep.o)
 .bss           0x0000000000043d2c        0x8 obj_cooja/mtype67.a(button-sensor.o)
 .bss           0x0000000000043d34        0x0 obj_cooja/mtype67.a(leds-arch.o)
 .bss           0x0000000000043d34        0x0 obj_cooja/mtype67.a(moteid.o)
 .bss           0x0000000000043d34        0x1 obj_cooja/mtype67.a(pir-sensor.o)
                0x0000000000043d34                simPirValue
 *fill*         0x0000000000043d35        0x3 
 .bss           0x0000000000043d38        0x4 obj_cooja/mtype67.a(rs232.o)
 .bss           0x0000000000043d3c        0x1 obj_cooja/mtype67.a(vib-sensor.o)
                0x0000000000043d3c                simVibValue
 .bss           0x0000000000043d3d        0x0 obj_cooja/mtype67.a(clock.o)
 *fill*         0x0000000000043d3d        0x3 
 .bss           0x0000000000043d40      0x420 obj_cooja/mtype67.a(log.o)
 .bss           0x0000000000044160      0xfc0 obj_cooja/mtype67.a(cfs-cooja.o)
                0x0000000000044160                simCFSData
                0x0000000000045100                simCFSSize
                0x0000000000045104                simCFSChanged
                0x0000000000045108                simCFSRead
                0x000000000004510c                simCFSWritten
 .bss           0x0000000000045120       0x24 obj_cooja/mtype67.a(cooja-radio.o)
                0x0000000000045120                simReceiving
                0x0000000000045124                simInSize
                0x0000000000045128                simLastPacketTimestamp
                0x0000000000045130                simOutSize
 .bss           0x0000000000045144        0xc obj_cooja/mtype67.a(eeprom.o)
                0x0000000000045144                simEEPROMChanged
                0x0000000000045148                simEEPROMRead
                0x000000000004514c                simEEPROMWritten
 .bss           0x0000000000045150        0x0 obj_cooja/mtype67.a(random.o)
 .bss           0x0000000000045150        0xc obj_cooja/mtype67.a(sensors.o)
 .bss           0x000000000004515c        0x0 obj_cooja/mtype67.a(autostart.o)
 .bss           0x000000000004515c        0x5 obj_cooja/mtype67.a(ctimer.o)
 *fill*         0x0000000000045161        0x3 
 .bss           0x0000000000045164        0x8 obj_cooja/mtype67.a(etimer.o)
 *fill*         0x000000000004516c       0x14 
 .bss           0x0000000000045180      0x1a1 obj_cooja/mtype67.a(process.o)
                0x0000000000045180                process_list
                0x0000000000045184                process_current
 *fill*         0x0000000000045321        0x3 
 .bss           0x0000000000045324        0x4 obj_cooja/mtype67.a(rtimer.o)
 .bss           0x0000000000045328        0x0 obj_cooja/mtype67.a(timer.o)
 *fill*         0x0000000000045328       0x18 
 .bss           0x0000000000045340      0x140 obj_cooja/mtype67.a(serial-line.o)
 .bss           0x0000000000045480        0x0 obj_cooja/mtype67.a(assert.o)
 .bss           0x0000000000045480        0x0 obj_cooja/mtype67.a(list.o)
 .bss           0x0000000000045480        0x0 obj_cooja/mtype67.a(memb.o)
 .bss           0x0000000000045480        0x0 obj_cooja/mtype67.a(ringbuf.o)
 .bss           0x0000000000045480      0x70c obj_cooja/mtype67.a(sicslowpan.o)
 *fill*         0x0000000000045b8c       0x14 
 .bss           0x0000000000045ba0     0x3390 obj_cooja/mtype67.a(uip-ds6-nbr.o)
 *fill*         0x0000000000048f30       0x10 
 .bss           0x0000000000048f40     0x44a4 obj_cooja/mtype67.a(uip-ds6-route.o)
 .bss           0x000000000004d3e4       0x20 obj_cooja/mtype67.a(uip-ds6.o)
 .bss           0x000000000004d404       0x14 obj_cooja/mtype67.a(uip-nd6.o)
 .bss           0x000000000004d418        0xa obj_cooja/mtype67.a(uip6.o)
                0x000000000004d418                uip_ext_bitmap
                0x000000000004d419                uip_ext_len
                0x000000000004d41a                uip_ext_opt_offset
 *fill*         0x000000000004d422       0x1e 
 .bss           0x000000000004d440      0x1a1 obj_cooja/mtype67.a(resolv.o)
 *fill*         0x000000000004d5e1       0x1f 
 .bss           0x000000000004d600       0x6a obj_cooja/mtype67.a(tcpip.o)
 .bss           0x000000000004d66a        0x0 obj_cooja/mtype67.a(uip-debug.o)
 *fill*         0x000000000004d66a        0x2 
 .bss           0x000000000004d66c       0x14 obj_cooja/mtype67.a(uip-nameserver.)
 .bss           0x000000000004d680      0xcf8 obj_cooja/mtype67.a(uip-packetqueue)
 .bss           0x000000000004e378        0x0 obj_cooja/mtype67.a(uip-udp-packet.)
 .bss           0x000000000004e378        0x0 obj_cooja/mtype67.a(uiplib.o)
 *fill*         0x000000000004e378        0x8 
 .bss           0x000000000004e380      0x960 obj_cooja/mtype67.a(rpl-dag.o)
 .bss           0x000000000004ece0        0x0 obj_cooja/mtype67.a(rpl-ext-header.)
 .bss           0x000000000004ece0        0x0 obj_cooja/mtype67.a(rpl-icmp6.o)
 .bss           0x000000000004ece0        0x0 obj_cooja/mtype67.a(rpl-mrhof.o)
 .bss           0x000000000004ece0       0x23 obj_cooja/mtype67.a(rpl-timers.o)
 *fill*         0x000000000004ed03        0x1 
 .bss           0x000000000004ed04        0x4 obj_cooja/mtype67.a(rpl.o)
 *fill*         0x000000000004ed08       0x18 
 .bss           0x000000000004ed20      0xe10 obj_cooja/mtype67.a(link-stats.o)
 .bss           0x000000000004fb30        0x0 obj_cooja/mtype67.a(linkaddr.o)
 *fill*         0x000000000004fb30       0x10 
 .bss           0x000000000004fb40     0x1214 obj_cooja/mtype67.a(nbr-table.o)
 .bss           0x0000000000050d54        0x0 obj_cooja/mtype67.a(netstack.o)
 *fill*         0x0000000000050d54        0xc 
 .bss           0x0000000000050d60       0xa0 obj_cooja/mtype67.a(packetbuf.o)
 .bss           0x0000000000050e00      0xb80 obj_cooja/mtype67.a(queuebuf.o)
 .bss           0x0000000000051980      0x248 obj_cooja/mtype67.a(csma.o)
 .bss           0x0000000000051bc8        0x2 obj_cooja/mtype67.a(framer-802154.o)
 .bss           0x0000000000051bca        0x0 obj_cooja/mtype67.a(mac.o)
 .bss           0x0000000000051bca        0x0 obj_cooja/mtype67.a(nullrdc.o)
 .bss           0x0000000000051bca        0x0 obj_cooja/mtype67.a(nullsec.o)
 .bss           0x0000000000051bca        0x0 obj_cooja/mtype67.a(watchdog.o)
 .bss           0x0000000000051bca        0x0 obj_cooja/mtype67.a(rimestats.o)
 .bss           0x0000000000051bca        0x0 obj_cooja/mtype67.a(stimer.o)
 *fill*         0x0000000000051bca        0x2 
 .bss           0x0000000000051bcc       0x18 obj_cooja/mtype67.a(uip-icmp6.o)
 *fill*         0x0000000000051be4       0x1c 
 .bss           0x0000000000051c00       0x44 obj_cooja/mtype67.a(rpl-nbr-policy.)
 .bss           0x0000000000051c44        0x0 obj_cooja/mtype67.a(frame802154.o)
 *fill*         0x0000000000051c44       0x1c 
 .bss           0x0000000000051c60      0x100 obj_cooja/mtype67.a(mac-sequence.o)
 .bss           0x0000000000051d60        0x0 /usr/lib/gcc/i686-linux-gnu/4.8/crtendS.o
 .bss           0x0000000000051d60        0x0 /usr/lib/gcc/i686-linux-gnu/4.8/../../../i386-linux-gnu/crtn.o
 *(COMMON)
 COMMON         0x0000000000051d60      0x118 receiver.co
                0x0000000000051d60                cfs_buf
                0x0000000000051d80                j
                0x0000000000051da0                read_buf
                0x0000000000051e68                data_len
                0x0000000000051e6c                filename
                0x0000000000051e70                iterator
                0x0000000000051e74                it
 COMMON         0x0000000000051e78        0x8 obj_cooja/mtype67.o
                0x0000000000051e78                referenceVar
                0x0000000000051e7c                sensors_flags
 COMMON         0x0000000000051e80        0x4 obj_cooja/mtype67.a(dtls_time.o)
                0x0000000000051e80                dtls_clock_offset
 COMMON         0x0000000000051e84        0xc obj_cooja/mtype67.a(simEnvChange.o)
                0x0000000000051e84                simEtimerPending
                0x0000000000051e88                simProcessRunValue
                0x0000000000051e8c                simEtimerNextExpirationTime
 COMMON         0x0000000000051e90       0x18 obj_cooja/mtype67.a(rtimer-arch.o)
                0x0000000000051e90                simRtimerPending
                0x0000000000051e98                simRtimerCurrentTicks
                0x0000000000051ea0                simRtimerNextExpirationTime
 COMMON         0x0000000000051ea8        0x1 obj_cooja/mtype67.a(beep.o)
                0x0000000000051ea8                simBeeped
 COMMON         0x0000000000051ea9        0x3 obj_cooja/mtype67.a(button-sensor.o)
                0x0000000000051ea9                simButtonIsActive
                0x0000000000051eaa                simButtonIsDown
                0x0000000000051eab                simButtonChanged
 COMMON         0x0000000000051eac        0x1 obj_cooja/mtype67.a(leds-arch.o)
                0x0000000000051eac                simLedsValue
 *fill*         0x0000000000051ead        0x3 
 COMMON         0x0000000000051eb0        0xc obj_cooja/mtype67.a(moteid.o)
                0x0000000000051eb0                simRandomSeed
                0x0000000000051eb4                simMoteIDChanged
                0x0000000000051eb8                simMoteID
 COMMON         0x0000000000051ebc        0x2 obj_cooja/mtype67.a(pir-sensor.o)
                0x0000000000051ebc                simPirIsActive
                0x0000000000051ebd                simPirChanged
 *fill*         0x0000000000051ebe        0x2 
 COMMON         0x0000000000051ec0      0x820 obj_cooja/mtype67.a(rs232.o)
                0x0000000000051ec0                simSerialReceivingFlag
                0x0000000000051ec4                simSerialReceivingLength
                0x0000000000051ee0                simSerialReceivingData
 COMMON         0x00000000000526e0        0x2 obj_cooja/mtype67.a(vib-sensor.o)
                0x00000000000526e0                simVibChanged
                0x00000000000526e1                simVibIsActive
 *fill*         0x00000000000526e2        0x2 
 COMMON         0x00000000000526e4        0x4 obj_cooja/mtype67.a(clock.o)
                0x00000000000526e4                simCurrentTime
 *fill*         0x00000000000526e8       0x18 
 COMMON         0x0000000000052700      0x420 obj_cooja/mtype67.a(log.o)
                0x0000000000052700                simLoggedLength
                0x0000000000052704                simLoggedFlag
                0x0000000000052720                simLoggedData
 COMMON         0x0000000000052b20      0x100 obj_cooja/mtype67.a(cooja-radio.o)
                0x0000000000052b20                simOutDataBuffer
                0x0000000000052ba0                simInDataBuffer
 COMMON         0x0000000000052c20      0x400 obj_cooja/mtype67.a(eeprom.o)
                0x0000000000052c20                simEEPROMData
 COMMON         0x0000000000053020        0x1 obj_cooja/mtype67.a(sensors.o)
                0x0000000000053020                sensors_event
 COMMON         0x0000000000053021        0x1 obj_cooja/mtype67.a(serial-line.o)
                0x0000000000053021                serial_line_event_message
 *fill*         0x0000000000053022       0x1e 
 COMMON         0x0000000000053040      0x181 obj_cooja/mtype67.a(uip-ds6.o)
                0x0000000000053040                uip_ds6_prefix_list
                0x00000000000530a0                uip_ds6_timer_periodic
                0x00000000000530b0                uip_ds6_netif_addr_list_offset
                0x00000000000530c0                uip_ds6_if
                0x00000000000531b8                uip_ds6_timer_ra
                0x00000000000531c0                uip_ds6_addr_size
 *fill*         0x00000000000531c1       0x1f 
 COMMON         0x00000000000531e0      0x8ec obj_cooja/mtype67.a(uip6.o)
                0x00000000000531e0                uip_slen
                0x00000000000531e2                uip_acc32
                0x0000000000053200                uip_conns
                0x00000000000532c0                uip_lladdr
                0x00000000000532c8                uip_appdata
                0x00000000000532cc                uip_flags
                0x00000000000532e0                uip_aligned_buf
                0x0000000000053920                uip_listenports
                0x0000000000053930                uip_len
                0x0000000000053934                uip_sappdata
                0x0000000000053940                uip_udp_conns
                0x0000000000053ac0                uip_udp_conn
                0x0000000000053ac4                uip_next_hdr
                0x0000000000053ac8                uip_conn
 COMMON         0x0000000000053acc        0x1 obj_cooja/mtype67.a(resolv.o)
                0x0000000000053acc                resolv_event_found
 COMMON         0x0000000000053acd        0x1 obj_cooja/mtype67.a(tcpip.o)
                0x0000000000053acd                tcpip_event
 *fill*         0x0000000000053ace       0x12 
 COMMON         0x0000000000053ae0      0x174 obj_cooja/mtype67.a(rpl-dag.o)
                0x0000000000053ae0                default_instance
                0x0000000000053b00                instance_table
 *fill*         0x0000000000053c54        0xc 
 COMMON         0x0000000000053c60       0x20 obj_cooja/mtype67.a(link-stats.o)
                0x0000000000053c60                periodic_timer
 COMMON         0x0000000000053c80        0x8 obj_cooja/mtype67.a(linkaddr.o)
                0x0000000000053c80                linkaddr_node_addr
 COMMON         0x0000000000053c88       0x2e obj_cooja/mtype67.a(packetbuf.o)
                0x0000000000053c88                packetbuf_attrs
                0x0000000000053ca6                packetbuf_addrs
 *fill*         0x0000000000053cb6        0xa 
 COMMON         0x0000000000053cc0       0x48 obj_cooja/mtype67.a(rimestats.o)
                0x0000000000053cc0                rimestats
                0x0000000000053d08                . = ALIGN ((. != 0x0)?0x4:0x1)
                0x0000000000053d08                . = ALIGN (0x4)
                0x0000000000053d08                . = SEGMENT_START ("ldata-segment", .)
                0x0000000000053d08                . = ALIGN (0x4)
                0x0000000000053d08                _end = .
                0x0000000000053d08                PROVIDE (end, .)
                0x0000000000053d08                . = DATA_SEGMENT_END (.)

.stab
 *(.stab)

.stabstr
 *(.stabstr)

.stab.excl
 *(.stab.excl)

.stab.exclstr
 *(.stab.exclstr)

.stab.index
 *(.stab.index)

.stab.indexstr
 *(.stab.indexstr)

.comment        0x0000000000000000       0x29
 *(.comment)
 .comment       0x0000000000000000       0x29 /usr/lib/gcc/i686-linux-gnu/4.8/crtbeginS.o
                                         0x2a (size before relaxing)
 .comment       0x0000000000000000       0x2a receiver.co
 .comment       0x0000000000000000       0x2a obj_cooja/mtype67.o
 .comment       0x0000000000000000       0x2a obj_cooja/mtype67.a(dtls.o)
 .comment       0x0000000000000000       0x2a obj_cooja/mtype67.a(tinydtls-crypto)
 .comment       0x0000000000000000       0x2a obj_cooja/mtype67.a(hmac.o)
 .comment       0x0000000000000000       0x2a obj_cooja/mtype67.a(netq.o)
 .comment       0x0000000000000000       0x2a obj_cooja/mtype67.a(dtls_time.o)
 .comment       0x0000000000000000       0x2a obj_cooja/mtype67.a(peer.o)
 .comment       0x0000000000000000       0x2a obj_cooja/mtype67.a(session.o)
 .comment       0x0000000000000000       0x2a obj_cooja/mtype67.a(rijndael.o)
 .comment       0x0000000000000000       0x2a obj_cooja/mtype67.a(tinydtls-ccm.o)
 .comment       0x0000000000000000       0x2a obj_cooja/mtype67.a(sha2.o)
 .comment       0x0000000000000000       0x2a obj_cooja/mtype67.a(debug.o)
 .comment       0x0000000000000000       0x2a obj_cooja/mtype67.a(simEnvChange.o)
 .comment       0x0000000000000000       0x2a obj_cooja/mtype67.a(cooja_mt.o)
 .comment       0x0000000000000000       0x2a obj_cooja/mtype67.a(cooja_mtarch.o)
 .comment       0x0000000000000000       0x2a obj_cooja/mtype67.a(rtimer-arch.o)
 .comment       0x0000000000000000       0x2a obj_cooja/mtype67.a(beep.o)
 .comment       0x0000000000000000       0x2a obj_cooja/mtype67.a(button-sensor.o)
 .comment       0x0000000000000000       0x2a obj_cooja/mtype67.a(leds-arch.o)
 .comment       0x0000000000000000       0x2a obj_cooja/mtype67.a(moteid.o)
 .comment       0x0000000000000000       0x2a obj_cooja/mtype67.a(pir-sensor.o)
 .comment       0x0000000000000000       0x2a obj_cooja/mtype67.a(rs232.o)
 .comment       0x0000000000000000       0x2a obj_cooja/mtype67.a(vib-sensor.o)
 .comment       0x0000000000000000       0x2a obj_cooja/mtype67.a(clock.o)
 .comment       0x0000000000000000       0x2a obj_cooja/mtype67.a(log.o)
 .comment       0x0000000000000000       0x2a obj_cooja/mtype67.a(cfs-cooja.o)
 .comment       0x0000000000000000       0x2a obj_cooja/mtype67.a(cooja-radio.o)
 .comment       0x0000000000000000       0x2a obj_cooja/mtype67.a(eeprom.o)
 .comment       0x0000000000000000       0x2a obj_cooja/mtype67.a(random.o)
 .comment       0x0000000000000000       0x2a obj_cooja/mtype67.a(sensors.o)
 .comment       0x0000000000000000       0x2a obj_cooja/mtype67.a(autostart.o)
 .comment       0x0000000000000000       0x2a obj_cooja/mtype67.a(ctimer.o)
 .comment       0x0000000000000000       0x2a obj_cooja/mtype67.a(etimer.o)
 .comment       0x0000000000000000       0x2a obj_cooja/mtype67.a(process.o)
 .comment       0x0000000000000000       0x2a obj_cooja/mtype67.a(rtimer.o)
 .comment       0x0000000000000000       0x2a obj_cooja/mtype67.a(timer.o)
 .comment       0x0000000000000000       0x2a obj_cooja/mtype67.a(serial-line.o)
 .comment       0x0000000000000000       0x2a obj_cooja/mtype67.a(assert.o)
 .comment       0x0000000000000000       0x2a obj_cooja/mtype67.a(list.o)
 .comment       0x0000000000000000       0x2a obj_cooja/mtype67.a(memb.o)
 .comment       0x0000000000000000       0x2a obj_cooja/mtype67.a(ringbuf.o)
 .comment       0x0000000000000000       0x2a obj_cooja/mtype67.a(sicslowpan.o)
 .comment       0x0000000000000000       0x2a obj_cooja/mtype67.a(uip-ds6-nbr.o)
 .comment       0x0000000000000000       0x2a obj_cooja/mtype67.a(uip-ds6-route.o)
 .comment       0x0000000000000000       0x2a obj_cooja/mtype67.a(uip-ds6.o)
 .comment       0x0000000000000000       0x2a obj_cooja/mtype67.a(uip-nd6.o)
 .comment       0x0000000000000000       0x2a obj_cooja/mtype67.a(uip6.o)
 .comment       0x0000000000000000       0x2a obj_cooja/mtype67.a(resolv.o)
 .comment       0x0000000000000000       0x2a obj_cooja/mtype67.a(tcpip.o)
 .comment       0x0000000000000000       0x2a obj_cooja/mtype67.a(uip-debug.o)
 .comment       0x0000000000000000       0x2a obj_cooja/mtype67.a(uip-nameserver.)
 .comment       0x0000000000000000       0x2a obj_cooja/mtype67.a(uip-packetqueue)
 .comment       0x0000000000000000       0x2a obj_cooja/mtype67.a(uip-udp-packet.)
 .comment       0x0000000000000000       0x2a obj_cooja/mtype67.a(uiplib.o)
 .comment       0x0000000000000000       0x2a obj_cooja/mtype67.a(rpl-dag.o)
 .comment       0x0000000000000000       0x2a obj_cooja/mtype67.a(rpl-ext-header.)
 .comment       0x0000000000000000       0x2a obj_cooja/mtype67.a(rpl-icmp6.o)
 .comment       0x0000000000000000       0x2a obj_cooja/mtype67.a(rpl-mrhof.o)
 .comment       0x0000000000000000       0x2a obj_cooja/mtype67.a(rpl-timers.o)
 .comment       0x0000000000000000       0x2a obj_cooja/mtype67.a(rpl.o)
 .comment       0x0000000000000000       0x2a obj_cooja/mtype67.a(link-stats.o)
 .comment       0x0000000000000000       0x2a obj_cooja/mtype67.a(linkaddr.o)
 .comment       0x0000000000000000       0x2a obj_cooja/mtype67.a(nbr-table.o)
 .comment       0x0000000000000000       0x2a obj_cooja/mtype67.a(netstack.o)
 .comment       0x0000000000000000       0x2a obj_cooja/mtype67.a(packetbuf.o)
 .comment       0x0000000000000000       0x2a obj_cooja/mtype67.a(queuebuf.o)
 .comment       0x0000000000000000       0x2a obj_cooja/mtype67.a(csma.o)
 .comment       0x0000000000000000       0x2a obj_cooja/mtype67.a(framer-802154.o)
 .comment       0x0000000000000000       0x2a obj_cooja/mtype67.a(mac.o)
 .comment       0x0000000000000000       0x2a obj_cooja/mtype67.a(nullrdc.o)
 .comment       0x0000000000000000       0x2a obj_cooja/mtype67.a(nullsec.o)
 .comment       0x0000000000000000       0x2a obj_cooja/mtype67.a(watchdog.o)
 .comment       0x0000000000000000       0x2a obj_cooja/mtype67.a(rimestats.o)
 .comment       0x0000000000000000       0x2a obj_cooja/mtype67.a(stimer.o)
 .comment       0x0000000000000000       0x2a obj_cooja/mtype67.a(uip-icmp6.o)
 .comment       0x0000000000000000       0x2a obj_cooja/mtype67.a(rpl-nbr-policy.)
 .comment       0x0000000000000000       0x2a obj_cooja/mtype67.a(frame802154.o)
 .comment       0x0000000000000000       0x2a obj_cooja/mtype67.a(mac-sequence.o)
 .comment       0x0000000000000000       0x2a /usr/lib/gcc/i686-linux-gnu/4.8/crtendS.o

.debug
 *(.debug)

.line
 *(.line)

.debug_srcinfo
 *(.debug_srcinfo)

.debug_sfnames
 *(.debug_sfnames)

.debug_aranges  0x0000000000000000     0x2190
 *(.debug_aranges)
 .debug_aranges
                0x0000000000000000       0x98 receiver.co
 .debug_aranges
                0x0000000000000098       0x68 obj_cooja/mtype67.o
 .debug_aranges
                0x0000000000000100      0x300 obj_cooja/mtype67.a(dtls.o)
 .debug_aranges
                0x0000000000000400       0xc8 obj_cooja/mtype67.a(tinydtls-crypto)
 .debug_aranges
                0x00000000000004c8       0x70 obj_cooja/mtype67.a(hmac.o)
 .debug_aranges
                0x0000000000000538       0x70 obj_cooja/mtype67.a(netq.o)
 .debug_aranges
                0x00000000000005a8       0x28 obj_cooja/mtype67.a(dtls_time.o)
 .debug_aranges
                0x00000000000005d0       0x38 obj_cooja/mtype67.a(peer.o)
 .debug_aranges
                0x0000000000000608       0x28 obj_cooja/mtype67.a(session.o)
 .debug_aranges
                0x0000000000000630       0x38 obj_cooja/mtype67.a(rijndael.o)
 .debug_aranges
                0x0000000000000668       0x60 obj_cooja/mtype67.a(tinydtls-ccm.o)
 .debug_aranges
                0x00000000000006c8       0x48 obj_cooja/mtype67.a(sha2.o)
 .debug_aranges
                0x0000000000000710       0x68 obj_cooja/mtype67.a(debug.o)
 .debug_aranges
                0x0000000000000778       0x28 obj_cooja/mtype67.a(simEnvChange.o)
 .debug_aranges
                0x00000000000007a0       0x48 obj_cooja/mtype67.a(cooja_mt.o)
 .debug_aranges
                0x00000000000007e8       0x60 obj_cooja/mtype67.a(cooja_mtarch.o)
 .debug_aranges
                0x0000000000000848       0x48 obj_cooja/mtype67.a(rtimer-arch.o)
 .debug_aranges
                0x0000000000000890       0x70 obj_cooja/mtype67.a(beep.o)
 .debug_aranges
                0x0000000000000900       0x40 obj_cooja/mtype67.a(button-sensor.o)
 .debug_aranges
                0x0000000000000940       0x40 obj_cooja/mtype67.a(leds-arch.o)
 .debug_aranges
                0x0000000000000980       0x28 obj_cooja/mtype67.a(moteid.o)
 .debug_aranges
                0x00000000000009a8       0x40 obj_cooja/mtype67.a(pir-sensor.o)
 .debug_aranges
                0x00000000000009e8       0x58 obj_cooja/mtype67.a(rs232.o)
 .debug_aranges
                0x0000000000000a40       0x40 obj_cooja/mtype67.a(vib-sensor.o)
 .debug_aranges
                0x0000000000000a80       0x48 obj_cooja/mtype67.a(clock.o)
 .debug_aranges
                0x0000000000000ac8       0x60 obj_cooja/mtype67.a(log.o)
 .debug_aranges
                0x0000000000000b28       0x70 obj_cooja/mtype67.a(cfs-cooja.o)
 .debug_aranges
                0x0000000000000b98       0xf0 obj_cooja/mtype67.a(cooja-radio.o)
 .debug_aranges
                0x0000000000000c88       0x40 obj_cooja/mtype67.a(eeprom.o)
 .debug_aranges
                0x0000000000000cc8       0x28 obj_cooja/mtype67.a(random.o)
 .debug_aranges
                0x0000000000000cf0       0x48 obj_cooja/mtype67.a(sensors.o)
 .debug_aranges
                0x0000000000000d38       0x28 obj_cooja/mtype67.a(autostart.o)
 .debug_aranges
                0x0000000000000d60       0x58 obj_cooja/mtype67.a(ctimer.o)
 .debug_aranges
                0x0000000000000db8       0x90 obj_cooja/mtype67.a(etimer.o)
 .debug_aranges
                0x0000000000000e48       0x88 obj_cooja/mtype67.a(process.o)
 .debug_aranges
                0x0000000000000ed0       0x30 obj_cooja/mtype67.a(rtimer.o)
 .debug_aranges
                0x0000000000000f00       0x40 obj_cooja/mtype67.a(timer.o)
 .debug_aranges
                0x0000000000000f40       0x30 obj_cooja/mtype67.a(serial-line.o)
 .debug_aranges
                0x0000000000000f70       0x20 obj_cooja/mtype67.a(assert.o)
 .debug_aranges
                0x0000000000000f90       0x78 obj_cooja/mtype67.a(list.o)
 .debug_aranges
                0x0000000000001008       0x40 obj_cooja/mtype67.a(memb.o)
 .debug_aranges
                0x0000000000001048       0x40 obj_cooja/mtype67.a(ringbuf.o)
 .debug_aranges
                0x0000000000001088       0xe0 obj_cooja/mtype67.a(sicslowpan.o)
 .debug_aranges
                0x0000000000001168       0x90 obj_cooja/mtype67.a(uip-ds6-nbr.o)
 .debug_aranges
                0x00000000000011f8       0xc8 obj_cooja/mtype67.a(uip-ds6-route.o)
 .debug_aranges
                0x00000000000012c0       0xc8 obj_cooja/mtype67.a(uip-ds6.o)
 .debug_aranges
                0x0000000000001388       0x48 obj_cooja/mtype67.a(uip-nd6.o)
 .debug_aranges
                0x00000000000013d0       0xb0 obj_cooja/mtype67.a(uip6.o)
 .debug_aranges
                0x0000000000001480       0xb8 obj_cooja/mtype67.a(resolv.o)
 .debug_aranges
                0x0000000000001538       0xb0 obj_cooja/mtype67.a(tcpip.o)
 .debug_aranges
                0x00000000000015e8       0x20 obj_cooja/mtype67.a(uip-debug.o)
 .debug_aranges
                0x0000000000001608       0x38 obj_cooja/mtype67.a(uip-nameserver.)
 .debug_aranges
                0x0000000000001640       0x50 obj_cooja/mtype67.a(uip-packetqueue)
 .debug_aranges
                0x0000000000001690       0x28 obj_cooja/mtype67.a(uip-udp-packet.)
 .debug_aranges
                0x00000000000016b8       0x28 obj_cooja/mtype67.a(uiplib.o)
 .debug_aranges
                0x00000000000016e0      0x1d8 obj_cooja/mtype67.a(rpl-dag.o)
 .debug_aranges
                0x00000000000018b8       0x48 obj_cooja/mtype67.a(rpl-ext-header.)
 .debug_aranges
                0x0000000000001900       0xc0 obj_cooja/mtype67.a(rpl-icmp6.o)
 .debug_aranges
                0x00000000000019c0       0x60 obj_cooja/mtype67.a(rpl-mrhof.o)
 .debug_aranges
                0x0000000000001a20       0xa0 obj_cooja/mtype67.a(rpl-timers.o)
 .debug_aranges
                0x0000000000001ac0       0x68 obj_cooja/mtype67.a(rpl.o)
 .debug_aranges
                0x0000000000001b28       0x58 obj_cooja/mtype67.a(link-stats.o)
 .debug_aranges
                0x0000000000001b80       0x30 obj_cooja/mtype67.a(linkaddr.o)
 .debug_aranges
                0x0000000000001bb0       0xc0 obj_cooja/mtype67.a(nbr-table.o)
 .debug_aranges
                0x0000000000001c70       0x20 obj_cooja/mtype67.a(netstack.o)
 .debug_aranges
                0x0000000000001c90       0xa0 obj_cooja/mtype67.a(packetbuf.o)
 .debug_aranges
                0x0000000000001d30       0x80 obj_cooja/mtype67.a(queuebuf.o)
 .debug_aranges
                0x0000000000001db0       0xb8 obj_cooja/mtype67.a(csma.o)
 .debug_aranges
                0x0000000000001e68       0x58 obj_cooja/mtype67.a(framer-802154.o)
 .debug_aranges
                0x0000000000001ec0       0x20 obj_cooja/mtype67.a(mac.o)
 .debug_aranges
                0x0000000000001ee0       0x70 obj_cooja/mtype67.a(nullrdc.o)
 .debug_aranges
                0x0000000000001f50       0x38 obj_cooja/mtype67.a(nullsec.o)
 .debug_aranges
                0x0000000000001f88       0x40 obj_cooja/mtype67.a(watchdog.o)
 .debug_aranges
                0x0000000000001fc8       0x18 obj_cooja/mtype67.a(rimestats.o)
 .debug_aranges
                0x0000000000001fe0       0x48 obj_cooja/mtype67.a(stimer.o)
 .debug_aranges
                0x0000000000002028       0x68 obj_cooja/mtype67.a(uip-icmp6.o)
 .debug_aranges
                0x0000000000002090       0x48 obj_cooja/mtype67.a(rpl-nbr-policy.)
 .debug_aranges
                0x00000000000020d8       0x80 obj_cooja/mtype67.a(frame802154.o)
 .debug_aranges
                0x0000000000002158       0x38 obj_cooja/mtype67.a(mac-sequence.o)

.debug_pubnames
 *(.debug_pubnames)

.debug_info     0x0000000000000000    0x24ccb
 *(.debug_info .gnu.linkonce.wi.*)
 .debug_info    0x0000000000000000     0x10d6 receiver.co
 .debug_info    0x00000000000010d6     0x36d8 obj_cooja/mtype67.o
 .debug_info    0x00000000000047ae     0x3461 obj_cooja/mtype67.a(dtls.o)
 .debug_info    0x0000000000007c0f      0xe43 obj_cooja/mtype67.a(tinydtls-crypto)
 .debug_info    0x0000000000008a52      0x4e9 obj_cooja/mtype67.a(hmac.o)
 .debug_info    0x0000000000008f3b      0x8d5 obj_cooja/mtype67.a(netq.o)
 .debug_info    0x0000000000009810      0x17e obj_cooja/mtype67.a(dtls_time.o)
 .debug_info    0x000000000000998e      0x6d1 obj_cooja/mtype67.a(peer.o)
 .debug_info    0x000000000000a05f      0x22c obj_cooja/mtype67.a(session.o)
 .debug_info    0x000000000000a28b      0x37f obj_cooja/mtype67.a(rijndael.o)
 .debug_info    0x000000000000a60a      0x650 obj_cooja/mtype67.a(tinydtls-ccm.o)
 .debug_info    0x000000000000ac5a      0x560 obj_cooja/mtype67.a(sha2.o)
 .debug_info    0x000000000000b1ba      0x518 obj_cooja/mtype67.a(debug.o)
 .debug_info    0x000000000000b6d2      0x15a obj_cooja/mtype67.a(simEnvChange.o)
 .debug_info    0x000000000000b82c      0x1e2 obj_cooja/mtype67.a(cooja_mt.o)
 .debug_info    0x000000000000ba0e      0x2e7 obj_cooja/mtype67.a(cooja_mtarch.o)
 .debug_info    0x000000000000bcf5      0x14a obj_cooja/mtype67.a(rtimer-arch.o)
 .debug_info    0x000000000000be3f      0x1f3 obj_cooja/mtype67.a(beep.o)
 .debug_info    0x000000000000c032      0x257 obj_cooja/mtype67.a(button-sensor.o)
 .debug_info    0x000000000000c289      0x132 obj_cooja/mtype67.a(leds-arch.o)
 .debug_info    0x000000000000c3bb      0x10a obj_cooja/mtype67.a(moteid.o)
 .debug_info    0x000000000000c4c5      0x216 obj_cooja/mtype67.a(pir-sensor.o)
 .debug_info    0x000000000000c6db      0x21e obj_cooja/mtype67.a(rs232.o)
 .debug_info    0x000000000000c8f9      0x216 obj_cooja/mtype67.a(vib-sensor.o)
 .debug_info    0x000000000000cb0f      0x152 obj_cooja/mtype67.a(clock.o)
 .debug_info    0x000000000000cc61      0x2bb obj_cooja/mtype67.a(log.o)
 .debug_info    0x000000000000cf1c      0x3cf obj_cooja/mtype67.a(cfs-cooja.o)
 .debug_info    0x000000000000d2eb      0xd1b obj_cooja/mtype67.a(cooja-radio.o)
 .debug_info    0x000000000000e006      0x1d5 obj_cooja/mtype67.a(eeprom.o)
 .debug_info    0x000000000000e1db       0xb3 obj_cooja/mtype67.a(random.o)
 .debug_info    0x000000000000e28e      0x36d obj_cooja/mtype67.a(sensors.o)
 .debug_info    0x000000000000e5fb      0x1a5 obj_cooja/mtype67.a(autostart.o)
 .debug_info    0x000000000000e7a0      0x46c obj_cooja/mtype67.a(ctimer.o)
 .debug_info    0x000000000000ec0c      0x49c obj_cooja/mtype67.a(etimer.o)
 .debug_info    0x000000000000f0a8      0x4ab obj_cooja/mtype67.a(process.o)
 .debug_info    0x000000000000f553      0x1b6 obj_cooja/mtype67.a(rtimer.o)
 .debug_info    0x000000000000f709      0x16c obj_cooja/mtype67.a(timer.o)
 .debug_info    0x000000000000f875      0x2de obj_cooja/mtype67.a(serial-line.o)
 .debug_info    0x000000000000fb53       0xb3 obj_cooja/mtype67.a(assert.o)
 .debug_info    0x000000000000fc06      0x2ed obj_cooja/mtype67.a(list.o)
 .debug_info    0x000000000000fef3      0x1d7 obj_cooja/mtype67.a(memb.o)
 .debug_info    0x00000000000100ca      0x1aa obj_cooja/mtype67.a(ringbuf.o)
 .debug_info    0x0000000000010274     0x105d obj_cooja/mtype67.a(sicslowpan.o)
 .debug_info    0x00000000000112d1      0xb48 obj_cooja/mtype67.a(uip-ds6-nbr.o)
 .debug_info    0x0000000000011e19      0xd6b obj_cooja/mtype67.a(uip-ds6-route.o)
 .debug_info    0x0000000000012b84      0xa4b obj_cooja/mtype67.a(uip-ds6.o)
 .debug_info    0x00000000000135cf      0x97b obj_cooja/mtype67.a(uip-nd6.o)
 .debug_info    0x0000000000013f4a      0xe68 obj_cooja/mtype67.a(uip6.o)
 .debug_info    0x0000000000014db2     0x1075 obj_cooja/mtype67.a(resolv.o)
 .debug_info    0x0000000000015e27     0x1602 obj_cooja/mtype67.a(tcpip.o)
 .debug_info    0x0000000000017429      0x13b obj_cooja/mtype67.a(uip-debug.o)
 .debug_info    0x0000000000017564      0x243 obj_cooja/mtype67.a(uip-nameserver.)
 .debug_info    0x00000000000177a7      0x470 obj_cooja/mtype67.a(uip-packetqueue)
 .debug_info    0x0000000000017c17      0x37a obj_cooja/mtype67.a(uip-udp-packet.)
 .debug_info    0x0000000000017f91      0x231 obj_cooja/mtype67.a(uiplib.o)
 .debug_info    0x00000000000181c2     0x1b58 obj_cooja/mtype67.a(rpl-dag.o)
 .debug_info    0x0000000000019d1a      0xf73 obj_cooja/mtype67.a(rpl-ext-header.)
 .debug_info    0x000000000001ac8d     0x16db obj_cooja/mtype67.a(rpl-icmp6.o)
 .debug_info    0x000000000001c368      0xa3d obj_cooja/mtype67.a(rpl-mrhof.o)
 .debug_info    0x000000000001cda5      0xcc0 obj_cooja/mtype67.a(rpl-timers.o)
 .debug_info    0x000000000001da65      0xd0d obj_cooja/mtype67.a(rpl.o)
 .debug_info    0x000000000001e772      0x691 obj_cooja/mtype67.a(link-stats.o)
 .debug_info    0x000000000001ee03      0x165 obj_cooja/mtype67.a(linkaddr.o)
 .debug_info    0x000000000001ef68      0x969 obj_cooja/mtype67.a(nbr-table.o)
 .debug_info    0x000000000001f8d1      0x4b9 obj_cooja/mtype67.a(netstack.o)
 .debug_info    0x000000000001fd8a      0x48d obj_cooja/mtype67.a(packetbuf.o)
 .debug_info    0x0000000000020217      0x57d obj_cooja/mtype67.a(queuebuf.o)
 .debug_info    0x0000000000020794      0xc0d obj_cooja/mtype67.a(csma.o)
 .debug_info    0x00000000000213a1      0x5ed obj_cooja/mtype67.a(framer-802154.o)
 .debug_info    0x000000000002198e      0x112 obj_cooja/mtype67.a(mac.o)
 .debug_info    0x0000000000021aa0      0xc3c obj_cooja/mtype67.a(nullrdc.o)
 .debug_info    0x00000000000226dc      0x3aa obj_cooja/mtype67.a(nullsec.o)
 .debug_info    0x0000000000022a86       0x7b obj_cooja/mtype67.a(watchdog.o)
 .debug_info    0x0000000000022b01      0x119 obj_cooja/mtype67.a(rimestats.o)
 .debug_info    0x0000000000022c1a      0x179 obj_cooja/mtype67.a(stimer.o)
 .debug_info    0x0000000000022d93      0x761 obj_cooja/mtype67.a(uip-icmp6.o)
 .debug_info    0x00000000000234f4      0xdee obj_cooja/mtype67.a(rpl-nbr-policy.)
 .debug_info    0x00000000000242e2      0x72d obj_cooja/mtype67.a(frame802154.o)
 .debug_info    0x0000000000024a0f      0x2bc obj_cooja/mtype67.a(mac-sequence.o)

.debug_abbrev   0x0000000000000000     0x831f
 *(.debug_abbrev)
 .debug_abbrev  0x0000000000000000      0x2f8 receiver.co
 .debug_abbrev  0x00000000000002f8      0x2b3 obj_cooja/mtype67.o
 .debug_abbrev  0x00000000000005ab      0x3b1 obj_cooja/mtype67.a(dtls.o)
 .debug_abbrev  0x000000000000095c      0x2b3 obj_cooja/mtype67.a(tinydtls-crypto)
 .debug_abbrev  0x0000000000000c0f      0x19a obj_cooja/mtype67.a(hmac.o)
 .debug_abbrev  0x0000000000000da9      0x1d3 obj_cooja/mtype67.a(netq.o)
 .debug_abbrev  0x0000000000000f7c      0x101 obj_cooja/mtype67.a(dtls_time.o)
 .debug_abbrev  0x000000000000107d      0x191 obj_cooja/mtype67.a(peer.o)
 .debug_abbrev  0x000000000000120e      0x126 obj_cooja/mtype67.a(session.o)
 .debug_abbrev  0x0000000000001334      0x12c obj_cooja/mtype67.a(rijndael.o)
 .debug_abbrev  0x0000000000001460      0x1a2 obj_cooja/mtype67.a(tinydtls-ccm.o)
 .debug_abbrev  0x0000000000001602      0x165 obj_cooja/mtype67.a(sha2.o)
 .debug_abbrev  0x0000000000001767      0x1e0 obj_cooja/mtype67.a(debug.o)
 .debug_abbrev  0x0000000000001947       0xc3 obj_cooja/mtype67.a(simEnvChange.o)
 .debug_abbrev  0x0000000000001a0a       0xe6 obj_cooja/mtype67.a(cooja_mt.o)
 .debug_abbrev  0x0000000000001af0      0x147 obj_cooja/mtype67.a(cooja_mtarch.o)
 .debug_abbrev  0x0000000000001c37       0xbd obj_cooja/mtype67.a(rtimer-arch.o)
 .debug_abbrev  0x0000000000001cf4       0xe3 obj_cooja/mtype67.a(beep.o)
 .debug_abbrev  0x0000000000001dd7      0x11c obj_cooja/mtype67.a(button-sensor.o)
 .debug_abbrev  0x0000000000001ef3       0xe1 obj_cooja/mtype67.a(leds-arch.o)
 .debug_abbrev  0x0000000000001fd4       0x9c obj_cooja/mtype67.a(moteid.o)
 .debug_abbrev  0x0000000000002070       0xe6 obj_cooja/mtype67.a(pir-sensor.o)
 .debug_abbrev  0x0000000000002156      0x14a obj_cooja/mtype67.a(rs232.o)
 .debug_abbrev  0x00000000000022a0       0xe6 obj_cooja/mtype67.a(vib-sensor.o)
 .debug_abbrev  0x0000000000002386       0xee obj_cooja/mtype67.a(clock.o)
 .debug_abbrev  0x0000000000002474      0x141 obj_cooja/mtype67.a(log.o)
 .debug_abbrev  0x00000000000025b5      0x139 obj_cooja/mtype67.a(cfs-cooja.o)
 .debug_abbrev  0x00000000000026ee      0x324 obj_cooja/mtype67.a(cooja-radio.o)
 .debug_abbrev  0x0000000000002a12       0xf5 obj_cooja/mtype67.a(eeprom.o)
 .debug_abbrev  0x0000000000002b07       0x6d obj_cooja/mtype67.a(random.o)
 .debug_abbrev  0x0000000000002b74      0x1c2 obj_cooja/mtype67.a(sensors.o)
 .debug_abbrev  0x0000000000002d36       0xfb obj_cooja/mtype67.a(autostart.o)
 .debug_abbrev  0x0000000000002e31      0x1a1 obj_cooja/mtype67.a(ctimer.o)
 .debug_abbrev  0x0000000000002fd2      0x1f1 obj_cooja/mtype67.a(etimer.o)
 .debug_abbrev  0x00000000000031c3      0x244 obj_cooja/mtype67.a(process.o)
 .debug_abbrev  0x0000000000003407      0x124 obj_cooja/mtype67.a(rtimer.o)
 .debug_abbrev  0x000000000000352b       0xf5 obj_cooja/mtype67.a(timer.o)
 .debug_abbrev  0x0000000000003620      0x190 obj_cooja/mtype67.a(serial-line.o)
 .debug_abbrev  0x00000000000037b0       0x61 obj_cooja/mtype67.a(assert.o)
 .debug_abbrev  0x0000000000003811      0x145 obj_cooja/mtype67.a(list.o)
 .debug_abbrev  0x0000000000003956       0xe4 obj_cooja/mtype67.a(memb.o)
 .debug_abbrev  0x0000000000003a3a       0xdb obj_cooja/mtype67.a(ringbuf.o)
 .debug_abbrev  0x0000000000003b15      0x290 obj_cooja/mtype67.a(sicslowpan.o)
 .debug_abbrev  0x0000000000003da5      0x2cf obj_cooja/mtype67.a(uip-ds6-nbr.o)
 .debug_abbrev  0x0000000000004074      0x317 obj_cooja/mtype67.a(uip-ds6-route.o)
 .debug_abbrev  0x000000000000438b      0x23a obj_cooja/mtype67.a(uip-ds6.o)
 .debug_abbrev  0x00000000000045c5      0x27e obj_cooja/mtype67.a(uip-nd6.o)
 .debug_abbrev  0x0000000000004843      0x2c9 obj_cooja/mtype67.a(uip6.o)
 .debug_abbrev  0x0000000000004b0c      0x2a4 obj_cooja/mtype67.a(resolv.o)
 .debug_abbrev  0x0000000000004db0      0x349 obj_cooja/mtype67.a(tcpip.o)
 .debug_abbrev  0x00000000000050f9       0xad obj_cooja/mtype67.a(uip-debug.o)
 .debug_abbrev  0x00000000000051a6      0x142 obj_cooja/mtype67.a(uip-nameserver.)
 .debug_abbrev  0x00000000000052e8      0x1d4 obj_cooja/mtype67.a(uip-packetqueue)
 .debug_abbrev  0x00000000000054bc      0x195 obj_cooja/mtype67.a(uip-udp-packet.)
 .debug_abbrev  0x0000000000005651       0xda obj_cooja/mtype67.a(uiplib.o)
 .debug_abbrev  0x000000000000572b      0x373 obj_cooja/mtype67.a(rpl-dag.o)
 .debug_abbrev  0x0000000000005a9e      0x25f obj_cooja/mtype67.a(rpl-ext-header.)
 .debug_abbrev  0x0000000000005cfd      0x37a obj_cooja/mtype67.a(rpl-icmp6.o)
 .debug_abbrev  0x0000000000006077      0x1c4 obj_cooja/mtype67.a(rpl-mrhof.o)
 .debug_abbrev  0x000000000000623b      0x283 obj_cooja/mtype67.a(rpl-timers.o)
 .debug_abbrev  0x00000000000064be      0x25a obj_cooja/mtype67.a(rpl.o)
 .debug_abbrev  0x0000000000006718      0x23f obj_cooja/mtype67.a(link-stats.o)
 .debug_abbrev  0x0000000000006957       0xd8 obj_cooja/mtype67.a(linkaddr.o)
 .debug_abbrev  0x0000000000006a2f      0x1f8 obj_cooja/mtype67.a(nbr-table.o)
 .debug_abbrev  0x0000000000006c27      0x111 obj_cooja/mtype67.a(netstack.o)
 .debug_abbrev  0x0000000000006d38      0x1d8 obj_cooja/mtype67.a(packetbuf.o)
 .debug_abbrev  0x0000000000006f10      0x1ba obj_cooja/mtype67.a(queuebuf.o)
 .debug_abbrev  0x00000000000070ca      0x2aa obj_cooja/mtype67.a(csma.o)
 .debug_abbrev  0x0000000000007374      0x195 obj_cooja/mtype67.a(framer-802154.o)
 .debug_abbrev  0x0000000000007509       0xa3 obj_cooja/mtype67.a(mac.o)
 .debug_abbrev  0x00000000000075ac      0x2a9 obj_cooja/mtype67.a(nullrdc.o)
 .debug_abbrev  0x0000000000007855      0x1ba obj_cooja/mtype67.a(nullsec.o)
 .debug_abbrev  0x0000000000007a0f       0x2c obj_cooja/mtype67.a(watchdog.o)
 .debug_abbrev  0x0000000000007a3b       0x59 obj_cooja/mtype67.a(rimestats.o)
 .debug_abbrev  0x0000000000007a94       0xd9 obj_cooja/mtype67.a(stimer.o)
 .debug_abbrev  0x0000000000007b6d      0x232 obj_cooja/mtype67.a(uip-icmp6.o)
 .debug_abbrev  0x0000000000007d9f      0x23c obj_cooja/mtype67.a(rpl-nbr-policy.)
 .debug_abbrev  0x0000000000007fdb      0x1fb obj_cooja/mtype67.a(frame802154.o)
 .debug_abbrev  0x00000000000081d6      0x149 obj_cooja/mtype67.a(mac-sequence.o)

.debug_line     0x0000000000000000     0xd6a7
 *(.debug_line .debug_line.* .debug_line_end)
 .debug_line    0x0000000000000000      0x44f receiver.co
 .debug_line    0x000000000000044f      0x4f5 obj_cooja/mtype67.o
 .debug_line    0x0000000000000944     0x17b3 obj_cooja/mtype67.a(dtls.o)
 .debug_line    0x00000000000020f7      0x454 obj_cooja/mtype67.a(tinydtls-crypto)
 .debug_line    0x000000000000254b      0x254 obj_cooja/mtype67.a(hmac.o)
 .debug_line    0x000000000000279f      0x2d7 obj_cooja/mtype67.a(netq.o)
 .debug_line    0x0000000000002a76       0xf3 obj_cooja/mtype67.a(dtls_time.o)
 .debug_line    0x0000000000002b69      0x1c5 obj_cooja/mtype67.a(peer.o)
 .debug_line    0x0000000000002d2e      0x11b obj_cooja/mtype67.a(session.o)
 .debug_line    0x0000000000002e49      0x1da obj_cooja/mtype67.a(rijndael.o)
 .debug_line    0x0000000000003023      0x30a obj_cooja/mtype67.a(tinydtls-ccm.o)
 .debug_line    0x000000000000332d      0x2bf obj_cooja/mtype67.a(sha2.o)
 .debug_line    0x00000000000035ec      0x25d obj_cooja/mtype67.a(debug.o)
 .debug_line    0x0000000000003849       0xf4 obj_cooja/mtype67.a(simEnvChange.o)
 .debug_line    0x000000000000393d      0x121 obj_cooja/mtype67.a(cooja_mt.o)
 .debug_line    0x0000000000003a5e      0x182 obj_cooja/mtype67.a(cooja_mtarch.o)
 .debug_line    0x0000000000003be0       0xec obj_cooja/mtype67.a(rtimer-arch.o)
 .debug_line    0x0000000000003ccc      0x168 obj_cooja/mtype67.a(beep.o)
 .debug_line    0x0000000000003e34      0x188 obj_cooja/mtype67.a(button-sensor.o)
 .debug_line    0x0000000000003fbc       0xd2 obj_cooja/mtype67.a(leds-arch.o)
 .debug_line    0x000000000000408e       0x9e obj_cooja/mtype67.a(moteid.o)
 .debug_line    0x000000000000412c      0x10c obj_cooja/mtype67.a(pir-sensor.o)
 .debug_line    0x0000000000004238      0x133 obj_cooja/mtype67.a(rs232.o)
 .debug_line    0x000000000000436b      0x10c obj_cooja/mtype67.a(vib-sensor.o)
 .debug_line    0x0000000000004477      0x10e obj_cooja/mtype67.a(clock.o)
 .debug_line    0x0000000000004585      0x195 obj_cooja/mtype67.a(log.o)
 .debug_line    0x000000000000471a      0x1ac obj_cooja/mtype67.a(cfs-cooja.o)
 .debug_line    0x00000000000048c6      0x4cb obj_cooja/mtype67.a(cooja-radio.o)
 .debug_line    0x0000000000004d91      0x101 obj_cooja/mtype67.a(eeprom.o)
 .debug_line    0x0000000000004e92       0x60 obj_cooja/mtype67.a(random.o)
 .debug_line    0x0000000000004ef2      0x17c obj_cooja/mtype67.a(sensors.o)
 .debug_line    0x000000000000506e       0xc4 obj_cooja/mtype67.a(autostart.o)
 .debug_line    0x0000000000005132      0x1f5 obj_cooja/mtype67.a(ctimer.o)
 .debug_line    0x0000000000005327      0x26c obj_cooja/mtype67.a(etimer.o)
 .debug_line    0x0000000000005593      0x236 obj_cooja/mtype67.a(process.o)
 .debug_line    0x00000000000057c9       0xf2 obj_cooja/mtype67.a(rtimer.o)
 .debug_line    0x00000000000058bb       0xed obj_cooja/mtype67.a(timer.o)
 .debug_line    0x00000000000059a8      0x13c obj_cooja/mtype67.a(serial-line.o)
 .debug_line    0x0000000000005ae4       0x50 obj_cooja/mtype67.a(assert.o)
 .debug_line    0x0000000000005b34      0x1a2 obj_cooja/mtype67.a(list.o)
 .debug_line    0x0000000000005cd6      0x10a obj_cooja/mtype67.a(memb.o)
 .debug_line    0x0000000000005de0       0xf1 obj_cooja/mtype67.a(ringbuf.o)
 .debug_line    0x0000000000005ed1      0x8a9 obj_cooja/mtype67.a(sicslowpan.o)
 .debug_line    0x000000000000677a      0x3e2 obj_cooja/mtype67.a(uip-ds6-nbr.o)
 .debug_line    0x0000000000006b5c      0x49f obj_cooja/mtype67.a(uip-ds6-route.o)
 .debug_line    0x0000000000006ffb      0x473 obj_cooja/mtype67.a(uip-ds6.o)
 .debug_line    0x000000000000746e      0x3c1 obj_cooja/mtype67.a(uip-nd6.o)
 .debug_line    0x000000000000782f      0x890 obj_cooja/mtype67.a(uip6.o)
 .debug_line    0x00000000000080bf      0x731 obj_cooja/mtype67.a(resolv.o)
 .debug_line    0x00000000000087f0      0x502 obj_cooja/mtype67.a(tcpip.o)
 .debug_line    0x0000000000008cf2       0xcb obj_cooja/mtype67.a(uip-debug.o)
 .debug_line    0x0000000000008dbd      0x117 obj_cooja/mtype67.a(uip-nameserver.)
 .debug_line    0x0000000000008ed4      0x1eb obj_cooja/mtype67.a(uip-packetqueue)
 .debug_line    0x00000000000090bf      0x10b obj_cooja/mtype67.a(uip-udp-packet.)
 .debug_line    0x00000000000091ca      0x141 obj_cooja/mtype67.a(uiplib.o)
 .debug_line    0x000000000000930b      0xbe7 obj_cooja/mtype67.a(rpl-dag.o)
 .debug_line    0x0000000000009ef2      0x374 obj_cooja/mtype67.a(rpl-ext-header.)
 .debug_line    0x000000000000a266      0x761 obj_cooja/mtype67.a(rpl-icmp6.o)
 .debug_line    0x000000000000a9c7      0x32f obj_cooja/mtype67.a(rpl-mrhof.o)
 .debug_line    0x000000000000acf6      0x3d2 obj_cooja/mtype67.a(rpl-timers.o)
 .debug_line    0x000000000000b0c8      0x375 obj_cooja/mtype67.a(rpl.o)
 .debug_line    0x000000000000b43d      0x29a obj_cooja/mtype67.a(link-stats.o)
 .debug_line    0x000000000000b6d7       0x9e obj_cooja/mtype67.a(linkaddr.o)
 .debug_line    0x000000000000b775      0x383 obj_cooja/mtype67.a(nbr-table.o)
 .debug_line    0x000000000000baf8      0x125 obj_cooja/mtype67.a(netstack.o)
 .debug_line    0x000000000000bc1d      0x225 obj_cooja/mtype67.a(packetbuf.o)
 .debug_line    0x000000000000be42      0x1c6 obj_cooja/mtype67.a(queuebuf.o)
 .debug_line    0x000000000000c008      0x400 obj_cooja/mtype67.a(csma.o)
 .debug_line    0x000000000000c408      0x1cd obj_cooja/mtype67.a(framer-802154.o)
 .debug_line    0x000000000000c5d5       0x7e obj_cooja/mtype67.a(mac.o)
 .debug_line    0x000000000000c653      0x337 obj_cooja/mtype67.a(nullrdc.o)
 .debug_line    0x000000000000c98a      0x13c obj_cooja/mtype67.a(nullsec.o)
 .debug_line    0x000000000000cac6       0x9a obj_cooja/mtype67.a(watchdog.o)
 .debug_line    0x000000000000cb60       0x71 obj_cooja/mtype67.a(rimestats.o)
 .debug_line    0x000000000000cbd1       0xd1 obj_cooja/mtype67.a(stimer.o)
 .debug_line    0x000000000000cca2      0x29a obj_cooja/mtype67.a(uip-icmp6.o)
 .debug_line    0x000000000000cf3c      0x2b5 obj_cooja/mtype67.a(rpl-nbr-policy.)
 .debug_line    0x000000000000d1f1      0x366 obj_cooja/mtype67.a(frame802154.o)
 .debug_line    0x000000000000d557      0x150 obj_cooja/mtype67.a(mac-sequence.o)

.debug_frame
 *(.debug_frame)

.debug_str      0x0000000000000000     0x8fe5
 *(.debug_str)
 .debug_str     0x0000000000000000      0xacd receiver.co
                                        0xbe6 (size before relaxing)
 .debug_str     0x0000000000000acd     0x1790 obj_cooja/mtype67.o
                                       0x1b06 (size before relaxing)
 .debug_str     0x000000000000225d      0xeca obj_cooja/mtype67.a(dtls.o)
                                       0x1721 (size before relaxing)
 .debug_str     0x0000000000003127      0x34c obj_cooja/mtype67.a(tinydtls-crypto)
                                        0x816 (size before relaxing)
 .debug_str     0x0000000000003473      0x112 obj_cooja/mtype67.a(hmac.o)
                                        0x373 (size before relaxing)
 .debug_str     0x0000000000003585       0xf3 obj_cooja/mtype67.a(netq.o)
                                        0x7a5 (size before relaxing)
 .debug_str     0x0000000000003678       0x53 obj_cooja/mtype67.a(dtls_time.o)
                                        0x1fc (size before relaxing)
 .debug_str     0x00000000000036cb       0x94 obj_cooja/mtype67.a(peer.o)
                                        0x6ea (size before relaxing)
 .debug_str     0x000000000000375f       0x4f obj_cooja/mtype67.a(session.o)
                                        0x21e (size before relaxing)
 .debug_str     0x00000000000037ae       0xae obj_cooja/mtype67.a(rijndael.o)
                                        0x1dc (size before relaxing)
 .debug_str     0x000000000000385c       0x83 obj_cooja/mtype67.a(tinydtls-ccm.o)
                                        0x281 (size before relaxing)
 .debug_str     0x00000000000038df       0xe6 obj_cooja/mtype67.a(sha2.o)
                                        0x2d1 (size before relaxing)
 .debug_str     0x00000000000039c5       0xee obj_cooja/mtype67.a(debug.o)
                                        0x356 (size before relaxing)
 .debug_str     0x0000000000003ab3       0x2e obj_cooja/mtype67.a(simEnvChange.o)
                                        0x1f7 (size before relaxing)
 .debug_str     0x0000000000003ae1       0x8b obj_cooja/mtype67.a(cooja_mt.o)
                                        0x224 (size before relaxing)
 .debug_str     0x0000000000003b6c       0xfb obj_cooja/mtype67.a(cooja_mtarch.o)
                                        0x2a1 (size before relaxing)
 .debug_str     0x0000000000003c67       0xea obj_cooja/mtype67.a(rtimer-arch.o)
                                        0x21b (size before relaxing)
 .debug_str     0x0000000000003d51       0xc4 obj_cooja/mtype67.a(beep.o)
                                        0x238 (size before relaxing)
 .debug_str     0x0000000000003e15       0x70 obj_cooja/mtype67.a(button-sensor.o)
                                        0x268 (size before relaxing)
 .debug_str     0x0000000000003e85       0x68 obj_cooja/mtype67.a(leds-arch.o)
                                        0x203 (size before relaxing)
 .debug_str     0x0000000000003eed       0x47 obj_cooja/mtype67.a(moteid.o)
                                        0x1ee (size before relaxing)
 .debug_str     0x0000000000003f34       0x55 obj_cooja/mtype67.a(pir-sensor.o)
                                        0x225 (size before relaxing)
 .debug_str     0x0000000000003f89       0xc1 obj_cooja/mtype67.a(rs232.o)
                                        0x282 (size before relaxing)
 .debug_str     0x000000000000404a       0x55 obj_cooja/mtype67.a(vib-sensor.o)
                                        0x225 (size before relaxing)
 .debug_str     0x000000000000409f       0x66 obj_cooja/mtype67.a(clock.o)
                                        0x21a (size before relaxing)
 .debug_str     0x0000000000004105       0xd1 obj_cooja/mtype67.a(log.o)
                                        0x2a8 (size before relaxing)
 .debug_str     0x00000000000041d6      0x111 obj_cooja/mtype67.a(cfs-cooja.o)
                                        0x2c4 (size before relaxing)
 .debug_str     0x00000000000042e7      0x732 obj_cooja/mtype67.a(cooja-radio.o)
                                        0xafe (size before relaxing)
 .debug_str     0x0000000000004a19       0x99 obj_cooja/mtype67.a(eeprom.o)
                                        0x244 (size before relaxing)
 .debug_str     0x0000000000004ab2       0x36 obj_cooja/mtype67.a(random.o)
                                        0x163 (size before relaxing)
 .debug_str     0x0000000000004ae8       0xa1 obj_cooja/mtype67.a(sensors.o)
                                        0x293 (size before relaxing)
 .debug_str     0x0000000000004b89       0x40 obj_cooja/mtype67.a(autostart.o)
                                        0x1b6 (size before relaxing)
 .debug_str     0x0000000000004bc9       0xd2 obj_cooja/mtype67.a(ctimer.o)
                                        0x2b7 (size before relaxing)
 .debug_str     0x0000000000004c9b      0x148 obj_cooja/mtype67.a(etimer.o)
                                        0x32a (size before relaxing)
 .debug_str     0x0000000000004de3      0x15c obj_cooja/mtype67.a(process.o)
                                        0x2f5 (size before relaxing)
 .debug_str     0x0000000000004f3f       0xb3 obj_cooja/mtype67.a(rtimer.o)
                                        0x201 (size before relaxing)
 .debug_str     0x0000000000004ff2       0x1d obj_cooja/mtype67.a(timer.o)
                                        0x1a0 (size before relaxing)
 .debug_str     0x000000000000500f       0xbf obj_cooja/mtype67.a(serial-line.o)
                                        0x27e (size before relaxing)
 .debug_str     0x00000000000050ce       0x2e obj_cooja/mtype67.a(assert.o)
                                        0x15b (size before relaxing)
 .debug_str     0x00000000000050fc       0xae obj_cooja/mtype67.a(list.o)
                                        0x15f (size before relaxing)
 .debug_str     0x00000000000051aa       0x62 obj_cooja/mtype67.a(memb.o)
                                        0x19a (size before relaxing)
 .debug_str     0x000000000000520c       0x62 obj_cooja/mtype67.a(ringbuf.o)
                                        0x1b3 (size before relaxing)
 .debug_str     0x000000000000526e      0x4b9 obj_cooja/mtype67.a(sicslowpan.o)
                                        0xa9c (size before relaxing)
 .debug_str     0x0000000000005727      0x3c2 obj_cooja/mtype67.a(uip-ds6-nbr.o)
                                        0x97f (size before relaxing)
 .debug_str     0x0000000000005ae9      0x450 obj_cooja/mtype67.a(uip-ds6-route.o)
                                        0x949 (size before relaxing)
 .debug_str     0x0000000000005f39      0x30f obj_cooja/mtype67.a(uip-ds6.o)
                                        0x674 (size before relaxing)
 .debug_str     0x0000000000006248      0x180 obj_cooja/mtype67.a(uip-nd6.o)
                                        0x64f (size before relaxing)
 .debug_str     0x00000000000063c8      0x340 obj_cooja/mtype67.a(uip6.o)
                                        0x7fa (size before relaxing)
 .debug_str     0x0000000000006708      0x392 obj_cooja/mtype67.a(resolv.o)
                                        0x8d3 (size before relaxing)
 .debug_str     0x0000000000006a9a      0x40a obj_cooja/mtype67.a(tcpip.o)
                                        0xce9 (size before relaxing)
 .debug_str     0x0000000000006ea4       0x3b obj_cooja/mtype67.a(uip-debug.o)
                                        0x194 (size before relaxing)
 .debug_str     0x0000000000006edf       0xab obj_cooja/mtype67.a(uip-nameserver.)
                                        0x270 (size before relaxing)
 .debug_str     0x0000000000006f8a       0xfa obj_cooja/mtype67.a(uip-packetqueue)
                                        0x33d (size before relaxing)
 .debug_str     0x0000000000007084       0x71 obj_cooja/mtype67.a(uip-udp-packet.)
                                        0x28f (size before relaxing)
 .debug_str     0x00000000000070f5       0x6c obj_cooja/mtype67.a(uiplib.o)
                                        0x1c0 (size before relaxing)
 .debug_str     0x0000000000007161      0x58f obj_cooja/mtype67.a(rpl-dag.o)
                                        0xdc9 (size before relaxing)
 .debug_str     0x00000000000076f0       0xf8 obj_cooja/mtype67.a(rpl-ext-header.)
                                        0xba6 (size before relaxing)
 .debug_str     0x00000000000077e8      0x239 obj_cooja/mtype67.a(rpl-icmp6.o)
                                        0xed4 (size before relaxing)
 .debug_str     0x0000000000007a21       0x71 obj_cooja/mtype67.a(rpl-mrhof.o)
                                        0x63f (size before relaxing)
 .debug_str     0x0000000000007a92      0x1d6 obj_cooja/mtype67.a(rpl-timers.o)
                                        0x86e (size before relaxing)
 .debug_str     0x0000000000007c68       0xfa obj_cooja/mtype67.a(rpl.o)
                                        0x88f (size before relaxing)
 .debug_str     0x0000000000007d62       0xf3 obj_cooja/mtype67.a(link-stats.o)
                                        0x6d9 (size before relaxing)
 .debug_str     0x0000000000007e55       0x58 obj_cooja/mtype67.a(linkaddr.o)
                                        0x1b7 (size before relaxing)
 .debug_str     0x0000000000007ead      0x2a5 obj_cooja/mtype67.a(nbr-table.o)
                                        0x589 (size before relaxing)
 .debug_str     0x0000000000008152       0x2e obj_cooja/mtype67.a(netstack.o)
                                        0x33d (size before relaxing)
 .debug_str     0x0000000000008180      0x188 obj_cooja/mtype67.a(packetbuf.o)
                                        0x53d (size before relaxing)
 .debug_str     0x0000000000008308      0x1a5 obj_cooja/mtype67.a(queuebuf.o)
                                        0x53c (size before relaxing)
 .debug_str     0x00000000000084ad      0x207 obj_cooja/mtype67.a(csma.o)
                                        0x793 (size before relaxing)
 .debug_str     0x00000000000086b4      0x218 obj_cooja/mtype67.a(framer-802154.o)
                                        0x61b (size before relaxing)
 .debug_str     0x00000000000088cc       0x3d obj_cooja/mtype67.a(mac.o)
                                        0x1cb (size before relaxing)
 .debug_str     0x0000000000008909       0x86 obj_cooja/mtype67.a(nullrdc.o)
                                        0x97e (size before relaxing)
 .debug_str     0x000000000000898f       0x25 obj_cooja/mtype67.a(nullsec.o)
                                        0x439 (size before relaxing)
 .debug_str     0x00000000000089b4       0x77 obj_cooja/mtype67.a(watchdog.o)
                                        0x10d (size before relaxing)
 .debug_str     0x0000000000008a2b       0x26 obj_cooja/mtype67.a(rimestats.o)
                                        0x161 (size before relaxing)
 .debug_str     0x0000000000008a51       0x74 obj_cooja/mtype67.a(stimer.o)
                                        0x1a4 (size before relaxing)
 .debug_str     0x0000000000008ac5      0x1ef obj_cooja/mtype67.a(uip-icmp6.o)
                                        0x57e (size before relaxing)
 .debug_str     0x0000000000008cb4       0xd0 obj_cooja/mtype67.a(rpl-nbr-policy.)
                                        0x998 (size before relaxing)
 .debug_str     0x0000000000008d84      0x1f3 obj_cooja/mtype67.a(frame802154.o)
                                        0x571 (size before relaxing)
 .debug_str     0x0000000000008f77       0x6e obj_cooja/mtype67.a(mac-sequence.o)
                                        0x3ff (size before relaxing)

.debug_loc
 *(.debug_loc)

.debug_macinfo
 *(.debug_macinfo)

.debug_weaknames
 *(.debug_weaknames)

.debug_funcnames
 *(.debug_funcnames)

.debug_typenames
 *(.debug_typenames)

.debug_varnames
 *(.debug_varnames)

.debug_pubtypes
 *(.debug_pubtypes)

.debug_ranges   0x0000000000000000     0x1c98
 *(.debug_ranges)
 .debug_ranges  0x0000000000000000       0x88 receiver.co
 .debug_ranges  0x0000000000000088       0x58 obj_cooja/mtype67.o
 .debug_ranges  0x00000000000000e0      0x2f0 obj_cooja/mtype67.a(dtls.o)
 .debug_ranges  0x00000000000003d0       0xb8 obj_cooja/mtype67.a(tinydtls-crypto)
 .debug_ranges  0x0000000000000488       0x60 obj_cooja/mtype67.a(hmac.o)
 .debug_ranges  0x00000000000004e8       0x60 obj_cooja/mtype67.a(netq.o)
 .debug_ranges  0x0000000000000548       0x18 obj_cooja/mtype67.a(dtls_time.o)
 .debug_ranges  0x0000000000000560       0x28 obj_cooja/mtype67.a(peer.o)
 .debug_ranges  0x0000000000000588       0x18 obj_cooja/mtype67.a(session.o)
 .debug_ranges  0x00000000000005a0       0x28 obj_cooja/mtype67.a(rijndael.o)
 .debug_ranges  0x00000000000005c8       0x50 obj_cooja/mtype67.a(tinydtls-ccm.o)
 .debug_ranges  0x0000000000000618       0x38 obj_cooja/mtype67.a(sha2.o)
 .debug_ranges  0x0000000000000650       0x58 obj_cooja/mtype67.a(debug.o)
 .debug_ranges  0x00000000000006a8       0x18 obj_cooja/mtype67.a(simEnvChange.o)
 .debug_ranges  0x00000000000006c0       0x38 obj_cooja/mtype67.a(cooja_mt.o)
 .debug_ranges  0x00000000000006f8       0x50 obj_cooja/mtype67.a(cooja_mtarch.o)
 .debug_ranges  0x0000000000000748       0x38 obj_cooja/mtype67.a(rtimer-arch.o)
 .debug_ranges  0x0000000000000780       0x60 obj_cooja/mtype67.a(beep.o)
 .debug_ranges  0x00000000000007e0       0x30 obj_cooja/mtype67.a(button-sensor.o)
 .debug_ranges  0x0000000000000810       0x30 obj_cooja/mtype67.a(leds-arch.o)
 .debug_ranges  0x0000000000000840       0x18 obj_cooja/mtype67.a(moteid.o)
 .debug_ranges  0x0000000000000858       0x30 obj_cooja/mtype67.a(pir-sensor.o)
 .debug_ranges  0x0000000000000888       0x48 obj_cooja/mtype67.a(rs232.o)
 .debug_ranges  0x00000000000008d0       0x30 obj_cooja/mtype67.a(vib-sensor.o)
 .debug_ranges  0x0000000000000900       0x38 obj_cooja/mtype67.a(clock.o)
 .debug_ranges  0x0000000000000938       0x50 obj_cooja/mtype67.a(log.o)
 .debug_ranges  0x0000000000000988       0x60 obj_cooja/mtype67.a(cfs-cooja.o)
 .debug_ranges  0x00000000000009e8       0xe0 obj_cooja/mtype67.a(cooja-radio.o)
 .debug_ranges  0x0000000000000ac8       0x30 obj_cooja/mtype67.a(eeprom.o)
 .debug_ranges  0x0000000000000af8       0x18 obj_cooja/mtype67.a(random.o)
 .debug_ranges  0x0000000000000b10       0x38 obj_cooja/mtype67.a(sensors.o)
 .debug_ranges  0x0000000000000b48       0x18 obj_cooja/mtype67.a(autostart.o)
 .debug_ranges  0x0000000000000b60       0x48 obj_cooja/mtype67.a(ctimer.o)
 .debug_ranges  0x0000000000000ba8       0x80 obj_cooja/mtype67.a(etimer.o)
 .debug_ranges  0x0000000000000c28       0x78 obj_cooja/mtype67.a(process.o)
 .debug_ranges  0x0000000000000ca0       0x20 obj_cooja/mtype67.a(rtimer.o)
 .debug_ranges  0x0000000000000cc0       0x30 obj_cooja/mtype67.a(timer.o)
 .debug_ranges  0x0000000000000cf0       0x20 obj_cooja/mtype67.a(serial-line.o)
 .debug_ranges  0x0000000000000d10       0x10 obj_cooja/mtype67.a(assert.o)
 .debug_ranges  0x0000000000000d20       0x68 obj_cooja/mtype67.a(list.o)
 .debug_ranges  0x0000000000000d88       0x30 obj_cooja/mtype67.a(memb.o)
 .debug_ranges  0x0000000000000db8       0x30 obj_cooja/mtype67.a(ringbuf.o)
 .debug_ranges  0x0000000000000de8       0xd0 obj_cooja/mtype67.a(sicslowpan.o)
 .debug_ranges  0x0000000000000eb8       0x80 obj_cooja/mtype67.a(uip-ds6-nbr.o)
 .debug_ranges  0x0000000000000f38       0xb8 obj_cooja/mtype67.a(uip-ds6-route.o)
 .debug_ranges  0x0000000000000ff0       0xb8 obj_cooja/mtype67.a(uip-ds6.o)
 .debug_ranges  0x00000000000010a8       0x38 obj_cooja/mtype67.a(uip-nd6.o)
 .debug_ranges  0x00000000000010e0       0xa0 obj_cooja/mtype67.a(uip6.o)
 .debug_ranges  0x0000000000001180       0xa8 obj_cooja/mtype67.a(resolv.o)
 .debug_ranges  0x0000000000001228       0xa0 obj_cooja/mtype67.a(tcpip.o)
 .debug_ranges  0x00000000000012c8       0x10 obj_cooja/mtype67.a(uip-debug.o)
 .debug_ranges  0x00000000000012d8       0x28 obj_cooja/mtype67.a(uip-nameserver.)
 .debug_ranges  0x0000000000001300       0x40 obj_cooja/mtype67.a(uip-packetqueue)
 .debug_ranges  0x0000000000001340       0x18 obj_cooja/mtype67.a(uip-udp-packet.)
 .debug_ranges  0x0000000000001358       0x18 obj_cooja/mtype67.a(uiplib.o)
 .debug_ranges  0x0000000000001370      0x1c8 obj_cooja/mtype67.a(rpl-dag.o)
 .debug_ranges  0x0000000000001538       0x38 obj_cooja/mtype67.a(rpl-ext-header.)
 .debug_ranges  0x0000000000001570       0xb0 obj_cooja/mtype67.a(rpl-icmp6.o)
 .debug_ranges  0x0000000000001620       0x50 obj_cooja/mtype67.a(rpl-mrhof.o)
 .debug_ranges  0x0000000000001670       0x90 obj_cooja/mtype67.a(rpl-timers.o)
 .debug_ranges  0x0000000000001700       0x58 obj_cooja/mtype67.a(rpl.o)
 .debug_ranges  0x0000000000001758       0x48 obj_cooja/mtype67.a(link-stats.o)
 .debug_ranges  0x00000000000017a0       0x20 obj_cooja/mtype67.a(linkaddr.o)
 .debug_ranges  0x00000000000017c0       0xb0 obj_cooja/mtype67.a(nbr-table.o)
 .debug_ranges  0x0000000000001870       0x10 obj_cooja/mtype67.a(netstack.o)
 .debug_ranges  0x0000000000001880       0x90 obj_cooja/mtype67.a(packetbuf.o)
 .debug_ranges  0x0000000000001910       0x70 obj_cooja/mtype67.a(queuebuf.o)
 .debug_ranges  0x0000000000001980       0xa8 obj_cooja/mtype67.a(csma.o)
 .debug_ranges  0x0000000000001a28       0x48 obj_cooja/mtype67.a(framer-802154.o)
 .debug_ranges  0x0000000000001a70       0x10 obj_cooja/mtype67.a(mac.o)
 .debug_ranges  0x0000000000001a80       0x60 obj_cooja/mtype67.a(nullrdc.o)
 .debug_ranges  0x0000000000001ae0       0x28 obj_cooja/mtype67.a(nullsec.o)
 .debug_ranges  0x0000000000001b08       0x30 obj_cooja/mtype67.a(watchdog.o)
 .debug_ranges  0x0000000000001b38       0x38 obj_cooja/mtype67.a(stimer.o)
 .debug_ranges  0x0000000000001b70       0x58 obj_cooja/mtype67.a(uip-icmp6.o)
 .debug_ranges  0x0000000000001bc8       0x38 obj_cooja/mtype67.a(rpl-nbr-policy.)
 .debug_ranges  0x0000000000001c00       0x70 obj_cooja/mtype67.a(frame802154.o)
 .debug_ranges  0x0000000000001c70       0x28 obj_cooja/mtype67.a(mac-sequence.o)

.debug_macro
 *(.debug_macro)

.gnu.attributes
 *(.gnu.attributes)

/DISCARD/
 *(.note.GNU-stack)
 *(.gnu_debuglink)
 *(.gnu.lto_*)
OUTPUT(obj_cooja/mtype67.cooja elf32-i386)
