Archive member included to satisfy reference by file (symbol)

obj_cooja/mtype331.a(dtls.o)  receiver.co (dtls_init)
obj_cooja/mtype331.a(tinydtls-crypto)
                              obj_cooja/mtype331.a(dtls.o) (dtls_crypto_init)
obj_cooja/mtype331.a(hmac.o)  obj_cooja/mtype331.a(dtls.o) (dtls_hmac_update)
obj_cooja/mtype331.a(netq.o)  obj_cooja/mtype331.a(dtls.o) (netq_init)
obj_cooja/mtype331.a(dtls_time.o)
                              obj_cooja/mtype331.a(dtls.o) (dtls_clock_init)
obj_cooja/mtype331.a(peer.o)  obj_cooja/mtype331.a(dtls.o) (peer_init)
obj_cooja/mtype331.a(session.o)
                              obj_cooja/mtype331.a(dtls.o) (dtls_session_equals)
obj_cooja/mtype331.a(rijndael.o)
                              obj_cooja/mtype331.a(tinydtls-crypto) (rijndael_set_key_enc_only)
obj_cooja/mtype331.a(tinydtls-ccm.o)
                              obj_cooja/mtype331.a(tinydtls-crypto) (dtls_ccm_encrypt_message)
obj_cooja/mtype331.a(sha2.o)  obj_cooja/mtype331.a(dtls.o) (SHA256_Init)
obj_cooja/mtype331.a(debug.o)
                              receiver.co (dtls_set_log_level)
obj_cooja/mtype331.a(simEnvChange.o)
                              obj_cooja/mtype331.o (simDontFallAsleep)
obj_cooja/mtype331.a(cooja_mt.o)
                              obj_cooja/mtype331.o (cooja_mt_start)
obj_cooja/mtype331.a(cooja_mtarch.o)
                              obj_cooja/mtype331.a(cooja_mt.o) (cooja_mtarch_init)
obj_cooja/mtype331.a(rtimer-arch.o)
                              obj_cooja/mtype331.o (rtimer_arch_check)
obj_cooja/mtype331.a(beep.o)  obj_cooja/mtype331.o (beep_interface)
obj_cooja/mtype331.a(button-sensor.o)
                              obj_cooja/mtype331.o (button_interface)
obj_cooja/mtype331.a(leds-arch.o)
                              obj_cooja/mtype331.o (leds_interface)
obj_cooja/mtype331.a(moteid.o)
                              obj_cooja/mtype331.o (moteid_interface)
obj_cooja/mtype331.a(pir-sensor.o)
                              obj_cooja/mtype331.o (pir_interface)
obj_cooja/mtype331.a(rs232.o)
                              obj_cooja/mtype331.o (rs232_interface)
obj_cooja/mtype331.a(vib-sensor.o)
                              obj_cooja/mtype331.o (vib_interface)
obj_cooja/mtype331.a(clock.o)
                              obj_cooja/mtype331.o (clock_interface)
obj_cooja/mtype331.a(log.o)   obj_cooja/mtype331.o (simlog_interface)
obj_cooja/mtype331.a(cfs-cooja.o)
                              obj_cooja/mtype331.o (cfs_interface)
obj_cooja/mtype331.a(cooja-radio.o)
                              obj_cooja/mtype331.o (radio_interface)
obj_cooja/mtype331.a(eeprom.o)
                              obj_cooja/mtype331.o (eeprom_interface)
obj_cooja/mtype331.a(random.o)
                              obj_cooja/mtype331.a(moteid.o) (random_init)
obj_cooja/mtype331.a(sensors.o)
                              obj_cooja/mtype331.o (sensors_process)
obj_cooja/mtype331.a(autostart.o)
                              obj_cooja/mtype331.o (autostart_start)
obj_cooja/mtype331.a(ctimer.o)
                              obj_cooja/mtype331.o (ctimer_init)
obj_cooja/mtype331.a(etimer.o)
                              obj_cooja/mtype331.o (etimer_process)
obj_cooja/mtype331.a(process.o)
                              obj_cooja/mtype331.a(dtls.o) (process_current)
obj_cooja/mtype331.a(rtimer.o)
                              obj_cooja/mtype331.a(rtimer-arch.o) (rtimer_run_next)
obj_cooja/mtype331.a(timer.o)
                              obj_cooja/mtype331.a(button-sensor.o) (timer_set)
obj_cooja/mtype331.a(serial-line.o)
                              obj_cooja/mtype331.a(rs232.o) (serial_line_input_byte)
obj_cooja/mtype331.a(assert.o)
                              obj_cooja/mtype331.a(dtls.o) (_xassert)
obj_cooja/mtype331.a(list.o)  obj_cooja/mtype331.a(dtls.o) (list_init)
obj_cooja/mtype331.a(memb.o)  obj_cooja/mtype331.a(tinydtls-crypto) (memb_init)
obj_cooja/mtype331.a(ringbuf.o)
                              obj_cooja/mtype331.a(serial-line.o) (ringbuf_init)
obj_cooja/mtype331.a(sicslowpan.o)
                              obj_cooja/mtype331.o (sicslowpan_driver)
obj_cooja/mtype331.a(uip-ds6-nbr.o)
                              obj_cooja/mtype331.a(sicslowpan.o) (uip_ds6_link_neighbor_callback)
obj_cooja/mtype331.a(uip-ds6-route.o)
                              obj_cooja/mtype331.a(uip-ds6-nbr.o) (uip_ds6_defrt_lookup)
obj_cooja/mtype331.a(uip-ds6.o)
                              receiver.co (uip_ds6_if)
obj_cooja/mtype331.a(uip-nd6.o)
                              obj_cooja/mtype331.a(uip-ds6-nbr.o) (uip_nd6_ns_output)
obj_cooja/mtype331.a(uip6.o)  receiver.co (uip_lladdr)
obj_cooja/mtype331.a(resolv.o)
                              receiver.co (resolv_query)
obj_cooja/mtype331.a(tcpip.o)
                              receiver.co (tcpip_event)
obj_cooja/mtype331.a(uip-debug.o)
                              receiver.co (uip_debug_ipaddr_print)
obj_cooja/mtype331.a(uip-nameserver.)
                              obj_cooja/mtype331.a(resolv.o) (uip_nameserver_get)
obj_cooja/mtype331.a(uip-packetqueue)
                              obj_cooja/mtype331.a(uip-ds6-nbr.o) (uip_packetqueue_new)
obj_cooja/mtype331.a(uip-udp-packet.)
                              receiver.co (uip_udp_packet_send)
obj_cooja/mtype331.a(uiplib.o)
                              receiver.co (uiplib_ip6addrconv)
obj_cooja/mtype331.a(rpl-dag.o)
                              obj_cooja/mtype331.a(tcpip.o) (rpl_repair_root)
obj_cooja/mtype331.a(rpl-ext-header.)
                              obj_cooja/mtype331.a(uip6.o) (rpl_verify_hbh_header)
obj_cooja/mtype331.a(rpl-icmp6.o)
                              obj_cooja/mtype331.a(rpl-dag.o) (rpl_icmp6_update_nbr_table)
obj_cooja/mtype331.a(rpl-mrhof.o)
                              obj_cooja/mtype331.a(rpl-dag.o) (rpl_mrhof)
obj_cooja/mtype331.a(rpl-timers.o)
                              obj_cooja/mtype331.a(rpl-dag.o) (rpl_reset_dio_timer)
obj_cooja/mtype331.a(rpl.o)   obj_cooja/mtype331.a(rpl-icmp6.o) (rpl_get_mode)
obj_cooja/mtype331.a(link-stats.o)
                              obj_cooja/mtype331.a(rpl-dag.o) (link_stats_from_lladdr)
obj_cooja/mtype331.a(linkaddr.o)
                              obj_cooja/mtype331.o (linkaddr_node_addr)
obj_cooja/mtype331.a(nbr-table.o)
                              obj_cooja/mtype331.a(uip-ds6-nbr.o) (nbr_table_register)
obj_cooja/mtype331.a(netstack.o)
                              obj_cooja/mtype331.o (netstack_init)
obj_cooja/mtype331.a(packetbuf.o)
                              obj_cooja/mtype331.a(cooja-radio.o) (packetbuf_attrs)
obj_cooja/mtype331.a(queuebuf.o)
                              obj_cooja/mtype331.o (queuebuf_init)
obj_cooja/mtype331.a(csma.o)  obj_cooja/mtype331.o (csma_driver)
obj_cooja/mtype331.a(framer-802154.o)
                              obj_cooja/mtype331.a(sicslowpan.o) (framer_802154)
obj_cooja/mtype331.a(mac.o)   obj_cooja/mtype331.a(csma.o) (mac_call_sent_callback)
obj_cooja/mtype331.a(nullrdc.o)
                              obj_cooja/mtype331.o (nullrdc_driver)
obj_cooja/mtype331.a(nullsec.o)
                              obj_cooja/mtype331.a(sicslowpan.o) (nullsec_driver)
obj_cooja/mtype331.a(watchdog.o)
                              obj_cooja/mtype331.a(sicslowpan.o) (watchdog_periodic)
obj_cooja/mtype331.a(rimestats.o)
                              obj_cooja/mtype331.a(cooja-radio.o) (rimestats)
obj_cooja/mtype331.a(stimer.o)
                              obj_cooja/mtype331.a(uip-ds6-nbr.o) (stimer_set)
obj_cooja/mtype331.a(uip-icmp6.o)
                              obj_cooja/mtype331.a(uip6.o) (uip_icmp6_input)
obj_cooja/mtype331.a(rpl-nbr-policy.)
                              obj_cooja/mtype331.a(nbr-table.o) (rpl_nbr_policy_find_removable)
obj_cooja/mtype331.a(frame802154.o)
                              obj_cooja/mtype331.a(framer-802154.o) (frame802154_get_pan_id)
obj_cooja/mtype331.a(mac-sequence.o)
                              obj_cooja/mtype331.a(nullrdc.o) (mac_sequence_is_duplicate)

Allocating common symbols
Common symbol       size              file

default_instance    0x4               obj_cooja/mtype331.a(rpl-dag.o)
simButtonIsActive   0x1               obj_cooja/mtype331.a(button-sensor.o)
simButtonIsDown     0x1               obj_cooja/mtype331.a(button-sensor.o)
cfs_buf             0x1e              receiver.co
simOutDataBuffer    0x80              obj_cooja/mtype331.a(cooja-radio.o)
uip_ds6_prefix_list
                    0x60              obj_cooja/mtype331.a(uip-ds6.o)
linkaddr_node_addr  0x8               obj_cooja/mtype331.a(linkaddr.o)
simSerialReceivingFlag
                    0x1               obj_cooja/mtype331.a(rs232.o)
simEEPROMData       0x400             obj_cooja/mtype331.a(eeprom.o)
periodic_timer      0x20              obj_cooja/mtype331.a(link-stats.o)
simLoggedLength     0x4               obj_cooja/mtype331.a(log.o)
simSerialReceivingLength
                    0x4               obj_cooja/mtype331.a(rs232.o)
simEtimerPending    0x4               obj_cooja/mtype331.a(simEnvChange.o)
uip_slen            0x2               obj_cooja/mtype331.a(uip6.o)
uip_ds6_timer_periodic
                    0x10              obj_cooja/mtype331.a(uip-ds6.o)
uip_acc32           0x4               obj_cooja/mtype331.a(uip6.o)
j                   0x4               receiver.co
uip_conns           0xc0              obj_cooja/mtype331.a(uip6.o)
simVibChanged       0x1               obj_cooja/mtype331.a(vib-sensor.o)
rimestats           0x48              obj_cooja/mtype331.a(rimestats.o)
simRtimerPending    0x4               obj_cooja/mtype331.a(rtimer-arch.o)
read_buf            0xc8              receiver.co
data_len            0x4               receiver.co
uip_ds6_netif_addr_list_offset
                    0x1               obj_cooja/mtype331.a(uip-ds6.o)
uip_lladdr          0x8               obj_cooja/mtype331.a(uip6.o)
instance_table      0x154             obj_cooja/mtype331.a(rpl-dag.o)
simProcessRunValue  0x4               obj_cooja/mtype331.a(simEnvChange.o)
serial_line_event_message
                    0x1               obj_cooja/mtype331.a(serial-line.o)
uip_appdata         0x4               obj_cooja/mtype331.a(uip6.o)
resolv_event_found  0x1               obj_cooja/mtype331.a(resolv.o)
referenceVar        0x4               obj_cooja/mtype331.o
simCurrentTime      0x4               obj_cooja/mtype331.a(clock.o)
simVibIsActive      0x1               obj_cooja/mtype331.a(vib-sensor.o)
uip_ds6_if          0xf8              obj_cooja/mtype331.a(uip-ds6.o)
uip_flags           0x1               obj_cooja/mtype331.a(uip6.o)
uip_ds6_timer_ra    0x8               obj_cooja/mtype331.a(uip-ds6.o)
simSerialReceivingData
                    0x800             obj_cooja/mtype331.a(rs232.o)
filename            0x4               receiver.co
simLoggedFlag       0x1               obj_cooja/mtype331.a(log.o)
packetbuf_attrs     0x1e              obj_cooja/mtype331.a(packetbuf.o)
uip_ds6_addr_size   0x1               obj_cooja/mtype331.a(uip-ds6.o)
uip_aligned_buf     0x640             obj_cooja/mtype331.a(uip6.o)
simRtimerCurrentTicks
                    0x8               obj_cooja/mtype331.a(rtimer-arch.o)
iterator            0x4               receiver.co
simRandomSeed       0x4               obj_cooja/mtype331.a(moteid.o)
simLoggedData       0x400             obj_cooja/mtype331.a(log.o)
simLedsValue        0x1               obj_cooja/mtype331.a(leds-arch.o)
simEtimerNextExpirationTime
                    0x4               obj_cooja/mtype331.a(simEnvChange.o)
uip_listenports     0x10              obj_cooja/mtype331.a(uip6.o)
uip_len             0x2               obj_cooja/mtype331.a(uip6.o)
simButtonChanged    0x1               obj_cooja/mtype331.a(button-sensor.o)
simRtimerNextExpirationTime
                    0x8               obj_cooja/mtype331.a(rtimer-arch.o)
simPirIsActive      0x1               obj_cooja/mtype331.a(pir-sensor.o)
simInDataBuffer     0x80              obj_cooja/mtype331.a(cooja-radio.o)
simPirChanged       0x1               obj_cooja/mtype331.a(pir-sensor.o)
simBeeped           0x1               obj_cooja/mtype331.a(beep.o)
tcpip_event         0x1               obj_cooja/mtype331.a(tcpip.o)
uip_sappdata        0x4               obj_cooja/mtype331.a(uip6.o)
sensors_event       0x1               obj_cooja/mtype331.a(sensors.o)
dtls_clock_offset   0x4               obj_cooja/mtype331.a(dtls_time.o)
uip_udp_conns       0x180             obj_cooja/mtype331.a(uip6.o)
packetbuf_addrs     0x10              obj_cooja/mtype331.a(packetbuf.o)
uip_udp_conn        0x4               obj_cooja/mtype331.a(uip6.o)
simMoteIDChanged    0x1               obj_cooja/mtype331.a(moteid.o)
sensors_flags       0x4               obj_cooja/mtype331.o
uip_next_hdr        0x4               obj_cooja/mtype331.a(uip6.o)
it                  0x4               receiver.co
simMoteID           0x4               obj_cooja/mtype331.a(moteid.o)
uip_conn            0x4               obj_cooja/mtype331.a(uip6.o)

Discarded input sections

 .note.GNU-stack
                0x0000000000000000        0x0 /usr/lib/gcc/i686-linux-gnu/4.8/../../../i386-linux-gnu/crti.o
 .gnu_debuglink
                0x0000000000000000        0xc /usr/lib/gcc/i686-linux-gnu/4.8/../../../i386-linux-gnu/crti.o
 .group         0x0000000000000000        0x8 /usr/lib/gcc/i686-linux-gnu/4.8/crtbeginS.o
 .text.__x86.get_pc_thunk.bx
                0x0000000000000000        0x4 /usr/lib/gcc/i686-linux-gnu/4.8/crtbeginS.o
 .note.GNU-stack
                0x0000000000000000        0x0 /usr/lib/gcc/i686-linux-gnu/4.8/crtbeginS.o
 .note.GNU-stack
                0x0000000000000000        0x0 receiver.co
 .note.GNU-stack
                0x0000000000000000        0x0 obj_cooja/mtype331.o
 .note.GNU-stack
                0x0000000000000000        0x0 obj_cooja/mtype331.a(dtls.o)
 .note.GNU-stack
                0x0000000000000000        0x0 obj_cooja/mtype331.a(tinydtls-crypto)
 .note.GNU-stack
                0x0000000000000000        0x0 obj_cooja/mtype331.a(hmac.o)
 .note.GNU-stack
                0x0000000000000000        0x0 obj_cooja/mtype331.a(netq.o)
 .note.GNU-stack
                0x0000000000000000        0x0 obj_cooja/mtype331.a(dtls_time.o)
 .note.GNU-stack
                0x0000000000000000        0x0 obj_cooja/mtype331.a(peer.o)
 .note.GNU-stack
                0x0000000000000000        0x0 obj_cooja/mtype331.a(session.o)
 .note.GNU-stack
                0x0000000000000000        0x0 obj_cooja/mtype331.a(rijndael.o)
 .note.GNU-stack
                0x0000000000000000        0x0 obj_cooja/mtype331.a(tinydtls-ccm.o)
 .note.GNU-stack
                0x0000000000000000        0x0 obj_cooja/mtype331.a(sha2.o)
 .note.GNU-stack
                0x0000000000000000        0x0 obj_cooja/mtype331.a(debug.o)
 .note.GNU-stack
                0x0000000000000000        0x0 obj_cooja/mtype331.a(simEnvChange.o)
 .note.GNU-stack
                0x0000000000000000        0x0 obj_cooja/mtype331.a(cooja_mt.o)
 .note.GNU-stack
                0x0000000000000000        0x0 obj_cooja/mtype331.a(cooja_mtarch.o)
 .note.GNU-stack
                0x0000000000000000        0x0 obj_cooja/mtype331.a(rtimer-arch.o)
 .note.GNU-stack
                0x0000000000000000        0x0 obj_cooja/mtype331.a(beep.o)
 .note.GNU-stack
                0x0000000000000000        0x0 obj_cooja/mtype331.a(button-sensor.o)
 .note.GNU-stack
                0x0000000000000000        0x0 obj_cooja/mtype331.a(leds-arch.o)
 .note.GNU-stack
                0x0000000000000000        0x0 obj_cooja/mtype331.a(moteid.o)
 .note.GNU-stack
                0x0000000000000000        0x0 obj_cooja/mtype331.a(pir-sensor.o)
 .note.GNU-stack
                0x0000000000000000        0x0 obj_cooja/mtype331.a(rs232.o)
 .note.GNU-stack
                0x0000000000000000        0x0 obj_cooja/mtype331.a(vib-sensor.o)
 .note.GNU-stack
                0x0000000000000000        0x0 obj_cooja/mtype331.a(clock.o)
 .note.GNU-stack
                0x0000000000000000        0x0 obj_cooja/mtype331.a(log.o)
 .note.GNU-stack
                0x0000000000000000        0x0 obj_cooja/mtype331.a(cfs-cooja.o)
 .note.GNU-stack
                0x0000000000000000        0x0 obj_cooja/mtype331.a(cooja-radio.o)
 .note.GNU-stack
                0x0000000000000000        0x0 obj_cooja/mtype331.a(eeprom.o)
 .note.GNU-stack
                0x0000000000000000        0x0 obj_cooja/mtype331.a(random.o)
 .note.GNU-stack
                0x0000000000000000        0x0 obj_cooja/mtype331.a(sensors.o)
 .note.GNU-stack
                0x0000000000000000        0x0 obj_cooja/mtype331.a(autostart.o)
 .note.GNU-stack
                0x0000000000000000        0x0 obj_cooja/mtype331.a(ctimer.o)
 .note.GNU-stack
                0x0000000000000000        0x0 obj_cooja/mtype331.a(etimer.o)
 .note.GNU-stack
                0x0000000000000000        0x0 obj_cooja/mtype331.a(process.o)
 .note.GNU-stack
                0x0000000000000000        0x0 obj_cooja/mtype331.a(rtimer.o)
 .note.GNU-stack
                0x0000000000000000        0x0 obj_cooja/mtype331.a(timer.o)
 .note.GNU-stack
                0x0000000000000000        0x0 obj_cooja/mtype331.a(serial-line.o)
 .note.GNU-stack
                0x0000000000000000        0x0 obj_cooja/mtype331.a(assert.o)
 .note.GNU-stack
                0x0000000000000000        0x0 obj_cooja/mtype331.a(list.o)
 .note.GNU-stack
                0x0000000000000000        0x0 obj_cooja/mtype331.a(memb.o)
 .note.GNU-stack
                0x0000000000000000        0x0 obj_cooja/mtype331.a(ringbuf.o)
 .note.GNU-stack
                0x0000000000000000        0x0 obj_cooja/mtype331.a(sicslowpan.o)
 .note.GNU-stack
                0x0000000000000000        0x0 obj_cooja/mtype331.a(uip-ds6-nbr.o)
 .note.GNU-stack
                0x0000000000000000        0x0 obj_cooja/mtype331.a(uip-ds6-route.o)
 .note.GNU-stack
                0x0000000000000000        0x0 obj_cooja/mtype331.a(uip-ds6.o)
 .note.GNU-stack
                0x0000000000000000        0x0 obj_cooja/mtype331.a(uip-nd6.o)
 .note.GNU-stack
                0x0000000000000000        0x0 obj_cooja/mtype331.a(uip6.o)
 .note.GNU-stack
                0x0000000000000000        0x0 obj_cooja/mtype331.a(resolv.o)
 .note.GNU-stack
                0x0000000000000000        0x0 obj_cooja/mtype331.a(tcpip.o)
 .note.GNU-stack
                0x0000000000000000        0x0 obj_cooja/mtype331.a(uip-debug.o)
 .note.GNU-stack
                0x0000000000000000        0x0 obj_cooja/mtype331.a(uip-nameserver.)
 .note.GNU-stack
                0x0000000000000000        0x0 obj_cooja/mtype331.a(uip-packetqueue)
 .note.GNU-stack
                0x0000000000000000        0x0 obj_cooja/mtype331.a(uip-udp-packet.)
 .note.GNU-stack
                0x0000000000000000        0x0 obj_cooja/mtype331.a(uiplib.o)
 .note.GNU-stack
                0x0000000000000000        0x0 obj_cooja/mtype331.a(rpl-dag.o)
 .note.GNU-stack
                0x0000000000000000        0x0 obj_cooja/mtype331.a(rpl-ext-header.)
 .note.GNU-stack
                0x0000000000000000        0x0 obj_cooja/mtype331.a(rpl-icmp6.o)
 .note.GNU-stack
                0x0000000000000000        0x0 obj_cooja/mtype331.a(rpl-mrhof.o)
 .note.GNU-stack
                0x0000000000000000        0x0 obj_cooja/mtype331.a(rpl-timers.o)
 .note.GNU-stack
                0x0000000000000000        0x0 obj_cooja/mtype331.a(rpl.o)
 .note.GNU-stack
                0x0000000000000000        0x0 obj_cooja/mtype331.a(link-stats.o)
 .note.GNU-stack
                0x0000000000000000        0x0 obj_cooja/mtype331.a(linkaddr.o)
 .note.GNU-stack
                0x0000000000000000        0x0 obj_cooja/mtype331.a(nbr-table.o)
 .note.GNU-stack
                0x0000000000000000        0x0 obj_cooja/mtype331.a(netstack.o)
 .note.GNU-stack
                0x0000000000000000        0x0 obj_cooja/mtype331.a(packetbuf.o)
 .note.GNU-stack
                0x0000000000000000        0x0 obj_cooja/mtype331.a(queuebuf.o)
 .note.GNU-stack
                0x0000000000000000        0x0 obj_cooja/mtype331.a(csma.o)
 .note.GNU-stack
                0x0000000000000000        0x0 obj_cooja/mtype331.a(framer-802154.o)
 .note.GNU-stack
                0x0000000000000000        0x0 obj_cooja/mtype331.a(mac.o)
 .note.GNU-stack
                0x0000000000000000        0x0 obj_cooja/mtype331.a(nullrdc.o)
 .note.GNU-stack
                0x0000000000000000        0x0 obj_cooja/mtype331.a(nullsec.o)
 .note.GNU-stack
                0x0000000000000000        0x0 obj_cooja/mtype331.a(watchdog.o)
 .note.GNU-stack
                0x0000000000000000        0x0 obj_cooja/mtype331.a(rimestats.o)
 .note.GNU-stack
                0x0000000000000000        0x0 obj_cooja/mtype331.a(stimer.o)
 .note.GNU-stack
                0x0000000000000000        0x0 obj_cooja/mtype331.a(uip-icmp6.o)
 .note.GNU-stack
                0x0000000000000000        0x0 obj_cooja/mtype331.a(rpl-nbr-policy.)
 .note.GNU-stack
                0x0000000000000000        0x0 obj_cooja/mtype331.a(frame802154.o)
 .note.GNU-stack
                0x0000000000000000        0x0 obj_cooja/mtype331.a(mac-sequence.o)
 .note.GNU-stack
                0x0000000000000000        0x0 /usr/lib/gcc/i686-linux-gnu/4.8/crtendS.o
 .note.GNU-stack
                0x0000000000000000        0x0 /usr/lib/gcc/i686-linux-gnu/4.8/../../../i386-linux-gnu/crtn.o
 .gnu_debuglink
                0x0000000000000000        0xc /usr/lib/gcc/i686-linux-gnu/4.8/../../../i386-linux-gnu/crtn.o

Memory Configuration

Name             Origin             Length             Attributes
*default*        0x0000000000000000 0xffffffffffffffff

Linker script and memory map

LOAD /usr/lib/gcc/i686-linux-gnu/4.8/../../../i386-linux-gnu/crti.o
LOAD /usr/lib/gcc/i686-linux-gnu/4.8/crtbeginS.o
LOAD receiver.co
LOAD obj_cooja/mtype331.o
LOAD obj_cooja/mtype331.a
LOAD /usr/lib/gcc/i686-linux-gnu/4.8/libgcc.a
LOAD /usr/lib/gcc/i686-linux-gnu/4.8/libgcc_s.so
LOAD /usr/lib/gcc/i686-linux-gnu/4.8/../../../i386-linux-gnu/libc.so
START GROUP
LOAD /lib/i386-linux-gnu/libc.so.6
LOAD /usr/lib/i386-linux-gnu/libc_nonshared.a
LOAD /lib/i386-linux-gnu/ld-linux.so.2
END GROUP
LOAD /usr/lib/gcc/i686-linux-gnu/4.8/libgcc.a
LOAD /usr/lib/gcc/i686-linux-gnu/4.8/libgcc_s.so
LOAD /usr/lib/gcc/i686-linux-gnu/4.8/crtendS.o
LOAD /usr/lib/gcc/i686-linux-gnu/4.8/../../../i386-linux-gnu/crtn.o
                0x0000000000000114                . = (0x0 + SIZEOF_HEADERS)

.note.gnu.build-id
                0x0000000000000114       0x24
 *(.note.gnu.build-id)
 .note.gnu.build-id
                0x0000000000000114       0x24 /usr/lib/gcc/i686-linux-gnu/4.8/../../../i386-linux-gnu/crti.o

.hash
 *(.hash)

.gnu.hash       0x0000000000000138     0x13f0
 *(.gnu.hash)
 .gnu.hash      0x0000000000000138     0x13f0 /usr/lib/gcc/i686-linux-gnu/4.8/../../../i386-linux-gnu/crti.o

.dynsym         0x0000000000001528     0x2860
 *(.dynsym)
 .dynsym        0x0000000000001528     0x2860 /usr/lib/gcc/i686-linux-gnu/4.8/../../../i386-linux-gnu/crti.o

.dynstr         0x0000000000003d88     0x2990
 *(.dynstr)
 .dynstr        0x0000000000003d88     0x2990 /usr/lib/gcc/i686-linux-gnu/4.8/../../../i386-linux-gnu/crti.o

.gnu.version    0x0000000000006718      0x50c
 *(.gnu.version)
 .gnu.version   0x0000000000006718      0x50c /usr/lib/gcc/i686-linux-gnu/4.8/../../../i386-linux-gnu/crti.o

.gnu.version_d  0x0000000000006c24        0x0
 *(.gnu.version_d)
 .gnu.version_d
                0x0000000000000000        0x0 /usr/lib/gcc/i686-linux-gnu/4.8/../../../i386-linux-gnu/crti.o

.gnu.version_r  0x0000000000006c24       0x40
 *(.gnu.version_r)
 .gnu.version_r
                0x0000000000006c24       0x40 /usr/lib/gcc/i686-linux-gnu/4.8/../../../i386-linux-gnu/crti.o

.rel.dyn        0x0000000000006c64     0xac48
 *(.rel.init)
 .rel.init      0x0000000000000000        0x0 /usr/lib/gcc/i686-linux-gnu/4.8/../../../i386-linux-gnu/crti.o
 *(.rel.text .rel.text.* .rel.gnu.linkonce.t.*)
 .rel.text      0x0000000000000000        0x0 /usr/lib/gcc/i686-linux-gnu/4.8/../../../i386-linux-gnu/crti.o
 .rel.text.try_send
                0x0000000000006c64       0x48 /usr/lib/gcc/i686-linux-gnu/4.8/../../../i386-linux-gnu/crti.o
 .rel.text.read_from_peer
                0x0000000000006cac       0x78 /usr/lib/gcc/i686-linux-gnu/4.8/../../../i386-linux-gnu/crti.o
 .rel.text.send_to_peer
                0x0000000000006d24       0x18 /usr/lib/gcc/i686-linux-gnu/4.8/../../../i386-linux-gnu/crti.o
 .rel.text.get_psk_info
                0x0000000000006d3c       0xa8 /usr/lib/gcc/i686-linux-gnu/4.8/../../../i386-linux-gnu/crti.o
 .rel.text.dtls_handle_read
                0x0000000000006de4       0x80 /usr/lib/gcc/i686-linux-gnu/4.8/../../../i386-linux-gnu/crti.o
 .rel.text.print_local_addresses
                0x0000000000006e64       0x40 /usr/lib/gcc/i686-linux-gnu/4.8/../../../i386-linux-gnu/crti.o
 .rel.text.set_global_address
                0x0000000000006ea4       0x20 /usr/lib/gcc/i686-linux-gnu/4.8/../../../i386-linux-gnu/crti.o
 .rel.text.set_connection_address
                0x0000000000006ec4       0x90 /usr/lib/gcc/i686-linux-gnu/4.8/../../../i386-linux-gnu/crti.o
 .rel.text.dtls_complete
                0x0000000000006f54        0x8 /usr/lib/gcc/i686-linux-gnu/4.8/../../../i386-linux-gnu/crti.o
 .rel.text.init_dtls
                0x0000000000006f5c       0x90 /usr/lib/gcc/i686-linux-gnu/4.8/../../../i386-linux-gnu/crti.o
 .rel.text.join_mcast_group
                0x0000000000006fec       0x58 /usr/lib/gcc/i686-linux-gnu/4.8/../../../i386-linux-gnu/crti.o
 .rel.text.dtls_reqeust
                0x0000000000007044       0x20 /usr/lib/gcc/i686-linux-gnu/4.8/../../../i386-linux-gnu/crti.o
 .rel.text.process_thread_udp_client_process
                0x0000000000007064      0x100 /usr/lib/gcc/i686-linux-gnu/4.8/../../../i386-linux-gnu/crti.o
 .rel.text.print_processes
                0x0000000000007164       0x28 /usr/lib/gcc/i686-linux-gnu/4.8/../../../i386-linux-gnu/crti.o
 .rel.text.rtimer_thread_loop
                0x000000000000718c       0x10 /usr/lib/gcc/i686-linux-gnu/4.8/../../../i386-linux-gnu/crti.o
 .rel.text.set_rime_addr
                0x000000000000719c       0x58 /usr/lib/gcc/i686-linux-gnu/4.8/../../../i386-linux-gnu/crti.o
 .rel.text.contiki_init
                0x00000000000071f4      0x1d0 /usr/lib/gcc/i686-linux-gnu/4.8/../../../i386-linux-gnu/crti.o
 .rel.text.process_run_thread_loop
                0x00000000000073c4       0x70 /usr/lib/gcc/i686-linux-gnu/4.8/../../../i386-linux-gnu/crti.o
 .rel.text.Java_org_contikios_cooja_corecomm_Lib2_init
                0x0000000000007434       0x30 /usr/lib/gcc/i686-linux-gnu/4.8/../../../i386-linux-gnu/crti.o
 .rel.text.Java_org_contikios_cooja_corecomm_Lib2_getMemory
                0x0000000000007464        0x8 /usr/lib/gcc/i686-linux-gnu/4.8/../../../i386-linux-gnu/crti.o
 .rel.text.Java_org_contikios_cooja_corecomm_Lib2_setMemory
                0x000000000000746c       0x10 /usr/lib/gcc/i686-linux-gnu/4.8/../../../i386-linux-gnu/crti.o
 .rel.text.Java_org_contikios_cooja_corecomm_Lib2_tick
                0x000000000000747c       0x70 /usr/lib/gcc/i686-linux-gnu/4.8/../../../i386-linux-gnu/crti.o
 .rel.text.Java_org_contikios_cooja_corecomm_Lib2_setReferenceAddress
                0x00000000000074ec       0x10 /usr/lib/gcc/i686-linux-gnu/4.8/../../../i386-linux-gnu/crti.o
 .rel.text.dtls_hash_init
                0x00000000000074fc       0x18 /usr/lib/gcc/i686-linux-gnu/4.8/../../../i386-linux-gnu/crti.o
 .rel.text.dtls_hash_update
                0x0000000000007514       0x10 /usr/lib/gcc/i686-linux-gnu/4.8/../../../i386-linux-gnu/crti.o
 .rel.text.dtls_hash_finalize
                0x0000000000007524       0x10 /usr/lib/gcc/i686-linux-gnu/4.8/../../../i386-linux-gnu/crti.o
 .rel.text.dtls_security_params_next
                0x0000000000007534       0x10 /usr/lib/gcc/i686-linux-gnu/4.8/../../../i386-linux-gnu/crti.o
 .rel.text.dtls_security_params_free_other
                0x0000000000007544        0x8 /usr/lib/gcc/i686-linux-gnu/4.8/../../../i386-linux-gnu/crti.o
 .rel.text.dtls_prng
                0x000000000000754c       0x18 /usr/lib/gcc/i686-linux-gnu/4.8/../../../i386-linux-gnu/crti.o
 .rel.text.malloc_context
                0x0000000000007564        0x8 /usr/lib/gcc/i686-linux-gnu/4.8/../../../i386-linux-gnu/crti.o
 .rel.text.dtls_init
                0x000000000000756c       0x20 /usr/lib/gcc/i686-linux-gnu/4.8/../../../i386-linux-gnu/crti.o
 .rel.text.dtls_get_peer
                0x000000000000758c       0x18 /usr/lib/gcc/i686-linux-gnu/4.8/../../../i386-linux-gnu/crti.o
 .rel.text.dtls_add_peer
                0x00000000000075a4        0x8 /usr/lib/gcc/i686-linux-gnu/4.8/../../../i386-linux-gnu/crti.o
 .rel.text.dtls_write
                0x00000000000075ac       0x20 /usr/lib/gcc/i686-linux-gnu/4.8/../../../i386-linux-gnu/crti.o
 .rel.text.dtls_create_cookie
                0x00000000000075cc       0x40 /usr/lib/gcc/i686-linux-gnu/4.8/../../../i386-linux-gnu/crti.o
 .rel.text.dtls_set_record_header
                0x000000000000760c       0x10 /usr/lib/gcc/i686-linux-gnu/4.8/../../../i386-linux-gnu/crti.o
 .rel.text.dtls_set_handshake_header
                0x000000000000761c        0x8 /usr/lib/gcc/i686-linux-gnu/4.8/../../../i386-linux-gnu/crti.o
 .rel.text.dtls_debug_keyblock
                0x0000000000007624       0x70 /usr/lib/gcc/i686-linux-gnu/4.8/../../../i386-linux-gnu/crti.o
 .rel.text.dtls_handshake_type_to_name
                0x0000000000007694       0x68 /usr/lib/gcc/i686-linux-gnu/4.8/../../../i386-linux-gnu/crti.o
 .rel.text.calculate_key_block
                0x00000000000076fc       0xb8 /usr/lib/gcc/i686-linux-gnu/4.8/../../../i386-linux-gnu/crti.o
 .rel.text.dtls_check_tls_extension
                0x00000000000077b4       0x30 /usr/lib/gcc/i686-linux-gnu/4.8/../../../i386-linux-gnu/crti.o
 .rel.text.dtls_update_parameters
                0x00000000000077e4       0x48 /usr/lib/gcc/i686-linux-gnu/4.8/../../../i386-linux-gnu/crti.o
 .rel.text.check_client_keyexchange
                0x000000000000782c       0x38 /usr/lib/gcc/i686-linux-gnu/4.8/../../../i386-linux-gnu/crti.o
 .rel.text.update_hs_hash
                0x0000000000007864       0x10 /usr/lib/gcc/i686-linux-gnu/4.8/../../../i386-linux-gnu/crti.o
 .rel.text.copy_hs_hash
                0x0000000000007874        0x8 /usr/lib/gcc/i686-linux-gnu/4.8/../../../i386-linux-gnu/crti.o
 .rel.text.clear_hs_hash
                0x000000000000787c       0x20 /usr/lib/gcc/i686-linux-gnu/4.8/../../../i386-linux-gnu/crti.o
 .rel.text.check_finished
                0x000000000000789c       0x58 /usr/lib/gcc/i686-linux-gnu/4.8/../../../i386-linux-gnu/crti.o
 .rel.text.dtls_prepare_record
                0x00000000000078f4      0x130 /usr/lib/gcc/i686-linux-gnu/4.8/../../../i386-linux-gnu/crti.o
 .rel.text.dtls_send_handshake_msg_hash
                0x0000000000007a24       0x18 /usr/lib/gcc/i686-linux-gnu/4.8/../../../i386-linux-gnu/crti.o
 .rel.text.dtls_encrypt_data
                0x0000000000007a3c       0x20 /usr/lib/gcc/i686-linux-gnu/4.8/../../../i386-linux-gnu/crti.o
 .rel.text.dtls_encrypt_x
                0x0000000000007a5c       0x10 /usr/lib/gcc/i686-linux-gnu/4.8/../../../i386-linux-gnu/crti.o
 .rel.text.dtls_prepare_record_x
                0x0000000000007a6c       0x80 /usr/lib/gcc/i686-linux-gnu/4.8/../../../i386-linux-gnu/crti.o
 .rel.text.dtls_send_multi
                0x0000000000007aec       0x98 /usr/lib/gcc/i686-linux-gnu/4.8/../../../i386-linux-gnu/crti.o
 .rel.text.dtls_close
                0x0000000000007b84       0x30 /usr/lib/gcc/i686-linux-gnu/4.8/../../../i386-linux-gnu/crti.o
 .rel.text.dtls_destroy_peer
                0x0000000000007bb4       0x28 /usr/lib/gcc/i686-linux-gnu/4.8/../../../i386-linux-gnu/crti.o
 .rel.text.dtls_verify_peer
                0x0000000000007bdc       0xa0 /usr/lib/gcc/i686-linux-gnu/4.8/../../../i386-linux-gnu/crti.o
 .rel.text.dtls_send_server_hello
                0x0000000000007c7c       0x30 /usr/lib/gcc/i686-linux-gnu/4.8/../../../i386-linux-gnu/crti.o
 .rel.text.dtls_send_server_key_exchange_psk
                0x0000000000007cac       0x40 /usr/lib/gcc/i686-linux-gnu/4.8/../../../i386-linux-gnu/crti.o
 .rel.text.dtls_send_server_hello_msgs
                0x0000000000007cec       0x48 /usr/lib/gcc/i686-linux-gnu/4.8/../../../i386-linux-gnu/crti.o
 .rel.text.dtls_send_client_key_exchange
                0x0000000000007d34       0x60 /usr/lib/gcc/i686-linux-gnu/4.8/../../../i386-linux-gnu/crti.o
 .rel.text.dtls_send_finished
                0x0000000000007d94       0x38 /usr/lib/gcc/i686-linux-gnu/4.8/../../../i386-linux-gnu/crti.o
 .rel.text.dtls_send_client_hello
                0x0000000000007dcc       0x50 /usr/lib/gcc/i686-linux-gnu/4.8/../../../i386-linux-gnu/crti.o
 .rel.text.check_server_hello
                0x0000000000007e1c       0x38 /usr/lib/gcc/i686-linux-gnu/4.8/../../../i386-linux-gnu/crti.o
 .rel.text.check_server_hello_verify_request
                0x0000000000007e54       0x10 /usr/lib/gcc/i686-linux-gnu/4.8/../../../i386-linux-gnu/crti.o
 .rel.text.check_server_key_exchange_psk
                0x0000000000007e64       0x48 /usr/lib/gcc/i686-linux-gnu/4.8/../../../i386-linux-gnu/crti.o
 .rel.text.check_certificate_request
                0x0000000000007eac       0x60 /usr/lib/gcc/i686-linux-gnu/4.8/../../../i386-linux-gnu/crti.o
 .rel.text.check_server_hellodone
                0x0000000000007f0c       0x28 /usr/lib/gcc/i686-linux-gnu/4.8/../../../i386-linux-gnu/crti.o
 .rel.text.decrypt_verify
                0x0000000000007f34       0xc8 /usr/lib/gcc/i686-linux-gnu/4.8/../../../i386-linux-gnu/crti.o
 .rel.text.dtls_renegotiate
                0x0000000000007ffc       0x20 /usr/lib/gcc/i686-linux-gnu/4.8/../../../i386-linux-gnu/crti.o
 .rel.text.handle_handshake_msg
                0x000000000000801c      0x150 /usr/lib/gcc/i686-linux-gnu/4.8/../../../i386-linux-gnu/crti.o
 .rel.text.handle_handshake
                0x000000000000816c       0xe8 /usr/lib/gcc/i686-linux-gnu/4.8/../../../i386-linux-gnu/crti.o
 .rel.text.handle_ccs
                0x0000000000008254       0x10 /usr/lib/gcc/i686-linux-gnu/4.8/../../../i386-linux-gnu/crti.o
 .rel.text.handle_alert
                0x0000000000008264       0x48 /usr/lib/gcc/i686-linux-gnu/4.8/../../../i386-linux-gnu/crti.o
 .rel.text.dtls_alert_send_from_err
                0x00000000000082ac       0x10 /usr/lib/gcc/i686-linux-gnu/4.8/../../../i386-linux-gnu/crti.o
 .rel.text.dtls_handle_message
                0x00000000000082bc      0x180 /usr/lib/gcc/i686-linux-gnu/4.8/../../../i386-linux-gnu/crti.o
 .rel.text.dtls_new_context
                0x000000000000843c       0x70 /usr/lib/gcc/i686-linux-gnu/4.8/../../../i386-linux-gnu/crti.o
 .rel.text.dtls_free_context
                0x00000000000084ac       0x20 /usr/lib/gcc/i686-linux-gnu/4.8/../../../i386-linux-gnu/crti.o
 .rel.text.dtls_connect_peer
                0x00000000000084cc       0x50 /usr/lib/gcc/i686-linux-gnu/4.8/../../../i386-linux-gnu/crti.o
 .rel.text.dtls_connect
                0x000000000000851c       0x38 /usr/lib/gcc/i686-linux-gnu/4.8/../../../i386-linux-gnu/crti.o
 .rel.text.dtls_retransmit
                0x0000000000008554       0x98 /usr/lib/gcc/i686-linux-gnu/4.8/../../../i386-linux-gnu/crti.o
 .rel.text.dtls_stop_retransmission
                0x00000000000085ec       0x30 /usr/lib/gcc/i686-linux-gnu/4.8/../../../i386-linux-gnu/crti.o
 .rel.text.dtls_check_retransmit
                0x000000000000861c       0x20 /usr/lib/gcc/i686-linux-gnu/4.8/../../../i386-linux-gnu/crti.o
 .rel.text.process_thread_dtls_retransmit_process
                0x000000000000863c       0xb0 /usr/lib/gcc/i686-linux-gnu/4.8/../../../i386-linux-gnu/crti.o
 .rel.text.dtls_cipher_context_get
                0x00000000000086ec        0x8 /usr/lib/gcc/i686-linux-gnu/4.8/../../../i386-linux-gnu/crti.o
 .rel.text.dtls_crypto_init
                0x00000000000086f4       0x20 /usr/lib/gcc/i686-linux-gnu/4.8/../../../i386-linux-gnu/crti.o
 .rel.text.dtls_handshake_malloc
                0x0000000000008714       0x10 /usr/lib/gcc/i686-linux-gnu/4.8/../../../i386-linux-gnu/crti.o
 .rel.text.dtls_handshake_dealloc
                0x0000000000008724       0x10 /usr/lib/gcc/i686-linux-gnu/4.8/../../../i386-linux-gnu/crti.o
 .rel.text.dtls_security_malloc
                0x0000000000008734       0x10 /usr/lib/gcc/i686-linux-gnu/4.8/../../../i386-linux-gnu/crti.o
 .rel.text.dtls_security_dealloc
                0x0000000000008744       0x10 /usr/lib/gcc/i686-linux-gnu/4.8/../../../i386-linux-gnu/crti.o
 .rel.text.dtls_handshake_new
                0x0000000000008754       0x28 /usr/lib/gcc/i686-linux-gnu/4.8/../../../i386-linux-gnu/crti.o
 .rel.text.dtls_handshake_free
                0x000000000000877c        0x8 /usr/lib/gcc/i686-linux-gnu/4.8/../../../i386-linux-gnu/crti.o
 .rel.text.dtls_security_new
                0x0000000000008784       0x18 /usr/lib/gcc/i686-linux-gnu/4.8/../../../i386-linux-gnu/crti.o
 .rel.text.dtls_p_hash
                0x000000000000879c       0xd0 /usr/lib/gcc/i686-linux-gnu/4.8/../../../i386-linux-gnu/crti.o
 .rel.text.dtls_prf
                0x000000000000886c       0x10 /usr/lib/gcc/i686-linux-gnu/4.8/../../../i386-linux-gnu/crti.o
 .rel.text.dtls_prf_custom
                0x000000000000887c       0x18 /usr/lib/gcc/i686-linux-gnu/4.8/../../../i386-linux-gnu/crti.o
 .rel.text.dtls_mac
                0x0000000000008894       0x38 /usr/lib/gcc/i686-linux-gnu/4.8/../../../i386-linux-gnu/crti.o
 .rel.text.dtls_ccm_encrypt
                0x00000000000088cc       0x18 /usr/lib/gcc/i686-linux-gnu/4.8/../../../i386-linux-gnu/crti.o
 .rel.text.dtls_ccm_decrypt
                0x00000000000088e4       0x18 /usr/lib/gcc/i686-linux-gnu/4.8/../../../i386-linux-gnu/crti.o
 .rel.text.dtls_psk_pre_master_secret
                0x00000000000088fc       0x18 /usr/lib/gcc/i686-linux-gnu/4.8/../../../i386-linux-gnu/crti.o
 .rel.text.dtls_encrypt
                0x0000000000008914       0x20 /usr/lib/gcc/i686-linux-gnu/4.8/../../../i386-linux-gnu/crti.o
 .rel.text.dtls_decrypt
                0x0000000000008934       0x20 /usr/lib/gcc/i686-linux-gnu/4.8/../../../i386-linux-gnu/crti.o
 .rel.text.dtls_hmac_context_new
                0x0000000000008954       0x10 /usr/lib/gcc/i686-linux-gnu/4.8/../../../i386-linux-gnu/crti.o
 .rel.text.dtls_hmac_context_free
                0x0000000000008964       0x10 /usr/lib/gcc/i686-linux-gnu/4.8/../../../i386-linux-gnu/crti.o
 .rel.text.dtls_hmac_storage_init
                0x0000000000008974       0x10 /usr/lib/gcc/i686-linux-gnu/4.8/../../../i386-linux-gnu/crti.o
 .rel.text.dtls_hmac_update
                0x0000000000008984       0x10 /usr/lib/gcc/i686-linux-gnu/4.8/../../../i386-linux-gnu/crti.o
 .rel.text.dtls_hmac_new
                0x0000000000008994        0x8 /usr/lib/gcc/i686-linux-gnu/4.8/../../../i386-linux-gnu/crti.o
 .rel.text.dtls_hmac_init
                0x000000000000899c       0x28 /usr/lib/gcc/i686-linux-gnu/4.8/../../../i386-linux-gnu/crti.o
 .rel.text.dtls_hmac_finalize
                0x00000000000089c4       0x28 /usr/lib/gcc/i686-linux-gnu/4.8/../../../i386-linux-gnu/crti.o
 .rel.text.netq_malloc_node
                0x00000000000089ec       0x10 /usr/lib/gcc/i686-linux-gnu/4.8/../../../i386-linux-gnu/crti.o
 .rel.text.netq_free_node
                0x00000000000089fc       0x10 /usr/lib/gcc/i686-linux-gnu/4.8/../../../i386-linux-gnu/crti.o
 .rel.text.netq_init
                0x0000000000008a0c       0x10 /usr/lib/gcc/i686-linux-gnu/4.8/../../../i386-linux-gnu/crti.o
 .rel.text.netq_insert_node
                0x0000000000008a1c       0x48 /usr/lib/gcc/i686-linux-gnu/4.8/../../../i386-linux-gnu/crti.o
 .rel.text.netq_head
                0x0000000000008a64        0x8 /usr/lib/gcc/i686-linux-gnu/4.8/../../../i386-linux-gnu/crti.o
 .rel.text.netq_next
                0x0000000000008a6c        0x8 /usr/lib/gcc/i686-linux-gnu/4.8/../../../i386-linux-gnu/crti.o
 .rel.text.netq_remove
                0x0000000000008a74        0x8 /usr/lib/gcc/i686-linux-gnu/4.8/../../../i386-linux-gnu/crti.o
 .rel.text.netq_pop_first
                0x0000000000008a7c        0x8 /usr/lib/gcc/i686-linux-gnu/4.8/../../../i386-linux-gnu/crti.o
 .rel.text.netq_node_new
                0x0000000000008a84       0x18 /usr/lib/gcc/i686-linux-gnu/4.8/../../../i386-linux-gnu/crti.o
 .rel.text.netq_delete_all
                0x0000000000008a9c        0x8 /usr/lib/gcc/i686-linux-gnu/4.8/../../../i386-linux-gnu/crti.o
 .rel.text.dtls_clock_init
                0x0000000000008aa4       0x10 /usr/lib/gcc/i686-linux-gnu/4.8/../../../i386-linux-gnu/crti.o
 .rel.text.dtls_ticks
                0x0000000000008ab4        0x8 /usr/lib/gcc/i686-linux-gnu/4.8/../../../i386-linux-gnu/crti.o
 .rel.text.peer_init
                0x0000000000008abc       0x10 /usr/lib/gcc/i686-linux-gnu/4.8/../../../i386-linux-gnu/crti.o
 .rel.text.dtls_malloc_peer
                0x0000000000008acc       0x10 /usr/lib/gcc/i686-linux-gnu/4.8/../../../i386-linux-gnu/crti.o
 .rel.text.dtls_free_peer
                0x0000000000008adc       0x28 /usr/lib/gcc/i686-linux-gnu/4.8/../../../i386-linux-gnu/crti.o
 .rel.text.dtls_new_peer
                0x0000000000008b04       0x30 /usr/lib/gcc/i686-linux-gnu/4.8/../../../i386-linux-gnu/crti.o
 .rel.text.dtls_session_init
                0x0000000000008b34       0x18 /usr/lib/gcc/i686-linux-gnu/4.8/../../../i386-linux-gnu/crti.o
 .rel.text.dtls_session_equals
                0x0000000000008b4c       0x28 /usr/lib/gcc/i686-linux-gnu/4.8/../../../i386-linux-gnu/crti.o
 .rel.text.rijndaelKeySetupEnc
                0x0000000000008b74       0x98 /usr/lib/gcc/i686-linux-gnu/4.8/../../../i386-linux-gnu/crti.o
 .rel.text.rijndaelEncrypt
                0x0000000000008c0c      0x180 /usr/lib/gcc/i686-linux-gnu/4.8/../../../i386-linux-gnu/crti.o
 .rel.text.rijndael_set_key_enc_only
                0x0000000000008d8c        0x8 /usr/lib/gcc/i686-linux-gnu/4.8/../../../i386-linux-gnu/crti.o
 .rel.text.rijndael_encrypt
                0x0000000000008d94        0x8 /usr/lib/gcc/i686-linux-gnu/4.8/../../../i386-linux-gnu/crti.o
 .rel.text.block0
                0x0000000000008d9c        0x8 /usr/lib/gcc/i686-linux-gnu/4.8/../../../i386-linux-gnu/crti.o
 .rel.text.add_auth_data
                0x0000000000008da4       0x50 /usr/lib/gcc/i686-linux-gnu/4.8/../../../i386-linux-gnu/crti.o
 .rel.text.encrypt
                0x0000000000008df4       0x38 /usr/lib/gcc/i686-linux-gnu/4.8/../../../i386-linux-gnu/crti.o
 .rel.text.mac  0x0000000000008e2c        0x8 /usr/lib/gcc/i686-linux-gnu/4.8/../../../i386-linux-gnu/crti.o
 .rel.text.dtls_ccm_encrypt_message
                0x0000000000008e34       0x28 /usr/lib/gcc/i686-linux-gnu/4.8/../../../i386-linux-gnu/crti.o
 .rel.text.dtls_ccm_decrypt_message
                0x0000000000008e5c       0x28 /usr/lib/gcc/i686-linux-gnu/4.8/../../../i386-linux-gnu/crti.o
 .rel.text.SHA256_Init
                0x0000000000008e84       0x18 /usr/lib/gcc/i686-linux-gnu/4.8/../../../i386-linux-gnu/crti.o
 .rel.text.SHA256_Transform
                0x0000000000008e9c       0x10 /usr/lib/gcc/i686-linux-gnu/4.8/../../../i386-linux-gnu/crti.o
 .rel.text.SHA256_Update
                0x0000000000008eac       0x38 /usr/lib/gcc/i686-linux-gnu/4.8/../../../i386-linux-gnu/crti.o
 .rel.text.SHA256_Final
                0x0000000000008ee4       0x48 /usr/lib/gcc/i686-linux-gnu/4.8/../../../i386-linux-gnu/crti.o
 .rel.text.SHA256_End
                0x0000000000008f2c       0x40 /usr/lib/gcc/i686-linux-gnu/4.8/../../../i386-linux-gnu/crti.o
 .rel.text.SHA256_Data
                0x0000000000008f6c       0x20 /usr/lib/gcc/i686-linux-gnu/4.8/../../../i386-linux-gnu/crti.o
 .rel.text.dtls_package_name
                0x0000000000008f8c        0x8 /usr/lib/gcc/i686-linux-gnu/4.8/../../../i386-linux-gnu/crti.o
 .rel.text.dtls_package_version
                0x0000000000008f94        0x8 /usr/lib/gcc/i686-linux-gnu/4.8/../../../i386-linux-gnu/crti.o
 .rel.text.dtls_get_log_level
                0x0000000000008f9c        0x8 /usr/lib/gcc/i686-linux-gnu/4.8/../../../i386-linux-gnu/crti.o
 .rel.text.dtls_set_log_level
                0x0000000000008fa4        0x8 /usr/lib/gcc/i686-linux-gnu/4.8/../../../i386-linux-gnu/crti.o
 .rel.text.dsrv_print_addr
                0x0000000000008fac       0x20 /usr/lib/gcc/i686-linux-gnu/4.8/../../../i386-linux-gnu/crti.o
 .rel.text.hexdump
                0x0000000000008fcc       0x40 /usr/lib/gcc/i686-linux-gnu/4.8/../../../i386-linux-gnu/crti.o
 .rel.text.dump
                0x000000000000900c       0x10 /usr/lib/gcc/i686-linux-gnu/4.8/../../../i386-linux-gnu/crti.o
 .rel.text.dtls_dsrv_log_addr
                0x000000000000901c       0x18 /usr/lib/gcc/i686-linux-gnu/4.8/../../../i386-linux-gnu/crti.o
 .rel.text.dtls_dsrv_hexdump_log
                0x0000000000009034       0xc8 /usr/lib/gcc/i686-linux-gnu/4.8/../../../i386-linux-gnu/crti.o
 .rel.text.doActionsBeforeTick
                0x00000000000090fc       0x10 /usr/lib/gcc/i686-linux-gnu/4.8/../../../i386-linux-gnu/crti.o
 .rel.text.doActionsAfterTick
                0x000000000000910c       0x10 /usr/lib/gcc/i686-linux-gnu/4.8/../../../i386-linux-gnu/crti.o
 .rel.text.cooja_mt_init
                0x000000000000911c        0x8 /usr/lib/gcc/i686-linux-gnu/4.8/../../../i386-linux-gnu/crti.o
 .rel.text.cooja_mt_remove
                0x0000000000009124        0x8 /usr/lib/gcc/i686-linux-gnu/4.8/../../../i386-linux-gnu/crti.o
 .rel.text.cooja_mt_start
                0x000000000000912c        0x8 /usr/lib/gcc/i686-linux-gnu/4.8/../../../i386-linux-gnu/crti.o
 .rel.text.cooja_mt_exec
                0x0000000000009134       0x10 /usr/lib/gcc/i686-linux-gnu/4.8/../../../i386-linux-gnu/crti.o
 .rel.text.cooja_mt_exit
                0x0000000000009144       0x18 /usr/lib/gcc/i686-linux-gnu/4.8/../../../i386-linux-gnu/crti.o
 .rel.text.cooja_mt_yield
                0x000000000000915c       0x18 /usr/lib/gcc/i686-linux-gnu/4.8/../../../i386-linux-gnu/crti.o
 .rel.text.cooja_mtarch_start
                0x0000000000009174        0x8 /usr/lib/gcc/i686-linux-gnu/4.8/../../../i386-linux-gnu/crti.o
 .rel.text.cooja_sw
                0x000000000000917c        0x8 /usr/lib/gcc/i686-linux-gnu/4.8/../../../i386-linux-gnu/crti.o
 .rel.text.cooja_mtarch_exec
                0x0000000000009184       0x18 /usr/lib/gcc/i686-linux-gnu/4.8/../../../i386-linux-gnu/crti.o
 .rel.text.cooja_mtarch_yield
                0x000000000000919c        0x8 /usr/lib/gcc/i686-linux-gnu/4.8/../../../i386-linux-gnu/crti.o
 .rel.text.rtimer_arch_init
                0x00000000000091a4       0x18 /usr/lib/gcc/i686-linux-gnu/4.8/../../../i386-linux-gnu/crti.o
 .rel.text.rtimer_arch_schedule
                0x00000000000091bc       0x18 /usr/lib/gcc/i686-linux-gnu/4.8/../../../i386-linux-gnu/crti.o
 .rel.text.rtimer_arch_next
                0x00000000000091d4       0x10 /usr/lib/gcc/i686-linux-gnu/4.8/../../../i386-linux-gnu/crti.o
 .rel.text.rtimer_arch_pending
                0x00000000000091e4        0x8 /usr/lib/gcc/i686-linux-gnu/4.8/../../../i386-linux-gnu/crti.o
 .rel.text.rtimer_arch_check
                0x00000000000091ec       0x30 /usr/lib/gcc/i686-linux-gnu/4.8/../../../i386-linux-gnu/crti.o
 .rel.text.rtimer_arch_now
                0x000000000000921c       0x10 /usr/lib/gcc/i686-linux-gnu/4.8/../../../i386-linux-gnu/crti.o
 .rel.text.beep_alarm
                0x000000000000922c        0x8 /usr/lib/gcc/i686-linux-gnu/4.8/../../../i386-linux-gnu/crti.o
 .rel.text.beep_beep
                0x0000000000009234        0x8 /usr/lib/gcc/i686-linux-gnu/4.8/../../../i386-linux-gnu/crti.o
 .rel.text.beep
                0x000000000000923c        0x8 /usr/lib/gcc/i686-linux-gnu/4.8/../../../i386-linux-gnu/crti.o
 .rel.text.beep_down
                0x0000000000009244        0x8 /usr/lib/gcc/i686-linux-gnu/4.8/../../../i386-linux-gnu/crti.o
 .rel.text.beep_on
                0x000000000000924c        0x8 /usr/lib/gcc/i686-linux-gnu/4.8/../../../i386-linux-gnu/crti.o
 .rel.text.beep_off
                0x0000000000009254        0x8 /usr/lib/gcc/i686-linux-gnu/4.8/../../../i386-linux-gnu/crti.o
 .rel.text.beep_spinup
                0x000000000000925c        0x8 /usr/lib/gcc/i686-linux-gnu/4.8/../../../i386-linux-gnu/crti.o
 .rel.text.beep_quick
                0x0000000000009264        0x8 /usr/lib/gcc/i686-linux-gnu/4.8/../../../i386-linux-gnu/crti.o
 .rel.text.beep_long
                0x000000000000926c        0x8 /usr/lib/gcc/i686-linux-gnu/4.8/../../../i386-linux-gnu/crti.o
 .rel.text.value
                0x0000000000009274       0x28 /usr/lib/gcc/i686-linux-gnu/4.8/../../../i386-linux-gnu/crti.o
 .rel.text.configure
                0x000000000000929c       0x40 /usr/lib/gcc/i686-linux-gnu/4.8/../../../i386-linux-gnu/crti.o
 .rel.text.status
                0x00000000000092dc       0x18 /usr/lib/gcc/i686-linux-gnu/4.8/../../../i386-linux-gnu/crti.o
 .rel.text.doInterfaceActionsBeforeTick
                0x00000000000092f4      0x188 /usr/lib/gcc/i686-linux-gnu/4.8/../../../i386-linux-gnu/crti.o
 .rel.text.leds_arch_init
                0x000000000000947c        0x8 /usr/lib/gcc/i686-linux-gnu/4.8/../../../i386-linux-gnu/crti.o
 .rel.text.leds_arch_get
                0x0000000000009484        0x8 /usr/lib/gcc/i686-linux-gnu/4.8/../../../i386-linux-gnu/crti.o
 .rel.text.leds_arch_set
                0x000000000000948c       0x10 /usr/lib/gcc/i686-linux-gnu/4.8/../../../i386-linux-gnu/crti.o
 .rel.text.rs232_set_input
                0x000000000000949c        0x8 /usr/lib/gcc/i686-linux-gnu/4.8/../../../i386-linux-gnu/crti.o
 .rel.text.rs232_send
                0x00000000000094a4       0x10 /usr/lib/gcc/i686-linux-gnu/4.8/../../../i386-linux-gnu/crti.o
 .rel.text.rs232_print
                0x00000000000094b4       0x10 /usr/lib/gcc/i686-linux-gnu/4.8/../../../i386-linux-gnu/crti.o
 .rel.text.slip_arch_writeb
                0x00000000000094c4        0x8 /usr/lib/gcc/i686-linux-gnu/4.8/../../../i386-linux-gnu/crti.o
 .rel.text.clock_time
                0x00000000000094cc        0x8 /usr/lib/gcc/i686-linux-gnu/4.8/../../../i386-linux-gnu/crti.o
 .rel.text.clock_seconds
                0x00000000000094d4        0x8 /usr/lib/gcc/i686-linux-gnu/4.8/../../../i386-linux-gnu/crti.o
 .rel.text.simlog_char
                0x00000000000094dc       0x30 /usr/lib/gcc/i686-linux-gnu/4.8/../../../i386-linux-gnu/crti.o
 .rel.text.simlog
                0x000000000000950c       0x50 /usr/lib/gcc/i686-linux-gnu/4.8/../../../i386-linux-gnu/crti.o
 .rel.text.log_message
                0x000000000000955c       0x10 /usr/lib/gcc/i686-linux-gnu/4.8/../../../i386-linux-gnu/crti.o
 .rel.text.log_set_putchar_with_slip
                0x000000000000956c        0x8 /usr/lib/gcc/i686-linux-gnu/4.8/../../../i386-linux-gnu/crti.o
 .rel.text.putchar
                0x0000000000009574       0x50 /usr/lib/gcc/i686-linux-gnu/4.8/../../../i386-linux-gnu/crti.o
 .rel.text.puts
                0x00000000000095c4       0x10 /usr/lib/gcc/i686-linux-gnu/4.8/../../../i386-linux-gnu/crti.o
 .rel.text.printf
                0x00000000000095d4       0x20 /usr/lib/gcc/i686-linux-gnu/4.8/../../../i386-linux-gnu/crti.o
 .rel.text.cfs_open
                0x00000000000095f4       0x48 /usr/lib/gcc/i686-linux-gnu/4.8/../../../i386-linux-gnu/crti.o
 .rel.text.cfs_close
                0x000000000000963c        0x8 /usr/lib/gcc/i686-linux-gnu/4.8/../../../i386-linux-gnu/crti.o
 .rel.text.cfs_read
                0x0000000000009644       0x70 /usr/lib/gcc/i686-linux-gnu/4.8/../../../i386-linux-gnu/crti.o
 .rel.text.cfs_write
                0x00000000000096b4       0xb0 /usr/lib/gcc/i686-linux-gnu/4.8/../../../i386-linux-gnu/crti.o
 .rel.text.cfs_seek
                0x0000000000009764       0x68 /usr/lib/gcc/i686-linux-gnu/4.8/../../../i386-linux-gnu/crti.o
 .rel.text.cfs_remove
                0x00000000000097cc       0x10 /usr/lib/gcc/i686-linux-gnu/4.8/../../../i386-linux-gnu/crti.o
 .rel.text.packetbuf_set_attr
                0x00000000000097dc       0x30 /usr/lib/gcc/i686-linux-gnu/4.8/../../../i386-linux-gnu/crti.o
 .rel.text.set_send_on_cca
                0x000000000000980c        0x8 /usr/lib/gcc/i686-linux-gnu/4.8/../../../i386-linux-gnu/crti.o
 .rel.text.set_frame_filtering
                0x0000000000009814        0x8 /usr/lib/gcc/i686-linux-gnu/4.8/../../../i386-linux-gnu/crti.o
 .rel.text.set_auto_ack
                0x000000000000981c        0x8 /usr/lib/gcc/i686-linux-gnu/4.8/../../../i386-linux-gnu/crti.o
 .rel.text.set_poll_mode
                0x0000000000009824        0x8 /usr/lib/gcc/i686-linux-gnu/4.8/../../../i386-linux-gnu/crti.o
 .rel.text.radio_set_channel
                0x000000000000982c        0x8 /usr/lib/gcc/i686-linux-gnu/4.8/../../../i386-linux-gnu/crti.o
 .rel.text.radio_set_txpower
                0x0000000000009834        0x8 /usr/lib/gcc/i686-linux-gnu/4.8/../../../i386-linux-gnu/crti.o
 .rel.text.radio_signal_strength_last
                0x000000000000983c        0x8 /usr/lib/gcc/i686-linux-gnu/4.8/../../../i386-linux-gnu/crti.o
 .rel.text.radio_signal_strength_current
                0x0000000000009844        0x8 /usr/lib/gcc/i686-linux-gnu/4.8/../../../i386-linux-gnu/crti.o
 .rel.text.radio_LQI
                0x000000000000984c        0x8 /usr/lib/gcc/i686-linux-gnu/4.8/../../../i386-linux-gnu/crti.o
 .rel.text.radio_on
                0x0000000000009854        0x8 /usr/lib/gcc/i686-linux-gnu/4.8/../../../i386-linux-gnu/crti.o
 .rel.text.radio_off
                0x000000000000985c        0x8 /usr/lib/gcc/i686-linux-gnu/4.8/../../../i386-linux-gnu/crti.o
 .rel.text.radio_read
                0x0000000000009864       0x68 /usr/lib/gcc/i686-linux-gnu/4.8/../../../i386-linux-gnu/crti.o
 .rel.text.channel_clear
                0x00000000000098cc        0x8 /usr/lib/gcc/i686-linux-gnu/4.8/../../../i386-linux-gnu/crti.o
 .rel.text.radio_send
                0x00000000000098d4       0x78 /usr/lib/gcc/i686-linux-gnu/4.8/../../../i386-linux-gnu/crti.o
 .rel.text.prepare_packet
                0x000000000000994c        0x8 /usr/lib/gcc/i686-linux-gnu/4.8/../../../i386-linux-gnu/crti.o
 .rel.text.transmit_packet
                0x0000000000009954       0x10 /usr/lib/gcc/i686-linux-gnu/4.8/../../../i386-linux-gnu/crti.o
 .rel.text.receiving_packet
                0x0000000000009964        0x8 /usr/lib/gcc/i686-linux-gnu/4.8/../../../i386-linux-gnu/crti.o
 .rel.text.pending_packet
                0x000000000000996c       0x10 /usr/lib/gcc/i686-linux-gnu/4.8/../../../i386-linux-gnu/crti.o
 .rel.text.process_thread_cooja_radio_process
                0x000000000000997c       0x28 /usr/lib/gcc/i686-linux-gnu/4.8/../../../i386-linux-gnu/crti.o
 .rel.text.init
                0x00000000000099a4       0x60 /usr/lib/gcc/i686-linux-gnu/4.8/../../../i386-linux-gnu/crti.o
 .rel.text.get_value
                0x0000000000009a04       0x30 /usr/lib/gcc/i686-linux-gnu/4.8/../../../i386-linux-gnu/crti.o
 .rel.text.set_value
                0x0000000000009a34        0x8 /usr/lib/gcc/i686-linux-gnu/4.8/../../../i386-linux-gnu/crti.o
 .rel.text.get_object
                0x0000000000009a3c       0x10 /usr/lib/gcc/i686-linux-gnu/4.8/../../../i386-linux-gnu/crti.o
 .rel.text.eeprom_read
                0x0000000000009a4c       0x28 /usr/lib/gcc/i686-linux-gnu/4.8/../../../i386-linux-gnu/crti.o
 .rel.text.eeprom_write
                0x0000000000009a74       0x28 /usr/lib/gcc/i686-linux-gnu/4.8/../../../i386-linux-gnu/crti.o
 .rel.text.random_init
                0x0000000000009a9c        0x8 /usr/lib/gcc/i686-linux-gnu/4.8/../../../i386-linux-gnu/crti.o
 .rel.text.random_rand
                0x0000000000009aa4        0x8 /usr/lib/gcc/i686-linux-gnu/4.8/../../../i386-linux-gnu/crti.o
 .rel.text.get_sensor_index
                0x0000000000009aac       0x10 /usr/lib/gcc/i686-linux-gnu/4.8/../../../i386-linux-gnu/crti.o
 .rel.text.sensors_first
                0x0000000000009abc        0x8 /usr/lib/gcc/i686-linux-gnu/4.8/../../../i386-linux-gnu/crti.o
 .rel.text.sensors_next
                0x0000000000009ac4        0x8 /usr/lib/gcc/i686-linux-gnu/4.8/../../../i386-linux-gnu/crti.o
 .rel.text.sensors_changed
                0x0000000000009acc       0x20 /usr/lib/gcc/i686-linux-gnu/4.8/../../../i386-linux-gnu/crti.o
 .rel.text.sensors_find
                0x0000000000009aec       0x28 /usr/lib/gcc/i686-linux-gnu/4.8/../../../i386-linux-gnu/crti.o
 .rel.text.process_thread_sensors_process
                0x0000000000009b14      0x108 /usr/lib/gcc/i686-linux-gnu/4.8/../../../i386-linux-gnu/crti.o
 .rel.text.autostart_start
                0x0000000000009c1c        0x8 /usr/lib/gcc/i686-linux-gnu/4.8/../../../i386-linux-gnu/crti.o
 .rel.text.autostart_exit
                0x0000000000009c24        0x8 /usr/lib/gcc/i686-linux-gnu/4.8/../../../i386-linux-gnu/crti.o
 .rel.text.process_thread_ctimer_process
                0x0000000000009c2c       0x58 /usr/lib/gcc/i686-linux-gnu/4.8/../../../i386-linux-gnu/crti.o
 .rel.text.ctimer_init
                0x0000000000009c84       0x28 /usr/lib/gcc/i686-linux-gnu/4.8/../../../i386-linux-gnu/crti.o
 .rel.text.ctimer_set
                0x0000000000009cac       0x10 /usr/lib/gcc/i686-linux-gnu/4.8/../../../i386-linux-gnu/crti.o
 .rel.text.ctimer_set_with_process
                0x0000000000009cbc       0x40 /usr/lib/gcc/i686-linux-gnu/4.8/../../../i386-linux-gnu/crti.o
 .rel.text.ctimer_reset
                0x0000000000009cfc       0x40 /usr/lib/gcc/i686-linux-gnu/4.8/../../../i386-linux-gnu/crti.o
 .rel.text.ctimer_restart
                0x0000000000009d3c       0x40 /usr/lib/gcc/i686-linux-gnu/4.8/../../../i386-linux-gnu/crti.o
 .rel.text.ctimer_stop
                0x0000000000009d7c       0x20 /usr/lib/gcc/i686-linux-gnu/4.8/../../../i386-linux-gnu/crti.o
 .rel.text.ctimer_expired
                0x0000000000009d9c       0x20 /usr/lib/gcc/i686-linux-gnu/4.8/../../../i386-linux-gnu/crti.o
 .rel.text.update_time
                0x0000000000009dbc       0x28 /usr/lib/gcc/i686-linux-gnu/4.8/../../../i386-linux-gnu/crti.o
 .rel.text.process_thread_etimer_process
                0x0000000000009de4       0x60 /usr/lib/gcc/i686-linux-gnu/4.8/../../../i386-linux-gnu/crti.o
 .rel.text.etimer_request_poll
                0x0000000000009e44       0x10 /usr/lib/gcc/i686-linux-gnu/4.8/../../../i386-linux-gnu/crti.o
 .rel.text.add_timer
                0x0000000000009e54       0x30 /usr/lib/gcc/i686-linux-gnu/4.8/../../../i386-linux-gnu/crti.o
 .rel.text.etimer_set
                0x0000000000009e84        0x8 /usr/lib/gcc/i686-linux-gnu/4.8/../../../i386-linux-gnu/crti.o
 .rel.text.etimer_reset_with_new_interval
                0x0000000000009e8c        0x8 /usr/lib/gcc/i686-linux-gnu/4.8/../../../i386-linux-gnu/crti.o
 .rel.text.etimer_reset
                0x0000000000009e94        0x8 /usr/lib/gcc/i686-linux-gnu/4.8/../../../i386-linux-gnu/crti.o
 .rel.text.etimer_restart
                0x0000000000009e9c        0x8 /usr/lib/gcc/i686-linux-gnu/4.8/../../../i386-linux-gnu/crti.o
 .rel.text.etimer_pending
                0x0000000000009ea4        0x8 /usr/lib/gcc/i686-linux-gnu/4.8/../../../i386-linux-gnu/crti.o
 .rel.text.etimer_next_expiration_time
                0x0000000000009eac       0x10 /usr/lib/gcc/i686-linux-gnu/4.8/../../../i386-linux-gnu/crti.o
 .rel.text.etimer_stop
                0x0000000000009ebc       0x20 /usr/lib/gcc/i686-linux-gnu/4.8/../../../i386-linux-gnu/crti.o
 .rel.text.process_alloc_event
                0x0000000000009edc       0x10 /usr/lib/gcc/i686-linux-gnu/4.8/../../../i386-linux-gnu/crti.o
 .rel.text.process_start
                0x0000000000009eec       0x20 /usr/lib/gcc/i686-linux-gnu/4.8/../../../i386-linux-gnu/crti.o
 .rel.text.exit_process
                0x0000000000009f0c       0x50 /usr/lib/gcc/i686-linux-gnu/4.8/../../../i386-linux-gnu/crti.o
 .rel.text.call_process
                0x0000000000009f5c        0x8 /usr/lib/gcc/i686-linux-gnu/4.8/../../../i386-linux-gnu/crti.o
 .rel.text.process_exit
                0x0000000000009f64        0x8 /usr/lib/gcc/i686-linux-gnu/4.8/../../../i386-linux-gnu/crti.o
 .rel.text.process_init
                0x0000000000009f6c       0x38 /usr/lib/gcc/i686-linux-gnu/4.8/../../../i386-linux-gnu/crti.o
 .rel.text.do_poll
                0x0000000000009fa4       0x10 /usr/lib/gcc/i686-linux-gnu/4.8/../../../i386-linux-gnu/crti.o
 .rel.text.do_event
                0x0000000000009fb4       0x68 /usr/lib/gcc/i686-linux-gnu/4.8/../../../i386-linux-gnu/crti.o
 .rel.text.process_run
                0x000000000000a01c       0x18 /usr/lib/gcc/i686-linux-gnu/4.8/../../../i386-linux-gnu/crti.o
 .rel.text.process_nevents
                0x000000000000a034       0x10 /usr/lib/gcc/i686-linux-gnu/4.8/../../../i386-linux-gnu/crti.o
 .rel.text.process_post
                0x000000000000a044       0x40 /usr/lib/gcc/i686-linux-gnu/4.8/../../../i386-linux-gnu/crti.o
 .rel.text.process_post_synch
                0x000000000000a084       0x10 /usr/lib/gcc/i686-linux-gnu/4.8/../../../i386-linux-gnu/crti.o
 .rel.text.process_poll
                0x000000000000a094        0x8 /usr/lib/gcc/i686-linux-gnu/4.8/../../../i386-linux-gnu/crti.o
 .rel.text.rtimer_init
                0x000000000000a09c        0x8 /usr/lib/gcc/i686-linux-gnu/4.8/../../../i386-linux-gnu/crti.o
 .rel.text.rtimer_set
                0x000000000000a0a4       0x18 /usr/lib/gcc/i686-linux-gnu/4.8/../../../i386-linux-gnu/crti.o
 .rel.text.rtimer_run_next
                0x000000000000a0bc       0x30 /usr/lib/gcc/i686-linux-gnu/4.8/../../../i386-linux-gnu/crti.o
 .rel.text.timer_set
                0x000000000000a0ec        0x8 /usr/lib/gcc/i686-linux-gnu/4.8/../../../i386-linux-gnu/crti.o
 .rel.text.timer_restart
                0x000000000000a0f4        0x8 /usr/lib/gcc/i686-linux-gnu/4.8/../../../i386-linux-gnu/crti.o
 .rel.text.timer_expired
                0x000000000000a0fc        0x8 /usr/lib/gcc/i686-linux-gnu/4.8/../../../i386-linux-gnu/crti.o
 .rel.text.timer_remaining
                0x000000000000a104        0x8 /usr/lib/gcc/i686-linux-gnu/4.8/../../../i386-linux-gnu/crti.o
 .rel.text.serial_line_input_byte
                0x000000000000a10c       0x48 /usr/lib/gcc/i686-linux-gnu/4.8/../../../i386-linux-gnu/crti.o
 .rel.text.process_thread_serial_line_process
                0x000000000000a154       0x90 /usr/lib/gcc/i686-linux-gnu/4.8/../../../i386-linux-gnu/crti.o
 .rel.text.serial_line_init
                0x000000000000a1e4       0x28 /usr/lib/gcc/i686-linux-gnu/4.8/../../../i386-linux-gnu/crti.o
 .rel.text._xassert
                0x000000000000a20c       0x10 /usr/lib/gcc/i686-linux-gnu/4.8/../../../i386-linux-gnu/crti.o
 .rel.text.list_add
                0x000000000000a21c       0x10 /usr/lib/gcc/i686-linux-gnu/4.8/../../../i386-linux-gnu/crti.o
 .rel.text.list_push
                0x000000000000a22c        0x8 /usr/lib/gcc/i686-linux-gnu/4.8/../../../i386-linux-gnu/crti.o
 .rel.text.list_insert
                0x000000000000a234        0x8 /usr/lib/gcc/i686-linux-gnu/4.8/../../../i386-linux-gnu/crti.o
 .rel.text.memb_init
                0x000000000000a23c       0x10 /usr/lib/gcc/i686-linux-gnu/4.8/../../../i386-linux-gnu/crti.o
 .rel.text.packetbuf_attr
                0x000000000000a24c       0x28 /usr/lib/gcc/i686-linux-gnu/4.8/../../../i386-linux-gnu/crti.o
 .rel.text.packetbuf_set_addr
                0x000000000000a274       0x30 /usr/lib/gcc/i686-linux-gnu/4.8/../../../i386-linux-gnu/crti.o
 .rel.text.packetbuf_addr
                0x000000000000a2a4       0x40 /usr/lib/gcc/i686-linux-gnu/4.8/../../../i386-linux-gnu/crti.o
 .rel.text.clear_fragments
                0x000000000000a2e4       0x20 /usr/lib/gcc/i686-linux-gnu/4.8/../../../i386-linux-gnu/crti.o
 .rel.text.timeout_fragments
                0x000000000000a304       0x18 /usr/lib/gcc/i686-linux-gnu/4.8/../../../i386-linux-gnu/crti.o
 .rel.text.store_fragment
                0x000000000000a31c       0x68 /usr/lib/gcc/i686-linux-gnu/4.8/../../../i386-linux-gnu/crti.o
 .rel.text.add_fragment
                0x000000000000a384       0x80 /usr/lib/gcc/i686-linux-gnu/4.8/../../../i386-linux-gnu/crti.o
 .rel.text.copy_frags2uip
                0x000000000000a404       0x58 /usr/lib/gcc/i686-linux-gnu/4.8/../../../i386-linux-gnu/crti.o
 .rel.text.rime_sniffer_add
                0x000000000000a45c        0x8 /usr/lib/gcc/i686-linux-gnu/4.8/../../../i386-linux-gnu/crti.o
 .rel.text.rime_sniffer_remove
                0x000000000000a464        0x8 /usr/lib/gcc/i686-linux-gnu/4.8/../../../i386-linux-gnu/crti.o
 .rel.text.set_packet_attrs
                0x000000000000a46c       0x60 /usr/lib/gcc/i686-linux-gnu/4.8/../../../i386-linux-gnu/crti.o
 .rel.text.addr_context_lookup_by_prefix
                0x000000000000a4cc       0x20 /usr/lib/gcc/i686-linux-gnu/4.8/../../../i386-linux-gnu/crti.o
 .rel.text.addr_context_lookup_by_number
                0x000000000000a4ec       0x18 /usr/lib/gcc/i686-linux-gnu/4.8/../../../i386-linux-gnu/crti.o
 .rel.text.compress_addr_64
                0x000000000000a504       0x40 /usr/lib/gcc/i686-linux-gnu/4.8/../../../i386-linux-gnu/crti.o
 .rel.text.uncompress_addr
                0x000000000000a544       0x38 /usr/lib/gcc/i686-linux-gnu/4.8/../../../i386-linux-gnu/crti.o
 .rel.text.compress_hdr_iphc
                0x000000000000a57c      0x5f8 /usr/lib/gcc/i686-linux-gnu/4.8/../../../i386-linux-gnu/crti.o
 .rel.text.uncompress_hdr_iphc
                0x000000000000ab74      0x2f0 /usr/lib/gcc/i686-linux-gnu/4.8/../../../i386-linux-gnu/crti.o
 .rel.text.compress_hdr_ipv6
                0x000000000000ae64       0x58 /usr/lib/gcc/i686-linux-gnu/4.8/../../../i386-linux-gnu/crti.o
 .rel.text.packet_sent
                0x000000000000aebc       0x38 /usr/lib/gcc/i686-linux-gnu/4.8/../../../i386-linux-gnu/crti.o
 .rel.text.send_packet
                0x000000000000aef4      0x120 /usr/lib/gcc/i686-linux-gnu/4.8/../../../i386-linux-gnu/crti.o
 .rel.text.output
                0x000000000000b014      0x2c8 /usr/lib/gcc/i686-linux-gnu/4.8/../../../i386-linux-gnu/crti.o
 .rel.text.input
                0x000000000000b2dc      0x200 /usr/lib/gcc/i686-linux-gnu/4.8/../../../i386-linux-gnu/crti.o
 .rel.text.sicslowpan_init
                0x000000000000b4dc       0x38 /usr/lib/gcc/i686-linux-gnu/4.8/../../../i386-linux-gnu/crti.o
 .rel.text.sicslowpan_get_last_rssi
                0x000000000000b514        0x8 /usr/lib/gcc/i686-linux-gnu/4.8/../../../i386-linux-gnu/crti.o
 .rel.text.uip_ds6_neighbors_init
                0x000000000000b51c       0x20 /usr/lib/gcc/i686-linux-gnu/4.8/../../../i386-linux-gnu/crti.o
 .rel.text.uip_ds6_nbr_add
                0x000000000000b53c       0x38 /usr/lib/gcc/i686-linux-gnu/4.8/../../../i386-linux-gnu/crti.o
 .rel.text.uip_ds6_nbr_rm
                0x000000000000b574       0x20 /usr/lib/gcc/i686-linux-gnu/4.8/../../../i386-linux-gnu/crti.o
 .rel.text.uip_ds6_nbr_get_ll
                0x000000000000b594       0x10 /usr/lib/gcc/i686-linux-gnu/4.8/../../../i386-linux-gnu/crti.o
 .rel.text.uip_ds6_nbr_num
                0x000000000000b5a4       0x20 /usr/lib/gcc/i686-linux-gnu/4.8/../../../i386-linux-gnu/crti.o
 .rel.text.uip_ds6_nbr_lookup
                0x000000000000b5c4       0x28 /usr/lib/gcc/i686-linux-gnu/4.8/../../../i386-linux-gnu/crti.o
 .rel.text.uip_ds6_nbr_ll_lookup
                0x000000000000b5ec       0x10 /usr/lib/gcc/i686-linux-gnu/4.8/../../../i386-linux-gnu/crti.o
 .rel.text.uip_ds6_nbr_ipaddr_from_lladdr
                0x000000000000b5fc        0x8 /usr/lib/gcc/i686-linux-gnu/4.8/../../../i386-linux-gnu/crti.o
 .rel.text.uip_ds6_nbr_lladdr_from_ipaddr
                0x000000000000b604       0x10 /usr/lib/gcc/i686-linux-gnu/4.8/../../../i386-linux-gnu/crti.o
 .rel.text.uip_ds6_link_neighbor_callback
                0x000000000000b614       0x20 /usr/lib/gcc/i686-linux-gnu/4.8/../../../i386-linux-gnu/crti.o
 .rel.text.uip_ds6_neighbor_periodic
                0x000000000000b634       0xb8 /usr/lib/gcc/i686-linux-gnu/4.8/../../../i386-linux-gnu/crti.o
 .rel.text.uip_ds6_nbr_refresh_reachable_state
                0x000000000000b6ec       0x10 /usr/lib/gcc/i686-linux-gnu/4.8/../../../i386-linux-gnu/crti.o
 .rel.text.uip_ds6_get_least_lifetime_neighbor
                0x000000000000b6fc       0x30 /usr/lib/gcc/i686-linux-gnu/4.8/../../../i386-linux-gnu/crti.o
 .rel.text.call_route_callback
                0x000000000000b72c       0x30 /usr/lib/gcc/i686-linux-gnu/4.8/../../../i386-linux-gnu/crti.o
 .rel.text.uip_ds6_notification_add
                0x000000000000b75c       0x10 /usr/lib/gcc/i686-linux-gnu/4.8/../../../i386-linux-gnu/crti.o
 .rel.text.uip_ds6_notification_rm
                0x000000000000b76c       0x10 /usr/lib/gcc/i686-linux-gnu/4.8/../../../i386-linux-gnu/crti.o
 .rel.text.uip_ds6_route_init
                0x000000000000b77c       0x68 /usr/lib/gcc/i686-linux-gnu/4.8/../../../i386-linux-gnu/crti.o
 .rel.text.uip_ds6_route_nexthop_lladdr
                0x000000000000b7e4       0x10 /usr/lib/gcc/i686-linux-gnu/4.8/../../../i386-linux-gnu/crti.o
 .rel.text.uip_ds6_route_nexthop
                0x000000000000b7f4        0x8 /usr/lib/gcc/i686-linux-gnu/4.8/../../../i386-linux-gnu/crti.o
 .rel.text.uip_ds6_route_head
                0x000000000000b7fc       0x10 /usr/lib/gcc/i686-linux-gnu/4.8/../../../i386-linux-gnu/crti.o
 .rel.text.uip_ds6_route_next
                0x000000000000b80c        0x8 /usr/lib/gcc/i686-linux-gnu/4.8/../../../i386-linux-gnu/crti.o
 .rel.text.uip_ds6_route_is_nexthop
                0x000000000000b814       0x18 /usr/lib/gcc/i686-linux-gnu/4.8/../../../i386-linux-gnu/crti.o
 .rel.text.uip_ds6_route_num_routes
                0x000000000000b82c        0x8 /usr/lib/gcc/i686-linux-gnu/4.8/../../../i386-linux-gnu/crti.o
 .rel.text.uip_ds6_route_lookup
                0x000000000000b834       0x48 /usr/lib/gcc/i686-linux-gnu/4.8/../../../i386-linux-gnu/crti.o
 .rel.text.uip_ds6_route_add
                0x000000000000b87c       0xd0 /usr/lib/gcc/i686-linux-gnu/4.8/../../../i386-linux-gnu/crti.o
 .rel.text.uip_ds6_route_rm
                0x000000000000b94c       0x80 /usr/lib/gcc/i686-linux-gnu/4.8/../../../i386-linux-gnu/crti.o
 .rel.text.rm_routelist
                0x000000000000b9cc       0x28 /usr/lib/gcc/i686-linux-gnu/4.8/../../../i386-linux-gnu/crti.o
 .rel.text.uip_ds6_route_rm_by_nexthop
                0x000000000000b9f4       0x18 /usr/lib/gcc/i686-linux-gnu/4.8/../../../i386-linux-gnu/crti.o
 .rel.text.uip_ds6_defrt_head
                0x000000000000ba0c       0x10 /usr/lib/gcc/i686-linux-gnu/4.8/../../../i386-linux-gnu/crti.o
 .rel.text.uip_ds6_defrt_add
                0x000000000000ba1c       0x30 /usr/lib/gcc/i686-linux-gnu/4.8/../../../i386-linux-gnu/crti.o
 .rel.text.uip_ds6_defrt_rm
                0x000000000000ba4c       0x38 /usr/lib/gcc/i686-linux-gnu/4.8/../../../i386-linux-gnu/crti.o
 .rel.text.uip_ds6_defrt_lookup
                0x000000000000ba84       0x20 /usr/lib/gcc/i686-linux-gnu/4.8/../../../i386-linux-gnu/crti.o
 .rel.text.uip_ds6_defrt_choose
                0x000000000000baa4       0x20 /usr/lib/gcc/i686-linux-gnu/4.8/../../../i386-linux-gnu/crti.o
 .rel.text.uip_ds6_defrt_periodic
                0x000000000000bac4       0x38 /usr/lib/gcc/i686-linux-gnu/4.8/../../../i386-linux-gnu/crti.o
 .rel.text.uip_ds6_init
                0x000000000000bafc      0x180 /usr/lib/gcc/i686-linux-gnu/4.8/../../../i386-linux-gnu/crti.o
 .rel.text.uip_ds6_periodic
                0x000000000000bc7c       0x80 /usr/lib/gcc/i686-linux-gnu/4.8/../../../i386-linux-gnu/crti.o
 .rel.text.uip_ds6_list_loop
                0x000000000000bcfc        0x8 /usr/lib/gcc/i686-linux-gnu/4.8/../../../i386-linux-gnu/crti.o
 .rel.text.uip_ds6_prefix_add
                0x000000000000bd04       0x58 /usr/lib/gcc/i686-linux-gnu/4.8/../../../i386-linux-gnu/crti.o
 .rel.text.uip_ds6_prefix_lookup
                0x000000000000bd5c       0x20 /usr/lib/gcc/i686-linux-gnu/4.8/../../../i386-linux-gnu/crti.o
 .rel.text.uip_ds6_is_addr_onlink
                0x000000000000bd7c       0x50 /usr/lib/gcc/i686-linux-gnu/4.8/../../../i386-linux-gnu/crti.o
 .rel.text.uip_ds6_addr_add
                0x000000000000bdcc       0xc8 /usr/lib/gcc/i686-linux-gnu/4.8/../../../i386-linux-gnu/crti.o
 .rel.text.uip_ds6_addr_rm
                0x000000000000be94       0x88 /usr/lib/gcc/i686-linux-gnu/4.8/../../../i386-linux-gnu/crti.o
 .rel.text.uip_ds6_addr_lookup
                0x000000000000bf1c       0x20 /usr/lib/gcc/i686-linux-gnu/4.8/../../../i386-linux-gnu/crti.o
 .rel.text.uip_ds6_get_link_local
                0x000000000000bf3c       0x58 /usr/lib/gcc/i686-linux-gnu/4.8/../../../i386-linux-gnu/crti.o
 .rel.text.uip_ds6_get_global
                0x000000000000bf94       0x58 /usr/lib/gcc/i686-linux-gnu/4.8/../../../i386-linux-gnu/crti.o
 .rel.text.uip_ds6_maddr_add
                0x000000000000bfec       0x30 /usr/lib/gcc/i686-linux-gnu/4.8/../../../i386-linux-gnu/crti.o
 .rel.text.uip_ds6_maddr_lookup
                0x000000000000c01c       0x20 /usr/lib/gcc/i686-linux-gnu/4.8/../../../i386-linux-gnu/crti.o
 .rel.text.uip_ds6_aaddr_add
                0x000000000000c03c       0x30 /usr/lib/gcc/i686-linux-gnu/4.8/../../../i386-linux-gnu/crti.o
 .rel.text.uip_ds6_aaddr_lookup
                0x000000000000c06c       0x20 /usr/lib/gcc/i686-linux-gnu/4.8/../../../i386-linux-gnu/crti.o
 .rel.text.uip_ds6_select_src
                0x000000000000c08c       0x70 /usr/lib/gcc/i686-linux-gnu/4.8/../../../i386-linux-gnu/crti.o
 .rel.text.uip_ds6_set_addr_iid
                0x000000000000c0fc        0x8 /usr/lib/gcc/i686-linux-gnu/4.8/../../../i386-linux-gnu/crti.o
 .rel.text.uip_ds6_compute_reachable_time
                0x000000000000c104       0x30 /usr/lib/gcc/i686-linux-gnu/4.8/../../../i386-linux-gnu/crti.o
 .rel.text.extract_lladdr_from_llao_aligned
                0x000000000000c134       0x18 /usr/lib/gcc/i686-linux-gnu/4.8/../../../i386-linux-gnu/crti.o
 .rel.text.create_llao
                0x000000000000c14c       0x18 /usr/lib/gcc/i686-linux-gnu/4.8/../../../i386-linux-gnu/crti.o
 .rel.text.ns_input
                0x000000000000c164      0x388 /usr/lib/gcc/i686-linux-gnu/4.8/../../../i386-linux-gnu/crti.o
 .rel.text.uip_nd6_ns_output
                0x000000000000c4ec      0x1e8 /usr/lib/gcc/i686-linux-gnu/4.8/../../../i386-linux-gnu/crti.o
 .rel.text.na_input
                0x000000000000c6d4      0x280 /usr/lib/gcc/i686-linux-gnu/4.8/../../../i386-linux-gnu/crti.o
 .rel.text.uip_nd6_init
                0x000000000000c954       0x20 /usr/lib/gcc/i686-linux-gnu/4.8/../../../i386-linux-gnu/crti.o
 .rel.text.uip_add32
                0x000000000000c974       0x98 /usr/lib/gcc/i686-linux-gnu/4.8/../../../i386-linux-gnu/crti.o
 .rel.text.uip_chksum
                0x000000000000ca0c        0x8 /usr/lib/gcc/i686-linux-gnu/4.8/../../../i386-linux-gnu/crti.o
 .rel.text.upper_layer_chksum
                0x000000000000ca14       0x38 /usr/lib/gcc/i686-linux-gnu/4.8/../../../i386-linux-gnu/crti.o
 .rel.text.uip_init
                0x000000000000ca4c       0x38 /usr/lib/gcc/i686-linux-gnu/4.8/../../../i386-linux-gnu/crti.o
 .rel.text.uip_connect
                0x000000000000ca84       0x70 /usr/lib/gcc/i686-linux-gnu/4.8/../../../i386-linux-gnu/crti.o
 .rel.text.remove_ext_hdr
                0x000000000000caf4       0x98 /usr/lib/gcc/i686-linux-gnu/4.8/../../../i386-linux-gnu/crti.o
 .rel.text.uip_udp_new
                0x000000000000cb8c       0x68 /usr/lib/gcc/i686-linux-gnu/4.8/../../../i386-linux-gnu/crti.o
 .rel.text.uip_unlisten
                0x000000000000cbf4       0x10 /usr/lib/gcc/i686-linux-gnu/4.8/../../../i386-linux-gnu/crti.o
 .rel.text.uip_listen
                0x000000000000cc04       0x10 /usr/lib/gcc/i686-linux-gnu/4.8/../../../i386-linux-gnu/crti.o
 .rel.text.uip_add_rcv_nxt
                0x000000000000cc14       0x50 /usr/lib/gcc/i686-linux-gnu/4.8/../../../i386-linux-gnu/crti.o
 .rel.text.ext_hdr_options_process
                0x000000000000cc64      0x108 /usr/lib/gcc/i686-linux-gnu/4.8/../../../i386-linux-gnu/crti.o
 .rel.text.uip_process
                0x000000000000cd6c      0xf70 /usr/lib/gcc/i686-linux-gnu/4.8/../../../i386-linux-gnu/crti.o
 .rel.text.uip_send
                0x000000000000dcdc       0x60 /usr/lib/gcc/i686-linux-gnu/4.8/../../../i386-linux-gnu/crti.o
 .rel.text.dns_name_isequal
                0x000000000000dd3c       0x10 /usr/lib/gcc/i686-linux-gnu/4.8/../../../i386-linux-gnu/crti.o
 .rel.text.mdns_announce_requested
                0x000000000000dd4c        0x8 /usr/lib/gcc/i686-linux-gnu/4.8/../../../i386-linux-gnu/crti.o
 .rel.text.start_name_collision_check
                0x000000000000dd54       0x20 /usr/lib/gcc/i686-linux-gnu/4.8/../../../i386-linux-gnu/crti.o
 .rel.text.mdns_write_announce_records
                0x000000000000dd74       0x28 /usr/lib/gcc/i686-linux-gnu/4.8/../../../i386-linux-gnu/crti.o
 .rel.text.mdns_prep_host_announce_packet
                0x000000000000dd9c       0x50 /usr/lib/gcc/i686-linux-gnu/4.8/../../../i386-linux-gnu/crti.o
 .rel.text.try_next_server
                0x000000000000ddec        0x8 /usr/lib/gcc/i686-linux-gnu/4.8/../../../i386-linux-gnu/crti.o
 .rel.text.check_entries
                0x000000000000ddf4       0xc0 /usr/lib/gcc/i686-linux-gnu/4.8/../../../i386-linux-gnu/crti.o
 .rel.text.newdata
                0x000000000000deb4      0x180 /usr/lib/gcc/i686-linux-gnu/4.8/../../../i386-linux-gnu/crti.o
 .rel.text.resolv_set_hostname
                0x000000000000e034       0x88 /usr/lib/gcc/i686-linux-gnu/4.8/../../../i386-linux-gnu/crti.o
 .rel.text.resolv_get_hostname
                0x000000000000e0bc        0x8 /usr/lib/gcc/i686-linux-gnu/4.8/../../../i386-linux-gnu/crti.o
 .rel.text.process_thread_mdns_probe_process
                0x000000000000e0c4       0x98 /usr/lib/gcc/i686-linux-gnu/4.8/../../../i386-linux-gnu/crti.o
 .rel.text.process_thread_resolv_process
                0x000000000000e15c      0x130 /usr/lib/gcc/i686-linux-gnu/4.8/../../../i386-linux-gnu/crti.o
 .rel.text.remove_trailing_dots
                0x000000000000e28c       0x30 /usr/lib/gcc/i686-linux-gnu/4.8/../../../i386-linux-gnu/crti.o
 .rel.text.resolv_query
                0x000000000000e2bc       0xb8 /usr/lib/gcc/i686-linux-gnu/4.8/../../../i386-linux-gnu/crti.o
 .rel.text.resolv_lookup
                0x000000000000e374       0x20 /usr/lib/gcc/i686-linux-gnu/4.8/../../../i386-linux-gnu/crti.o
 .rel.text.resolv_found
                0x000000000000e394       0xd8 /usr/lib/gcc/i686-linux-gnu/4.8/../../../i386-linux-gnu/crti.o
 .rel.text.tcpip_output
                0x000000000000e46c       0x10 /usr/lib/gcc/i686-linux-gnu/4.8/../../../i386-linux-gnu/crti.o
 .rel.text.tcpip_set_outputfunc
                0x000000000000e47c        0x8 /usr/lib/gcc/i686-linux-gnu/4.8/../../../i386-linux-gnu/crti.o
 .rel.text.start_periodic_tcp_timer
                0x000000000000e484       0x20 /usr/lib/gcc/i686-linux-gnu/4.8/../../../i386-linux-gnu/crti.o
 .rel.text.check_for_tcp_syn
                0x000000000000e4a4       0x10 /usr/lib/gcc/i686-linux-gnu/4.8/../../../i386-linux-gnu/crti.o
 .rel.text.packet_input
                0x000000000000e4b4       0x98 /usr/lib/gcc/i686-linux-gnu/4.8/../../../i386-linux-gnu/crti.o
 .rel.text.tcp_connect
                0x000000000000e54c       0x18 /usr/lib/gcc/i686-linux-gnu/4.8/../../../i386-linux-gnu/crti.o
 .rel.text.tcp_unlisten
                0x000000000000e564       0x18 /usr/lib/gcc/i686-linux-gnu/4.8/../../../i386-linux-gnu/crti.o
 .rel.text.tcp_listen
                0x000000000000e57c       0x18 /usr/lib/gcc/i686-linux-gnu/4.8/../../../i386-linux-gnu/crti.o
 .rel.text.tcp_attach
                0x000000000000e594        0x8 /usr/lib/gcc/i686-linux-gnu/4.8/../../../i386-linux-gnu/crti.o
 .rel.text.udp_attach
                0x000000000000e59c        0x8 /usr/lib/gcc/i686-linux-gnu/4.8/../../../i386-linux-gnu/crti.o
 .rel.text.udp_new
                0x000000000000e5a4       0x10 /usr/lib/gcc/i686-linux-gnu/4.8/../../../i386-linux-gnu/crti.o
 .rel.text.udp_broadcast_new
                0x000000000000e5b4       0x10 /usr/lib/gcc/i686-linux-gnu/4.8/../../../i386-linux-gnu/crti.o
 .rel.text.eventhandler
                0x000000000000e5c4       0xd8 /usr/lib/gcc/i686-linux-gnu/4.8/../../../i386-linux-gnu/crti.o
 .rel.text.tcpip_input
                0x000000000000e69c       0x20 /usr/lib/gcc/i686-linux-gnu/4.8/../../../i386-linux-gnu/crti.o
 .rel.text.tcpip_ipv6_output
                0x000000000000e6bc      0x290 /usr/lib/gcc/i686-linux-gnu/4.8/../../../i386-linux-gnu/crti.o
 .rel.text.tcpip_poll_udp
                0x000000000000e94c       0x10 /usr/lib/gcc/i686-linux-gnu/4.8/../../../i386-linux-gnu/crti.o
 .rel.text.tcpip_poll_tcp
                0x000000000000e95c       0x10 /usr/lib/gcc/i686-linux-gnu/4.8/../../../i386-linux-gnu/crti.o
 .rel.text.tcpip_uipcall
                0x000000000000e96c       0x40 /usr/lib/gcc/i686-linux-gnu/4.8/../../../i386-linux-gnu/crti.o
 .rel.text.process_thread_tcpip_process
                0x000000000000e9ac       0x48 /usr/lib/gcc/i686-linux-gnu/4.8/../../../i386-linux-gnu/crti.o
 .rel.text.uip_debug_ipaddr_print
                0x000000000000e9f4       0x50 /usr/lib/gcc/i686-linux-gnu/4.8/../../../i386-linux-gnu/crti.o
 .rel.text.uip_nameserver_update
                0x000000000000ea44       0x28 /usr/lib/gcc/i686-linux-gnu/4.8/../../../i386-linux-gnu/crti.o
 .rel.text.uip_nameserver_get
                0x000000000000ea6c        0x8 /usr/lib/gcc/i686-linux-gnu/4.8/../../../i386-linux-gnu/crti.o
 .rel.text.uip_nameserver_next_expiration
                0x000000000000ea74        0x8 /usr/lib/gcc/i686-linux-gnu/4.8/../../../i386-linux-gnu/crti.o
 .rel.text.uip_nameserver_count
                0x000000000000ea7c       0x40 /usr/lib/gcc/i686-linux-gnu/4.8/../../../i386-linux-gnu/crti.o
 .rel.text.packet_timedout
                0x000000000000eabc       0x10 /usr/lib/gcc/i686-linux-gnu/4.8/../../../i386-linux-gnu/crti.o
 .rel.text.uip_packetqueue_alloc
                0x000000000000eacc       0x20 /usr/lib/gcc/i686-linux-gnu/4.8/../../../i386-linux-gnu/crti.o
 .rel.text.uip_packetqueue_free
                0x000000000000eaec       0x18 /usr/lib/gcc/i686-linux-gnu/4.8/../../../i386-linux-gnu/crti.o
 .rel.text.uip_udp_packet_send
                0x000000000000eb04       0x38 /usr/lib/gcc/i686-linux-gnu/4.8/../../../i386-linux-gnu/crti.o
 .rel.text.uip_udp_packet_sendto
                0x000000000000eb3c       0x10 /usr/lib/gcc/i686-linux-gnu/4.8/../../../i386-linux-gnu/crti.o
 .rel.text.uiplib_ip6addrconv
                0x000000000000eb4c       0x10 /usr/lib/gcc/i686-linux-gnu/4.8/../../../i386-linux-gnu/crti.o
 .rel.text.rpl_print_neighbor_list
                0x000000000000eb5c       0xc8 /usr/lib/gcc/i686-linux-gnu/4.8/../../../i386-linux-gnu/crti.o
 .rel.text.rpl_get_nbr
                0x000000000000ec24       0x18 /usr/lib/gcc/i686-linux-gnu/4.8/../../../i386-linux-gnu/crti.o
 .rel.text.nbr_callback
                0x000000000000ec3c        0x8 /usr/lib/gcc/i686-linux-gnu/4.8/../../../i386-linux-gnu/crti.o
 .rel.text.rpl_dag_init
                0x000000000000ec44       0x18 /usr/lib/gcc/i686-linux-gnu/4.8/../../../i386-linux-gnu/crti.o
 .rel.text.rpl_get_parent
                0x000000000000ec5c       0x10 /usr/lib/gcc/i686-linux-gnu/4.8/../../../i386-linux-gnu/crti.o
 .rel.text.rpl_get_parent_rank
                0x000000000000ec6c       0x10 /usr/lib/gcc/i686-linux-gnu/4.8/../../../i386-linux-gnu/crti.o
 .rel.text.rpl_get_parent_lladdr
                0x000000000000ec7c       0x10 /usr/lib/gcc/i686-linux-gnu/4.8/../../../i386-linux-gnu/crti.o
 .rel.text.rpl_get_parent_ipaddr
                0x000000000000ec8c       0x10 /usr/lib/gcc/i686-linux-gnu/4.8/../../../i386-linux-gnu/crti.o
 .rel.text.rpl_get_parent_link_stats
                0x000000000000ec9c       0x10 /usr/lib/gcc/i686-linux-gnu/4.8/../../../i386-linux-gnu/crti.o
 .rel.text.rpl_parent_is_fresh
                0x000000000000ecac       0x10 /usr/lib/gcc/i686-linux-gnu/4.8/../../../i386-linux-gnu/crti.o
 .rel.text.rpl_parent_is_reachable
                0x000000000000ecbc       0x10 /usr/lib/gcc/i686-linux-gnu/4.8/../../../i386-linux-gnu/crti.o
 .rel.text.rpl_set_preferred_parent
                0x000000000000eccc       0x20 /usr/lib/gcc/i686-linux-gnu/4.8/../../../i386-linux-gnu/crti.o
 .rel.text.remove_parents
                0x000000000000ecec       0x28 /usr/lib/gcc/i686-linux-gnu/4.8/../../../i386-linux-gnu/crti.o
 .rel.text.nullify_parents
                0x000000000000ed14       0x28 /usr/lib/gcc/i686-linux-gnu/4.8/../../../i386-linux-gnu/crti.o
 .rel.text.get_dag
                0x000000000000ed3c       0x10 /usr/lib/gcc/i686-linux-gnu/4.8/../../../i386-linux-gnu/crti.o
 .rel.text.rpl_set_root
                0x000000000000ed4c       0x48 /usr/lib/gcc/i686-linux-gnu/4.8/../../../i386-linux-gnu/crti.o
 .rel.text.rpl_repair_root
                0x000000000000ed94       0x10 /usr/lib/gcc/i686-linux-gnu/4.8/../../../i386-linux-gnu/crti.o
 .rel.text.set_ip_from_prefix
                0x000000000000eda4       0x20 /usr/lib/gcc/i686-linux-gnu/4.8/../../../i386-linux-gnu/crti.o
 .rel.text.check_prefix
                0x000000000000edc4       0x30 /usr/lib/gcc/i686-linux-gnu/4.8/../../../i386-linux-gnu/crti.o
 .rel.text.rpl_set_prefix
                0x000000000000edf4       0x20 /usr/lib/gcc/i686-linux-gnu/4.8/../../../i386-linux-gnu/crti.o
 .rel.text.rpl_set_default_route
                0x000000000000ee14       0x10 /usr/lib/gcc/i686-linux-gnu/4.8/../../../i386-linux-gnu/crti.o
 .rel.text.rpl_alloc_instance
                0x000000000000ee24       0x18 /usr/lib/gcc/i686-linux-gnu/4.8/../../../i386-linux-gnu/crti.o
 .rel.text.rpl_alloc_dag
                0x000000000000ee3c       0x18 /usr/lib/gcc/i686-linux-gnu/4.8/../../../i386-linux-gnu/crti.o
 .rel.text.rpl_set_default_instance
                0x000000000000ee54        0x8 /usr/lib/gcc/i686-linux-gnu/4.8/../../../i386-linux-gnu/crti.o
 .rel.text.rpl_get_default_instance
                0x000000000000ee5c        0x8 /usr/lib/gcc/i686-linux-gnu/4.8/../../../i386-linux-gnu/crti.o
 .rel.text.rpl_free_instance
                0x000000000000ee64       0x40 /usr/lib/gcc/i686-linux-gnu/4.8/../../../i386-linux-gnu/crti.o
 .rel.text.rpl_free_dag
                0x000000000000eea4        0x8 /usr/lib/gcc/i686-linux-gnu/4.8/../../../i386-linux-gnu/crti.o
 .rel.text.rpl_add_parent
                0x000000000000eeac       0x18 /usr/lib/gcc/i686-linux-gnu/4.8/../../../i386-linux-gnu/crti.o
 .rel.text.find_parent_any_dag_any_instance
                0x000000000000eec4       0x20 /usr/lib/gcc/i686-linux-gnu/4.8/../../../i386-linux-gnu/crti.o
 .rel.text.rpl_select_dag
                0x000000000000eee4       0x48 /usr/lib/gcc/i686-linux-gnu/4.8/../../../i386-linux-gnu/crti.o
 .rel.text.best_parent
                0x000000000000ef2c       0x30 /usr/lib/gcc/i686-linux-gnu/4.8/../../../i386-linux-gnu/crti.o
 .rel.text.rpl_select_parent
                0x000000000000ef5c       0x18 /usr/lib/gcc/i686-linux-gnu/4.8/../../../i386-linux-gnu/crti.o
 .rel.text.rpl_remove_parent
                0x000000000000ef74       0x18 /usr/lib/gcc/i686-linux-gnu/4.8/../../../i386-linux-gnu/crti.o
 .rel.text.rpl_nullify_parent
                0x000000000000ef8c       0x10 /usr/lib/gcc/i686-linux-gnu/4.8/../../../i386-linux-gnu/crti.o
 .rel.text.rpl_move_parent
                0x000000000000ef9c       0x18 /usr/lib/gcc/i686-linux-gnu/4.8/../../../i386-linux-gnu/crti.o
 .rel.text.rpl_has_downward_route
                0x000000000000efb4       0x10 /usr/lib/gcc/i686-linux-gnu/4.8/../../../i386-linux-gnu/crti.o
 .rel.text.rpl_get_dag
                0x000000000000efc4       0x30 /usr/lib/gcc/i686-linux-gnu/4.8/../../../i386-linux-gnu/crti.o
 .rel.text.rpl_get_any_dag
                0x000000000000eff4       0x18 /usr/lib/gcc/i686-linux-gnu/4.8/../../../i386-linux-gnu/crti.o
 .rel.text.rpl_get_instance
                0x000000000000f00c       0x18 /usr/lib/gcc/i686-linux-gnu/4.8/../../../i386-linux-gnu/crti.o
 .rel.text.rpl_find_of
                0x000000000000f024       0x10 /usr/lib/gcc/i686-linux-gnu/4.8/../../../i386-linux-gnu/crti.o
 .rel.text.rpl_join_instance
                0x000000000000f034       0x58 /usr/lib/gcc/i686-linux-gnu/4.8/../../../i386-linux-gnu/crti.o
 .rel.text.rpl_add_dag
                0x000000000000f08c       0x50 /usr/lib/gcc/i686-linux-gnu/4.8/../../../i386-linux-gnu/crti.o
 .rel.text.global_repair
                0x000000000000f0dc       0x18 /usr/lib/gcc/i686-linux-gnu/4.8/../../../i386-linux-gnu/crti.o
 .rel.text.rpl_local_repair
                0x000000000000f0f4        0x8 /usr/lib/gcc/i686-linux-gnu/4.8/../../../i386-linux-gnu/crti.o
 .rel.text.rpl_recalculate_ranks
                0x000000000000f0fc       0x28 /usr/lib/gcc/i686-linux-gnu/4.8/../../../i386-linux-gnu/crti.o
 .rel.text.rpl_process_parent_event
                0x000000000000f124       0x40 /usr/lib/gcc/i686-linux-gnu/4.8/../../../i386-linux-gnu/crti.o
 .rel.text.add_nbr_from_dio
                0x000000000000f164        0x8 /usr/lib/gcc/i686-linux-gnu/4.8/../../../i386-linux-gnu/crti.o
 .rel.text.rpl_process_dio
                0x000000000000f16c       0x78 /usr/lib/gcc/i686-linux-gnu/4.8/../../../i386-linux-gnu/crti.o
 .rel.text.rpl_verify_hbh_header
                0x000000000000f1e4      0x108 /usr/lib/gcc/i686-linux-gnu/4.8/../../../i386-linux-gnu/crti.o
 .rel.text.update_hbh_header
                0x000000000000f2ec      0x138 /usr/lib/gcc/i686-linux-gnu/4.8/../../../i386-linux-gnu/crti.o
 .rel.text.insert_hbh_header
                0x000000000000f424      0x128 /usr/lib/gcc/i686-linux-gnu/4.8/../../../i386-linux-gnu/crti.o
 .rel.text.rpl_remove_header
                0x000000000000f54c       0xc8 /usr/lib/gcc/i686-linux-gnu/4.8/../../../i386-linux-gnu/crti.o
 .rel.text.rpl_update_header
                0x000000000000f614       0x80 /usr/lib/gcc/i686-linux-gnu/4.8/../../../i386-linux-gnu/crti.o
 .rel.text.prepare_for_dao_fwd
                0x000000000000f694       0x38 /usr/lib/gcc/i686-linux-gnu/4.8/../../../i386-linux-gnu/crti.o
 .rel.text.get_global_addr
                0x000000000000f6cc       0x30 /usr/lib/gcc/i686-linux-gnu/4.8/../../../i386-linux-gnu/crti.o
 .rel.text.rpl_icmp6_update_nbr_table
                0x000000000000f6fc       0x10 /usr/lib/gcc/i686-linux-gnu/4.8/../../../i386-linux-gnu/crti.o
 .rel.text.dis_input
                0x000000000000f70c       0x48 /usr/lib/gcc/i686-linux-gnu/4.8/../../../i386-linux-gnu/crti.o
 .rel.text.dis_output
                0x000000000000f754       0x20 /usr/lib/gcc/i686-linux-gnu/4.8/../../../i386-linux-gnu/crti.o
 .rel.text.dio_input
                0x000000000000f774       0x58 /usr/lib/gcc/i686-linux-gnu/4.8/../../../i386-linux-gnu/crti.o
 .rel.text.dio_output
                0x000000000000f7cc       0x40 /usr/lib/gcc/i686-linux-gnu/4.8/../../../i386-linux-gnu/crti.o
 .rel.text.dao_input_storing
                0x000000000000f80c      0x120 /usr/lib/gcc/i686-linux-gnu/4.8/../../../i386-linux-gnu/crti.o
 .rel.text.dao_input
                0x000000000000f92c       0x28 /usr/lib/gcc/i686-linux-gnu/4.8/../../../i386-linux-gnu/crti.o
 .rel.text.dao_output
                0x000000000000f954       0x38 /usr/lib/gcc/i686-linux-gnu/4.8/../../../i386-linux-gnu/crti.o
 .rel.text.dao_output_target
                0x000000000000f98c        0x8 /usr/lib/gcc/i686-linux-gnu/4.8/../../../i386-linux-gnu/crti.o
 .rel.text.dao_output_target_seq
                0x000000000000f994       0x48 /usr/lib/gcc/i686-linux-gnu/4.8/../../../i386-linux-gnu/crti.o
 .rel.text.dao_ack_input
                0x000000000000f9dc       0x10 /usr/lib/gcc/i686-linux-gnu/4.8/../../../i386-linux-gnu/crti.o
 .rel.text.rpl_icmp6_register_handlers
                0x000000000000f9ec       0x40 /usr/lib/gcc/i686-linux-gnu/4.8/../../../i386-linux-gnu/crti.o
 .rel.text.parent_link_metric
                0x000000000000fa2c        0x8 /usr/lib/gcc/i686-linux-gnu/4.8/../../../i386-linux-gnu/crti.o
 .rel.text.handle_periodic_timer
                0x000000000000fa34       0x68 /usr/lib/gcc/i686-linux-gnu/4.8/../../../i386-linux-gnu/crti.o
 .rel.text.new_dio_interval
                0x000000000000fa9c       0x18 /usr/lib/gcc/i686-linux-gnu/4.8/../../../i386-linux-gnu/crti.o
 .rel.text.handle_dio_timer
                0x000000000000fab4       0x40 /usr/lib/gcc/i686-linux-gnu/4.8/../../../i386-linux-gnu/crti.o
 .rel.text.rpl_reset_periodic_timer
                0x000000000000faf4       0x28 /usr/lib/gcc/i686-linux-gnu/4.8/../../../i386-linux-gnu/crti.o
 .rel.text.set_dao_lifetime_timer
                0x000000000000fb1c       0x20 /usr/lib/gcc/i686-linux-gnu/4.8/../../../i386-linux-gnu/crti.o
 .rel.text.handle_dao_timer
                0x000000000000fb3c       0x38 /usr/lib/gcc/i686-linux-gnu/4.8/../../../i386-linux-gnu/crti.o
 .rel.text.schedule_dao
                0x000000000000fb74       0x30 /usr/lib/gcc/i686-linux-gnu/4.8/../../../i386-linux-gnu/crti.o
 .rel.text.rpl_cancel_dao
                0x000000000000fba4       0x10 /usr/lib/gcc/i686-linux-gnu/4.8/../../../i386-linux-gnu/crti.o
 .rel.text.handle_unicast_dio_timer
                0x000000000000fbb4       0x10 /usr/lib/gcc/i686-linux-gnu/4.8/../../../i386-linux-gnu/crti.o
 .rel.text.rpl_schedule_unicast_dio_immediately
                0x000000000000fbc4       0x10 /usr/lib/gcc/i686-linux-gnu/4.8/../../../i386-linux-gnu/crti.o
 .rel.text.get_probing_delay
                0x000000000000fbd4       0x10 /usr/lib/gcc/i686-linux-gnu/4.8/../../../i386-linux-gnu/crti.o
 .rel.text.get_probing_target
                0x000000000000fbe4       0x70 /usr/lib/gcc/i686-linux-gnu/4.8/../../../i386-linux-gnu/crti.o
 .rel.text.handle_probing_timer
                0x000000000000fc54       0x28 /usr/lib/gcc/i686-linux-gnu/4.8/../../../i386-linux-gnu/crti.o
 .rel.text.rpl_schedule_probing
                0x000000000000fc7c       0x18 /usr/lib/gcc/i686-linux-gnu/4.8/../../../i386-linux-gnu/crti.o
 .rel.text.rpl_get_mode
                0x000000000000fc94        0x8 /usr/lib/gcc/i686-linux-gnu/4.8/../../../i386-linux-gnu/crti.o
 .rel.text.rpl_set_mode
                0x000000000000fc9c       0x68 /usr/lib/gcc/i686-linux-gnu/4.8/../../../i386-linux-gnu/crti.o
 .rel.text.rpl_purge_routes
                0x000000000000fd04       0x50 /usr/lib/gcc/i686-linux-gnu/4.8/../../../i386-linux-gnu/crti.o
 .rel.text.rpl_remove_routes
                0x000000000000fd54       0x20 /usr/lib/gcc/i686-linux-gnu/4.8/../../../i386-linux-gnu/crti.o
 .rel.text.rpl_remove_routes_by_nexthop
                0x000000000000fd74       0x20 /usr/lib/gcc/i686-linux-gnu/4.8/../../../i386-linux-gnu/crti.o
 .rel.text.rpl_add_route
                0x000000000000fd94        0x8 /usr/lib/gcc/i686-linux-gnu/4.8/../../../i386-linux-gnu/crti.o
 .rel.text.rpl_link_neighbor_callback
                0x000000000000fd9c       0x20 /usr/lib/gcc/i686-linux-gnu/4.8/../../../i386-linux-gnu/crti.o
 .rel.text.rpl_ipv6_neighbor_callback
                0x000000000000fdbc       0x10 /usr/lib/gcc/i686-linux-gnu/4.8/../../../i386-linux-gnu/crti.o
 .rel.text.rpl_purge_dags
                0x000000000000fdcc       0x10 /usr/lib/gcc/i686-linux-gnu/4.8/../../../i386-linux-gnu/crti.o
 .rel.text.rpl_init
                0x000000000000fddc       0x30 /usr/lib/gcc/i686-linux-gnu/4.8/../../../i386-linux-gnu/crti.o
 .rel.text.link_stats_from_lladdr
                0x000000000000fe0c       0x10 /usr/lib/gcc/i686-linux-gnu/4.8/../../../i386-linux-gnu/crti.o
 .rel.text.link_stats_is_fresh
                0x000000000000fe1c        0x8 /usr/lib/gcc/i686-linux-gnu/4.8/../../../i386-linux-gnu/crti.o
 .rel.text.link_stats_packet_sent
                0x000000000000fe24       0x30 /usr/lib/gcc/i686-linux-gnu/4.8/../../../i386-linux-gnu/crti.o
 .rel.text.link_stats_input_callback
                0x000000000000fe54       0x20 /usr/lib/gcc/i686-linux-gnu/4.8/../../../i386-linux-gnu/crti.o
 .rel.text.periodic
                0x000000000000fe74       0x30 /usr/lib/gcc/i686-linux-gnu/4.8/../../../i386-linux-gnu/crti.o
 .rel.text.link_stats_init
                0x000000000000fea4       0x28 /usr/lib/gcc/i686-linux-gnu/4.8/../../../i386-linux-gnu/crti.o
 .rel.text.linkaddr_copy
                0x000000000000fecc        0x8 /usr/lib/gcc/i686-linux-gnu/4.8/../../../i386-linux-gnu/crti.o
 .rel.text.linkaddr_cmp
                0x000000000000fed4        0x8 /usr/lib/gcc/i686-linux-gnu/4.8/../../../i386-linux-gnu/crti.o
 .rel.text.linkaddr_set_node_addr
                0x000000000000fedc       0x10 /usr/lib/gcc/i686-linux-gnu/4.8/../../../i386-linux-gnu/crti.o
 .rel.text.key_from_index
                0x000000000000feec        0x8 /usr/lib/gcc/i686-linux-gnu/4.8/../../../i386-linux-gnu/crti.o
 .rel.text.index_from_key
                0x000000000000fef4        0x8 /usr/lib/gcc/i686-linux-gnu/4.8/../../../i386-linux-gnu/crti.o
 .rel.text.index_from_lladdr
                0x000000000000fefc       0x28 /usr/lib/gcc/i686-linux-gnu/4.8/../../../i386-linux-gnu/crti.o
 .rel.text.remove_key
                0x000000000000ff24       0x48 /usr/lib/gcc/i686-linux-gnu/4.8/../../../i386-linux-gnu/crti.o
 .rel.text.nbr_table_allocate
                0x000000000000ff6c       0x50 /usr/lib/gcc/i686-linux-gnu/4.8/../../../i386-linux-gnu/crti.o
 .rel.text.nbr_table_register
                0x000000000000ffbc       0x20 /usr/lib/gcc/i686-linux-gnu/4.8/../../../i386-linux-gnu/crti.o
 .rel.text.nbr_table_head
                0x000000000000ffdc       0x20 /usr/lib/gcc/i686-linux-gnu/4.8/../../../i386-linux-gnu/crti.o
 .rel.text.nbr_table_next
                0x000000000000fffc       0x10 /usr/lib/gcc/i686-linux-gnu/4.8/../../../i386-linux-gnu/crti.o
 .rel.text.nbr_table_add_lladdr
                0x000000000001000c       0x30 /usr/lib/gcc/i686-linux-gnu/4.8/../../../i386-linux-gnu/crti.o
 .rel.text.nbr_table_get_from_lladdr
                0x000000000001003c        0x8 /usr/lib/gcc/i686-linux-gnu/4.8/../../../i386-linux-gnu/crti.o
 .rel.text.nbr_table_remove
                0x0000000000010044       0x10 /usr/lib/gcc/i686-linux-gnu/4.8/../../../i386-linux-gnu/crti.o
 .rel.text.nbr_table_lock
                0x0000000000010054        0x8 /usr/lib/gcc/i686-linux-gnu/4.8/../../../i386-linux-gnu/crti.o
 .rel.text.nbr_table_unlock
                0x000000000001005c        0x8 /usr/lib/gcc/i686-linux-gnu/4.8/../../../i386-linux-gnu/crti.o
 .rel.text.nbr_table_update_lladdr
                0x0000000000010064        0x8 /usr/lib/gcc/i686-linux-gnu/4.8/../../../i386-linux-gnu/crti.o
 .rel.text.netstack_init
                0x000000000001006c       0x28 /usr/lib/gcc/i686-linux-gnu/4.8/../../../i386-linux-gnu/crti.o
 .rel.text.packetbuf_clear
                0x0000000000010094       0x28 /usr/lib/gcc/i686-linux-gnu/4.8/../../../i386-linux-gnu/crti.o
 .rel.text.packetbuf_copyfrom
                0x00000000000100bc       0x20 /usr/lib/gcc/i686-linux-gnu/4.8/../../../i386-linux-gnu/crti.o
 .rel.text.packetbuf_compact
                0x00000000000100dc       0x38 /usr/lib/gcc/i686-linux-gnu/4.8/../../../i386-linux-gnu/crti.o
 .rel.text.packetbuf_copyto
                0x0000000000010114       0x58 /usr/lib/gcc/i686-linux-gnu/4.8/../../../i386-linux-gnu/crti.o
 .rel.text.packetbuf_hdralloc
                0x000000000001016c       0x30 /usr/lib/gcc/i686-linux-gnu/4.8/../../../i386-linux-gnu/crti.o
 .rel.text.packetbuf_hdrreduce
                0x000000000001019c       0x28 /usr/lib/gcc/i686-linux-gnu/4.8/../../../i386-linux-gnu/crti.o
 .rel.text.packetbuf_set_datalen
                0x00000000000101c4        0x8 /usr/lib/gcc/i686-linux-gnu/4.8/../../../i386-linux-gnu/crti.o
 .rel.text.packetbuf_dataptr
                0x00000000000101cc       0x10 /usr/lib/gcc/i686-linux-gnu/4.8/../../../i386-linux-gnu/crti.o
 .rel.text.packetbuf_hdrptr
                0x00000000000101dc        0x8 /usr/lib/gcc/i686-linux-gnu/4.8/../../../i386-linux-gnu/crti.o
 .rel.text.packetbuf_datalen
                0x00000000000101e4        0x8 /usr/lib/gcc/i686-linux-gnu/4.8/../../../i386-linux-gnu/crti.o
 .rel.text.packetbuf_hdrlen
                0x00000000000101ec       0x10 /usr/lib/gcc/i686-linux-gnu/4.8/../../../i386-linux-gnu/crti.o
 .rel.text.packetbuf_totlen
                0x00000000000101fc       0x10 /usr/lib/gcc/i686-linux-gnu/4.8/../../../i386-linux-gnu/crti.o
 .rel.text.packetbuf_remaininglen
                0x000000000001020c        0x8 /usr/lib/gcc/i686-linux-gnu/4.8/../../../i386-linux-gnu/crti.o
 .rel.text.packetbuf_attr_clear
                0x0000000000010214       0x28 /usr/lib/gcc/i686-linux-gnu/4.8/../../../i386-linux-gnu/crti.o
 .rel.text.packetbuf_attr_copyto
                0x000000000001023c       0x30 /usr/lib/gcc/i686-linux-gnu/4.8/../../../i386-linux-gnu/crti.o
 .rel.text.packetbuf_attr_copyfrom
                0x000000000001026c       0x30 /usr/lib/gcc/i686-linux-gnu/4.8/../../../i386-linux-gnu/crti.o
 .rel.text.packetbuf_holds_broadcast
                0x000000000001029c       0x18 /usr/lib/gcc/i686-linux-gnu/4.8/../../../i386-linux-gnu/crti.o
 .rel.text.queuebuf_init
                0x00000000000102b4       0x20 /usr/lib/gcc/i686-linux-gnu/4.8/../../../i386-linux-gnu/crti.o
 .rel.text.queuebuf_numfree
                0x00000000000102d4       0x10 /usr/lib/gcc/i686-linux-gnu/4.8/../../../i386-linux-gnu/crti.o
 .rel.text.queuebuf_new_from_packetbuf
                0x00000000000102e4       0x40 /usr/lib/gcc/i686-linux-gnu/4.8/../../../i386-linux-gnu/crti.o
 .rel.text.queuebuf_update_attr_from_packetbuf
                0x0000000000010324        0x8 /usr/lib/gcc/i686-linux-gnu/4.8/../../../i386-linux-gnu/crti.o
 .rel.text.queuebuf_update_from_packetbuf
                0x000000000001032c       0x10 /usr/lib/gcc/i686-linux-gnu/4.8/../../../i386-linux-gnu/crti.o
 .rel.text.queuebuf_free
                0x000000000001033c       0x30 /usr/lib/gcc/i686-linux-gnu/4.8/../../../i386-linux-gnu/crti.o
 .rel.text.queuebuf_to_packetbuf
                0x000000000001036c       0x20 /usr/lib/gcc/i686-linux-gnu/4.8/../../../i386-linux-gnu/crti.o
 .rel.text.queuebuf_dataptr
                0x000000000001038c       0x10 /usr/lib/gcc/i686-linux-gnu/4.8/../../../i386-linux-gnu/crti.o
 .rel.text.neighbor_queue_from_addr
                0x000000000001039c       0x20 /usr/lib/gcc/i686-linux-gnu/4.8/../../../i386-linux-gnu/crti.o
 .rel.text.backoff_period
                0x00000000000103bc        0x8 /usr/lib/gcc/i686-linux-gnu/4.8/../../../i386-linux-gnu/crti.o
 .rel.text.transmit_packet_list
                0x00000000000103c4       0x18 /usr/lib/gcc/i686-linux-gnu/4.8/../../../i386-linux-gnu/crti.o
 .rel.text.schedule_transmission
                0x00000000000103dc       0x18 /usr/lib/gcc/i686-linux-gnu/4.8/../../../i386-linux-gnu/crti.o
 .rel.text.free_packet
                0x00000000000103f4       0x60 /usr/lib/gcc/i686-linux-gnu/4.8/../../../i386-linux-gnu/crti.o
 .rel.text.tx_done
                0x0000000000010454        0x8 /usr/lib/gcc/i686-linux-gnu/4.8/../../../i386-linux-gnu/crti.o
 .rel.text.rexmit
                0x000000000001045c        0x8 /usr/lib/gcc/i686-linux-gnu/4.8/../../../i386-linux-gnu/crti.o
 .rel.text.input_packet
                0x0000000000010464        0x8 /usr/lib/gcc/i686-linux-gnu/4.8/../../../i386-linux-gnu/crti.o
 .rel.text.on   0x000000000001046c       0x10 /usr/lib/gcc/i686-linux-gnu/4.8/../../../i386-linux-gnu/crti.o
 .rel.text.off  0x000000000001047c       0x18 /usr/lib/gcc/i686-linux-gnu/4.8/../../../i386-linux-gnu/crti.o
 .rel.text.channel_check_interval
                0x0000000000010494       0x10 /usr/lib/gcc/i686-linux-gnu/4.8/../../../i386-linux-gnu/crti.o
 .rel.text.create_frame
                0x00000000000104a4       0xc0 /usr/lib/gcc/i686-linux-gnu/4.8/../../../i386-linux-gnu/crti.o
 .rel.text.parse
                0x0000000000010564       0x38 /usr/lib/gcc/i686-linux-gnu/4.8/../../../i386-linux-gnu/crti.o
 .rel.text.send_one_packet
                0x000000000001059c       0xd0 /usr/lib/gcc/i686-linux-gnu/4.8/../../../i386-linux-gnu/crti.o
 .rel.text.send_list
                0x000000000001066c        0x8 /usr/lib/gcc/i686-linux-gnu/4.8/../../../i386-linux-gnu/crti.o
 .rel.text.send
                0x0000000000010674        0x8 /usr/lib/gcc/i686-linux-gnu/4.8/../../../i386-linux-gnu/crti.o
 .rel.text.stimer_set
                0x000000000001067c        0x8 /usr/lib/gcc/i686-linux-gnu/4.8/../../../i386-linux-gnu/crti.o
 .rel.text.stimer_restart
                0x0000000000010684        0x8 /usr/lib/gcc/i686-linux-gnu/4.8/../../../i386-linux-gnu/crti.o
 .rel.text.stimer_expired
                0x000000000001068c        0x8 /usr/lib/gcc/i686-linux-gnu/4.8/../../../i386-linux-gnu/crti.o
 .rel.text.stimer_remaining
                0x0000000000010694        0x8 /usr/lib/gcc/i686-linux-gnu/4.8/../../../i386-linux-gnu/crti.o
 .rel.text.stimer_elapsed
                0x000000000001069c        0x8 /usr/lib/gcc/i686-linux-gnu/4.8/../../../i386-linux-gnu/crti.o
 .rel.text.input_handler_lookup
                0x00000000000106a4       0x18 /usr/lib/gcc/i686-linux-gnu/4.8/../../../i386-linux-gnu/crti.o
 .rel.text.uip_icmp6_register_input_handler
                0x00000000000106bc       0x10 /usr/lib/gcc/i686-linux-gnu/4.8/../../../i386-linux-gnu/crti.o
 .rel.text.echo_request_input
                0x00000000000106cc      0x160 /usr/lib/gcc/i686-linux-gnu/4.8/../../../i386-linux-gnu/crti.o
 .rel.text.uip_icmp6_error_output
                0x000000000001082c      0x250 /usr/lib/gcc/i686-linux-gnu/4.8/../../../i386-linux-gnu/crti.o
 .rel.text.uip_icmp6_send
                0x0000000000010a7c       0xc0 /usr/lib/gcc/i686-linux-gnu/4.8/../../../i386-linux-gnu/crti.o
 .rel.text.echo_reply_input
                0x0000000000010b3c       0xd0 /usr/lib/gcc/i686-linux-gnu/4.8/../../../i386-linux-gnu/crti.o
 .rel.text.uip_icmp6_echo_reply_callback_add
                0x0000000000010c0c       0x10 /usr/lib/gcc/i686-linux-gnu/4.8/../../../i386-linux-gnu/crti.o
 .rel.text.uip_icmp6_echo_reply_callback_rm
                0x0000000000010c1c       0x10 /usr/lib/gcc/i686-linux-gnu/4.8/../../../i386-linux-gnu/crti.o
 .rel.text.uip_icmp6_init
                0x0000000000010c2c       0x20 /usr/lib/gcc/i686-linux-gnu/4.8/../../../i386-linux-gnu/crti.o
 .rel.text.update_nbr
                0x0000000000010c4c       0xe0 /usr/lib/gcc/i686-linux-gnu/4.8/../../../i386-linux-gnu/crti.o
 .rel.text.find_removable_dis
                0x0000000000010d2c       0x10 /usr/lib/gcc/i686-linux-gnu/4.8/../../../i386-linux-gnu/crti.o
 .rel.text.find_removable_dio
                0x0000000000010d3c       0x18 /usr/lib/gcc/i686-linux-gnu/4.8/../../../i386-linux-gnu/crti.o
 .rel.text.find_removable_dao
                0x0000000000010d54       0x10 /usr/lib/gcc/i686-linux-gnu/4.8/../../../i386-linux-gnu/crti.o
 .rel.text.rpl_nbr_policy_find_removable
                0x0000000000010d64       0x30 /usr/lib/gcc/i686-linux-gnu/4.8/../../../i386-linux-gnu/crti.o
 .rel.text.frame802154_get_pan_id
                0x0000000000010d94        0x8 /usr/lib/gcc/i686-linux-gnu/4.8/../../../i386-linux-gnu/crti.o
 .rel.text.frame802154_set_pan_id
                0x0000000000010d9c        0x8 /usr/lib/gcc/i686-linux-gnu/4.8/../../../i386-linux-gnu/crti.o
 .rel.text.frame802154_check_dest_panid
                0x0000000000010da4       0x10 /usr/lib/gcc/i686-linux-gnu/4.8/../../../i386-linux-gnu/crti.o
 .rel.text.frame802154_extract_linkaddr
                0x0000000000010db4       0x40 /usr/lib/gcc/i686-linux-gnu/4.8/../../../i386-linux-gnu/crti.o
 .rel.text.field_len
                0x0000000000010df4       0x10 /usr/lib/gcc/i686-linux-gnu/4.8/../../../i386-linux-gnu/crti.o
 .rel.text.frame802154_create
                0x0000000000010e04        0x8 /usr/lib/gcc/i686-linux-gnu/4.8/../../../i386-linux-gnu/crti.o
 .rel.text.frame802154_parse
                0x0000000000010e0c       0x50 /usr/lib/gcc/i686-linux-gnu/4.8/../../../i386-linux-gnu/crti.o
 .rel.text.mac_sequence_is_duplicate
                0x0000000000010e5c       0x28 /usr/lib/gcc/i686-linux-gnu/4.8/../../../i386-linux-gnu/crti.o
 .rel.text.mac_sequence_register_seqno
                0x0000000000010e84       0x48 /usr/lib/gcc/i686-linux-gnu/4.8/../../../i386-linux-gnu/crti.o
 *(.rel.fini)
 .rel.fini      0x0000000000000000        0x0 /usr/lib/gcc/i686-linux-gnu/4.8/../../../i386-linux-gnu/crti.o
 *(.rel.rodata .rel.rodata.* .rel.gnu.linkonce.r.*)
 .rel.rodata    0x0000000000010ecc      0x630 /usr/lib/gcc/i686-linux-gnu/4.8/../../../i386-linux-gnu/crti.o
 *(.rel.data.rel.ro .rel.data.rel.ro.* .rel.gnu.linkonce.d.rel.ro.*)
 *(.rel.data .rel.data.* .rel.gnu.linkonce.d.*)
 .rel.data.rel  0x00000000000114fc        0x8 /usr/lib/gcc/i686-linux-gnu/4.8/../../../i386-linux-gnu/crti.o
 .rel.data      0x0000000000011504      0x370 /usr/lib/gcc/i686-linux-gnu/4.8/../../../i386-linux-gnu/crti.o
 *(.rel.tdata .rel.tdata.* .rel.gnu.linkonce.td.*)
 *(.rel.tbss .rel.tbss.* .rel.gnu.linkonce.tb.*)
 *(.rel.ctors)
 *(.rel.dtors)
 *(.rel.got)
 .rel.got       0x0000000000011874       0x28 /usr/lib/gcc/i686-linux-gnu/4.8/../../../i386-linux-gnu/crti.o
 *(.rel.bss .rel.bss.* .rel.gnu.linkonce.b.*)
 *(.rel.ifunc)
 .rel.ifunc     0x0000000000000000        0x0 /usr/lib/gcc/i686-linux-gnu/4.8/../../../i386-linux-gnu/crti.o
 .rel.fini_array
                0x000000000001189c        0x8 /usr/lib/gcc/i686-linux-gnu/4.8/../../../i386-linux-gnu/crti.o
 .rel.init_array
                0x00000000000118a4        0x8 /usr/lib/gcc/i686-linux-gnu/4.8/../../../i386-linux-gnu/crti.o

.rel.plt        0x00000000000118ac       0x10
 *(.rel.plt)
 .rel.plt       0x00000000000118ac       0x10 /usr/lib/gcc/i686-linux-gnu/4.8/../../../i386-linux-gnu/crti.o
 *(.rel.iplt)

.init           0x00000000000118bc       0x23
 *(SORT(.init))
 .init          0x00000000000118bc       0x1e /usr/lib/gcc/i686-linux-gnu/4.8/../../../i386-linux-gnu/crti.o
                0x00000000000118bc                _init
 .init          0x00000000000118da        0x5 /usr/lib/gcc/i686-linux-gnu/4.8/../../../i386-linux-gnu/crtn.o

.plt            0x00000000000118e0       0x30
 *(.plt)
 .plt           0x00000000000118e0       0x30 /usr/lib/gcc/i686-linux-gnu/4.8/../../../i386-linux-gnu/crti.o
 *(.iplt)

.text           0x0000000000011910    0x212dc
 *(.text.unlikely .text.*_unlikely .text.unlikely.*)
 *(.text.exit .text.exit.*)
 *(.text.startup .text.startup.*)
 *(.text.hot .text.hot.*)
 *(.text .stub .text.* .gnu.linkonce.t.*)
 .text          0x0000000000011910        0x0 /usr/lib/gcc/i686-linux-gnu/4.8/../../../i386-linux-gnu/crti.o
 .gnu.linkonce.t.__x86.get_pc_thunk.bx
                0x0000000000011910        0x4 /usr/lib/gcc/i686-linux-gnu/4.8/../../../i386-linux-gnu/crti.o
                0x0000000000011910                __x86.get_pc_thunk.bx
 *fill*         0x0000000000011914        0xc 
 .text          0x0000000000011920      0x11b /usr/lib/gcc/i686-linux-gnu/4.8/crtbeginS.o
 .text          0x0000000000011a3b        0x0 receiver.co
 .text.dtls_alert_create
                0x0000000000011a3b       0x10 receiver.co
 .text.dtls_alert_fatal_create
                0x0000000000011a4b       0x1b receiver.co
 .text.dtls_set_handler
                0x0000000000011a66        0xe receiver.co
 .text.try_send
                0x0000000000011a74       0x6d receiver.co
 .text.read_from_peer
                0x0000000000011ae1      0x14e receiver.co
 .text.send_to_peer
                0x0000000000011c2f       0x8c receiver.co
 .text.get_psk_info
                0x0000000000011cbb      0x10f receiver.co
 .text.dtls_handle_read
                0x0000000000011dca      0x100 receiver.co
 .text.print_local_addresses
                0x0000000000011eca       0x80 receiver.co
 .text.set_global_address
                0x0000000000011f4a       0x82 receiver.co
 .text.set_connection_address
                0x0000000000011fcc      0x100 receiver.co
 .text.dtls_complete
                0x00000000000120cc       0x21 receiver.co
 .text.init_dtls
                0x00000000000120ed       0xd7 receiver.co
                0x00000000000120ed                init_dtls
 .text.join_mcast_group
                0x00000000000121c4       0xf7 receiver.co
 .text.dtls_reqeust
                0x00000000000122bb       0x44 receiver.co
                0x00000000000122bb                dtls_reqeust
 .text.process_thread_udp_client_process
                0x00000000000122ff      0x1cd receiver.co
 .text          0x00000000000124cc        0x0 obj_cooja/mtype331.o
 .text.print_processes
                0x00000000000124cc       0x47 obj_cooja/mtype331.o
 .text.rtimer_thread_loop
                0x0000000000012513       0x12 obj_cooja/mtype331.o
 .text.set_rime_addr
                0x0000000000012525       0xdd obj_cooja/mtype331.o
 .text.contiki_init
                0x0000000000012602      0x385 obj_cooja/mtype331.o
                0x0000000000012602                contiki_init
 .text.process_run_thread_loop
                0x0000000000012987       0x6a obj_cooja/mtype331.o
 .text.Java_org_contikios_cooja_corecomm_Lib2_init
                0x00000000000129f1       0x40 obj_cooja/mtype331.o
                0x00000000000129f1                Java_org_contikios_cooja_corecomm_Lib2_init
 .text.Java_org_contikios_cooja_corecomm_Lib2_getMemory
                0x0000000000012a31       0x40 obj_cooja/mtype331.o
                0x0000000000012a31                Java_org_contikios_cooja_corecomm_Lib2_getMemory
 .text.Java_org_contikios_cooja_corecomm_Lib2_setMemory
                0x0000000000012a71       0x77 obj_cooja/mtype331.o
                0x0000000000012a71                Java_org_contikios_cooja_corecomm_Lib2_setMemory
 .text.Java_org_contikios_cooja_corecomm_Lib2_tick
                0x0000000000012ae8       0x5f obj_cooja/mtype331.o
                0x0000000000012ae8                Java_org_contikios_cooja_corecomm_Lib2_tick
 .text.Java_org_contikios_cooja_corecomm_Lib2_setReferenceAddress
                0x0000000000012b47       0x12 obj_cooja/mtype331.o
                0x0000000000012b47                Java_org_contikios_cooja_corecomm_Lib2_setReferenceAddress
 .text          0x0000000000012b59        0x0 obj_cooja/mtype331.a(dtls.o)
 .text.equals   0x0000000000012b59       0x44 obj_cooja/mtype331.a(dtls.o)
 .text.check_stack
                0x0000000000012b9d        0x5 obj_cooja/mtype331.a(dtls.o)
 .text.dtls_int_to_uint8
                0x0000000000012ba2       0x1c obj_cooja/mtype331.a(dtls.o)
 .text.dtls_int_to_uint16
                0x0000000000012bbe       0x2f obj_cooja/mtype331.a(dtls.o)
 .text.dtls_int_to_uint24
                0x0000000000012bed       0x30 obj_cooja/mtype331.a(dtls.o)
 .text.dtls_int_to_uint32
                0x0000000000012c1d       0x3e obj_cooja/mtype331.a(dtls.o)
 .text.dtls_int_to_uint48
                0x0000000000012c5b       0x89 obj_cooja/mtype331.a(dtls.o)
 .text.dtls_uint8_to_int
                0x0000000000012ce4        0xb obj_cooja/mtype331.a(dtls.o)
 .text.dtls_uint16_to_int
                0x0000000000012cef       0x21 obj_cooja/mtype331.a(dtls.o)
 .text.dtls_uint24_to_int
                0x0000000000012d10       0x32 obj_cooja/mtype331.a(dtls.o)
 .text.dtls_hash_init
                0x0000000000012d42       0x13 obj_cooja/mtype331.a(dtls.o)
 .text.dtls_hash_update
                0x0000000000012d55       0x21 obj_cooja/mtype331.a(dtls.o)
 .text.dtls_hash_finalize
                0x0000000000012d76       0x1f obj_cooja/mtype331.a(dtls.o)
 .text.dtls_security_params_epoch
                0x0000000000012d95       0x58 obj_cooja/mtype331.a(dtls.o)
 .text.dtls_security_params
                0x0000000000012ded        0xb obj_cooja/mtype331.a(dtls.o)
 .text.dtls_security_params_next
                0x0000000000012df8       0x59 obj_cooja/mtype331.a(dtls.o)
 .text.dtls_security_params_free_other
                0x0000000000012e51       0x50 obj_cooja/mtype331.a(dtls.o)
 .text.dtls_security_params_switch
                0x0000000000012ea1       0x26 obj_cooja/mtype331.a(dtls.o)
 .text.dtls_alert_create
                0x0000000000012ec7       0x10 obj_cooja/mtype331.a(dtls.o)
 .text.dtls_alert_fatal_create
                0x0000000000012ed7       0x1b obj_cooja/mtype331.a(dtls.o)
 .text.dtls_prng
                0x0000000000012ef2       0x52 obj_cooja/mtype331.a(dtls.o)
 .text.dtls_prng_init
                0x0000000000012f44        0xf obj_cooja/mtype331.a(dtls.o)
 .text.malloc_context
                0x0000000000012f53        0xa obj_cooja/mtype331.a(dtls.o)
 .text.free_context
                0x0000000000012f5d        0x5 obj_cooja/mtype331.a(dtls.o)
 .text.dtls_init
                0x0000000000012f62       0x1c obj_cooja/mtype331.a(dtls.o)
                0x0000000000012f62                dtls_init
 .text.dtls_send
                0x0000000000012f7e       0x5e obj_cooja/mtype331.a(dtls.o)
 .text.dtls_get_peer
                0x0000000000012fdc       0x57 obj_cooja/mtype331.a(dtls.o)
                0x0000000000012fdc                dtls_get_peer
 .text.dtls_add_peer
                0x0000000000013033       0x1d obj_cooja/mtype331.a(dtls.o)
 .text.dtls_write
                0x0000000000013050       0x94 obj_cooja/mtype331.a(dtls.o)
                0x0000000000013050                dtls_write
 .text.dtls_get_cookie
                0x00000000000130e4       0xd8 obj_cooja/mtype331.a(dtls.o)
 .text.dtls_create_cookie
                0x00000000000131bc      0x233 obj_cooja/mtype331.a(dtls.o)
 .text.is_record
                0x00000000000133ef       0x58 obj_cooja/mtype331.a(dtls.o)
 .text.dtls_set_record_header
                0x0000000000013447       0xd9 obj_cooja/mtype331.a(dtls.o)
 .text.dtls_set_handshake_header
                0x0000000000013520       0xc8 obj_cooja/mtype331.a(dtls.o)
 .text.is_tls_ecdhe_ecdsa_with_aes_128_ccm_8
                0x00000000000135e8        0xa obj_cooja/mtype331.a(dtls.o)
 .text.is_tls_psk_with_aes_128_ccm_8
                0x00000000000135f2       0x12 obj_cooja/mtype331.a(dtls.o)
 .text.is_psk_supported
                0x0000000000013604       0x2e obj_cooja/mtype331.a(dtls.o)
 .text.is_rpk_supported
                0x0000000000013632        0xa obj_cooja/mtype331.a(dtls.o)
 .text.is_cert_supported
                0x000000000001363c        0xa obj_cooja/mtype331.a(dtls.o)
 .text.known_cipher
                0x0000000000013646       0x7c obj_cooja/mtype331.a(dtls.o)
 .text.dtls_debug_keyblock
                0x00000000000136c2      0x130 obj_cooja/mtype331.a(dtls.o)
 .text.dtls_handshake_type_to_name
                0x00000000000137f2       0x6c obj_cooja/mtype331.a(dtls.o)
 .text.calculate_key_block
                0x000000000001385e      0x39e obj_cooja/mtype331.a(dtls.o)
 .text.dtls_check_tls_extension
                0x0000000000013bfc      0x1a0 obj_cooja/mtype331.a(dtls.o)
 .text.dtls_update_parameters
                0x0000000000013d9c      0x376 obj_cooja/mtype331.a(dtls.o)
 .text.check_client_keyexchange
                0x0000000000014112       0xd5 obj_cooja/mtype331.a(dtls.o)
 .text.update_hs_hash
                0x00000000000141e7       0x51 obj_cooja/mtype331.a(dtls.o)
 .text.copy_hs_hash
                0x0000000000014238       0x28 obj_cooja/mtype331.a(dtls.o)
 .text.finalize_hs_hash
                0x0000000000014260       0x20 obj_cooja/mtype331.a(dtls.o)
 .text.clear_hs_hash
                0x0000000000014280       0x3f obj_cooja/mtype331.a(dtls.o)
 .text.check_finished
                0x00000000000142bf      0x1ef obj_cooja/mtype331.a(dtls.o)
 .text.dtls_prepare_record
                0x00000000000144ae      0x550 obj_cooja/mtype331.a(dtls.o)
 .text.dtls_send_handshake_msg_hash
                0x00000000000149fe      0x172 obj_cooja/mtype331.a(dtls.o)
 .text.dtls_send_handshake_msg
                0x0000000000014b70       0x48 obj_cooja/mtype331.a(dtls.o)
 .text.dtls_encrypt_data
                0x0000000000014bb8       0xc1 obj_cooja/mtype331.a(dtls.o)
                0x0000000000014bb8                dtls_encrypt_data
 .text.dtls_encrypt_x
                0x0000000000014c79       0x8c obj_cooja/mtype331.a(dtls.o)
 .text.dtls_prepare_record_x
                0x0000000000014d05      0x3c4 obj_cooja/mtype331.a(dtls.o)
 .text.dtls_send_multi
                0x00000000000150c9      0x42f obj_cooja/mtype331.a(dtls.o)
 .text.dtls_send_alert
                0x00000000000154f8       0x42 obj_cooja/mtype331.a(dtls.o)
 .text.dtls_close
                0x000000000001553a       0x8c obj_cooja/mtype331.a(dtls.o)
                0x000000000001553a                dtls_close
 .text.dtls_destroy_peer
                0x00000000000155c6       0x77 obj_cooja/mtype331.a(dtls.o)
 .text.dtls_verify_peer
                0x000000000001563d      0x26d obj_cooja/mtype331.a(dtls.o)
 .text.dtls_send_server_hello
                0x00000000000158aa      0x1ab obj_cooja/mtype331.a(dtls.o)
 .text.dtls_send_server_key_exchange_psk
                0x0000000000015a55      0x103 obj_cooja/mtype331.a(dtls.o)
 .text.dtls_send_server_hello_done
                0x0000000000015b58       0x32 obj_cooja/mtype331.a(dtls.o)
 .text.dtls_send_server_hello_msgs
                0x0000000000015b8a      0x16b obj_cooja/mtype331.a(dtls.o)
 .text.dtls_send_ccs
                0x0000000000015cf5       0x35 obj_cooja/mtype331.a(dtls.o)
 .text.dtls_send_client_key_exchange
                0x0000000000015d2a      0x231 obj_cooja/mtype331.a(dtls.o)
 .text.dtls_send_finished
                0x0000000000015f5b      0x182 obj_cooja/mtype331.a(dtls.o)
 .text.dtls_send_client_hello
                0x00000000000160dd      0x631 obj_cooja/mtype331.a(dtls.o)
 .text.check_server_hello
                0x000000000001670e      0x1db obj_cooja/mtype331.a(dtls.o)
 .text.check_server_hello_verify_request
                0x00000000000168e9       0x67 obj_cooja/mtype331.a(dtls.o)
 .text.check_server_key_exchange_psk
                0x0000000000016950      0x109 obj_cooja/mtype331.a(dtls.o)
 .text.check_certificate_request
                0x0000000000016a59      0x1f7 obj_cooja/mtype331.a(dtls.o)
 .text.check_server_hellodone
                0x0000000000016c50       0xf3 obj_cooja/mtype331.a(dtls.o)
 .text.decrypt_verify
                0x0000000000016d43      0x35a obj_cooja/mtype331.a(dtls.o)
 .text.dtls_send_hello_request
                0x000000000001709d       0x44 obj_cooja/mtype331.a(dtls.o)
 .text.dtls_renegotiate
                0x00000000000170e1       0xf6 obj_cooja/mtype331.a(dtls.o)
                0x00000000000170e1                dtls_renegotiate
 .text.handle_handshake_msg
                0x00000000000171d7      0x7b9 obj_cooja/mtype331.a(dtls.o)
 .text.handle_handshake
                0x0000000000017990      0x424 obj_cooja/mtype331.a(dtls.o)
 .text.handle_ccs
                0x0000000000017db4       0xa8 obj_cooja/mtype331.a(dtls.o)
 .text.handle_alert
                0x0000000000017e5c      0x194 obj_cooja/mtype331.a(dtls.o)
 .text.dtls_alert_send_from_err
                0x0000000000017ff0       0xe0 obj_cooja/mtype331.a(dtls.o)
 .text.dtls_handle_message
                0x00000000000180d0      0x665 obj_cooja/mtype331.a(dtls.o)
                0x00000000000180d0                dtls_handle_message
 .text.dtls_new_context
                0x0000000000018735      0x12b obj_cooja/mtype331.a(dtls.o)
                0x0000000000018735                dtls_new_context
 .text.dtls_free_context
                0x0000000000018860       0x68 obj_cooja/mtype331.a(dtls.o)
                0x0000000000018860                dtls_free_context
 .text.dtls_connect_peer
                0x00000000000188c8      0x13b obj_cooja/mtype331.a(dtls.o)
                0x00000000000188c8                dtls_connect_peer
 .text.dtls_connect
                0x0000000000018a03      0x114 obj_cooja/mtype331.a(dtls.o)
                0x0000000000018a03                dtls_connect
 .text.dtls_retransmit
                0x0000000000018b17      0x32f obj_cooja/mtype331.a(dtls.o)
 .text.dtls_stop_retransmission
                0x0000000000018e46       0x84 obj_cooja/mtype331.a(dtls.o)
 .text.dtls_check_retransmit
                0x0000000000018eca       0x81 obj_cooja/mtype331.a(dtls.o)
                0x0000000000018eca                dtls_check_retransmit
 .text.process_thread_dtls_retransmit_process
                0x0000000000018f4b      0x1aa obj_cooja/mtype331.a(dtls.o)
 .text.change_sequence
                0x00000000000190f5       0x43 obj_cooja/mtype331.a(dtls.o)
                0x00000000000190f5                change_sequence
 .text          0x0000000000019138        0x0 obj_cooja/mtype331.a(tinydtls-crypto)
 .text.dtls_int_to_uint16
                0x0000000000019138       0x2f obj_cooja/mtype331.a(tinydtls-crypto)
 .text.dtls_hash_init
                0x0000000000019167       0x13 obj_cooja/mtype331.a(tinydtls-crypto)
 .text.dtls_cipher_context_get
                0x000000000001917a        0xa obj_cooja/mtype331.a(tinydtls-crypto)
 .text.dtls_cipher_context_release
                0x0000000000019184        0x5 obj_cooja/mtype331.a(tinydtls-crypto)
 .text.dtls_crypto_init
                0x0000000000019189       0x20 obj_cooja/mtype331.a(tinydtls-crypto)
                0x0000000000019189                dtls_crypto_init
 .text.dtls_handshake_malloc
                0x00000000000191a9       0x14 obj_cooja/mtype331.a(tinydtls-crypto)
 .text.dtls_handshake_dealloc
                0x00000000000191bd       0x1b obj_cooja/mtype331.a(tinydtls-crypto)
 .text.dtls_security_malloc
                0x00000000000191d8       0x14 obj_cooja/mtype331.a(tinydtls-crypto)
 .text.dtls_security_dealloc
                0x00000000000191ec       0x1b obj_cooja/mtype331.a(tinydtls-crypto)
 .text.dtls_handshake_new
                0x0000000000019207       0x67 obj_cooja/mtype331.a(tinydtls-crypto)
                0x0000000000019207                dtls_handshake_new
 .text.dtls_handshake_free
                0x000000000001926e       0x29 obj_cooja/mtype331.a(tinydtls-crypto)
                0x000000000001926e                dtls_handshake_free
 .text.dtls_security_new
                0x0000000000019297       0x60 obj_cooja/mtype331.a(tinydtls-crypto)
                0x0000000000019297                dtls_security_new
 .text.dtls_security_free
                0x00000000000192f7       0x1b obj_cooja/mtype331.a(tinydtls-crypto)
                0x00000000000192f7                dtls_security_free
 .text.dtls_p_hash
                0x0000000000019312      0x2fa obj_cooja/mtype331.a(tinydtls-crypto)
                0x0000000000019312                dtls_p_hash
 .text.dtls_prf
                0x000000000001960c       0x74 obj_cooja/mtype331.a(tinydtls-crypto)
                0x000000000001960c                dtls_prf
 .text.dtls_prf_custom
                0x0000000000019680       0xd4 obj_cooja/mtype331.a(tinydtls-crypto)
                0x0000000000019680                dtls_prf_custom
 .text.dtls_mac
                0x0000000000019754       0xb3 obj_cooja/mtype331.a(tinydtls-crypto)
                0x0000000000019754                dtls_mac
 .text.dtls_ccm_encrypt
                0x0000000000019807       0x66 obj_cooja/mtype331.a(tinydtls-crypto)
 .text.dtls_ccm_decrypt
                0x000000000001986d       0x66 obj_cooja/mtype331.a(tinydtls-crypto)
 .text.dtls_psk_pre_master_secret
                0x00000000000198d3       0x9a obj_cooja/mtype331.a(tinydtls-crypto)
                0x00000000000198d3                dtls_psk_pre_master_secret
 .text.dtls_encrypt
                0x000000000001996d       0xa6 obj_cooja/mtype331.a(tinydtls-crypto)
                0x000000000001996d                dtls_encrypt
 .text.dtls_decrypt
                0x0000000000019a13       0xa6 obj_cooja/mtype331.a(tinydtls-crypto)
                0x0000000000019a13                dtls_decrypt
 .text          0x0000000000019ab9        0x0 obj_cooja/mtype331.a(hmac.o)
 .text.dtls_hash_init
                0x0000000000019ab9       0x13 obj_cooja/mtype331.a(hmac.o)
 .text.dtls_hash_update
                0x0000000000019acc       0x21 obj_cooja/mtype331.a(hmac.o)
 .text.dtls_hash_finalize
                0x0000000000019aed       0x1f obj_cooja/mtype331.a(hmac.o)
 .text.dtls_hmac_context_new
                0x0000000000019b0c       0x14 obj_cooja/mtype331.a(hmac.o)
 .text.dtls_hmac_context_free
                0x0000000000019b20       0x1b obj_cooja/mtype331.a(hmac.o)
 .text.dtls_hmac_storage_init
                0x0000000000019b3b       0x14 obj_cooja/mtype331.a(hmac.o)
                0x0000000000019b3b                dtls_hmac_storage_init
 .text.dtls_hmac_update
                0x0000000000019b4f       0x3e obj_cooja/mtype331.a(hmac.o)
                0x0000000000019b4f                dtls_hmac_update
 .text.dtls_hmac_new
                0x0000000000019b8d       0x32 obj_cooja/mtype331.a(hmac.o)
                0x0000000000019b8d                dtls_hmac_new
 .text.dtls_hmac_init
                0x0000000000019bbf      0x11b obj_cooja/mtype331.a(hmac.o)
                0x0000000000019bbf                dtls_hmac_init
 .text.dtls_hmac_free
                0x0000000000019cda       0x19 obj_cooja/mtype331.a(hmac.o)
                0x0000000000019cda                dtls_hmac_free
 .text.dtls_hmac_finalize
                0x0000000000019cf3       0xde obj_cooja/mtype331.a(hmac.o)
                0x0000000000019cf3                dtls_hmac_finalize
 .text          0x0000000000019dd1        0x0 obj_cooja/mtype331.a(netq.o)
 .text.netq_malloc_node
                0x0000000000019dd1       0x14 obj_cooja/mtype331.a(netq.o)
 .text.netq_free_node
                0x0000000000019de5       0x1b obj_cooja/mtype331.a(netq.o)
 .text.netq_init
                0x0000000000019e00       0x14 obj_cooja/mtype331.a(netq.o)
                0x0000000000019e00                netq_init
 .text.netq_insert_node
                0x0000000000019e14       0xb7 obj_cooja/mtype331.a(netq.o)
                0x0000000000019e14                netq_insert_node
 .text.netq_head
                0x0000000000019ecb       0x20 obj_cooja/mtype331.a(netq.o)
                0x0000000000019ecb                netq_head
 .text.netq_next
                0x0000000000019eeb       0x20 obj_cooja/mtype331.a(netq.o)
                0x0000000000019eeb                netq_next
 .text.netq_remove
                0x0000000000019f0b       0x28 obj_cooja/mtype331.a(netq.o)
                0x0000000000019f0b                netq_remove
 .text.netq_pop_first
                0x0000000000019f33       0x20 obj_cooja/mtype331.a(netq.o)
                0x0000000000019f33                netq_pop_first
 .text.netq_node_new
                0x0000000000019f53       0x4c obj_cooja/mtype331.a(netq.o)
                0x0000000000019f53                netq_node_new
 .text.netq_node_free
                0x0000000000019f9f       0x19 obj_cooja/mtype331.a(netq.o)
                0x0000000000019f9f                netq_node_free
 .text.netq_delete_all
                0x0000000000019fb8       0x2f obj_cooja/mtype331.a(netq.o)
                0x0000000000019fb8                netq_delete_all
 .text          0x0000000000019fe7        0x0 obj_cooja/mtype331.a(dtls_time.o)
 .text.dtls_clock_init
                0x0000000000019fe7       0x12 obj_cooja/mtype331.a(dtls_time.o)
                0x0000000000019fe7                dtls_clock_init
 .text.dtls_ticks
                0x0000000000019ff9       0x12 obj_cooja/mtype331.a(dtls_time.o)
                0x0000000000019ff9                dtls_ticks
 .text          0x000000000001a00b        0x0 obj_cooja/mtype331.a(peer.o)
 .text.peer_init
                0x000000000001a00b       0x14 obj_cooja/mtype331.a(peer.o)
                0x000000000001a00b                peer_init
 .text.dtls_malloc_peer
                0x000000000001a01f       0x14 obj_cooja/mtype331.a(peer.o)
 .text.dtls_free_peer
                0x000000000001a033       0x45 obj_cooja/mtype331.a(peer.o)
                0x000000000001a033                dtls_free_peer
 .text.dtls_new_peer
                0x000000000001a078       0x93 obj_cooja/mtype331.a(peer.o)
                0x000000000001a078                dtls_new_peer
 .text          0x000000000001a10b        0x0 obj_cooja/mtype331.a(session.o)
 .text.dtls_session_init
                0x000000000001a10b       0x43 obj_cooja/mtype331.a(session.o)
                0x000000000001a10b                dtls_session_init
 .text.dtls_session_equals
                0x000000000001a14e       0x9f obj_cooja/mtype331.a(session.o)
                0x000000000001a14e                dtls_session_equals
 .text          0x000000000001a1ed        0x0 obj_cooja/mtype331.a(rijndael.o)
 .text.rijndaelKeySetupEnc
                0x000000000001a1ed      0x610 obj_cooja/mtype331.a(rijndael.o)
                0x000000000001a1ed                rijndaelKeySetupEnc
 .text.rijndaelEncrypt
                0x000000000001a7fd      0x613 obj_cooja/mtype331.a(rijndael.o)
                0x000000000001a7fd                rijndaelEncrypt
 .text.rijndael_set_key_enc_only
                0x000000000001ae10       0x41 obj_cooja/mtype331.a(rijndael.o)
                0x000000000001ae10                rijndael_set_key_enc_only
 .text.rijndael_encrypt
                0x000000000001ae51       0x2d obj_cooja/mtype331.a(rijndael.o)
                0x000000000001ae51                rijndael_encrypt
 .text          0x000000000001ae7e        0x0 obj_cooja/mtype331.a(tinydtls-ccm.o)
 .text.memxor   0x000000000001ae7e       0x2f obj_cooja/mtype331.a(tinydtls-ccm.o)
 .text.equals   0x000000000001aead       0x44 obj_cooja/mtype331.a(tinydtls-ccm.o)
 .text.dtls_int_to_uint16
                0x000000000001aef1       0x2f obj_cooja/mtype331.a(tinydtls-ccm.o)
 .text.block0   0x000000000001af20       0x82 obj_cooja/mtype331.a(tinydtls-ccm.o)
 .text.add_auth_data
                0x000000000001afa2      0x1c0 obj_cooja/mtype331.a(tinydtls-ccm.o)
 .text.encrypt  0x000000000001b162       0xc3 obj_cooja/mtype331.a(tinydtls-ccm.o)
 .text.mac      0x000000000001b225       0x5d obj_cooja/mtype331.a(tinydtls-ccm.o)
 .text.dtls_ccm_encrypt_message
                0x000000000001b282      0x298 obj_cooja/mtype331.a(tinydtls-ccm.o)
                0x000000000001b282                dtls_ccm_encrypt_message
 .text.dtls_ccm_decrypt_message
                0x000000000001b51a      0x2b2 obj_cooja/mtype331.a(tinydtls-ccm.o)
                0x000000000001b51a                dtls_ccm_decrypt_message
 .text          0x000000000001b7cc        0x0 obj_cooja/mtype331.a(sha2.o)
 .text.SHA256_Init
                0x000000000001b7cc       0x5a obj_cooja/mtype331.a(sha2.o)
                0x000000000001b7cc                SHA256_Init
 .text.SHA256_Transform
                0x000000000001b826      0x3c3 obj_cooja/mtype331.a(sha2.o)
                0x000000000001b826                SHA256_Transform
 .text.SHA256_Update
                0x000000000001bbe9      0x1b6 obj_cooja/mtype331.a(sha2.o)
                0x000000000001bbe9                SHA256_Update
 .text.SHA256_Final
                0x000000000001bd9f      0x2a4 obj_cooja/mtype331.a(sha2.o)
                0x000000000001bd9f                SHA256_Final
 .text.SHA256_End
                0x000000000001c043      0x109 obj_cooja/mtype331.a(sha2.o)
                0x000000000001c043                SHA256_End
 .text.SHA256_Data
                0x000000000001c14c       0x69 obj_cooja/mtype331.a(sha2.o)
                0x000000000001c14c                SHA256_Data
 .text          0x000000000001c1b5        0x0 obj_cooja/mtype331.a(debug.o)
 .text.dtls_package_name
                0x000000000001c1b5        0xa obj_cooja/mtype331.a(debug.o)
                0x000000000001c1b5                dtls_package_name
 .text.dtls_package_version
                0x000000000001c1bf        0xa obj_cooja/mtype331.a(debug.o)
                0x000000000001c1bf                dtls_package_version
 .text.dtls_get_log_level
                0x000000000001c1c9        0xa obj_cooja/mtype331.a(debug.o)
                0x000000000001c1c9                dtls_get_log_level
 .text.dtls_set_log_level
                0x000000000001c1d3        0xd obj_cooja/mtype331.a(debug.o)
                0x000000000001c1d3                dtls_set_log_level
 .text.print_timestamp
                0x000000000001c1e0        0xa obj_cooja/mtype331.a(debug.o)
 .text.dsrv_print_addr
                0x000000000001c1ea      0x190 obj_cooja/mtype331.a(debug.o)
 .text.hexdump  0x000000000001c37a       0x8c obj_cooja/mtype331.a(debug.o)
                0x000000000001c37a                hexdump
 .text.dump     0x000000000001c406       0x36 obj_cooja/mtype331.a(debug.o)
                0x000000000001c406                dump
 .text.dtls_dsrv_log_addr
                0x000000000001c43c       0x76 obj_cooja/mtype331.a(debug.o)
                0x000000000001c43c                dtls_dsrv_log_addr
 .text.dtls_dsrv_hexdump_log
                0x000000000001c4b2      0x16a obj_cooja/mtype331.a(debug.o)
                0x000000000001c4b2                dtls_dsrv_hexdump_log
 .text          0x000000000001c61c        0x0 obj_cooja/mtype331.a(simEnvChange.o)
 .text.doActionsBeforeTick
                0x000000000001c61c       0x31 obj_cooja/mtype331.a(simEnvChange.o)
                0x000000000001c61c                doActionsBeforeTick
 .text.doActionsAfterTick
                0x000000000001c64d       0x32 obj_cooja/mtype331.a(simEnvChange.o)
                0x000000000001c64d                doActionsAfterTick
 .text          0x000000000001c67f        0x0 obj_cooja/mtype331.a(cooja_mt.o)
 .text.cooja_mt_init
                0x000000000001c67f        0xd obj_cooja/mtype331.a(cooja_mt.o)
                0x000000000001c67f                cooja_mt_init
 .text.cooja_mt_remove
                0x000000000001c68c        0xd obj_cooja/mtype331.a(cooja_mt.o)
                0x000000000001c68c                cooja_mt_remove
 .text.cooja_mt_start
                0x000000000001c699       0x2d obj_cooja/mtype331.a(cooja_mt.o)
                0x000000000001c699                cooja_mt_start
 .text.cooja_mt_exec
                0x000000000001c6c6       0x31 obj_cooja/mtype331.a(cooja_mt.o)
                0x000000000001c6c6                cooja_mt_exec
 .text.cooja_mt_exit
                0x000000000001c6f7       0x22 obj_cooja/mtype331.a(cooja_mt.o)
                0x000000000001c6f7                cooja_mt_exit
 .text.cooja_mt_yield
                0x000000000001c719       0x22 obj_cooja/mtype331.a(cooja_mt.o)
                0x000000000001c719                cooja_mt_yield
 .text          0x000000000001c73b        0x0 obj_cooja/mtype331.a(cooja_mtarch.o)
 .text.cooja_mtarch_init
                0x000000000001c73b        0x5 obj_cooja/mtype331.a(cooja_mtarch.o)
                0x000000000001c73b                cooja_mtarch_init
 .text.cooja_mtarch_start
                0x000000000001c740       0x7b obj_cooja/mtype331.a(cooja_mtarch.o)
                0x000000000001c740                cooja_mtarch_start
 .text.cooja_sw
                0x000000000001c7bb       0x22 obj_cooja/mtype331.a(cooja_mtarch.o)
                0x000000000001c7bb                cooja_sw
 .text.cooja_mtarch_exec
                0x000000000001c7dd       0x1c obj_cooja/mtype331.a(cooja_mtarch.o)
                0x000000000001c7dd                cooja_mtarch_exec
 .text.cooja_mtarch_remove
                0x000000000001c7f9        0x5 obj_cooja/mtype331.a(cooja_mtarch.o)
                0x000000000001c7f9                cooja_mtarch_remove
 .text.cooja_mtarch_yield
                0x000000000001c7fe        0xa obj_cooja/mtype331.a(cooja_mtarch.o)
                0x000000000001c7fe                cooja_mtarch_yield
 .text.cooja_mtarch_pstop
                0x000000000001c808        0x5 obj_cooja/mtype331.a(cooja_mtarch.o)
                0x000000000001c808                cooja_mtarch_pstop
 .text.cooja_mtarch_pstart
                0x000000000001c80d        0x5 obj_cooja/mtype331.a(cooja_mtarch.o)
                0x000000000001c80d                cooja_mtarch_pstart
 .text.cooja_mtarch_stack_usage
                0x000000000001c812       0x3e obj_cooja/mtype331.a(cooja_mtarch.o)
                0x000000000001c812                cooja_mtarch_stack_usage
 .text          0x000000000001c850        0x0 obj_cooja/mtype331.a(rtimer-arch.o)
 .text.rtimer_arch_init
                0x000000000001c850       0x23 obj_cooja/mtype331.a(rtimer-arch.o)
                0x000000000001c850                rtimer_arch_init
 .text.rtimer_arch_schedule
                0x000000000001c873       0x2f obj_cooja/mtype331.a(rtimer-arch.o)
                0x000000000001c873                rtimer_arch_schedule
 .text.rtimer_arch_next
                0x000000000001c8a2       0x10 obj_cooja/mtype331.a(rtimer-arch.o)
                0x000000000001c8a2                rtimer_arch_next
 .text.rtimer_arch_pending
                0x000000000001c8b2        0xa obj_cooja/mtype331.a(rtimer-arch.o)
                0x000000000001c8b2                rtimer_arch_pending
 .text.rtimer_arch_check
                0x000000000001c8bc       0x47 obj_cooja/mtype331.a(rtimer-arch.o)
                0x000000000001c8bc                rtimer_arch_check
 .text.rtimer_arch_now
                0x000000000001c903       0x10 obj_cooja/mtype331.a(rtimer-arch.o)
                0x000000000001c903                rtimer_arch_now
 .text          0x000000000001c913        0x0 obj_cooja/mtype331.a(beep.o)
 .text.beep_alarm
                0x000000000001c913        0xc obj_cooja/mtype331.a(beep.o)
                0x000000000001c913                beep_alarm
 .text.beep_beep
                0x000000000001c91f        0xc obj_cooja/mtype331.a(beep.o)
                0x000000000001c91f                beep_beep
 .text.beep     0x000000000001c92b        0xc obj_cooja/mtype331.a(beep.o)
                0x000000000001c92b                beep
 .text.beep_down
                0x000000000001c937        0xc obj_cooja/mtype331.a(beep.o)
                0x000000000001c937                beep_down
 .text.beep_on  0x000000000001c943        0xc obj_cooja/mtype331.a(beep.o)
                0x000000000001c943                beep_on
 .text.beep_off
                0x000000000001c94f        0xc obj_cooja/mtype331.a(beep.o)
                0x000000000001c94f                beep_off
 .text.beep_spinup
                0x000000000001c95b        0xc obj_cooja/mtype331.a(beep.o)
                0x000000000001c95b                beep_spinup
 .text.beep_quick
                0x000000000001c967        0xc obj_cooja/mtype331.a(beep.o)
                0x000000000001c967                beep_quick
 .text.beep_long
                0x000000000001c973        0xc obj_cooja/mtype331.a(beep.o)
                0x000000000001c973                beep_long
 .text.doInterfaceActionsBeforeTick
                0x000000000001c97f        0x5 obj_cooja/mtype331.a(beep.o)
 .text.doInterfaceActionsAfterTick
                0x000000000001c984        0x5 obj_cooja/mtype331.a(beep.o)
 .text          0x000000000001c989        0x0 obj_cooja/mtype331.a(button-sensor.o)
 .text.value    0x000000000001c989       0x2f obj_cooja/mtype331.a(button-sensor.o)
 .text.configure
                0x000000000001c9b8       0x50 obj_cooja/mtype331.a(button-sensor.o)
 .text.status   0x000000000001ca08       0x1f obj_cooja/mtype331.a(button-sensor.o)
 .text.doInterfaceActionsBeforeTick
                0x000000000001ca27       0x60 obj_cooja/mtype331.a(button-sensor.o)
 .text.doInterfaceActionsAfterTick
                0x000000000001ca87        0x5 obj_cooja/mtype331.a(button-sensor.o)
 .text          0x000000000001ca8c        0x0 obj_cooja/mtype331.a(leds-arch.o)
 .text.leds_arch_init
                0x000000000001ca8c        0xc obj_cooja/mtype331.a(leds-arch.o)
                0x000000000001ca8c                leds_arch_init
 .text.leds_arch_get
                0x000000000001ca98        0xc obj_cooja/mtype331.a(leds-arch.o)
                0x000000000001ca98                leds_arch_get
 .text.leds_arch_set
                0x000000000001caa4       0x23 obj_cooja/mtype331.a(leds-arch.o)
                0x000000000001caa4                leds_arch_set
 .text.doInterfaceActionsBeforeTick
                0x000000000001cac7        0x5 obj_cooja/mtype331.a(leds-arch.o)
 .text.doInterfaceActionsAfterTick
                0x000000000001cacc        0x5 obj_cooja/mtype331.a(leds-arch.o)
 .text          0x000000000001cad1        0x0 obj_cooja/mtype331.a(moteid.o)
 .text.doInterfaceActionsBeforeTick
                0x000000000001cad1       0x2a obj_cooja/mtype331.a(moteid.o)
 .text.doInterfaceActionsAfterTick
                0x000000000001cafb        0x5 obj_cooja/mtype331.a(moteid.o)
 .text          0x000000000001cb00        0x0 obj_cooja/mtype331.a(pir-sensor.o)
 .text.value    0x000000000001cb00        0xf obj_cooja/mtype331.a(pir-sensor.o)
 .text.configure
                0x000000000001cb0f       0x3a obj_cooja/mtype331.a(pir-sensor.o)
 .text.status   0x000000000001cb49       0x23 obj_cooja/mtype331.a(pir-sensor.o)
 .text.doInterfaceActionsBeforeTick
                0x000000000001cb6c       0x40 obj_cooja/mtype331.a(pir-sensor.o)
 .text.doInterfaceActionsAfterTick
                0x000000000001cbac        0x5 obj_cooja/mtype331.a(pir-sensor.o)
 .text          0x000000000001cbb1        0x0 obj_cooja/mtype331.a(rs232.o)
 .text.rs232_init
                0x000000000001cbb1        0x5 obj_cooja/mtype331.a(rs232.o)
                0x000000000001cbb1                rs232_init
 .text.rs232_set_speed
                0x000000000001cbb6        0xe obj_cooja/mtype331.a(rs232.o)
                0x000000000001cbb6                rs232_set_speed
 .text.rs232_set_input
                0x000000000001cbc4        0xd obj_cooja/mtype331.a(rs232.o)
                0x000000000001cbc4                rs232_set_input
 .text.rs232_send
                0x000000000001cbd1       0x22 obj_cooja/mtype331.a(rs232.o)
                0x000000000001cbd1                rs232_send
 .text.rs232_print
                0x000000000001cbf3       0x1b obj_cooja/mtype331.a(rs232.o)
                0x000000000001cbf3                rs232_print
 .text.slip_arch_writeb
                0x000000000001cc0e       0x1d obj_cooja/mtype331.a(rs232.o)
                0x000000000001cc0e                slip_arch_writeb
 .text.doInterfaceActionsBeforeTick
                0x000000000001cc2b       0xb2 obj_cooja/mtype331.a(rs232.o)
 .text.doInterfaceActionsAfterTick
                0x000000000001ccdd        0x5 obj_cooja/mtype331.a(rs232.o)
 .text          0x000000000001cce2        0x0 obj_cooja/mtype331.a(vib-sensor.o)
 .text.value    0x000000000001cce2        0xf obj_cooja/mtype331.a(vib-sensor.o)
 .text.configure
                0x000000000001ccf1       0x3a obj_cooja/mtype331.a(vib-sensor.o)
 .text.status   0x000000000001cd2b       0x23 obj_cooja/mtype331.a(vib-sensor.o)
 .text.doInterfaceActionsBeforeTick
                0x000000000001cd4e       0x40 obj_cooja/mtype331.a(vib-sensor.o)
 .text.doInterfaceActionsAfterTick
                0x000000000001cd8e        0x5 obj_cooja/mtype331.a(vib-sensor.o)
 .text          0x000000000001cd93        0x0 obj_cooja/mtype331.a(clock.o)
 .text.clock_init
                0x000000000001cd93        0x5 obj_cooja/mtype331.a(clock.o)
                0x000000000001cd93                clock_init
 .text.clock_time
                0x000000000001cd98        0xa obj_cooja/mtype331.a(clock.o)
                0x000000000001cd98                clock_time
 .text.clock_seconds
                0x000000000001cda2       0x16 obj_cooja/mtype331.a(clock.o)
                0x000000000001cda2                clock_seconds
 .text.clock_delay
                0x000000000001cdb8        0x5 obj_cooja/mtype331.a(clock.o)
                0x000000000001cdb8                clock_delay
 .text.doInterfaceActionsBeforeTick
                0x000000000001cdbd        0x5 obj_cooja/mtype331.a(clock.o)
 .text.doInterfaceActionsAfterTick
                0x000000000001cdc2        0x5 obj_cooja/mtype331.a(clock.o)
 .text          0x000000000001cdc7        0x0 obj_cooja/mtype331.a(log.o)
 .text.simlog_char
                0x000000000001cdc7       0x42 obj_cooja/mtype331.a(log.o)
                0x000000000001cdc7                simlog_char
 .text.simlog   0x000000000001ce09       0x6d obj_cooja/mtype331.a(log.o)
                0x000000000001ce09                simlog
 .text.log_message
                0x000000000001ce76       0x1e obj_cooja/mtype331.a(log.o)
                0x000000000001ce76                log_message
 .text.doInterfaceActionsBeforeTick
                0x000000000001ce94        0x5 obj_cooja/mtype331.a(log.o)
 .text.doInterfaceActionsAfterTick
                0x000000000001ce99        0x5 obj_cooja/mtype331.a(log.o)
 .text.log_set_putchar_with_slip
                0x000000000001ce9e        0xd obj_cooja/mtype331.a(log.o)
                0x000000000001ce9e                log_set_putchar_with_slip
 .text.putchar  0x000000000001ceab       0x84 obj_cooja/mtype331.a(log.o)
                0x000000000001ceab                log_putchar
 .text.puts     0x000000000001cf2f       0x24 obj_cooja/mtype331.a(log.o)
                0x000000000001cf2f                log_puts
 .text.printf   0x000000000001cf53       0x61 obj_cooja/mtype331.a(log.o)
                0x000000000001cf53                log_printf
 .text          0x000000000001cfb4        0x0 obj_cooja/mtype331.a(cfs-cooja.o)
 .text.cfs_open
                0x000000000001cfb4       0x69 obj_cooja/mtype331.a(cfs-cooja.o)
                0x000000000001cfb4                cfs_open
 .text.cfs_close
                0x000000000001d01d        0xc obj_cooja/mtype331.a(cfs-cooja.o)
                0x000000000001d01d                cfs_close
 .text.cfs_read
                0x000000000001d029       0x9e obj_cooja/mtype331.a(cfs-cooja.o)
                0x000000000001d029                cfs_read
 .text.cfs_write
                0x000000000001d0c7       0xdd obj_cooja/mtype331.a(cfs-cooja.o)
                0x000000000001d0c7                cfs_write
 .text.cfs_seek
                0x000000000001d1a4       0x88 obj_cooja/mtype331.a(cfs-cooja.o)
                0x000000000001d1a4                cfs_seek
 .text.cfs_remove
                0x000000000001d22c       0x29 obj_cooja/mtype331.a(cfs-cooja.o)
                0x000000000001d22c                cfs_remove
 .text.cfs_opendir
                0x000000000001d255        0xa obj_cooja/mtype331.a(cfs-cooja.o)
                0x000000000001d255                cfs_opendir
 .text.cfs_readdir
                0x000000000001d25f        0xa obj_cooja/mtype331.a(cfs-cooja.o)
                0x000000000001d25f                cfs_readdir
 .text.cfs_closedir
                0x000000000001d269        0x5 obj_cooja/mtype331.a(cfs-cooja.o)
                0x000000000001d269                cfs_closedir
 .text.doInterfaceActionsBeforeTick
                0x000000000001d26e        0x5 obj_cooja/mtype331.a(cfs-cooja.o)
 .text.doInterfaceActionsAfterTick
                0x000000000001d273        0x5 obj_cooja/mtype331.a(cfs-cooja.o)
 .text          0x000000000001d278        0x0 obj_cooja/mtype331.a(cooja-radio.o)
 .text.packetbuf_set_attr
                0x000000000001d278       0x2a obj_cooja/mtype331.a(cooja-radio.o)
 .text.set_send_on_cca
                0x000000000001d2a2       0x17 obj_cooja/mtype331.a(cooja-radio.o)
 .text.set_frame_filtering
                0x000000000001d2b9        0xd obj_cooja/mtype331.a(cooja-radio.o)
 .text.set_auto_ack
                0x000000000001d2c6        0xd obj_cooja/mtype331.a(cooja-radio.o)
 .text.set_poll_mode
                0x000000000001d2d3        0xd obj_cooja/mtype331.a(cooja-radio.o)
 .text.radio_set_channel
                0x000000000001d2e0        0xd obj_cooja/mtype331.a(cooja-radio.o)
                0x000000000001d2e0                radio_set_channel
 .text.radio_set_txpower
                0x000000000001d2ed       0x17 obj_cooja/mtype331.a(cooja-radio.o)
                0x000000000001d2ed                radio_set_txpower
 .text.radio_signal_strength_last
                0x000000000001d304        0xa obj_cooja/mtype331.a(cooja-radio.o)
                0x000000000001d304                radio_signal_strength_last
 .text.radio_signal_strength_current
                0x000000000001d30e        0xa obj_cooja/mtype331.a(cooja-radio.o)
                0x000000000001d30e                radio_signal_strength_current
 .text.radio_LQI
                0x000000000001d318        0xa obj_cooja/mtype331.a(cooja-radio.o)
                0x000000000001d318                radio_LQI
 .text.radio_on
                0x000000000001d322       0x11 obj_cooja/mtype331.a(cooja-radio.o)
 .text.radio_off
                0x000000000001d333       0x11 obj_cooja/mtype331.a(cooja-radio.o)
 .text.doInterfaceActionsBeforeTick
                0x000000000001d344       0x4b obj_cooja/mtype331.a(cooja-radio.o)
 .text.doInterfaceActionsAfterTick
                0x000000000001d38f        0x5 obj_cooja/mtype331.a(cooja-radio.o)
 .text.radio_read
                0x000000000001d394       0xb7 obj_cooja/mtype331.a(cooja-radio.o)
 .text.channel_clear
                0x000000000001d44b       0x1b obj_cooja/mtype331.a(cooja-radio.o)
 .text.radio_send
                0x000000000001d466       0xda obj_cooja/mtype331.a(cooja-radio.o)
 .text.prepare_packet
                0x000000000001d540       0x1c obj_cooja/mtype331.a(cooja-radio.o)
 .text.transmit_packet
                0x000000000001d55c       0x3a obj_cooja/mtype331.a(cooja-radio.o)
 .text.receiving_packet
                0x000000000001d596        0xf obj_cooja/mtype331.a(cooja-radio.o)
 .text.pending_packet
                0x000000000001d5a5       0x25 obj_cooja/mtype331.a(cooja-radio.o)
 .text.process_thread_cooja_radio_process
                0x000000000001d5ca       0x9f obj_cooja/mtype331.a(cooja-radio.o)
 .text.init     0x000000000001d669       0x21 obj_cooja/mtype331.a(cooja-radio.o)
 .text.get_value
                0x000000000001d68a       0xdc obj_cooja/mtype331.a(cooja-radio.o)
 .text.set_value
                0x000000000001d766      0x104 obj_cooja/mtype331.a(cooja-radio.o)
 .text.get_object
                0x000000000001d86a       0x3d obj_cooja/mtype331.a(cooja-radio.o)
 .text.set_object
                0x000000000001d8a7        0xa obj_cooja/mtype331.a(cooja-radio.o)
 .text          0x000000000001d8b1        0x0 obj_cooja/mtype331.a(eeprom.o)
 .text.eeprom_init
                0x000000000001d8b1        0x5 obj_cooja/mtype331.a(eeprom.o)
                0x000000000001d8b1                eeprom_init
 .text.eeprom_read
                0x000000000001d8b6       0x70 obj_cooja/mtype331.a(eeprom.o)
                0x000000000001d8b6                eeprom_read
 .text.eeprom_write
                0x000000000001d926       0x70 obj_cooja/mtype331.a(eeprom.o)
                0x000000000001d926                eeprom_write
 .text.doInterfaceActionsBeforeTick
                0x000000000001d996        0x5 obj_cooja/mtype331.a(eeprom.o)
 .text.doInterfaceActionsAfterTick
                0x000000000001d99b        0x5 obj_cooja/mtype331.a(eeprom.o)
 .text          0x000000000001d9a0        0x0 obj_cooja/mtype331.a(random.o)
 .text.random_init
                0x000000000001d9a0       0x1b obj_cooja/mtype331.a(random.o)
                0x000000000001d9a0                random_init
 .text.random_rand
                0x000000000001d9bb        0xd obj_cooja/mtype331.a(random.o)
                0x000000000001d9bb                random_rand
 .text          0x000000000001d9c8        0x0 obj_cooja/mtype331.a(sensors.o)
 .text.get_sensor_index
                0x000000000001d9c8       0x3b obj_cooja/mtype331.a(sensors.o)
 .text.sensors_first
                0x000000000001da03        0xa obj_cooja/mtype331.a(sensors.o)
                0x000000000001da03                sensors_first
 .text.sensors_next
                0x000000000001da0d       0x1d obj_cooja/mtype331.a(sensors.o)
                0x000000000001da0d                sensors_next
 .text.sensors_changed
                0x000000000001da2a       0x2f obj_cooja/mtype331.a(sensors.o)
                0x000000000001da2a                sensors_changed
 .text.sensors_find
                0x000000000001da59       0x6b obj_cooja/mtype331.a(sensors.o)
                0x000000000001da59                sensors_find
 .text.process_thread_sensors_process
                0x000000000001dac4      0x1a5 obj_cooja/mtype331.a(sensors.o)
 .text          0x000000000001dc69        0x0 obj_cooja/mtype331.a(autostart.o)
 .text.autostart_start
                0x000000000001dc69       0x4b obj_cooja/mtype331.a(autostart.o)
                0x000000000001dc69                autostart_start
 .text.autostart_exit
                0x000000000001dcb4       0x43 obj_cooja/mtype331.a(autostart.o)
                0x000000000001dcb4                autostart_exit
 .text          0x000000000001dcf7        0x0 obj_cooja/mtype331.a(ctimer.o)
 .text.process_thread_ctimer_process
                0x000000000001dcf7      0x117 obj_cooja/mtype331.a(ctimer.o)
 .text.ctimer_init
                0x000000000001de0e       0x30 obj_cooja/mtype331.a(ctimer.o)
                0x000000000001de0e                ctimer_init
 .text.ctimer_set
                0x000000000001de3e       0x31 obj_cooja/mtype331.a(ctimer.o)
                0x000000000001de3e                ctimer_set
 .text.ctimer_set_with_process
                0x000000000001de6f       0x7c obj_cooja/mtype331.a(ctimer.o)
                0x000000000001de6f                ctimer_set_with_process
 .text.ctimer_reset
                0x000000000001deeb       0x4f obj_cooja/mtype331.a(ctimer.o)
                0x000000000001deeb                ctimer_reset
 .text.ctimer_restart
                0x000000000001df3a       0x4f obj_cooja/mtype331.a(ctimer.o)
                0x000000000001df3a                ctimer_restart
 .text.ctimer_stop
                0x000000000001df89       0x4b obj_cooja/mtype331.a(ctimer.o)
                0x000000000001df89                ctimer_stop
 .text.ctimer_expired
                0x000000000001dfd4       0x57 obj_cooja/mtype331.a(ctimer.o)
                0x000000000001dfd4                ctimer_expired
 .text          0x000000000001e02b        0x0 obj_cooja/mtype331.a(etimer.o)
 .text.update_time
                0x000000000001e02b       0x8f obj_cooja/mtype331.a(etimer.o)
 .text.process_thread_etimer_process
                0x000000000001e0ba      0x184 obj_cooja/mtype331.a(etimer.o)
 .text.etimer_request_poll
                0x000000000001e23e       0x14 obj_cooja/mtype331.a(etimer.o)
                0x000000000001e23e                etimer_request_poll
 .text.add_timer
                0x000000000001e252       0x70 obj_cooja/mtype331.a(etimer.o)
 .text.etimer_set
                0x000000000001e2c2       0x25 obj_cooja/mtype331.a(etimer.o)
                0x000000000001e2c2                etimer_set
 .text.etimer_reset_with_new_interval
                0x000000000001e2e7       0x27 obj_cooja/mtype331.a(etimer.o)
                0x000000000001e2e7                etimer_reset_with_new_interval
 .text.etimer_reset
                0x000000000001e30e       0x1e obj_cooja/mtype331.a(etimer.o)
                0x000000000001e30e                etimer_reset
 .text.etimer_restart
                0x000000000001e32c       0x1e obj_cooja/mtype331.a(etimer.o)
                0x000000000001e32c                etimer_restart
 .text.etimer_adjust
                0x000000000001e34a       0x1c obj_cooja/mtype331.a(etimer.o)
                0x000000000001e34a                etimer_adjust
 .text.etimer_expired
                0x000000000001e366       0x13 obj_cooja/mtype331.a(etimer.o)
                0x000000000001e366                etimer_expired
 .text.etimer_expiration_time
                0x000000000001e379       0x12 obj_cooja/mtype331.a(etimer.o)
                0x000000000001e379                etimer_expiration_time
 .text.etimer_start_time
                0x000000000001e38b        0xa obj_cooja/mtype331.a(etimer.o)
                0x000000000001e38b                etimer_start_time
 .text.etimer_pending
                0x000000000001e395       0x12 obj_cooja/mtype331.a(etimer.o)
                0x000000000001e395                etimer_pending
 .text.etimer_next_expiration_time
                0x000000000001e3a7       0x1a obj_cooja/mtype331.a(etimer.o)
                0x000000000001e3a7                etimer_next_expiration_time
 .text.etimer_stop
                0x000000000001e3c1       0x75 obj_cooja/mtype331.a(etimer.o)
                0x000000000001e3c1                etimer_stop
 .text          0x000000000001e436        0x0 obj_cooja/mtype331.a(process.o)
 .text.process_alloc_event
                0x000000000001e436       0x15 obj_cooja/mtype331.a(process.o)
                0x000000000001e436                process_alloc_event
 .text.process_start
                0x000000000001e44b       0x6f obj_cooja/mtype331.a(process.o)
                0x000000000001e44b                process_start
 .text.exit_process
                0x000000000001e4ba       0xea obj_cooja/mtype331.a(process.o)
 .text.call_process
                0x000000000001e5a4       0x90 obj_cooja/mtype331.a(process.o)
 .text.process_exit
                0x000000000001e634       0x1c obj_cooja/mtype331.a(process.o)
                0x000000000001e634                process_exit
 .text.process_init
                0x000000000001e650       0x33 obj_cooja/mtype331.a(process.o)
                0x000000000001e650                process_init
 .text.do_poll  0x000000000001e683       0x5b obj_cooja/mtype331.a(process.o)
 .text.do_event
                0x000000000001e6de      0x114 obj_cooja/mtype331.a(process.o)
 .text.process_run
                0x000000000001e7f2       0x33 obj_cooja/mtype331.a(process.o)
                0x000000000001e7f2                process_run
 .text.process_nevents
                0x000000000001e825       0x1b obj_cooja/mtype331.a(process.o)
                0x000000000001e825                process_nevents
 .text.process_post
                0x000000000001e840       0x95 obj_cooja/mtype331.a(process.o)
                0x000000000001e840                process_post
 .text.process_post_synch
                0x000000000001e8d5       0x38 obj_cooja/mtype331.a(process.o)
                0x000000000001e8d5                process_post_synch
 .text.process_poll
                0x000000000001e90d       0x2f obj_cooja/mtype331.a(process.o)
                0x000000000001e90d                process_poll
 .text.process_is_running
                0x000000000001e93c       0x14 obj_cooja/mtype331.a(process.o)
                0x000000000001e93c                process_is_running
 .text          0x000000000001e950        0x0 obj_cooja/mtype331.a(rtimer.o)
 .text.rtimer_init
                0x000000000001e950        0xd obj_cooja/mtype331.a(rtimer.o)
                0x000000000001e950                rtimer_init
 .text.rtimer_set
                0x000000000001e95d       0x7c obj_cooja/mtype331.a(rtimer.o)
                0x000000000001e95d                rtimer_set
 .text.rtimer_run_next
                0x000000000001e9d9       0x5d obj_cooja/mtype331.a(rtimer.o)
                0x000000000001e9d9                rtimer_run_next
 .text          0x000000000001ea36        0x0 obj_cooja/mtype331.a(timer.o)
 .text.timer_set
                0x000000000001ea36       0x1b obj_cooja/mtype331.a(timer.o)
                0x000000000001ea36                timer_set
 .text.timer_reset
                0x000000000001ea51       0x17 obj_cooja/mtype331.a(timer.o)
                0x000000000001ea51                timer_reset
 .text.timer_restart
                0x000000000001ea68       0x12 obj_cooja/mtype331.a(timer.o)
                0x000000000001ea68                timer_restart
 .text.timer_expired
                0x000000000001ea7a       0x29 obj_cooja/mtype331.a(timer.o)
                0x000000000001ea7a                timer_expired
 .text.timer_remaining
                0x000000000001eaa3       0x24 obj_cooja/mtype331.a(timer.o)
                0x000000000001eaa3                timer_remaining
 .text          0x000000000001eac7        0x0 obj_cooja/mtype331.a(serial-line.o)
 .text.serial_line_input_byte
                0x000000000001eac7       0x7d obj_cooja/mtype331.a(serial-line.o)
                0x000000000001eac7                serial_line_input_byte
 .text.process_thread_serial_line_process
                0x000000000001eb44      0x146 obj_cooja/mtype331.a(serial-line.o)
 .text.serial_line_init
                0x000000000001ec8a       0x38 obj_cooja/mtype331.a(serial-line.o)
                0x000000000001ec8a                serial_line_init
 .text          0x000000000001ecc2        0x0 obj_cooja/mtype331.a(assert.o)
 .text._xassert
                0x000000000001ecc2       0x22 obj_cooja/mtype331.a(assert.o)
                0x000000000001ecc2                _xassert
 .text          0x000000000001ece4        0x0 obj_cooja/mtype331.a(list.o)
 .text.list_init
                0x000000000001ece4        0xe obj_cooja/mtype331.a(list.o)
                0x000000000001ece4                list_init
 .text.list_head
                0x000000000001ecf2        0xa obj_cooja/mtype331.a(list.o)
                0x000000000001ecf2                list_head
 .text.list_copy
                0x000000000001ecfc        0xf obj_cooja/mtype331.a(list.o)
                0x000000000001ecfc                list_copy
 .text.list_tail
                0x000000000001ed0b       0x36 obj_cooja/mtype331.a(list.o)
                0x000000000001ed0b                list_tail
 .text.list_add
                0x000000000001ed41       0x49 obj_cooja/mtype331.a(list.o)
                0x000000000001ed41                list_add
 .text.list_push
                0x000000000001ed8a       0x2c obj_cooja/mtype331.a(list.o)
                0x000000000001ed8a                list_push
 .text.list_chop
                0x000000000001edb6       0x6a obj_cooja/mtype331.a(list.o)
                0x000000000001edb6                list_chop
 .text.list_pop
                0x000000000001ee20       0x28 obj_cooja/mtype331.a(list.o)
                0x000000000001ee20                list_pop
 .text.list_remove
                0x000000000001ee48       0x67 obj_cooja/mtype331.a(list.o)
                0x000000000001ee48                list_remove
 .text.list_length
                0x000000000001eeaf       0x2e obj_cooja/mtype331.a(list.o)
                0x000000000001eeaf                list_length
 .text.list_insert
                0x000000000001eedd       0x34 obj_cooja/mtype331.a(list.o)
                0x000000000001eedd                list_insert
 .text.list_item_next
                0x000000000001ef11       0x17 obj_cooja/mtype331.a(list.o)
                0x000000000001ef11                list_item_next
 .text          0x000000000001ef28        0x0 obj_cooja/mtype331.a(memb.o)
 .text.memb_init
                0x000000000001ef28       0x5e obj_cooja/mtype331.a(memb.o)
                0x000000000001ef28                memb_init
 .text.memb_alloc
                0x000000000001ef86       0x65 obj_cooja/mtype331.a(memb.o)
                0x000000000001ef86                memb_alloc
 .text.memb_free
                0x000000000001efeb       0x7b obj_cooja/mtype331.a(memb.o)
                0x000000000001efeb                memb_free
 .text.memb_inmemb
                0x000000000001f066       0x3f obj_cooja/mtype331.a(memb.o)
                0x000000000001f066                memb_inmemb
 .text.memb_numfree
                0x000000000001f0a5       0x44 obj_cooja/mtype331.a(memb.o)
                0x000000000001f0a5                memb_numfree
 .text          0x000000000001f0e9        0x0 obj_cooja/mtype331.a(ringbuf.o)
 .text.ringbuf_init
                0x000000000001f0e9       0x31 obj_cooja/mtype331.a(ringbuf.o)
                0x000000000001f0e9                ringbuf_init
 .text.ringbuf_put
                0x000000000001f11a       0x7e obj_cooja/mtype331.a(ringbuf.o)
                0x000000000001f11a                ringbuf_put
 .text.ringbuf_get
                0x000000000001f198       0x6d obj_cooja/mtype331.a(ringbuf.o)
                0x000000000001f198                ringbuf_get
 .text.ringbuf_size
                0x000000000001f205       0x12 obj_cooja/mtype331.a(ringbuf.o)
                0x000000000001f205                ringbuf_size
 .text.ringbuf_elements
                0x000000000001f217       0x27 obj_cooja/mtype331.a(ringbuf.o)
                0x000000000001f217                ringbuf_elements
 .text          0x000000000001f23e        0x0 obj_cooja/mtype331.a(sicslowpan.o)
 .text.packetbuf_set_attr
                0x000000000001f23e       0x2a obj_cooja/mtype331.a(sicslowpan.o)
 .text.packetbuf_attr
                0x000000000001f268       0x1a obj_cooja/mtype331.a(sicslowpan.o)
 .text.packetbuf_set_addr
                0x000000000001f282       0x32 obj_cooja/mtype331.a(sicslowpan.o)
 .text.packetbuf_addr
                0x000000000001f2b4       0x1d obj_cooja/mtype331.a(sicslowpan.o)
 .text.clear_fragments
                0x000000000001f2d1       0x79 obj_cooja/mtype331.a(sicslowpan.o)
 .text.timeout_fragments
                0x000000000001f34a       0x75 obj_cooja/mtype331.a(sicslowpan.o)
 .text.store_fragment
                0x000000000001f3bf       0xe8 obj_cooja/mtype331.a(sicslowpan.o)
 .text.add_fragment
                0x000000000001f4a7      0x23e obj_cooja/mtype331.a(sicslowpan.o)
 .text.copy_frags2uip
                0x000000000001f6e5       0xe3 obj_cooja/mtype331.a(sicslowpan.o)
 .text.rime_sniffer_add
                0x000000000001f7c8        0xd obj_cooja/mtype331.a(sicslowpan.o)
                0x000000000001f7c8                rime_sniffer_add
 .text.rime_sniffer_remove
                0x000000000001f7d5        0xf obj_cooja/mtype331.a(sicslowpan.o)
                0x000000000001f7d5                rime_sniffer_remove
 .text.set_packet_attrs
                0x000000000001f7e4       0xe9 obj_cooja/mtype331.a(sicslowpan.o)
 .text.addr_context_lookup_by_prefix
                0x000000000001f8cd       0x7a obj_cooja/mtype331.a(sicslowpan.o)
 .text.addr_context_lookup_by_number
                0x000000000001f947       0x6a obj_cooja/mtype331.a(sicslowpan.o)
 .text.compress_addr_64
                0x000000000001f9b1      0x16c obj_cooja/mtype331.a(sicslowpan.o)
 .text.uncompress_addr
                0x000000000001fb1d      0x120 obj_cooja/mtype331.a(sicslowpan.o)
 .text.compress_hdr_iphc
                0x000000000001fc3d      0x994 obj_cooja/mtype331.a(sicslowpan.o)
 .text.uncompress_hdr_iphc
                0x00000000000205d1      0x7dd obj_cooja/mtype331.a(sicslowpan.o)
 .text.compress_hdr_ipv6
                0x0000000000020dae       0x68 obj_cooja/mtype331.a(sicslowpan.o)
 .text.packet_sent
                0x0000000000020e16       0x3b obj_cooja/mtype331.a(sicslowpan.o)
 .text.send_packet
                0x0000000000020e51       0x36 obj_cooja/mtype331.a(sicslowpan.o)
 .text.output   0x0000000000020e87      0x49d obj_cooja/mtype331.a(sicslowpan.o)
 .text.input    0x0000000000021324      0x458 obj_cooja/mtype331.a(sicslowpan.o)
 .text.sicslowpan_init
                0x000000000002177c       0x57 obj_cooja/mtype331.a(sicslowpan.o)
                0x000000000002177c                sicslowpan_init
 .text.sicslowpan_get_last_rssi
                0x00000000000217d3        0xa obj_cooja/mtype331.a(sicslowpan.o)
                0x00000000000217d3                sicslowpan_get_last_rssi
 .text          0x00000000000217dd        0x0 obj_cooja/mtype331.a(uip-ds6-nbr.o)
 .text.packetbuf_addr
                0x00000000000217dd       0x1d obj_cooja/mtype331.a(uip-ds6-nbr.o)
 .text.uip_ds6_neighbors_init
                0x00000000000217fa       0x22 obj_cooja/mtype331.a(uip-ds6-nbr.o)
                0x00000000000217fa                uip_ds6_neighbors_init
 .text.uip_ds6_nbr_add
                0x000000000002181c       0xe2 obj_cooja/mtype331.a(uip-ds6-nbr.o)
                0x000000000002181c                uip_ds6_nbr_add
 .text.uip_ds6_nbr_rm
                0x00000000000218fe       0x42 obj_cooja/mtype331.a(uip-ds6-nbr.o)
                0x00000000000218fe                uip_ds6_nbr_rm
 .text.uip_ds6_nbr_get_ipaddr
                0x0000000000021940       0x15 obj_cooja/mtype331.a(uip-ds6-nbr.o)
                0x0000000000021940                uip_ds6_nbr_get_ipaddr
 .text.uip_ds6_nbr_get_ll
                0x0000000000021955       0x1c obj_cooja/mtype331.a(uip-ds6-nbr.o)
                0x0000000000021955                uip_ds6_nbr_get_ll
 .text.uip_ds6_nbr_num
                0x0000000000021971       0x45 obj_cooja/mtype331.a(uip-ds6-nbr.o)
                0x0000000000021971                uip_ds6_nbr_num
 .text.uip_ds6_nbr_lookup
                0x00000000000219b6       0x65 obj_cooja/mtype331.a(uip-ds6-nbr.o)
                0x00000000000219b6                uip_ds6_nbr_lookup
 .text.uip_ds6_nbr_ll_lookup
                0x0000000000021a1b       0x1c obj_cooja/mtype331.a(uip-ds6-nbr.o)
                0x0000000000021a1b                uip_ds6_nbr_ll_lookup
 .text.uip_ds6_nbr_ipaddr_from_lladdr
                0x0000000000021a37       0x26 obj_cooja/mtype331.a(uip-ds6-nbr.o)
                0x0000000000021a37                uip_ds6_nbr_ipaddr_from_lladdr
 .text.uip_ds6_nbr_lladdr_from_ipaddr
                0x0000000000021a5d       0x2e obj_cooja/mtype331.a(uip-ds6-nbr.o)
                0x0000000000021a5d                uip_ds6_nbr_lladdr_from_ipaddr
 .text.uip_ds6_link_neighbor_callback
                0x0000000000021a8b       0x62 obj_cooja/mtype331.a(uip-ds6-nbr.o)
                0x0000000000021a8b                uip_ds6_link_neighbor_callback
 .text.uip_ds6_neighbor_periodic
                0x0000000000021aed      0x244 obj_cooja/mtype331.a(uip-ds6-nbr.o)
                0x0000000000021aed                uip_ds6_neighbor_periodic
 .text.uip_ds6_nbr_refresh_reachable_state
                0x0000000000021d31       0x40 obj_cooja/mtype331.a(uip-ds6-nbr.o)
                0x0000000000021d31                uip_ds6_nbr_refresh_reachable_state
 .text.uip_ds6_get_least_lifetime_neighbor
                0x0000000000021d71       0x7b obj_cooja/mtype331.a(uip-ds6-nbr.o)
                0x0000000000021d71                uip_ds6_get_least_lifetime_neighbor
 .text          0x0000000000021dec        0x0 obj_cooja/mtype331.a(uip-ds6-route.o)
 .text.call_route_callback
                0x0000000000021dec       0x77 obj_cooja/mtype331.a(uip-ds6-route.o)
 .text.uip_ds6_notification_add
                0x0000000000021e63       0x31 obj_cooja/mtype331.a(uip-ds6-route.o)
                0x0000000000021e63                uip_ds6_notification_add
 .text.uip_ds6_notification_rm
                0x0000000000021e94       0x1c obj_cooja/mtype331.a(uip-ds6-route.o)
                0x0000000000021e94                uip_ds6_notification_rm
 .text.uip_ds6_route_init
                0x0000000000021eb0       0x5c obj_cooja/mtype331.a(uip-ds6-route.o)
                0x0000000000021eb0                uip_ds6_route_init
 .text.uip_ds6_route_nexthop_lladdr
                0x0000000000021f0c       0x2c obj_cooja/mtype331.a(uip-ds6-route.o)
 .text.uip_ds6_route_nexthop
                0x0000000000021f38       0x28 obj_cooja/mtype331.a(uip-ds6-route.o)
                0x0000000000021f38                uip_ds6_route_nexthop
 .text.uip_ds6_route_head
                0x0000000000021f60       0x15 obj_cooja/mtype331.a(uip-ds6-route.o)
                0x0000000000021f60                uip_ds6_route_head
 .text.uip_ds6_route_next
                0x0000000000021f75       0x26 obj_cooja/mtype331.a(uip-ds6-route.o)
                0x0000000000021f75                uip_ds6_route_next
 .text.uip_ds6_route_is_nexthop
                0x0000000000021f9b       0x3f obj_cooja/mtype331.a(uip-ds6-route.o)
                0x0000000000021f9b                uip_ds6_route_is_nexthop
 .text.uip_ds6_route_num_routes
                0x0000000000021fda        0xa obj_cooja/mtype331.a(uip-ds6-route.o)
                0x0000000000021fda                uip_ds6_route_num_routes
 .text.uip_ds6_route_lookup
                0x0000000000021fe4       0xc2 obj_cooja/mtype331.a(uip-ds6-route.o)
                0x0000000000021fe4                uip_ds6_route_lookup
 .text.uip_ds6_route_add
                0x00000000000220a6      0x236 obj_cooja/mtype331.a(uip-ds6-route.o)
                0x00000000000220a6                uip_ds6_route_add
 .text.uip_ds6_route_rm
                0x00000000000222dc      0x11d obj_cooja/mtype331.a(uip-ds6-route.o)
                0x00000000000222dc                uip_ds6_route_rm
 .text.rm_routelist
                0x00000000000223f9       0x64 obj_cooja/mtype331.a(uip-ds6-route.o)
 .text.rm_routelist_callback
                0x000000000002245d       0x13 obj_cooja/mtype331.a(uip-ds6-route.o)
 .text.uip_ds6_route_rm_by_nexthop
                0x0000000000022470       0x38 obj_cooja/mtype331.a(uip-ds6-route.o)
                0x0000000000022470                uip_ds6_route_rm_by_nexthop
 .text.uip_ds6_defrt_head
                0x00000000000224a8       0x15 obj_cooja/mtype331.a(uip-ds6-route.o)
                0x00000000000224a8                uip_ds6_defrt_head
 .text.uip_ds6_defrt_add
                0x00000000000224bd       0xb1 obj_cooja/mtype331.a(uip-ds6-route.o)
                0x00000000000224bd                uip_ds6_defrt_add
 .text.uip_ds6_defrt_rm
                0x000000000002256e       0x7f obj_cooja/mtype331.a(uip-ds6-route.o)
                0x000000000002256e                uip_ds6_defrt_rm
 .text.uip_ds6_defrt_lookup
                0x00000000000225ed       0x59 obj_cooja/mtype331.a(uip-ds6-route.o)
                0x00000000000225ed                uip_ds6_defrt_lookup
 .text.uip_ds6_defrt_choose
                0x0000000000022646       0x6b obj_cooja/mtype331.a(uip-ds6-route.o)
                0x0000000000022646                uip_ds6_defrt_choose
 .text.uip_ds6_defrt_periodic
                0x00000000000226b1       0x68 obj_cooja/mtype331.a(uip-ds6-route.o)
                0x00000000000226b1                uip_ds6_defrt_periodic
 .text          0x0000000000022719        0x0 obj_cooja/mtype331.a(uip-ds6.o)
 .text.uip_ds6_init
                0x0000000000022719      0x1d3 obj_cooja/mtype331.a(uip-ds6.o)
                0x0000000000022719                uip_ds6_init
 .text.uip_ds6_periodic
                0x00000000000228ec       0x7e obj_cooja/mtype331.a(uip-ds6.o)
                0x00000000000228ec                uip_ds6_periodic
 .text.uip_ds6_list_loop
                0x000000000002296a       0xa7 obj_cooja/mtype331.a(uip-ds6.o)
                0x000000000002296a                uip_ds6_list_loop
 .text.uip_ds6_prefix_add
                0x0000000000022a11       0xbe obj_cooja/mtype331.a(uip-ds6.o)
                0x0000000000022a11                uip_ds6_prefix_add
 .text.uip_ds6_prefix_rm
                0x0000000000022acf       0x12 obj_cooja/mtype331.a(uip-ds6.o)
                0x0000000000022acf                uip_ds6_prefix_rm
 .text.uip_ds6_prefix_lookup
                0x0000000000022ae1       0x51 obj_cooja/mtype331.a(uip-ds6.o)
                0x0000000000022ae1                uip_ds6_prefix_lookup
 .text.uip_ds6_is_addr_onlink
                0x0000000000022b32       0x74 obj_cooja/mtype331.a(uip-ds6.o)
                0x0000000000022b32                uip_ds6_is_addr_onlink
 .text.uip_ds6_addr_add
                0x0000000000022ba6      0x12e obj_cooja/mtype331.a(uip-ds6.o)
                0x0000000000022ba6                uip_ds6_addr_add
 .text.uip_ds6_addr_rm
                0x0000000000022cd4       0xa0 obj_cooja/mtype331.a(uip-ds6.o)
                0x0000000000022cd4                uip_ds6_addr_rm
 .text.uip_ds6_addr_lookup
                0x0000000000022d74       0x4b obj_cooja/mtype331.a(uip-ds6.o)
                0x0000000000022d74                uip_ds6_addr_lookup
 .text.uip_ds6_get_link_local
                0x0000000000022dbf       0x7f obj_cooja/mtype331.a(uip-ds6.o)
                0x0000000000022dbf                uip_ds6_get_link_local
 .text.uip_ds6_get_global
                0x0000000000022e3e       0x7f obj_cooja/mtype331.a(uip-ds6.o)
                0x0000000000022e3e                uip_ds6_get_global
 .text.uip_ds6_maddr_add
                0x0000000000022ebd       0x72 obj_cooja/mtype331.a(uip-ds6.o)
                0x0000000000022ebd                uip_ds6_maddr_add
 .text.uip_ds6_maddr_rm
                0x0000000000022f2f       0x12 obj_cooja/mtype331.a(uip-ds6.o)
                0x0000000000022f2f                uip_ds6_maddr_rm
 .text.uip_ds6_maddr_lookup
                0x0000000000022f41       0x4b obj_cooja/mtype331.a(uip-ds6.o)
                0x0000000000022f41                uip_ds6_maddr_lookup
 .text.uip_ds6_aaddr_add
                0x0000000000022f8c       0x72 obj_cooja/mtype331.a(uip-ds6.o)
                0x0000000000022f8c                uip_ds6_aaddr_add
 .text.uip_ds6_aaddr_rm
                0x0000000000022ffe       0x12 obj_cooja/mtype331.a(uip-ds6.o)
                0x0000000000022ffe                uip_ds6_aaddr_rm
 .text.uip_ds6_aaddr_lookup
                0x0000000000023010       0x4b obj_cooja/mtype331.a(uip-ds6.o)
                0x0000000000023010                uip_ds6_aaddr_lookup
 .text.uip_ds6_select_src
                0x000000000002305b      0x145 obj_cooja/mtype331.a(uip-ds6.o)
                0x000000000002305b                uip_ds6_select_src
 .text.uip_ds6_set_addr_iid
                0x00000000000231a0       0x37 obj_cooja/mtype331.a(uip-ds6.o)
                0x00000000000231a0                uip_ds6_set_addr_iid
 .text.get_match_length
                0x00000000000231d7       0x92 obj_cooja/mtype331.a(uip-ds6.o)
                0x00000000000231d7                get_match_length
 .text.uip_ds6_compute_reachable_time
                0x0000000000023269       0x4c obj_cooja/mtype331.a(uip-ds6.o)
                0x0000000000023269                uip_ds6_compute_reachable_time
 .text          0x00000000000232b5        0x0 obj_cooja/mtype331.a(uip-nd6.o)
 .text.extract_lladdr_from_llao_aligned
                0x00000000000232b5       0x42 obj_cooja/mtype331.a(uip-nd6.o)
 .text.create_llao
                0x00000000000232f7       0x54 obj_cooja/mtype331.a(uip-nd6.o)
 .text.ns_input
                0x000000000002334b      0x602 obj_cooja/mtype331.a(uip-nd6.o)
 .text.uip_nd6_ns_output
                0x000000000002394d      0x2ff obj_cooja/mtype331.a(uip-nd6.o)
                0x000000000002394d                uip_nd6_ns_output
 .text.na_input
                0x0000000000023c4c      0x430 obj_cooja/mtype331.a(uip-nd6.o)
 .text.uip_nd6_init
                0x000000000002407c       0x20 obj_cooja/mtype331.a(uip-nd6.o)
                0x000000000002407c                uip_nd6_init
 .text          0x000000000002409c        0x0 obj_cooja/mtype331.a(uip6.o)
 .text.uip_add32
                0x000000000002409c       0xea obj_cooja/mtype331.a(uip6.o)
                0x000000000002409c                uip_add32
 .text.chksum   0x0000000000024186       0xaf obj_cooja/mtype331.a(uip6.o)
 .text.uip_chksum
                0x0000000000024235       0x35 obj_cooja/mtype331.a(uip6.o)
                0x0000000000024235                uip_chksum
 .text.upper_layer_chksum
                0x000000000002426a       0xb9 obj_cooja/mtype331.a(uip6.o)
 .text.uip_icmp6chksum
                0x0000000000024323       0x14 obj_cooja/mtype331.a(uip6.o)
                0x0000000000024323                uip_icmp6chksum
 .text.uip_tcpchksum
                0x0000000000024337       0x14 obj_cooja/mtype331.a(uip6.o)
                0x0000000000024337                uip_tcpchksum
 .text.uip_udpchksum
                0x000000000002434b       0x14 obj_cooja/mtype331.a(uip6.o)
                0x000000000002434b                uip_udpchksum
 .text.uip_init
                0x000000000002435f       0x8b obj_cooja/mtype331.a(uip6.o)
                0x000000000002435f                uip_init
 .text.uip_connect
                0x00000000000243ea      0x181 obj_cooja/mtype331.a(uip6.o)
                0x00000000000243ea                uip_connect
 .text.remove_ext_hdr
                0x000000000002456b       0xd5 obj_cooja/mtype331.a(uip6.o)
                0x000000000002456b                remove_ext_hdr
 .text.uip_udp_new
                0x0000000000024640      0x127 obj_cooja/mtype331.a(uip6.o)
                0x0000000000024640                uip_udp_new
 .text.uip_unlisten
                0x0000000000024767       0x42 obj_cooja/mtype331.a(uip6.o)
                0x0000000000024767                uip_unlisten
 .text.uip_listen
                0x00000000000247a9       0x43 obj_cooja/mtype331.a(uip6.o)
                0x00000000000247a9                uip_listen
 .text.uip_add_rcv_nxt
                0x00000000000247ec       0x64 obj_cooja/mtype331.a(uip6.o)
 .text.ext_hdr_options_process
                0x0000000000024850      0x1fd obj_cooja/mtype331.a(uip6.o)
 .text.uip_process
                0x0000000000024a4d     0x1ca1 obj_cooja/mtype331.a(uip6.o)
                0x0000000000024a4d                uip_process
 .text.uip_htons
                0x00000000000266ee       0x22 obj_cooja/mtype331.a(uip6.o)
                0x00000000000266ee                uip_htons
 .text.uip_htonl
                0x0000000000026710       0x40 obj_cooja/mtype331.a(uip6.o)
                0x0000000000026710                uip_htonl
 .text.uip_send
                0x0000000000026750       0xaa obj_cooja/mtype331.a(uip6.o)
                0x0000000000026750                uip_send
 .text          0x00000000000267fa        0x0 obj_cooja/mtype331.a(resolv.o)
 .text.decode_name
                0x00000000000267fa       0xe8 obj_cooja/mtype331.a(resolv.o)
 .text.dns_name_isequal
                0x00000000000268e2      0x119 obj_cooja/mtype331.a(resolv.o)
 .text.skip_name
                0x00000000000269fb       0x48 obj_cooja/mtype331.a(resolv.o)
 .text.encode_name
                0x0000000000026a43       0x73 obj_cooja/mtype331.a(resolv.o)
 .text.mdns_announce_requested
                0x0000000000026ab6        0xf obj_cooja/mtype331.a(resolv.o)
 .text.start_name_collision_check
                0x0000000000026ac5       0x27 obj_cooja/mtype331.a(resolv.o)
 .text.mdns_write_announce_records
                0x0000000000026aec      0x155 obj_cooja/mtype331.a(resolv.o)
 .text.mdns_prep_host_announce_packet
                0x0000000000026c41       0xf5 obj_cooja/mtype331.a(resolv.o)
 .text.try_next_server
                0x0000000000026d36       0x48 obj_cooja/mtype331.a(resolv.o)
 .text.check_entries
                0x0000000000026d7e      0x311 obj_cooja/mtype331.a(resolv.o)
 .text.newdata  0x000000000002708f      0x545 obj_cooja/mtype331.a(resolv.o)
 .text.resolv_set_hostname
                0x00000000000275d4       0xa9 obj_cooja/mtype331.a(resolv.o)
                0x00000000000275d4                resolv_set_hostname
 .text.resolv_get_hostname
                0x000000000002767d        0xa obj_cooja/mtype331.a(resolv.o)
                0x000000000002767d                resolv_get_hostname
 .text.process_thread_mdns_probe_process
                0x0000000000027687      0x178 obj_cooja/mtype331.a(resolv.o)
 .text.process_thread_resolv_process
                0x00000000000277ff      0x1f6 obj_cooja/mtype331.a(resolv.o)
 .text.init     0x00000000000279f5       0x2e obj_cooja/mtype331.a(resolv.o)
 .text.remove_trailing_dots
                0x0000000000027a23       0x7b obj_cooja/mtype331.a(resolv.o)
 .text.resolv_query
                0x0000000000027a9e      0x22e obj_cooja/mtype331.a(resolv.o)
                0x0000000000027a9e                resolv_query
 .text.resolv_lookup
                0x0000000000027ccc       0xcc obj_cooja/mtype331.a(resolv.o)
                0x0000000000027ccc                resolv_lookup
 .text.resolv_found
                0x0000000000027d98      0x1da obj_cooja/mtype331.a(resolv.o)
 .text          0x0000000000027f72        0x0 obj_cooja/mtype331.a(tcpip.o)
 .text.tcpip_output
                0x0000000000027f72       0x2e obj_cooja/mtype331.a(tcpip.o)
                0x0000000000027f72                tcpip_output
 .text.tcpip_set_outputfunc
                0x0000000000027fa0        0xd obj_cooja/mtype331.a(tcpip.o)
                0x0000000000027fa0                tcpip_set_outputfunc
 .text.start_periodic_tcp_timer
                0x0000000000027fad       0x24 obj_cooja/mtype331.a(tcpip.o)
 .text.check_for_tcp_syn
                0x0000000000027fd1       0x2d obj_cooja/mtype331.a(tcpip.o)
 .text.packet_input
                0x0000000000027ffe       0x36 obj_cooja/mtype331.a(tcpip.o)
 .text.tcp_connect
                0x0000000000028034       0x55 obj_cooja/mtype331.a(tcpip.o)
                0x0000000000028034                tcp_connect
 .text.tcp_unlisten
                0x0000000000028089       0x5b obj_cooja/mtype331.a(tcpip.o)
                0x0000000000028089                tcp_unlisten
 .text.tcp_listen
                0x00000000000280e4       0x59 obj_cooja/mtype331.a(tcpip.o)
                0x00000000000280e4                tcp_listen
 .text.tcp_attach
                0x000000000002813d       0x25 obj_cooja/mtype331.a(tcpip.o)
                0x000000000002813d                tcp_attach
 .text.udp_attach
                0x0000000000028162       0x25 obj_cooja/mtype331.a(tcpip.o)
                0x0000000000028162                udp_attach
 .text.udp_new  0x0000000000028187       0x52 obj_cooja/mtype331.a(tcpip.o)
                0x0000000000028187                udp_new
 .text.udp_broadcast_new
                0x00000000000281d9       0x92 obj_cooja/mtype331.a(tcpip.o)
                0x00000000000281d9                udp_broadcast_new
 .text.eventhandler
                0x000000000002826b      0x1e2 obj_cooja/mtype331.a(tcpip.o)
 .text.tcpip_input
                0x000000000002844d       0x34 obj_cooja/mtype331.a(tcpip.o)
                0x000000000002844d                tcpip_input
 .text.tcpip_ipv6_output
                0x0000000000028481      0x4b5 obj_cooja/mtype331.a(tcpip.o)
                0x0000000000028481                tcpip_ipv6_output
 .text.tcpip_poll_udp
                0x0000000000028936       0x23 obj_cooja/mtype331.a(tcpip.o)
                0x0000000000028936                tcpip_poll_udp
 .text.tcpip_poll_tcp
                0x0000000000028959       0x23 obj_cooja/mtype331.a(tcpip.o)
                0x0000000000028959                tcpip_poll_tcp
 .text.tcpip_uipcall
                0x000000000002897c       0xbd obj_cooja/mtype331.a(tcpip.o)
                0x000000000002897c                tcpip_uipcall
 .text.process_thread_tcpip_process
                0x0000000000028a39       0xb7 obj_cooja/mtype331.a(tcpip.o)
 .text          0x0000000000028af0        0x0 obj_cooja/mtype331.a(uip-debug.o)
 .text.uip_debug_ipaddr_print
                0x0000000000028af0      0x162 obj_cooja/mtype331.a(uip-debug.o)
                0x0000000000028af0                uip_debug_ipaddr_print
 .text          0x0000000000028c52        0x0 obj_cooja/mtype331.a(uip-nameserver.)
 .text.uip_nameserver_update
                0x0000000000028c52       0x32 obj_cooja/mtype331.a(uip-nameserver.)
                0x0000000000028c52                uip_nameserver_update
 .text.uip_nameserver_get
                0x0000000000028c84       0x20 obj_cooja/mtype331.a(uip-nameserver.)
                0x0000000000028c84                uip_nameserver_get
 .text.uip_nameserver_next_expiration
                0x0000000000028ca4        0xa obj_cooja/mtype331.a(uip-nameserver.)
                0x0000000000028ca4                uip_nameserver_next_expiration
 .text.uip_nameserver_count
                0x0000000000028cae       0x71 obj_cooja/mtype331.a(uip-nameserver.)
                0x0000000000028cae                uip_nameserver_count
 .text          0x0000000000028d1f        0x0 obj_cooja/mtype331.a(uip-packetqueue)
 .text.packet_timedout
                0x0000000000028d1f       0x2c obj_cooja/mtype331.a(uip-packetqueue)
 .text.uip_packetqueue_new
                0x0000000000028d4b        0xe obj_cooja/mtype331.a(uip-packetqueue)
                0x0000000000028d4b                uip_packetqueue_new
 .text.uip_packetqueue_alloc
                0x0000000000028d59       0x60 obj_cooja/mtype331.a(uip-packetqueue)
                0x0000000000028d59                uip_packetqueue_alloc
 .text.uip_packetqueue_free
                0x0000000000028db9       0x41 obj_cooja/mtype331.a(uip-packetqueue)
                0x0000000000028db9                uip_packetqueue_free
 .text.uip_packetqueue_buf
                0x0000000000028dfa       0x1d obj_cooja/mtype331.a(uip-packetqueue)
                0x0000000000028dfa                uip_packetqueue_buf
 .text.uip_packetqueue_buflen
                0x0000000000028e17       0x21 obj_cooja/mtype331.a(uip-packetqueue)
                0x0000000000028e17                uip_packetqueue_buflen
 .text.uip_packetqueue_set_buflen
                0x0000000000028e38       0x28 obj_cooja/mtype331.a(uip-packetqueue)
                0x0000000000028e38                uip_packetqueue_set_buflen
 .text          0x0000000000028e60        0x0 obj_cooja/mtype331.a(uip-udp-packet.)
 .text.uip_udp_packet_send
                0x0000000000028e60       0x5c obj_cooja/mtype331.a(uip-udp-packet.)
                0x0000000000028e60                uip_udp_packet_send
 .text.uip_udp_packet_sendto
                0x0000000000028ebc       0xd1 obj_cooja/mtype331.a(uip-udp-packet.)
                0x0000000000028ebc                uip_udp_packet_sendto
 .text          0x0000000000028f8d        0x0 obj_cooja/mtype331.a(uiplib.o)
 .text.uiplib_ip6addrconv
                0x0000000000028f8d      0x1c0 obj_cooja/mtype331.a(uiplib.o)
                0x0000000000028f8d                uiplib_ip6addrconv
 .text.uiplib_ip4addrconv
                0x000000000002914d       0xc3 obj_cooja/mtype331.a(uiplib.o)
                0x000000000002914d                uiplib_ip4addrconv
 .text          0x0000000000029210        0x0 obj_cooja/mtype331.a(rpl-dag.o)
 .text.rpl_print_neighbor_list
                0x0000000000029210      0x1e6 obj_cooja/mtype331.a(rpl-dag.o)
                0x0000000000029210                rpl_print_neighbor_list
 .text.rpl_get_nbr
                0x00000000000293f6       0x37 obj_cooja/mtype331.a(rpl-dag.o)
                0x00000000000293f6                rpl_get_nbr
 .text.nbr_callback
                0x000000000002942d       0x13 obj_cooja/mtype331.a(rpl-dag.o)
 .text.rpl_dag_init
                0x0000000000029440       0x1d obj_cooja/mtype331.a(rpl-dag.o)
                0x0000000000029440                rpl_dag_init
 .text.rpl_get_parent
                0x000000000002945d       0x22 obj_cooja/mtype331.a(rpl-dag.o)
                0x000000000002945d                rpl_get_parent
 .text.rpl_get_parent_rank
                0x000000000002947f       0x33 obj_cooja/mtype331.a(rpl-dag.o)
                0x000000000002947f                rpl_get_parent_rank
 .text.rpl_get_parent_link_metric
                0x00000000000294b2       0x57 obj_cooja/mtype331.a(rpl-dag.o)
                0x00000000000294b2                rpl_get_parent_link_metric
 .text.rpl_rank_via_parent
                0x0000000000029509       0x57 obj_cooja/mtype331.a(rpl-dag.o)
                0x0000000000029509                rpl_rank_via_parent
 .text.rpl_get_parent_lladdr
                0x0000000000029560       0x1c obj_cooja/mtype331.a(rpl-dag.o)
                0x0000000000029560                rpl_get_parent_lladdr
 .text.rpl_get_parent_ipaddr
                0x000000000002957c       0x21 obj_cooja/mtype331.a(rpl-dag.o)
                0x000000000002957c                rpl_get_parent_ipaddr
 .text.rpl_get_parent_link_stats
                0x000000000002959d       0x21 obj_cooja/mtype331.a(rpl-dag.o)
                0x000000000002959d                rpl_get_parent_link_stats
 .text.rpl_parent_is_fresh
                0x00000000000295be       0x21 obj_cooja/mtype331.a(rpl-dag.o)
                0x00000000000295be                rpl_parent_is_fresh
 .text.rpl_parent_is_reachable
                0x00000000000295df       0x94 obj_cooja/mtype331.a(rpl-dag.o)
                0x00000000000295df                rpl_parent_is_reachable
 .text.rpl_set_preferred_parent
                0x0000000000029673       0x4d obj_cooja/mtype331.a(rpl-dag.o)
 .text.lollipop_greater_than
                0x00000000000296c0       0x61 obj_cooja/mtype331.a(rpl-dag.o)
 .text.remove_parents
                0x0000000000029721       0x60 obj_cooja/mtype331.a(rpl-dag.o)
 .text.nullify_parents
                0x0000000000029781       0x60 obj_cooja/mtype331.a(rpl-dag.o)
 .text.should_refresh_routes
                0x00000000000297e1       0x5b obj_cooja/mtype331.a(rpl-dag.o)
 .text.acceptable_rank
                0x000000000002983c       0x8f obj_cooja/mtype331.a(rpl-dag.o)
 .text.get_dag  0x00000000000298cb       0x81 obj_cooja/mtype331.a(rpl-dag.o)
 .text.rpl_set_root
                0x000000000002994c      0x257 obj_cooja/mtype331.a(rpl-dag.o)
                0x000000000002994c                rpl_set_root
 .text.rpl_repair_root
                0x0000000000029ba3       0xd6 obj_cooja/mtype331.a(rpl-dag.o)
                0x0000000000029ba3                rpl_repair_root
 .text.set_ip_from_prefix
                0x0000000000029c79       0x66 obj_cooja/mtype331.a(rpl-dag.o)
 .text.check_prefix
                0x0000000000029cdf      0x100 obj_cooja/mtype331.a(rpl-dag.o)
 .text.rpl_set_prefix
                0x0000000000029ddf       0xff obj_cooja/mtype331.a(rpl-dag.o)
                0x0000000000029ddf                rpl_set_prefix
 .text.rpl_set_default_route
                0x0000000000029ede       0x6e obj_cooja/mtype331.a(rpl-dag.o)
                0x0000000000029ede                rpl_set_default_route
 .text.rpl_alloc_instance
                0x0000000000029f4c       0x93 obj_cooja/mtype331.a(rpl-dag.o)
                0x0000000000029f4c                rpl_alloc_instance
 .text.rpl_alloc_dag
                0x0000000000029fdf       0xb1 obj_cooja/mtype331.a(rpl-dag.o)
                0x0000000000029fdf                rpl_alloc_dag
 .text.rpl_set_default_instance
                0x000000000002a090        0xd obj_cooja/mtype331.a(rpl-dag.o)
                0x000000000002a090                rpl_set_default_instance
 .text.rpl_get_default_instance
                0x000000000002a09d        0xa obj_cooja/mtype331.a(rpl-dag.o)
                0x000000000002a09d                rpl_get_default_instance
 .text.rpl_free_instance
                0x000000000002a0a7       0xaf obj_cooja/mtype331.a(rpl-dag.o)
                0x000000000002a0a7                rpl_free_instance
 .text.rpl_free_dag
                0x000000000002a156       0x81 obj_cooja/mtype331.a(rpl-dag.o)
                0x000000000002a156                rpl_free_dag
 .text.rpl_add_parent
                0x000000000002a1d7       0x75 obj_cooja/mtype331.a(rpl-dag.o)
                0x000000000002a1d7                rpl_add_parent
 .text.find_parent_any_dag_any_instance
                0x000000000002a24c       0x38 obj_cooja/mtype331.a(rpl-dag.o)
 .text.rpl_find_parent
                0x000000000002a284       0x30 obj_cooja/mtype331.a(rpl-dag.o)
                0x000000000002a284                rpl_find_parent
 .text.find_parent_dag
                0x000000000002a2b4       0x28 obj_cooja/mtype331.a(rpl-dag.o)
 .text.rpl_find_parent_any_dag
                0x000000000002a2dc       0x3c obj_cooja/mtype331.a(rpl-dag.o)
                0x000000000002a2dc                rpl_find_parent_any_dag
 .text.rpl_select_dag
                0x000000000002a318      0x322 obj_cooja/mtype331.a(rpl-dag.o)
                0x000000000002a318                rpl_select_dag
 .text.best_parent
                0x000000000002a63a       0xfd obj_cooja/mtype331.a(rpl-dag.o)
 .text.rpl_select_parent
                0x000000000002a737       0xda obj_cooja/mtype331.a(rpl-dag.o)
                0x000000000002a737                rpl_select_parent
 .text.rpl_remove_parent
                0x000000000002a811       0x27 obj_cooja/mtype331.a(rpl-dag.o)
                0x000000000002a811                rpl_remove_parent
 .text.rpl_nullify_parent
                0x000000000002a838       0xc1 obj_cooja/mtype331.a(rpl-dag.o)
                0x000000000002a838                rpl_nullify_parent
 .text.rpl_move_parent
                0x000000000002a8f9       0xb8 obj_cooja/mtype331.a(rpl-dag.o)
                0x000000000002a8f9                rpl_move_parent
 .text.rpl_has_downward_route
                0x000000000002a9b1       0x53 obj_cooja/mtype331.a(rpl-dag.o)
                0x000000000002a9b1                rpl_has_downward_route
 .text.rpl_get_dag
                0x000000000002aa04       0xec obj_cooja/mtype331.a(rpl-dag.o)
                0x000000000002aa04                rpl_get_dag
 .text.rpl_get_any_dag
                0x000000000002aaf0       0x62 obj_cooja/mtype331.a(rpl-dag.o)
                0x000000000002aaf0                rpl_get_any_dag
 .text.rpl_get_instance
                0x000000000002ab52       0x63 obj_cooja/mtype331.a(rpl-dag.o)
                0x000000000002ab52                rpl_get_instance
 .text.rpl_find_of
                0x000000000002abb5       0x3d obj_cooja/mtype331.a(rpl-dag.o)
                0x000000000002abb5                rpl_find_of
 .text.rpl_join_instance
                0x000000000002abf2      0x2c0 obj_cooja/mtype331.a(rpl-dag.o)
                0x000000000002abf2                rpl_join_instance
 .text.rpl_add_dag
                0x000000000002aeb2      0x27c obj_cooja/mtype331.a(rpl-dag.o)
                0x000000000002aeb2                rpl_add_dag
 .text.global_repair
                0x000000000002b12e      0x154 obj_cooja/mtype331.a(rpl-dag.o)
 .text.rpl_local_repair
                0x000000000002b282       0xd8 obj_cooja/mtype331.a(rpl-dag.o)
                0x000000000002b282                rpl_local_repair
 .text.rpl_recalculate_ranks
                0x000000000002b35a       0x86 obj_cooja/mtype331.a(rpl-dag.o)
                0x000000000002b35a                rpl_recalculate_ranks
 .text.rpl_process_parent_event
                0x000000000002b3e0       0xfb obj_cooja/mtype331.a(rpl-dag.o)
                0x000000000002b3e0                rpl_process_parent_event
 .text.add_nbr_from_dio
                0x000000000002b4db       0x32 obj_cooja/mtype331.a(rpl-dag.o)
 .text.rpl_process_dio
                0x000000000002b50d      0x4da obj_cooja/mtype331.a(rpl-dag.o)
                0x000000000002b50d                rpl_process_dio
 .text          0x000000000002b9e7        0x0 obj_cooja/mtype331.a(rpl-ext-header.)
 .text.packetbuf_addr
                0x000000000002b9e7       0x1d obj_cooja/mtype331.a(rpl-ext-header.)
 .text.rpl_verify_hbh_header
                0x000000000002ba04      0x2c8 obj_cooja/mtype331.a(rpl-ext-header.)
                0x000000000002ba04                rpl_verify_hbh_header
 .text.update_hbh_header
                0x000000000002bccc      0x2b8 obj_cooja/mtype331.a(rpl-ext-header.)
 .text.insert_hbh_header
                0x000000000002bf84      0x203 obj_cooja/mtype331.a(rpl-ext-header.)
 .text.rpl_remove_header
                0x000000000002c187      0x163 obj_cooja/mtype331.a(rpl-ext-header.)
                0x000000000002c187                rpl_remove_header
 .text.rpl_update_header
                0x000000000002c2ea       0xcc obj_cooja/mtype331.a(rpl-ext-header.)
                0x000000000002c2ea                rpl_update_header
 .text          0x000000000002c3b6        0x0 obj_cooja/mtype331.a(rpl-icmp6.o)
 .text.packetbuf_addr
                0x000000000002c3b6       0x1d obj_cooja/mtype331.a(rpl-icmp6.o)
 .text.prepare_for_dao_fwd
                0x000000000002c3d3       0x6c obj_cooja/mtype331.a(rpl-icmp6.o)
 .text.get_global_addr
                0x000000000002c43f       0xb3 obj_cooja/mtype331.a(rpl-icmp6.o)
 .text.get32    0x000000000002c4f2       0x57 obj_cooja/mtype331.a(rpl-icmp6.o)
 .text.set32    0x000000000002c549       0x62 obj_cooja/mtype331.a(rpl-icmp6.o)
 .text.get16    0x000000000002c5ab       0x2b obj_cooja/mtype331.a(rpl-icmp6.o)
 .text.set16    0x000000000002c5d6       0x3f obj_cooja/mtype331.a(rpl-icmp6.o)
 .text.rpl_icmp6_update_nbr_table
                0x000000000002c615       0x5b obj_cooja/mtype331.a(rpl-icmp6.o)
                0x000000000002c615                rpl_icmp6_update_nbr_table
 .text.dis_input
                0x000000000002c670       0x95 obj_cooja/mtype331.a(rpl-icmp6.o)
 .text.dis_output
                0x000000000002c705       0xaf obj_cooja/mtype331.a(rpl-icmp6.o)
                0x000000000002c705                dis_output
 .text.dio_input
                0x000000000002c7b4      0x58a obj_cooja/mtype331.a(rpl-icmp6.o)
 .text.dio_output
                0x000000000002cd3e      0x622 obj_cooja/mtype331.a(rpl-icmp6.o)
                0x000000000002cd3e                dio_output
 .text.dao_input_storing
                0x000000000002d360      0x6d8 obj_cooja/mtype331.a(rpl-icmp6.o)
 .text.dao_input_nonstoring
                0x000000000002da38        0x5 obj_cooja/mtype331.a(rpl-icmp6.o)
 .text.dao_input
                0x000000000002da3d       0x5f obj_cooja/mtype331.a(rpl-icmp6.o)
 .text.dao_output
                0x000000000002da9c       0xbb obj_cooja/mtype331.a(rpl-icmp6.o)
                0x000000000002da9c                dao_output
 .text.dao_output_target
                0x000000000002db57       0x36 obj_cooja/mtype331.a(rpl-icmp6.o)
                0x000000000002db57                dao_output_target
 .text.dao_output_target_seq
                0x000000000002db8d      0x2ff obj_cooja/mtype331.a(rpl-icmp6.o)
 .text.dao_ack_input
                0x000000000002de8c       0x15 obj_cooja/mtype331.a(rpl-icmp6.o)
 .text.dao_ack_output
                0x000000000002dea1       0x14 obj_cooja/mtype331.a(rpl-icmp6.o)
                0x000000000002dea1                dao_ack_output
 .text.rpl_icmp6_register_handlers
                0x000000000002deb5       0x38 obj_cooja/mtype331.a(rpl-icmp6.o)
                0x000000000002deb5                rpl_icmp6_register_handlers
 .text          0x000000000002deed        0x0 obj_cooja/mtype331.a(rpl-mrhof.o)
 .text.reset    0x000000000002deed        0x5 obj_cooja/mtype331.a(rpl-mrhof.o)
 .text.parent_link_metric
                0x000000000002def2       0x29 obj_cooja/mtype331.a(rpl-mrhof.o)
 .text.parent_path_cost
                0x000000000002df1b       0x6d obj_cooja/mtype331.a(rpl-mrhof.o)
 .text.rank_via_parent
                0x000000000002df88       0x72 obj_cooja/mtype331.a(rpl-mrhof.o)
 .text.parent_is_acceptable
                0x000000000002dffa       0x42 obj_cooja/mtype331.a(rpl-mrhof.o)
 .text.parent_has_usable_link
                0x000000000002e03c       0x23 obj_cooja/mtype331.a(rpl-mrhof.o)
 .text.best_parent
                0x000000000002e05f       0xf7 obj_cooja/mtype331.a(rpl-mrhof.o)
 .text.best_dag
                0x000000000002e156       0x75 obj_cooja/mtype331.a(rpl-mrhof.o)
 .text.update_metric_container
                0x000000000002e1cb        0xb obj_cooja/mtype331.a(rpl-mrhof.o)
 .text          0x000000000002e1d6        0x0 obj_cooja/mtype331.a(rpl-timers.o)
 .text.handle_periodic_timer
                0x000000000002e1d6       0x84 obj_cooja/mtype331.a(rpl-timers.o)
 .text.new_dio_interval
                0x000000000002e25a       0xca obj_cooja/mtype331.a(rpl-timers.o)
 .text.handle_dio_timer
                0x000000000002e324      0x12d obj_cooja/mtype331.a(rpl-timers.o)
 .text.rpl_reset_periodic_timer
                0x000000000002e451       0x55 obj_cooja/mtype331.a(rpl-timers.o)
                0x000000000002e451                rpl_reset_periodic_timer
 .text.rpl_reset_dio_timer
                0x000000000002e4a6       0x48 obj_cooja/mtype331.a(rpl-timers.o)
                0x000000000002e4a6                rpl_reset_dio_timer
 .text.set_dao_lifetime_timer
                0x000000000002e4ee       0x8c obj_cooja/mtype331.a(rpl-timers.o)
 .text.handle_dao_timer
                0x000000000002e57a       0xb1 obj_cooja/mtype331.a(rpl-timers.o)
 .text.schedule_dao
                0x000000000002e62b       0xa2 obj_cooja/mtype331.a(rpl-timers.o)
 .text.rpl_schedule_dao
                0x000000000002e6cd       0x1b obj_cooja/mtype331.a(rpl-timers.o)
                0x000000000002e6cd                rpl_schedule_dao
 .text.rpl_schedule_dao_immediately
                0x000000000002e6e8       0x1b obj_cooja/mtype331.a(rpl-timers.o)
                0x000000000002e6e8                rpl_schedule_dao_immediately
 .text.rpl_cancel_dao
                0x000000000002e703       0x28 obj_cooja/mtype331.a(rpl-timers.o)
                0x000000000002e703                rpl_cancel_dao
 .text.handle_unicast_dio_timer
                0x000000000002e72b       0x3a obj_cooja/mtype331.a(rpl-timers.o)
 .text.rpl_schedule_unicast_dio_immediately
                0x000000000002e765       0x30 obj_cooja/mtype331.a(rpl-timers.o)
                0x000000000002e765                rpl_schedule_unicast_dio_immediately
 .text.get_probing_delay
                0x000000000002e795       0x7f obj_cooja/mtype331.a(rpl-timers.o)
                0x000000000002e795                get_probing_delay
 .text.get_probing_target
                0x000000000002e814      0x18c obj_cooja/mtype331.a(rpl-timers.o)
                0x000000000002e814                get_probing_target
 .text.handle_probing_timer
                0x000000000002e9a0       0x6b obj_cooja/mtype331.a(rpl-timers.o)
 .text.rpl_schedule_probing
                0x000000000002ea0b       0x3a obj_cooja/mtype331.a(rpl-timers.o)
                0x000000000002ea0b                rpl_schedule_probing
 .text          0x000000000002ea45        0x0 obj_cooja/mtype331.a(rpl.o)
 .text.rpl_get_mode
                0x000000000002ea45        0xa obj_cooja/mtype331.a(rpl.o)
                0x000000000002ea45                rpl_get_mode
 .text.rpl_set_mode
                0x000000000002ea4f       0x8e obj_cooja/mtype331.a(rpl.o)
                0x000000000002ea4f                rpl_set_mode
 .text.rpl_purge_routes
                0x000000000002eadd      0x105 obj_cooja/mtype331.a(rpl.o)
                0x000000000002eadd                rpl_purge_routes
 .text.rpl_remove_routes
                0x000000000002ebe2       0x46 obj_cooja/mtype331.a(rpl.o)
                0x000000000002ebe2                rpl_remove_routes
 .text.rpl_remove_routes_by_nexthop
                0x000000000002ec28       0x61 obj_cooja/mtype331.a(rpl.o)
                0x000000000002ec28                rpl_remove_routes_by_nexthop
 .text.rpl_add_route
                0x000000000002ec89       0x93 obj_cooja/mtype331.a(rpl.o)
                0x000000000002ec89                rpl_add_route
 .text.rpl_link_neighbor_callback
                0x000000000002ed1c       0xca obj_cooja/mtype331.a(rpl.o)
                0x000000000002ed1c                rpl_link_neighbor_callback
 .text.rpl_ipv6_neighbor_callback
                0x000000000002ede6       0x6f obj_cooja/mtype331.a(rpl.o)
                0x000000000002ede6                rpl_ipv6_neighbor_callback
 .text.rpl_purge_dags
                0x000000000002ee55       0xe2 obj_cooja/mtype331.a(rpl.o)
                0x000000000002ee55                rpl_purge_dags
 .text.rpl_init
                0x000000000002ef37       0x78 obj_cooja/mtype331.a(rpl.o)
                0x000000000002ef37                rpl_init
 .text          0x000000000002efaf        0x0 obj_cooja/mtype331.a(link-stats.o)
 .text.packetbuf_attr
                0x000000000002efaf       0x1a obj_cooja/mtype331.a(link-stats.o)
 .text.link_stats_from_lladdr
                0x000000000002efc9       0x1c obj_cooja/mtype331.a(link-stats.o)
                0x000000000002efc9                link_stats_from_lladdr
 .text.link_stats_is_fresh
                0x000000000002efe5       0x39 obj_cooja/mtype331.a(link-stats.o)
                0x000000000002efe5                link_stats_is_fresh
 .text.guess_etx_from_rssi
                0x000000000002f01e       0x7c obj_cooja/mtype331.a(link-stats.o)
                0x000000000002f01e                guess_etx_from_rssi
 .text.link_stats_packet_sent
                0x000000000002f09a      0x10e obj_cooja/mtype331.a(link-stats.o)
                0x000000000002f09a                link_stats_packet_sent
 .text.link_stats_input_callback
                0x000000000002f1a8       0xaf obj_cooja/mtype331.a(link-stats.o)
                0x000000000002f1a8                link_stats_input_callback
 .text.periodic
                0x000000000002f257       0x54 obj_cooja/mtype331.a(link-stats.o)
 .text.link_stats_init
                0x000000000002f2ab       0x41 obj_cooja/mtype331.a(link-stats.o)
                0x000000000002f2ab                link_stats_init
 .text          0x000000000002f2ec        0x0 obj_cooja/mtype331.a(linkaddr.o)
 .text.linkaddr_copy
                0x000000000002f2ec       0x22 obj_cooja/mtype331.a(linkaddr.o)
                0x000000000002f2ec                linkaddr_copy
 .text.linkaddr_cmp
                0x000000000002f30e       0x2a obj_cooja/mtype331.a(linkaddr.o)
                0x000000000002f30e                linkaddr_cmp
 .text.linkaddr_set_node_addr
                0x000000000002f338       0x1b obj_cooja/mtype331.a(linkaddr.o)
                0x000000000002f338                linkaddr_set_node_addr
 .text          0x000000000002f353        0x0 obj_cooja/mtype331.a(nbr-table.o)
 .text.key_from_index
                0x000000000002f353       0x26 obj_cooja/mtype331.a(nbr-table.o)
 .text.item_from_index
                0x000000000002f379       0x2a obj_cooja/mtype331.a(nbr-table.o)
 .text.index_from_key
                0x000000000002f3a3       0x27 obj_cooja/mtype331.a(nbr-table.o)
 .text.index_from_item
                0x000000000002f3ca       0x32 obj_cooja/mtype331.a(nbr-table.o)
 .text.item_from_key
                0x000000000002f3fc       0x22 obj_cooja/mtype331.a(nbr-table.o)
 .text.key_from_item
                0x000000000002f41e       0x22 obj_cooja/mtype331.a(nbr-table.o)
 .text.index_from_lladdr
                0x000000000002f440       0x6c obj_cooja/mtype331.a(nbr-table.o)
 .text.nbr_get_bit
                0x000000000002f4ac       0x54 obj_cooja/mtype331.a(nbr-table.o)
 .text.nbr_set_bit
                0x000000000002f500       0x98 obj_cooja/mtype331.a(nbr-table.o)
 .text.remove_key
                0x000000000002f598       0xb7 obj_cooja/mtype331.a(nbr-table.o)
 .text.nbr_table_allocate
                0x000000000002f64f      0x173 obj_cooja/mtype331.a(nbr-table.o)
 .text.nbr_table_register
                0x000000000002f7c2       0x48 obj_cooja/mtype331.a(nbr-table.o)
                0x000000000002f7c2                nbr_table_register
 .text.nbr_table_head
                0x000000000002f80a       0x5c obj_cooja/mtype331.a(nbr-table.o)
                0x000000000002f80a                nbr_table_head
 .text.nbr_table_next
                0x000000000002f866       0x67 obj_cooja/mtype331.a(nbr-table.o)
                0x000000000002f866                nbr_table_next
 .text.nbr_table_add_lladdr
                0x000000000002f8cd       0xdc obj_cooja/mtype331.a(nbr-table.o)
                0x000000000002f8cd                nbr_table_add_lladdr
 .text.nbr_table_get_from_lladdr
                0x000000000002f9a9       0x4d obj_cooja/mtype331.a(nbr-table.o)
                0x000000000002f9a9                nbr_table_get_from_lladdr
 .text.nbr_table_remove
                0x000000000002f9f6       0x52 obj_cooja/mtype331.a(nbr-table.o)
                0x000000000002f9f6                nbr_table_remove
 .text.nbr_table_lock
                0x000000000002fa48       0x2a obj_cooja/mtype331.a(nbr-table.o)
                0x000000000002fa48                nbr_table_lock
 .text.nbr_table_unlock
                0x000000000002fa72       0x2a obj_cooja/mtype331.a(nbr-table.o)
                0x000000000002fa72                nbr_table_unlock
 .text.nbr_table_get_lladdr
                0x000000000002fa9c       0x30 obj_cooja/mtype331.a(nbr-table.o)
                0x000000000002fa9c                nbr_table_get_lladdr
 .text.nbr_table_update_lladdr
                0x000000000002facc       0x96 obj_cooja/mtype331.a(nbr-table.o)
                0x000000000002facc                nbr_table_update_lladdr
 .text          0x000000000002fb62        0x0 obj_cooja/mtype331.a(netstack.o)
 .text.netstack_init
                0x000000000002fb62       0x2b obj_cooja/mtype331.a(netstack.o)
                0x000000000002fb62                netstack_init
 .text          0x000000000002fb8d        0x0 obj_cooja/mtype331.a(packetbuf.o)
 .text.packetbuf_clear
                0x000000000002fb8d       0x2a obj_cooja/mtype331.a(packetbuf.o)
                0x000000000002fb8d                packetbuf_clear
 .text.packetbuf_copyfrom
                0x000000000002fbb7       0x52 obj_cooja/mtype331.a(packetbuf.o)
                0x000000000002fbb7                packetbuf_copyfrom
 .text.packetbuf_compact
                0x000000000002fc09       0x7d obj_cooja/mtype331.a(packetbuf.o)
                0x000000000002fc09                packetbuf_compact
 .text.packetbuf_copyto
                0x000000000002fc86       0x97 obj_cooja/mtype331.a(packetbuf.o)
                0x000000000002fc86                packetbuf_copyto
 .text.packetbuf_hdralloc
                0x000000000002fd1d       0x7d obj_cooja/mtype331.a(packetbuf.o)
                0x000000000002fd1d                packetbuf_hdralloc
 .text.packetbuf_hdrreduce
                0x000000000002fd9a       0x48 obj_cooja/mtype331.a(packetbuf.o)
                0x000000000002fd9a                packetbuf_hdrreduce
 .text.packetbuf_set_datalen
                0x000000000002fde2       0x19 obj_cooja/mtype331.a(packetbuf.o)
                0x000000000002fde2                packetbuf_set_datalen
 .text.packetbuf_dataptr
                0x000000000002fdfb       0x1d obj_cooja/mtype331.a(packetbuf.o)
                0x000000000002fdfb                packetbuf_dataptr
 .text.packetbuf_hdrptr
                0x000000000002fe18        0xa obj_cooja/mtype331.a(packetbuf.o)
                0x000000000002fe18                packetbuf_hdrptr
 .text.packetbuf_datalen
                0x000000000002fe22        0xc obj_cooja/mtype331.a(packetbuf.o)
                0x000000000002fe22                packetbuf_datalen
 .text.packetbuf_hdrlen
                0x000000000002fe2e       0x17 obj_cooja/mtype331.a(packetbuf.o)
                0x000000000002fe2e                packetbuf_hdrlen
 .text.packetbuf_totlen
                0x000000000002fe45       0x16 obj_cooja/mtype331.a(packetbuf.o)
                0x000000000002fe45                packetbuf_totlen
 .text.packetbuf_remaininglen
                0x000000000002fe5b       0x13 obj_cooja/mtype331.a(packetbuf.o)
                0x000000000002fe5b                packetbuf_remaininglen
 .text.packetbuf_attr_clear
                0x000000000002fe6e       0x52 obj_cooja/mtype331.a(packetbuf.o)
                0x000000000002fe6e                packetbuf_attr_clear
 .text.packetbuf_attr_copyto
                0x000000000002fec0       0x49 obj_cooja/mtype331.a(packetbuf.o)
                0x000000000002fec0                packetbuf_attr_copyto
 .text.packetbuf_attr_copyfrom
                0x000000000002ff09       0x48 obj_cooja/mtype331.a(packetbuf.o)
                0x000000000002ff09                packetbuf_attr_copyfrom
 .text.packetbuf_holds_broadcast
                0x000000000002ff51       0x1c obj_cooja/mtype331.a(packetbuf.o)
                0x000000000002ff51                packetbuf_holds_broadcast
 .text          0x000000000002ff6d        0x0 obj_cooja/mtype331.a(queuebuf.o)
 .text.queuebuf_load_to_ram
                0x000000000002ff6d        0xa obj_cooja/mtype331.a(queuebuf.o)
 .text.queuebuf_init
                0x000000000002ff77       0x20 obj_cooja/mtype331.a(queuebuf.o)
                0x000000000002ff77                queuebuf_init
 .text.queuebuf_numfree
                0x000000000002ff97       0x14 obj_cooja/mtype331.a(queuebuf.o)
                0x000000000002ff97                queuebuf_numfree
 .text.queuebuf_new_from_packetbuf
                0x000000000002ffab       0x90 obj_cooja/mtype331.a(queuebuf.o)
                0x000000000002ffab                queuebuf_new_from_packetbuf
 .text.queuebuf_update_attr_from_packetbuf
                0x000000000003003b       0x33 obj_cooja/mtype331.a(queuebuf.o)
                0x000000000003003b                queuebuf_update_attr_from_packetbuf
 .text.queuebuf_update_from_packetbuf
                0x000000000003006e       0x4a obj_cooja/mtype331.a(queuebuf.o)
                0x000000000003006e                queuebuf_update_from_packetbuf
 .text.queuebuf_free
                0x00000000000300b8       0x47 obj_cooja/mtype331.a(queuebuf.o)
                0x00000000000300b8                queuebuf_free
 .text.queuebuf_to_packetbuf
                0x00000000000300ff       0x66 obj_cooja/mtype331.a(queuebuf.o)
                0x00000000000300ff                queuebuf_to_packetbuf
 .text.queuebuf_dataptr
                0x0000000000030165       0x37 obj_cooja/mtype331.a(queuebuf.o)
                0x0000000000030165                queuebuf_dataptr
 .text.queuebuf_datalen
                0x000000000003019c       0x23 obj_cooja/mtype331.a(queuebuf.o)
                0x000000000003019c                queuebuf_datalen
 .text.queuebuf_addr
                0x00000000000301bf       0x32 obj_cooja/mtype331.a(queuebuf.o)
                0x00000000000301bf                queuebuf_addr
 .text.queuebuf_attr
                0x00000000000301f1       0x2b obj_cooja/mtype331.a(queuebuf.o)
                0x00000000000301f1                queuebuf_attr
 .text.queuebuf_debug_print
                0x000000000003021c        0x5 obj_cooja/mtype331.a(queuebuf.o)
                0x000000000003021c                queuebuf_debug_print
 .text          0x0000000000030221        0x0 obj_cooja/mtype331.a(csma.o)
 .text.packetbuf_set_attr
                0x0000000000030221       0x2a obj_cooja/mtype331.a(csma.o)
 .text.packetbuf_attr
                0x000000000003024b       0x1a obj_cooja/mtype331.a(csma.o)
 .text.packetbuf_addr
                0x0000000000030265       0x1d obj_cooja/mtype331.a(csma.o)
 .text.neighbor_queue_from_addr
                0x0000000000030282       0x51 obj_cooja/mtype331.a(csma.o)
 .text.backoff_period
                0x00000000000302d3       0x25 obj_cooja/mtype331.a(csma.o)
 .text.transmit_packet_list
                0x00000000000302f8       0x47 obj_cooja/mtype331.a(csma.o)
 .text.schedule_transmission
                0x000000000003033f       0x87 obj_cooja/mtype331.a(csma.o)
 .text.free_packet
                0x00000000000303c6       0xc0 obj_cooja/mtype331.a(csma.o)
 .text.tx_done  0x0000000000030486       0x7c obj_cooja/mtype331.a(csma.o)
 .text.rexmit   0x0000000000030502       0x21 obj_cooja/mtype331.a(csma.o)
 .text.collision
                0x0000000000030523       0x85 obj_cooja/mtype331.a(csma.o)
 .text.noack    0x00000000000305a8       0x6a obj_cooja/mtype331.a(csma.o)
 .text.tx_ok    0x0000000000030612       0x3b obj_cooja/mtype331.a(csma.o)
 .text.packet_sent
                0x000000000003064d      0x117 obj_cooja/mtype331.a(csma.o)
 .text.send_packet
                0x0000000000030764      0x274 obj_cooja/mtype331.a(csma.o)
 .text.input_packet
                0x00000000000309d8        0xf obj_cooja/mtype331.a(csma.o)
 .text.on       0x00000000000309e7        0xf obj_cooja/mtype331.a(csma.o)
 .text.off      0x00000000000309f6       0x15 obj_cooja/mtype331.a(csma.o)
 .text.channel_check_interval
                0x0000000000030a0b       0x1f obj_cooja/mtype331.a(csma.o)
 .text.init     0x0000000000030a2a       0x2c obj_cooja/mtype331.a(csma.o)
 .text          0x0000000000030a56        0x0 obj_cooja/mtype331.a(framer-802154.o)
 .text.packetbuf_set_attr
                0x0000000000030a56       0x2a obj_cooja/mtype331.a(framer-802154.o)
 .text.packetbuf_attr
                0x0000000000030a80       0x1a obj_cooja/mtype331.a(framer-802154.o)
 .text.packetbuf_set_addr
                0x0000000000030a9a       0x32 obj_cooja/mtype331.a(framer-802154.o)
 .text.packetbuf_addr
                0x0000000000030acc       0x1d obj_cooja/mtype331.a(framer-802154.o)
 .text.create_frame
                0x0000000000030ae9      0x1eb obj_cooja/mtype331.a(framer-802154.o)
 .text.hdr_length
                0x0000000000030cd4       0x1c obj_cooja/mtype331.a(framer-802154.o)
 .text.create   0x0000000000030cf0       0x1c obj_cooja/mtype331.a(framer-802154.o)
 .text.parse    0x0000000000030d0c      0x143 obj_cooja/mtype331.a(framer-802154.o)
 .text          0x0000000000030e4f        0x0 obj_cooja/mtype331.a(mac.o)
 .text.mac_call_sent_callback
                0x0000000000030e4f       0x3c obj_cooja/mtype331.a(mac.o)
                0x0000000000030e4f                mac_call_sent_callback
 .text          0x0000000000030e8b        0x0 obj_cooja/mtype331.a(nullrdc.o)
 .text.packetbuf_set_attr
                0x0000000000030e8b       0x2a obj_cooja/mtype331.a(nullrdc.o)
 .text.packetbuf_set_addr
                0x0000000000030eb5       0x32 obj_cooja/mtype331.a(nullrdc.o)
 .text.packetbuf_addr
                0x0000000000030ee7       0x1d obj_cooja/mtype331.a(nullrdc.o)
 .text.send_one_packet
                0x0000000000030f04      0x1ec obj_cooja/mtype331.a(nullrdc.o)
 .text.send_packet
                0x00000000000310f0       0x1a obj_cooja/mtype331.a(nullrdc.o)
 .text.send_list
                0x000000000003110a       0x49 obj_cooja/mtype331.a(nullrdc.o)
 .text.packet_input
                0x0000000000031153      0x11a obj_cooja/mtype331.a(nullrdc.o)
 .text.on       0x000000000003126d        0xf obj_cooja/mtype331.a(nullrdc.o)
 .text.off      0x000000000003127c       0x1e obj_cooja/mtype331.a(nullrdc.o)
 .text.channel_check_interval
                0x000000000003129a        0xa obj_cooja/mtype331.a(nullrdc.o)
 .text.init     0x00000000000312a4        0xd obj_cooja/mtype331.a(nullrdc.o)
 .text          0x00000000000312b1        0x0 obj_cooja/mtype331.a(nullsec.o)
 .text.packetbuf_set_attr
                0x00000000000312b1       0x2a obj_cooja/mtype331.a(nullsec.o)
 .text.init     0x00000000000312db        0x5 obj_cooja/mtype331.a(nullsec.o)
 .text.send     0x00000000000312e0       0x30 obj_cooja/mtype331.a(nullsec.o)
 .text.input    0x0000000000031310        0xf obj_cooja/mtype331.a(nullsec.o)
 .text          0x000000000003131f        0x0 obj_cooja/mtype331.a(watchdog.o)
 .text.watchdog_init
                0x000000000003131f        0x5 obj_cooja/mtype331.a(watchdog.o)
                0x000000000003131f                watchdog_init
 .text.watchdog_start
                0x0000000000031324        0x5 obj_cooja/mtype331.a(watchdog.o)
                0x0000000000031324                watchdog_start
 .text.watchdog_periodic
                0x0000000000031329        0x5 obj_cooja/mtype331.a(watchdog.o)
                0x0000000000031329                watchdog_periodic
 .text.watchdog_stop
                0x000000000003132e        0x5 obj_cooja/mtype331.a(watchdog.o)
                0x000000000003132e                watchdog_stop
 .text.watchdog_reboot
                0x0000000000031333        0x5 obj_cooja/mtype331.a(watchdog.o)
                0x0000000000031333                watchdog_reboot
 .text          0x0000000000031338        0x0 obj_cooja/mtype331.a(rimestats.o)
 .text          0x0000000000031338        0x0 obj_cooja/mtype331.a(stimer.o)
 .text.stimer_set
                0x0000000000031338       0x1b obj_cooja/mtype331.a(stimer.o)
                0x0000000000031338                stimer_set
 .text.stimer_reset
                0x0000000000031353       0x17 obj_cooja/mtype331.a(stimer.o)
                0x0000000000031353                stimer_reset
 .text.stimer_restart
                0x000000000003136a       0x12 obj_cooja/mtype331.a(stimer.o)
                0x000000000003136a                stimer_restart
 .text.stimer_expired
                0x000000000003137c       0x27 obj_cooja/mtype331.a(stimer.o)
                0x000000000003137c                stimer_expired
 .text.stimer_remaining
                0x00000000000313a3       0x24 obj_cooja/mtype331.a(stimer.o)
                0x00000000000313a3                stimer_remaining
 .text.stimer_elapsed
                0x00000000000313c7       0x14 obj_cooja/mtype331.a(stimer.o)
                0x00000000000313c7                stimer_elapsed
 .text          0x00000000000313db        0x0 obj_cooja/mtype331.a(uip-icmp6.o)
 .text.input_handler_lookup
                0x00000000000313db       0x6e obj_cooja/mtype331.a(uip-icmp6.o)
 .text.uip_icmp6_input
                0x0000000000031449       0x56 obj_cooja/mtype331.a(uip-icmp6.o)
                0x0000000000031449                uip_icmp6_input
 .text.uip_icmp6_register_input_handler
                0x000000000003149f       0x1c obj_cooja/mtype331.a(uip-icmp6.o)
                0x000000000003149f                uip_icmp6_register_input_handler
 .text.echo_request_input
                0x00000000000314bb      0x1c7 obj_cooja/mtype331.a(uip-icmp6.o)
 .text.uip_icmp6_error_output
                0x0000000000031682      0x340 obj_cooja/mtype331.a(uip-icmp6.o)
                0x0000000000031682                uip_icmp6_error_output
 .text.uip_icmp6_send
                0x00000000000319c2      0x107 obj_cooja/mtype331.a(uip-icmp6.o)
                0x00000000000319c2                uip_icmp6_send
 .text.echo_reply_input
                0x0000000000031ac9      0x16d obj_cooja/mtype331.a(uip-icmp6.o)
 .text.uip_icmp6_echo_reply_callback_add
                0x0000000000031c36       0x31 obj_cooja/mtype331.a(uip-icmp6.o)
                0x0000000000031c36                uip_icmp6_echo_reply_callback_add
 .text.uip_icmp6_echo_reply_callback_rm
                0x0000000000031c67       0x1c obj_cooja/mtype331.a(uip-icmp6.o)
                0x0000000000031c67                uip_icmp6_echo_reply_callback_rm
 .text.uip_icmp6_init
                0x0000000000031c83       0x20 obj_cooja/mtype331.a(uip-icmp6.o)
                0x0000000000031c83                uip_icmp6_init
 .text          0x0000000000031ca3        0x0 obj_cooja/mtype331.a(rpl-nbr-policy.)
 .text.handle_periodic_timer
                0x0000000000031ca3       0x19 obj_cooja/mtype331.a(rpl-nbr-policy.)
 .text.update_nbr
                0x0000000000031cbc      0x1b7 obj_cooja/mtype331.a(rpl-nbr-policy.)
 .text.find_removable_dis
                0x0000000000031e73       0x25 obj_cooja/mtype331.a(rpl-nbr-policy.)
                0x0000000000031e73                find_removable_dis
 .text.find_removable_dio
                0x0000000000031e98       0x81 obj_cooja/mtype331.a(rpl-nbr-policy.)
                0x0000000000031e98                find_removable_dio
 .text.find_removable_dao
                0x0000000000031f19       0x50 obj_cooja/mtype331.a(rpl-nbr-policy.)
                0x0000000000031f19                find_removable_dao
 .text.rpl_nbr_policy_find_removable
                0x0000000000031f69       0x57 obj_cooja/mtype331.a(rpl-nbr-policy.)
                0x0000000000031f69                rpl_nbr_policy_find_removable
 .text          0x0000000000031fc0        0x0 obj_cooja/mtype331.a(frame802154.o)
 .text.addr_len
                0x0000000000031fc0       0x31 obj_cooja/mtype331.a(frame802154.o)
 .text.frame802154_get_pan_id
                0x0000000000031ff1        0xc obj_cooja/mtype331.a(frame802154.o)
                0x0000000000031ff1                frame802154_get_pan_id
 .text.frame802154_set_pan_id
                0x0000000000031ffd       0x19 obj_cooja/mtype331.a(frame802154.o)
                0x0000000000031ffd                frame802154_set_pan_id
 .text.frame802154_has_panid
                0x0000000000032016      0x1ad obj_cooja/mtype331.a(frame802154.o)
                0x0000000000032016                frame802154_has_panid
 .text.frame802154_check_dest_panid
                0x00000000000321c3       0x6f obj_cooja/mtype331.a(frame802154.o)
                0x00000000000321c3                frame802154_check_dest_panid
 .text.frame802154_is_broadcast_addr
                0x0000000000032232       0x4d obj_cooja/mtype331.a(frame802154.o)
                0x0000000000032232                frame802154_is_broadcast_addr
 .text.frame802154_extract_linkaddr
                0x000000000003227f      0x148 obj_cooja/mtype331.a(frame802154.o)
                0x000000000003227f                frame802154_extract_linkaddr
 .text.field_len
                0x00000000000323c7       0xf8 obj_cooja/mtype331.a(frame802154.o)
 .text.frame802154_hdrlen
                0x00000000000324bf       0x51 obj_cooja/mtype331.a(frame802154.o)
                0x00000000000324bf                frame802154_hdrlen
 .text.frame802154_create_fcf
                0x0000000000032510       0xb7 obj_cooja/mtype331.a(frame802154.o)
                0x0000000000032510                frame802154_create_fcf
 .text.frame802154_create
                0x00000000000325c7      0x14d obj_cooja/mtype331.a(frame802154.o)
                0x00000000000325c7                frame802154_create
 .text.frame802154_parse_fcf
                0x0000000000032714       0xb9 obj_cooja/mtype331.a(frame802154.o)
                0x0000000000032714                frame802154_parse_fcf
 .text.frame802154_parse
                0x00000000000327cd      0x280 obj_cooja/mtype331.a(frame802154.o)
                0x00000000000327cd                frame802154_parse
 .text          0x0000000000032a4d        0x0 obj_cooja/mtype331.a(mac-sequence.o)
 .text.packetbuf_attr
                0x0000000000032a4d       0x1a obj_cooja/mtype331.a(mac-sequence.o)
 .text.packetbuf_addr
                0x0000000000032a67       0x1d obj_cooja/mtype331.a(mac-sequence.o)
 .text.mac_sequence_is_duplicate
                0x0000000000032a84       0x9e obj_cooja/mtype331.a(mac-sequence.o)
                0x0000000000032a84                mac_sequence_is_duplicate
 .text.mac_sequence_register_seqno
                0x0000000000032b22       0xca obj_cooja/mtype331.a(mac-sequence.o)
                0x0000000000032b22                mac_sequence_register_seqno
 .text          0x0000000000032bec        0x0 /usr/lib/gcc/i686-linux-gnu/4.8/crtendS.o
 .text          0x0000000000032bec        0x0 /usr/lib/gcc/i686-linux-gnu/4.8/../../../i386-linux-gnu/crtn.o
 *(.gnu.warning)

.fini           0x0000000000032bec       0x14
 *(SORT(.fini))
 .fini          0x0000000000032bec        0xf /usr/lib/gcc/i686-linux-gnu/4.8/../../../i386-linux-gnu/crti.o
                0x0000000000032bec                _fini
 .fini          0x0000000000032bfb        0x5 /usr/lib/gcc/i686-linux-gnu/4.8/../../../i386-linux-gnu/crtn.o
                0x0000000000032c00                PROVIDE (__etext, .)
                0x0000000000032c00                PROVIDE (_etext, .)
                0x0000000000032c00                PROVIDE (etext, .)

.rodata         0x0000000000032c00     0x3638
 *(.rodata .rodata.* .gnu.linkonce.r.*)
 .rodata        0x0000000000032c00      0x2d6 receiver.co
                0x0000000000032c74                autostart_processes
 *fill*         0x0000000000032ed6        0x2 
 .rodata        0x0000000000032ed8      0x133 obj_cooja/mtype331.o
 *fill*         0x000000000003300b        0x1 
 .rodata        0x000000000003300c     0x131a obj_cooja/mtype331.a(dtls.o)
 *fill*         0x0000000000034326        0x2 
 .rodata        0x0000000000034328       0xb5 obj_cooja/mtype331.a(tinydtls-crypto)
 *fill*         0x00000000000343dd        0x3 
 .rodata        0x00000000000343e0       0x21 obj_cooja/mtype331.a(hmac.o)
 *fill*         0x0000000000034401        0x3 
 .rodata        0x0000000000034404       0x38 obj_cooja/mtype331.a(netq.o)
 .rodata        0x000000000003443c        0xe obj_cooja/mtype331.a(peer.o)
 *fill*         0x000000000003444a        0x2 
 .rodata        0x000000000003444c       0x24 obj_cooja/mtype331.a(session.o)
 *fill*         0x0000000000034470       0x10 
 .rodata        0x0000000000034480     0x1428 obj_cooja/mtype331.a(rijndael.o)
 .rodata        0x00000000000358a8       0x29 obj_cooja/mtype331.a(tinydtls-ccm.o)
 *fill*         0x00000000000358d1        0xf 
 .rodata        0x00000000000358e0      0x15a obj_cooja/mtype331.a(sha2.o)
 .rodata        0x0000000000035a3a       0x7e obj_cooja/mtype331.a(debug.o)
 .rodata        0x0000000000035ab8        0x8 obj_cooja/mtype331.a(beep.o)
                0x0000000000035ab8                beep_interface
 .rodata        0x0000000000035ac0       0x20 obj_cooja/mtype331.a(button-sensor.o)
                0x0000000000035ac0                button_interface
                0x0000000000035ad0                button_sensor
 .rodata        0x0000000000035ae0        0x8 obj_cooja/mtype331.a(leds-arch.o)
                0x0000000000035ae0                leds_interface
 .rodata        0x0000000000035ae8        0x8 obj_cooja/mtype331.a(moteid.o)
                0x0000000000035ae8                moteid_interface
 .rodata        0x0000000000035af0       0x1c obj_cooja/mtype331.a(pir-sensor.o)
                0x0000000000035af0                pir_interface
                0x0000000000035afc                pir_sensor
 .rodata        0x0000000000035b0c        0xe obj_cooja/mtype331.a(rs232.o)
                0x0000000000035b0c                rs232_interface
 *fill*         0x0000000000035b1a        0x2 
 .rodata        0x0000000000035b1c       0x24 obj_cooja/mtype331.a(vib-sensor.o)
                0x0000000000035b1c                vib_interface
                0x0000000000035b30                vib_sensor
 .rodata        0x0000000000035b40        0x8 obj_cooja/mtype331.a(clock.o)
                0x0000000000035b40                clock_interface
 .rodata        0x0000000000035b48        0x8 obj_cooja/mtype331.a(log.o)
                0x0000000000035b48                simlog_interface
 .rodata        0x0000000000035b50       0x2f obj_cooja/mtype331.a(cfs-cooja.o)
                0x0000000000035b50                cfs_interface
 *fill*         0x0000000000035b7f        0x1 
 .rodata        0x0000000000035b80       0x58 obj_cooja/mtype331.a(cooja-radio.o)
                0x0000000000035b80                radio_interface
                0x0000000000035ba0                cooja_radio_driver
 .rodata        0x0000000000035bd8        0x8 obj_cooja/mtype331.a(eeprom.o)
                0x0000000000035bd8                eeprom_interface
 .rodata        0x0000000000035be0        0x8 obj_cooja/mtype331.a(sensors.o)
 .rodata        0x0000000000035be8        0xf obj_cooja/mtype331.a(ctimer.o)
 .rodata        0x0000000000035bf7        0xc obj_cooja/mtype331.a(etimer.o)
 .rodata        0x0000000000035c03        0xe obj_cooja/mtype331.a(serial-line.o)
 *fill*         0x0000000000035c11        0x3 
 .rodata        0x0000000000035c14       0x25 obj_cooja/mtype331.a(assert.o)
 *fill*         0x0000000000035c39        0x3 
 .rodata        0x0000000000035c3c       0x2c obj_cooja/mtype331.a(sicslowpan.o)
                0x0000000000035c3c                unc_llconf
                0x0000000000035c40                unc_ctxconf
                0x0000000000035c44                unc_mxconf
                0x0000000000035c48                llprefix
                0x0000000000035c5c                sicslowpan_driver
 .rodata        0x0000000000035c68      0x13c obj_cooja/mtype331.a(uip6.o)
 .rodata        0x0000000000035da4      0x306 obj_cooja/mtype331.a(resolv.o)
 .rodata        0x00000000000360aa       0x29 obj_cooja/mtype331.a(tcpip.o)
 .rodata        0x00000000000360d3       0x2a obj_cooja/mtype331.a(uip-debug.o)
 *fill*         0x00000000000360fd        0x3 
 .rodata        0x0000000000036100       0x89 obj_cooja/mtype331.a(rpl-dag.o)
 .rodata        0x0000000000036189        0x8 obj_cooja/mtype331.a(linkaddr.o)
                0x0000000000036189                linkaddr_null
 *fill*         0x0000000000036191        0x3 
 .rodata        0x0000000000036194       0x24 obj_cooja/mtype331.a(csma.o)
                0x000000000003619c                csma_driver
 .rodata        0x00000000000361b8        0xc obj_cooja/mtype331.a(framer-802154.o)
                0x00000000000361b8                framer_802154
 *fill*         0x00000000000361c4       0x1c 
 .rodata        0x00000000000361e0       0x40 obj_cooja/mtype331.a(nullrdc.o)
                0x0000000000036200                nullrdc_driver
 .rodata        0x0000000000036220       0x18 obj_cooja/mtype331.a(nullsec.o)
                0x0000000000036228                nullsec_driver

.rodata1
 *(.rodata1)

.eh_frame_hdr   0x0000000000036238     0x1a3c
 *(.eh_frame_hdr)
 .eh_frame_hdr  0x0000000000036238     0x1a3c receiver.co

.eh_frame       0x0000000000037c74     0x6b88
 *(.eh_frame)
 .eh_frame      0x0000000000037c74       0x3c /usr/lib/gcc/i686-linux-gnu/4.8/../../../i386-linux-gnu/crti.o
                                         0x40 (size before relaxing)
 .eh_frame      0x0000000000037cb0      0x210 receiver.co
                                        0x228 (size before relaxing)
 .eh_frame      0x0000000000037ec0      0x148 obj_cooja/mtype331.o
                                        0x160 (size before relaxing)
 .eh_frame      0x0000000000038008      0xc58 obj_cooja/mtype331.a(dtls.o)
                                        0xc70 (size before relaxing)
 .eh_frame      0x0000000000038c60      0x2c0 obj_cooja/mtype331.a(tinydtls-crypto)
                                        0x2d8 (size before relaxing)
 .eh_frame      0x0000000000038f20      0x160 obj_cooja/mtype331.a(hmac.o)
                                        0x178 (size before relaxing)
 .eh_frame      0x0000000000039080      0x160 obj_cooja/mtype331.a(netq.o)
                                        0x178 (size before relaxing)
 .eh_frame      0x00000000000391e0       0x40 obj_cooja/mtype331.a(dtls_time.o)
                                         0x58 (size before relaxing)
 .eh_frame      0x0000000000039220       0x80 obj_cooja/mtype331.a(peer.o)
                                         0x98 (size before relaxing)
 .eh_frame      0x00000000000392a0       0x40 obj_cooja/mtype331.a(session.o)
                                         0x58 (size before relaxing)
 .eh_frame      0x00000000000392e0       0x80 obj_cooja/mtype331.a(rijndael.o)
                                         0x98 (size before relaxing)
 .eh_frame      0x0000000000039360      0x144 obj_cooja/mtype331.a(tinydtls-ccm.o)
                                        0x15c (size before relaxing)
 .eh_frame      0x00000000000394a4       0xec obj_cooja/mtype331.a(sha2.o)
                                        0x104 (size before relaxing)
 .eh_frame      0x0000000000039590      0x148 obj_cooja/mtype331.a(debug.o)
                                        0x160 (size before relaxing)
 .eh_frame      0x00000000000396d8       0x40 obj_cooja/mtype331.a(simEnvChange.o)
                                         0x58 (size before relaxing)
 .eh_frame      0x0000000000039718       0xc0 obj_cooja/mtype331.a(cooja_mt.o)
                                         0xd8 (size before relaxing)
 .eh_frame      0x00000000000397d8      0x120 obj_cooja/mtype331.a(cooja_mtarch.o)
                                        0x138 (size before relaxing)
 .eh_frame      0x00000000000398f8       0xc8 obj_cooja/mtype331.a(rtimer-arch.o)
                                         0xe0 (size before relaxing)
 .eh_frame      0x00000000000399c0      0x160 obj_cooja/mtype331.a(beep.o)
                                        0x178 (size before relaxing)
 .eh_frame      0x0000000000039b20       0xa0 obj_cooja/mtype331.a(button-sensor.o)
                                         0xb8 (size before relaxing)
 .eh_frame      0x0000000000039bc0       0xa0 obj_cooja/mtype331.a(leds-arch.o)
                                         0xb8 (size before relaxing)
 .eh_frame      0x0000000000039c60       0x40 obj_cooja/mtype331.a(moteid.o)
                                         0x58 (size before relaxing)
 .eh_frame      0x0000000000039ca0       0xa0 obj_cooja/mtype331.a(pir-sensor.o)
                                         0xb8 (size before relaxing)
 .eh_frame      0x0000000000039d40      0x100 obj_cooja/mtype331.a(rs232.o)
                                        0x118 (size before relaxing)
 .eh_frame      0x0000000000039e40       0xa0 obj_cooja/mtype331.a(vib-sensor.o)
                                         0xb8 (size before relaxing)
 .eh_frame      0x0000000000039ee0       0xc0 obj_cooja/mtype331.a(clock.o)
                                         0xd8 (size before relaxing)
 .eh_frame      0x0000000000039fa0      0x120 obj_cooja/mtype331.a(log.o)
                                        0x138 (size before relaxing)
 .eh_frame      0x000000000003a0c0      0x160 obj_cooja/mtype331.a(cfs-cooja.o)
                                        0x178 (size before relaxing)
 .eh_frame      0x000000000003a220      0x360 obj_cooja/mtype331.a(cooja-radio.o)
                                        0x378 (size before relaxing)
 .eh_frame      0x000000000003a580       0xa0 obj_cooja/mtype331.a(eeprom.o)
                                         0xb8 (size before relaxing)
 .eh_frame      0x000000000003a620       0x40 obj_cooja/mtype331.a(random.o)
                                         0x58 (size before relaxing)
 .eh_frame      0x000000000003a660       0xc0 obj_cooja/mtype331.a(sensors.o)
                                         0xd8 (size before relaxing)
 .eh_frame      0x000000000003a720       0x40 obj_cooja/mtype331.a(autostart.o)
                                         0x58 (size before relaxing)
 .eh_frame      0x000000000003a760      0x100 obj_cooja/mtype331.a(ctimer.o)
                                        0x118 (size before relaxing)
 .eh_frame      0x000000000003a860      0x1e0 obj_cooja/mtype331.a(etimer.o)
                                        0x1f8 (size before relaxing)
 .eh_frame      0x000000000003aa40      0x1c8 obj_cooja/mtype331.a(process.o)
                                        0x1e0 (size before relaxing)
 .eh_frame      0x000000000003ac08       0x60 obj_cooja/mtype331.a(rtimer.o)
                                         0x78 (size before relaxing)
 .eh_frame      0x000000000003ac68       0xa4 obj_cooja/mtype331.a(timer.o)
                                         0xbc (size before relaxing)
 .eh_frame      0x000000000003ad0c       0x60 obj_cooja/mtype331.a(serial-line.o)
                                         0x78 (size before relaxing)
 .eh_frame      0x000000000003ad6c       0x20 obj_cooja/mtype331.a(assert.o)
                                         0x38 (size before relaxing)
 .eh_frame      0x000000000003ad8c      0x180 obj_cooja/mtype331.a(list.o)
                                        0x198 (size before relaxing)
 .eh_frame      0x000000000003af0c       0xa0 obj_cooja/mtype331.a(memb.o)
                                         0xb8 (size before relaxing)
 .eh_frame      0x000000000003afac       0xa0 obj_cooja/mtype331.a(ringbuf.o)
                                         0xb8 (size before relaxing)
 .eh_frame      0x000000000003b04c      0x350 obj_cooja/mtype331.a(sicslowpan.o)
                                        0x368 (size before relaxing)
 .eh_frame      0x000000000003b39c      0x1e0 obj_cooja/mtype331.a(uip-ds6-nbr.o)
                                        0x1f8 (size before relaxing)
 .eh_frame      0x000000000003b57c      0x2c0 obj_cooja/mtype331.a(uip-ds6-route.o)
                                        0x2d8 (size before relaxing)
 .eh_frame      0x000000000003b83c      0x2c8 obj_cooja/mtype331.a(uip-ds6.o)
                                        0x2e0 (size before relaxing)
 .eh_frame      0x000000000003bb04       0xd8 obj_cooja/mtype331.a(uip-nd6.o)
                                         0xf0 (size before relaxing)
 .eh_frame      0x000000000003bbdc      0x27c obj_cooja/mtype331.a(uip6.o)
                                        0x294 (size before relaxing)
 .eh_frame      0x000000000003be58      0x2ac obj_cooja/mtype331.a(resolv.o)
                                        0x2c4 (size before relaxing)
 .eh_frame      0x000000000003c104      0x270 obj_cooja/mtype331.a(tcpip.o)
                                        0x288 (size before relaxing)
 .eh_frame      0x000000000003c374       0x28 obj_cooja/mtype331.a(uip-debug.o)
                                         0x40 (size before relaxing)
 .eh_frame      0x000000000003c39c       0x80 obj_cooja/mtype331.a(uip-nameserver.)
                                         0x98 (size before relaxing)
 .eh_frame      0x000000000003c41c       0xe0 obj_cooja/mtype331.a(uip-packetqueue)
                                         0xf8 (size before relaxing)
 .eh_frame      0x000000000003c4fc       0x40 obj_cooja/mtype331.a(uip-udp-packet.)
                                         0x58 (size before relaxing)
 .eh_frame      0x000000000003c53c       0x48 obj_cooja/mtype331.a(uiplib.o)
                                         0x60 (size before relaxing)
 .eh_frame      0x000000000003c584      0x720 obj_cooja/mtype331.a(rpl-dag.o)
                                        0x738 (size before relaxing)
 .eh_frame      0x000000000003cca4       0xc0 obj_cooja/mtype331.a(rpl-ext-header.)
                                         0xd8 (size before relaxing)
 .eh_frame      0x000000000003cd64      0x2b8 obj_cooja/mtype331.a(rpl-icmp6.o)
                                        0x2d0 (size before relaxing)
 .eh_frame      0x000000000003d01c      0x124 obj_cooja/mtype331.a(rpl-mrhof.o)
                                        0x13c (size before relaxing)
 .eh_frame      0x000000000003d140      0x22c obj_cooja/mtype331.a(rpl-timers.o)
                                        0x244 (size before relaxing)
 .eh_frame      0x000000000003d36c      0x140 obj_cooja/mtype331.a(rpl.o)
                                        0x158 (size before relaxing)
 .eh_frame      0x000000000003d4ac      0x100 obj_cooja/mtype331.a(link-stats.o)
                                        0x118 (size before relaxing)
 .eh_frame      0x000000000003d5ac       0x60 obj_cooja/mtype331.a(linkaddr.o)
                                         0x78 (size before relaxing)
 .eh_frame      0x000000000003d60c      0x2ac obj_cooja/mtype331.a(nbr-table.o)
                                        0x2c4 (size before relaxing)
 .eh_frame      0x000000000003d8b8       0x20 obj_cooja/mtype331.a(netstack.o)
                                         0x38 (size before relaxing)
 .eh_frame      0x000000000003d8d8      0x234 obj_cooja/mtype331.a(packetbuf.o)
                                        0x24c (size before relaxing)
 .eh_frame      0x000000000003db0c      0x1a0 obj_cooja/mtype331.a(queuebuf.o)
                                        0x1b8 (size before relaxing)
 .eh_frame      0x000000000003dcac      0x28c obj_cooja/mtype331.a(csma.o)
                                        0x2a4 (size before relaxing)
 .eh_frame      0x000000000003df38      0x108 obj_cooja/mtype331.a(framer-802154.o)
                                        0x120 (size before relaxing)
 .eh_frame      0x000000000003e040       0x20 obj_cooja/mtype331.a(mac.o)
                                         0x38 (size before relaxing)
 .eh_frame      0x000000000003e060      0x16c obj_cooja/mtype331.a(nullrdc.o)
                                        0x184 (size before relaxing)
 .eh_frame      0x000000000003e1cc       0x80 obj_cooja/mtype331.a(nullsec.o)
                                         0x98 (size before relaxing)
 .eh_frame      0x000000000003e24c       0xa0 obj_cooja/mtype331.a(watchdog.o)
                                         0xb8 (size before relaxing)
 .eh_frame      0x000000000003e2ec       0xc4 obj_cooja/mtype331.a(stimer.o)
                                         0xdc (size before relaxing)
 .eh_frame      0x000000000003e3b0      0x15c obj_cooja/mtype331.a(uip-icmp6.o)
                                        0x174 (size before relaxing)
 .eh_frame      0x000000000003e50c       0xc0 obj_cooja/mtype331.a(rpl-nbr-policy.)
                                         0xd8 (size before relaxing)
 .eh_frame      0x000000000003e5cc      0x1a4 obj_cooja/mtype331.a(frame802154.o)
                                        0x1bc (size before relaxing)
 .eh_frame      0x000000000003e770       0x88 obj_cooja/mtype331.a(mac-sequence.o)
                                         0xa0 (size before relaxing)
 .eh_frame      0x000000000003e7f8        0x4 /usr/lib/gcc/i686-linux-gnu/4.8/crtendS.o

.gcc_except_table
 *(.gcc_except_table .gcc_except_table.*)

.exception_ranges
 *(.exception_ranges .exception_ranges*)
                0x000000000003e7fc                . = (ALIGN (0x1000) - ((0x1000 - .) & 0xfff))
                0x000000000003fef8                . = DATA_SEGMENT_ALIGN (0x1000, 0x1000)

.eh_frame
 *(.eh_frame)

.gcc_except_table
 *(.gcc_except_table .gcc_except_table.*)

.exception_ranges
 *(.exception_ranges .exception_ranges*)

.tdata
 *(.tdata .tdata.* .gnu.linkonce.td.*)

.tbss
 *(.tbss .tbss.* .gnu.linkonce.tb.*)
 *(.tcommon)

.preinit_array
 *(.preinit_array)

.init_array     0x000000000003fef8        0x4
 *(SORT(.init_array.*) SORT(.ctors.*))
 *(.init_array EXCLUDE_FILE(*crtend?.o *crtend.o *crtbegin?.o *crtbegin.o) .ctors)
 .init_array    0x000000000003fef8        0x4 /usr/lib/gcc/i686-linux-gnu/4.8/crtbeginS.o

.fini_array     0x000000000003fefc        0x4
 *(SORT(.fini_array.*) SORT(.dtors.*))
 *(.fini_array EXCLUDE_FILE(*crtend?.o *crtend.o *crtbegin?.o *crtbegin.o) .dtors)
 .fini_array    0x000000000003fefc        0x4 /usr/lib/gcc/i686-linux-gnu/4.8/crtbeginS.o

.ctors
 *crtbegin.o(.ctors)
 *crtbegin?.o(.ctors)
 *(EXCLUDE_FILE(*crtend?.o *crtend.o) .ctors)
 *(SORT(.ctors.*))
 *(.ctors)

.dtors
 *crtbegin.o(.dtors)
 *crtbegin?.o(.dtors)
 *(EXCLUDE_FILE(*crtend?.o *crtend.o) .dtors)
 *(SORT(.dtors.*))
 *(.dtors)

.jcr            0x000000000003ff00        0x4
 *(.jcr)
 .jcr           0x000000000003ff00        0x0 /usr/lib/gcc/i686-linux-gnu/4.8/crtbeginS.o
 .jcr           0x000000000003ff00        0x4 /usr/lib/gcc/i686-linux-gnu/4.8/crtendS.o

.data.rel.ro
 *(.data.rel.ro.local* .gnu.linkonce.d.rel.ro.local.*)
 *(.data.rel.ro .data.rel.ro.* .gnu.linkonce.d.rel.ro.*)

.dynamic        0x000000000003ff04       0xe8
 *(.dynamic)
 .dynamic       0x000000000003ff04       0xe8 /usr/lib/gcc/i686-linux-gnu/4.8/../../../i386-linux-gnu/crti.o
                0x000000000003ff04                _DYNAMIC

.got            0x000000000003ffec       0x14
 *(.got)
 .got           0x000000000003ffec       0x14 /usr/lib/gcc/i686-linux-gnu/4.8/../../../i386-linux-gnu/crti.o
 *(.igot)
                0x0000000000040ff4                . = DATA_SEGMENT_RELRO_END (., (SIZEOF (.got.plt) >= 0xc)?0xc:0x0)

.got.plt        0x0000000000040000       0x14
 *(.got.plt)
 .got.plt       0x0000000000040000       0x14 /usr/lib/gcc/i686-linux-gnu/4.8/../../../i386-linux-gnu/crti.o
                0x0000000000040000                _GLOBAL_OFFSET_TABLE_
 *(.igot.plt)

.data           0x0000000000040020      0x38e
 *(.data .data.* .gnu.linkonce.d.*)
 .data          0x0000000000040020        0x0 /usr/lib/gcc/i686-linux-gnu/4.8/../../../i386-linux-gnu/crti.o
 .data          0x0000000000040020        0x0 /usr/lib/gcc/i686-linux-gnu/4.8/crtbeginS.o
 .data.rel      0x0000000000040020        0x4 /usr/lib/gcc/i686-linux-gnu/4.8/crtbeginS.o
                0x0000000000040020                __dso_handle
 *fill*         0x0000000000040024       0x1c 
 .data          0x0000000000040040       0x94 receiver.co
                0x0000000000040040                packet_count
                0x0000000000040048                udp_client_process
 *fill*         0x00000000000400d4        0xc 
 .data          0x00000000000400e0       0x44 obj_cooja/mtype331.o
                0x00000000000400e0                simInterfaces
                0x0000000000040114                sensors
 .data          0x0000000000040124       0x10 obj_cooja/mtype331.a(dtls.o)
                0x0000000000040124                dtls_retransmit_process
 .data          0x0000000000040134       0x18 obj_cooja/mtype331.a(tinydtls-crypto)
 .data          0x000000000004014c        0xc obj_cooja/mtype331.a(hmac.o)
 .data          0x0000000000040158        0xc obj_cooja/mtype331.a(netq.o)
 .data          0x0000000000040164        0x0 obj_cooja/mtype331.a(dtls_time.o)
 .data          0x0000000000040164        0xc obj_cooja/mtype331.a(peer.o)
 .data          0x0000000000040170        0x0 obj_cooja/mtype331.a(session.o)
 .data          0x0000000000040170        0x0 obj_cooja/mtype331.a(rijndael.o)
 .data          0x0000000000040170        0x0 obj_cooja/mtype331.a(tinydtls-ccm.o)
 .data          0x0000000000040170        0x4 obj_cooja/mtype331.a(sha2.o)
 .data          0x0000000000040174       0x20 obj_cooja/mtype331.a(debug.o)
 .data          0x0000000000040194        0x0 obj_cooja/mtype331.a(simEnvChange.o)
 .data          0x0000000000040194        0x0 obj_cooja/mtype331.a(cooja_mt.o)
 .data          0x0000000000040194        0x0 obj_cooja/mtype331.a(cooja_mtarch.o)
 .data          0x0000000000040194        0x0 obj_cooja/mtype331.a(rtimer-arch.o)
 .data          0x0000000000040194        0x0 obj_cooja/mtype331.a(beep.o)
 .data          0x0000000000040194        0x0 obj_cooja/mtype331.a(button-sensor.o)
 .data          0x0000000000040194        0x0 obj_cooja/mtype331.a(leds-arch.o)
 .data          0x0000000000040194        0x0 obj_cooja/mtype331.a(moteid.o)
 .data          0x0000000000040194        0x0 obj_cooja/mtype331.a(pir-sensor.o)
 .data          0x0000000000040194        0x0 obj_cooja/mtype331.a(rs232.o)
 .data          0x0000000000040194        0x0 obj_cooja/mtype331.a(vib-sensor.o)
 .data          0x0000000000040194        0x0 obj_cooja/mtype331.a(clock.o)
 .data          0x0000000000040194        0x0 obj_cooja/mtype331.a(log.o)
 .data          0x0000000000040194        0x0 obj_cooja/mtype331.a(cfs-cooja.o)
 .data          0x0000000000040194       0x2c obj_cooja/mtype331.a(cooja-radio.o)
                0x0000000000040194                simRadioHWOn
                0x0000000000040198                simSignalStrength
                0x000000000004019c                simLastSignalStrength
                0x00000000000401a0                simPower
                0x00000000000401a4                simRadioChannel
                0x00000000000401a8                simLQI
                0x00000000000401b0                cooja_radio_process
 .data          0x00000000000401c0        0x0 obj_cooja/mtype331.a(eeprom.o)
 .data          0x00000000000401c0        0x0 obj_cooja/mtype331.a(random.o)
 .data          0x00000000000401c0       0x10 obj_cooja/mtype331.a(sensors.o)
                0x00000000000401c0                sensors_process
 .data          0x00000000000401d0        0x0 obj_cooja/mtype331.a(autostart.o)
 .data          0x00000000000401d0       0x14 obj_cooja/mtype331.a(ctimer.o)
                0x00000000000401d4                ctimer_process
 .data          0x00000000000401e4       0x10 obj_cooja/mtype331.a(etimer.o)
                0x00000000000401e4                etimer_process
 .data          0x00000000000401f4        0x0 obj_cooja/mtype331.a(process.o)
 .data          0x00000000000401f4        0x0 obj_cooja/mtype331.a(rtimer.o)
 .data          0x00000000000401f4        0x0 obj_cooja/mtype331.a(timer.o)
 .data          0x00000000000401f4       0x10 obj_cooja/mtype331.a(serial-line.o)
                0x00000000000401f4                serial_line_process
 .data          0x0000000000040204        0x0 obj_cooja/mtype331.a(assert.o)
 .data          0x0000000000040204        0x0 obj_cooja/mtype331.a(list.o)
 .data          0x0000000000040204        0x0 obj_cooja/mtype331.a(memb.o)
 .data          0x0000000000040204        0x0 obj_cooja/mtype331.a(ringbuf.o)
 .data          0x0000000000040204        0x0 obj_cooja/mtype331.a(sicslowpan.o)
 .data          0x0000000000040204       0x14 obj_cooja/mtype331.a(uip-ds6-nbr.o)
                0x0000000000040214                ds6_neighbors
 .data          0x0000000000040218       0x44 obj_cooja/mtype331.a(uip-ds6-route.o)
                0x0000000000040228                nbr_routes
 .data          0x000000000004025c        0x0 obj_cooja/mtype331.a(uip-ds6.o)
 .data          0x000000000004025c       0x18 obj_cooja/mtype331.a(uip-nd6.o)
 .data          0x0000000000040274        0x0 obj_cooja/mtype331.a(uip6.o)
 .data          0x0000000000040274       0x20 obj_cooja/mtype331.a(resolv.o)
                0x0000000000040274                resolv_process
                0x0000000000040284                mdns_probe_process
 .data          0x0000000000040294       0x10 obj_cooja/mtype331.a(tcpip.o)
                0x0000000000040294                tcpip_process
 .data          0x00000000000402a4        0x0 obj_cooja/mtype331.a(uip-debug.o)
 .data          0x00000000000402a4        0x0 obj_cooja/mtype331.a(uip-nameserver.)
 .data          0x00000000000402a4        0xc obj_cooja/mtype331.a(uip-packetqueue)
 .data          0x00000000000402b0        0x0 obj_cooja/mtype331.a(uip-udp-packet.)
 .data          0x00000000000402b0        0x0 obj_cooja/mtype331.a(uiplib.o)
 .data          0x00000000000402b0       0x14 obj_cooja/mtype331.a(rpl-dag.o)
                0x00000000000402c0                rpl_parents
 .data          0x00000000000402c4        0x0 obj_cooja/mtype331.a(rpl-ext-header.)
 .data          0x00000000000402c4       0x34 obj_cooja/mtype331.a(rpl-icmp6.o)
 *fill*         0x00000000000402f8        0x8 
 .data          0x0000000000040300       0x24 obj_cooja/mtype331.a(rpl-mrhof.o)
                0x0000000000040300                rpl_mrhof
 .data          0x0000000000040324        0x0 obj_cooja/mtype331.a(rpl-timers.o)
 .data          0x0000000000040324        0x0 obj_cooja/mtype331.a(rpl.o)
 .data          0x0000000000040324       0x14 obj_cooja/mtype331.a(link-stats.o)
 .data          0x0000000000040338        0x0 obj_cooja/mtype331.a(linkaddr.o)
 .data          0x0000000000040338       0x10 obj_cooja/mtype331.a(nbr-table.o)
 .data          0x0000000000040348        0x0 obj_cooja/mtype331.a(netstack.o)
 .data          0x0000000000040348        0x4 obj_cooja/mtype331.a(packetbuf.o)
 .data          0x000000000004034c       0x18 obj_cooja/mtype331.a(queuebuf.o)
 .data          0x0000000000040364       0x28 obj_cooja/mtype331.a(csma.o)
 .data          0x000000000004038c        0x0 obj_cooja/mtype331.a(framer-802154.o)
 .data          0x000000000004038c        0x0 obj_cooja/mtype331.a(mac.o)
 .data          0x000000000004038c        0x0 obj_cooja/mtype331.a(nullrdc.o)
 .data          0x000000000004038c        0x0 obj_cooja/mtype331.a(nullsec.o)
 .data          0x000000000004038c        0x0 obj_cooja/mtype331.a(watchdog.o)
 .data          0x000000000004038c        0x0 obj_cooja/mtype331.a(rimestats.o)
 .data          0x000000000004038c        0x0 obj_cooja/mtype331.a(stimer.o)
 .data          0x000000000004038c       0x20 obj_cooja/mtype331.a(uip-icmp6.o)
 .data          0x00000000000403ac        0x0 obj_cooja/mtype331.a(rpl-nbr-policy.)
 .data          0x00000000000403ac        0x2 obj_cooja/mtype331.a(frame802154.o)
 .data          0x00000000000403ae        0x0 obj_cooja/mtype331.a(mac-sequence.o)
 .data          0x00000000000403ae        0x0 /usr/lib/gcc/i686-linux-gnu/4.8/crtendS.o
 .data          0x00000000000403ae        0x0 /usr/lib/gcc/i686-linux-gnu/4.8/../../../i386-linux-gnu/crtn.o

.tm_clone_table
                0x00000000000403b0        0x0
 .tm_clone_table
                0x00000000000403b0        0x0 /usr/lib/gcc/i686-linux-gnu/4.8/crtbeginS.o
 .tm_clone_table
                0x00000000000403b0        0x0 /usr/lib/gcc/i686-linux-gnu/4.8/crtendS.o

.data1
 *(.data1)
                0x00000000000403b0                _edata = .
                0x00000000000403b0                PROVIDE (edata, .)
                0x00000000000403b0                . = .
                0x00000000000403b0                __bss_start = .

.bss            0x00000000000403c0    0x13948
 *(.dynbss)
 .dynbss        0x0000000000000000        0x0 /usr/lib/gcc/i686-linux-gnu/4.8/../../../i386-linux-gnu/crti.o
 *(.bss .bss.* .gnu.linkonce.b.*)
 .bss           0x00000000000403c0        0x0 /usr/lib/gcc/i686-linux-gnu/4.8/../../../i386-linux-gnu/crti.o
 .bss           0x00000000000403c0        0x1 /usr/lib/gcc/i686-linux-gnu/4.8/crtbeginS.o
 *fill*         0x00000000000403c1       0x1f 
 .bss           0x00000000000403e0      0x190 receiver.co
                0x00000000000403e0                iv
                0x00000000000403e8                handshake_complete
 *fill*         0x0000000000040570       0x10 
 .bss           0x0000000000040580     0x2030 obj_cooja/mtype331.o
 *fill*         0x00000000000425b0       0x10 
 .bss           0x00000000000425c0      0x165 obj_cooja/mtype331.a(dtls.o)
 *fill*         0x0000000000042725       0x1b 
 .bss           0x0000000000042740      0xc70 obj_cooja/mtype331.a(tinydtls-crypto)
 *fill*         0x00000000000433b0       0x10 
 .bss           0x00000000000433c0      0x410 obj_cooja/mtype331.a(hmac.o)
 *fill*         0x00000000000437d0       0x10 
 .bss           0x00000000000437e0      0x470 obj_cooja/mtype331.a(netq.o)
 .bss           0x0000000000043c50        0x0 obj_cooja/mtype331.a(dtls_time.o)
 *fill*         0x0000000000043c50       0x10 
 .bss           0x0000000000043c60       0x80 obj_cooja/mtype331.a(peer.o)
 .bss           0x0000000000043ce0        0x0 obj_cooja/mtype331.a(session.o)
 .bss           0x0000000000043ce0        0x0 obj_cooja/mtype331.a(rijndael.o)
 .bss           0x0000000000043ce0        0x4 obj_cooja/mtype331.a(tinydtls-ccm.o)
 .bss           0x0000000000043ce4        0x0 obj_cooja/mtype331.a(sha2.o)
 *fill*         0x0000000000043ce4       0x1c 
 .bss           0x0000000000043d00       0x20 obj_cooja/mtype331.a(debug.o)
 .bss           0x0000000000043d20        0x1 obj_cooja/mtype331.a(simEnvChange.o)
                0x0000000000043d20                simDontFallAsleep
 *fill*         0x0000000000043d21        0x3 
 .bss           0x0000000000043d24        0x4 obj_cooja/mtype331.a(cooja_mt.o)
 .bss           0x0000000000043d28        0x4 obj_cooja/mtype331.a(cooja_mtarch.o)
 .bss           0x0000000000043d2c        0x0 obj_cooja/mtype331.a(rtimer-arch.o)
 .bss           0x0000000000043d2c        0x0 obj_cooja/mtype331.a(beep.o)
 .bss           0x0000000000043d2c        0x8 obj_cooja/mtype331.a(button-sensor.o)
 .bss           0x0000000000043d34        0x0 obj_cooja/mtype331.a(leds-arch.o)
 .bss           0x0000000000043d34        0x0 obj_cooja/mtype331.a(moteid.o)
 .bss           0x0000000000043d34        0x1 obj_cooja/mtype331.a(pir-sensor.o)
                0x0000000000043d34                simPirValue
 *fill*         0x0000000000043d35        0x3 
 .bss           0x0000000000043d38        0x4 obj_cooja/mtype331.a(rs232.o)
 .bss           0x0000000000043d3c        0x1 obj_cooja/mtype331.a(vib-sensor.o)
                0x0000000000043d3c                simVibValue
 .bss           0x0000000000043d3d        0x0 obj_cooja/mtype331.a(clock.o)
 *fill*         0x0000000000043d3d        0x3 
 .bss           0x0000000000043d40      0x420 obj_cooja/mtype331.a(log.o)
 .bss           0x0000000000044160      0xfc0 obj_cooja/mtype331.a(cfs-cooja.o)
                0x0000000000044160                simCFSData
                0x0000000000045100                simCFSSize
                0x0000000000045104                simCFSChanged
                0x0000000000045108                simCFSRead
                0x000000000004510c                simCFSWritten
 .bss           0x0000000000045120       0x24 obj_cooja/mtype331.a(cooja-radio.o)
                0x0000000000045120                simReceiving
                0x0000000000045124                simInSize
                0x0000000000045128                simLastPacketTimestamp
                0x0000000000045130                simOutSize
 .bss           0x0000000000045144        0xc obj_cooja/mtype331.a(eeprom.o)
                0x0000000000045144                simEEPROMChanged
                0x0000000000045148                simEEPROMRead
                0x000000000004514c                simEEPROMWritten
 .bss           0x0000000000045150        0x0 obj_cooja/mtype331.a(random.o)
 .bss           0x0000000000045150        0xc obj_cooja/mtype331.a(sensors.o)
 .bss           0x000000000004515c        0x0 obj_cooja/mtype331.a(autostart.o)
 .bss           0x000000000004515c        0x5 obj_cooja/mtype331.a(ctimer.o)
 *fill*         0x0000000000045161        0x3 
 .bss           0x0000000000045164        0x8 obj_cooja/mtype331.a(etimer.o)
 *fill*         0x000000000004516c       0x14 
 .bss           0x0000000000045180      0x1a1 obj_cooja/mtype331.a(process.o)
                0x0000000000045180                process_list
                0x0000000000045184                process_current
 *fill*         0x0000000000045321        0x3 
 .bss           0x0000000000045324        0x4 obj_cooja/mtype331.a(rtimer.o)
 .bss           0x0000000000045328        0x0 obj_cooja/mtype331.a(timer.o)
 *fill*         0x0000000000045328       0x18 
 .bss           0x0000000000045340      0x140 obj_cooja/mtype331.a(serial-line.o)
 .bss           0x0000000000045480        0x0 obj_cooja/mtype331.a(assert.o)
 .bss           0x0000000000045480        0x0 obj_cooja/mtype331.a(list.o)
 .bss           0x0000000000045480        0x0 obj_cooja/mtype331.a(memb.o)
 .bss           0x0000000000045480        0x0 obj_cooja/mtype331.a(ringbuf.o)
 .bss           0x0000000000045480      0x70c obj_cooja/mtype331.a(sicslowpan.o)
 *fill*         0x0000000000045b8c       0x14 
 .bss           0x0000000000045ba0     0x3390 obj_cooja/mtype331.a(uip-ds6-nbr.o)
 *fill*         0x0000000000048f30       0x10 
 .bss           0x0000000000048f40     0x44a4 obj_cooja/mtype331.a(uip-ds6-route.o)
 .bss           0x000000000004d3e4       0x20 obj_cooja/mtype331.a(uip-ds6.o)
 .bss           0x000000000004d404       0x14 obj_cooja/mtype331.a(uip-nd6.o)
 .bss           0x000000000004d418        0xa obj_cooja/mtype331.a(uip6.o)
                0x000000000004d418                uip_ext_bitmap
                0x000000000004d419                uip_ext_len
                0x000000000004d41a                uip_ext_opt_offset
 *fill*         0x000000000004d422       0x1e 
 .bss           0x000000000004d440      0x1a1 obj_cooja/mtype331.a(resolv.o)
 *fill*         0x000000000004d5e1       0x1f 
 .bss           0x000000000004d600       0x6a obj_cooja/mtype331.a(tcpip.o)
 .bss           0x000000000004d66a        0x0 obj_cooja/mtype331.a(uip-debug.o)
 *fill*         0x000000000004d66a        0x2 
 .bss           0x000000000004d66c       0x14 obj_cooja/mtype331.a(uip-nameserver.)
 .bss           0x000000000004d680      0xcf8 obj_cooja/mtype331.a(uip-packetqueue)
 .bss           0x000000000004e378        0x0 obj_cooja/mtype331.a(uip-udp-packet.)
 .bss           0x000000000004e378        0x0 obj_cooja/mtype331.a(uiplib.o)
 *fill*         0x000000000004e378        0x8 
 .bss           0x000000000004e380      0x960 obj_cooja/mtype331.a(rpl-dag.o)
 .bss           0x000000000004ece0        0x0 obj_cooja/mtype331.a(rpl-ext-header.)
 .bss           0x000000000004ece0        0x0 obj_cooja/mtype331.a(rpl-icmp6.o)
 .bss           0x000000000004ece0        0x0 obj_cooja/mtype331.a(rpl-mrhof.o)
 .bss           0x000000000004ece0       0x23 obj_cooja/mtype331.a(rpl-timers.o)
 *fill*         0x000000000004ed03        0x1 
 .bss           0x000000000004ed04        0x4 obj_cooja/mtype331.a(rpl.o)
 *fill*         0x000000000004ed08       0x18 
 .bss           0x000000000004ed20      0xe10 obj_cooja/mtype331.a(link-stats.o)
 .bss           0x000000000004fb30        0x0 obj_cooja/mtype331.a(linkaddr.o)
 *fill*         0x000000000004fb30       0x10 
 .bss           0x000000000004fb40     0x1214 obj_cooja/mtype331.a(nbr-table.o)
 .bss           0x0000000000050d54        0x0 obj_cooja/mtype331.a(netstack.o)
 *fill*         0x0000000000050d54        0xc 
 .bss           0x0000000000050d60       0xa0 obj_cooja/mtype331.a(packetbuf.o)
 .bss           0x0000000000050e00      0xb80 obj_cooja/mtype331.a(queuebuf.o)
 .bss           0x0000000000051980      0x248 obj_cooja/mtype331.a(csma.o)
 .bss           0x0000000000051bc8        0x2 obj_cooja/mtype331.a(framer-802154.o)
 .bss           0x0000000000051bca        0x0 obj_cooja/mtype331.a(mac.o)
 .bss           0x0000000000051bca        0x0 obj_cooja/mtype331.a(nullrdc.o)
 .bss           0x0000000000051bca        0x0 obj_cooja/mtype331.a(nullsec.o)
 .bss           0x0000000000051bca        0x0 obj_cooja/mtype331.a(watchdog.o)
 .bss           0x0000000000051bca        0x0 obj_cooja/mtype331.a(rimestats.o)
 .bss           0x0000000000051bca        0x0 obj_cooja/mtype331.a(stimer.o)
 *fill*         0x0000000000051bca        0x2 
 .bss           0x0000000000051bcc       0x18 obj_cooja/mtype331.a(uip-icmp6.o)
 *fill*         0x0000000000051be4       0x1c 
 .bss           0x0000000000051c00       0x44 obj_cooja/mtype331.a(rpl-nbr-policy.)
 .bss           0x0000000000051c44        0x0 obj_cooja/mtype331.a(frame802154.o)
 *fill*         0x0000000000051c44       0x1c 
 .bss           0x0000000000051c60      0x100 obj_cooja/mtype331.a(mac-sequence.o)
 .bss           0x0000000000051d60        0x0 /usr/lib/gcc/i686-linux-gnu/4.8/crtendS.o
 .bss           0x0000000000051d60        0x0 /usr/lib/gcc/i686-linux-gnu/4.8/../../../i386-linux-gnu/crtn.o
 *(COMMON)
 COMMON         0x0000000000051d60      0x118 receiver.co
                0x0000000000051d60                cfs_buf
                0x0000000000051d80                j
                0x0000000000051da0                read_buf
                0x0000000000051e68                data_len
                0x0000000000051e6c                filename
                0x0000000000051e70                iterator
                0x0000000000051e74                it
 COMMON         0x0000000000051e78        0x8 obj_cooja/mtype331.o
                0x0000000000051e78                referenceVar
                0x0000000000051e7c                sensors_flags
 COMMON         0x0000000000051e80        0x4 obj_cooja/mtype331.a(dtls_time.o)
                0x0000000000051e80                dtls_clock_offset
 COMMON         0x0000000000051e84        0xc obj_cooja/mtype331.a(simEnvChange.o)
                0x0000000000051e84                simEtimerPending
                0x0000000000051e88                simProcessRunValue
                0x0000000000051e8c                simEtimerNextExpirationTime
 COMMON         0x0000000000051e90       0x18 obj_cooja/mtype331.a(rtimer-arch.o)
                0x0000000000051e90                simRtimerPending
                0x0000000000051e98                simRtimerCurrentTicks
                0x0000000000051ea0                simRtimerNextExpirationTime
 COMMON         0x0000000000051ea8        0x1 obj_cooja/mtype331.a(beep.o)
                0x0000000000051ea8                simBeeped
 COMMON         0x0000000000051ea9        0x3 obj_cooja/mtype331.a(button-sensor.o)
                0x0000000000051ea9                simButtonIsActive
                0x0000000000051eaa                simButtonIsDown
                0x0000000000051eab                simButtonChanged
 COMMON         0x0000000000051eac        0x1 obj_cooja/mtype331.a(leds-arch.o)
                0x0000000000051eac                simLedsValue
 *fill*         0x0000000000051ead        0x3 
 COMMON         0x0000000000051eb0        0xc obj_cooja/mtype331.a(moteid.o)
                0x0000000000051eb0                simRandomSeed
                0x0000000000051eb4                simMoteIDChanged
                0x0000000000051eb8                simMoteID
 COMMON         0x0000000000051ebc        0x2 obj_cooja/mtype331.a(pir-sensor.o)
                0x0000000000051ebc                simPirIsActive
                0x0000000000051ebd                simPirChanged
 *fill*         0x0000000000051ebe        0x2 
 COMMON         0x0000000000051ec0      0x820 obj_cooja/mtype331.a(rs232.o)
                0x0000000000051ec0                simSerialReceivingFlag
                0x0000000000051ec4                simSerialReceivingLength
                0x0000000000051ee0                simSerialReceivingData
 COMMON         0x00000000000526e0        0x2 obj_cooja/mtype331.a(vib-sensor.o)
                0x00000000000526e0                simVibChanged
                0x00000000000526e1                simVibIsActive
 *fill*         0x00000000000526e2        0x2 
 COMMON         0x00000000000526e4        0x4 obj_cooja/mtype331.a(clock.o)
                0x00000000000526e4                simCurrentTime
 *fill*         0x00000000000526e8       0x18 
 COMMON         0x0000000000052700      0x420 obj_cooja/mtype331.a(log.o)
                0x0000000000052700                simLoggedLength
                0x0000000000052704                simLoggedFlag
                0x0000000000052720                simLoggedData
 COMMON         0x0000000000052b20      0x100 obj_cooja/mtype331.a(cooja-radio.o)
                0x0000000000052b20                simOutDataBuffer
                0x0000000000052ba0                simInDataBuffer
 COMMON         0x0000000000052c20      0x400 obj_cooja/mtype331.a(eeprom.o)
                0x0000000000052c20                simEEPROMData
 COMMON         0x0000000000053020        0x1 obj_cooja/mtype331.a(sensors.o)
                0x0000000000053020                sensors_event
 COMMON         0x0000000000053021        0x1 obj_cooja/mtype331.a(serial-line.o)
                0x0000000000053021                serial_line_event_message
 *fill*         0x0000000000053022       0x1e 
 COMMON         0x0000000000053040      0x181 obj_cooja/mtype331.a(uip-ds6.o)
                0x0000000000053040                uip_ds6_prefix_list
                0x00000000000530a0                uip_ds6_timer_periodic
                0x00000000000530b0                uip_ds6_netif_addr_list_offset
                0x00000000000530c0                uip_ds6_if
                0x00000000000531b8                uip_ds6_timer_ra
                0x00000000000531c0                uip_ds6_addr_size
 *fill*         0x00000000000531c1       0x1f 
 COMMON         0x00000000000531e0      0x8ec obj_cooja/mtype331.a(uip6.o)
                0x00000000000531e0                uip_slen
                0x00000000000531e2                uip_acc32
                0x0000000000053200                uip_conns
                0x00000000000532c0                uip_lladdr
                0x00000000000532c8                uip_appdata
                0x00000000000532cc                uip_flags
                0x00000000000532e0                uip_aligned_buf
                0x0000000000053920                uip_listenports
                0x0000000000053930                uip_len
                0x0000000000053934                uip_sappdata
                0x0000000000053940                uip_udp_conns
                0x0000000000053ac0                uip_udp_conn
                0x0000000000053ac4                uip_next_hdr
                0x0000000000053ac8                uip_conn
 COMMON         0x0000000000053acc        0x1 obj_cooja/mtype331.a(resolv.o)
                0x0000000000053acc                resolv_event_found
 COMMON         0x0000000000053acd        0x1 obj_cooja/mtype331.a(tcpip.o)
                0x0000000000053acd                tcpip_event
 *fill*         0x0000000000053ace       0x12 
 COMMON         0x0000000000053ae0      0x174 obj_cooja/mtype331.a(rpl-dag.o)
                0x0000000000053ae0                default_instance
                0x0000000000053b00                instance_table
 *fill*         0x0000000000053c54        0xc 
 COMMON         0x0000000000053c60       0x20 obj_cooja/mtype331.a(link-stats.o)
                0x0000000000053c60                periodic_timer
 COMMON         0x0000000000053c80        0x8 obj_cooja/mtype331.a(linkaddr.o)
                0x0000000000053c80                linkaddr_node_addr
 COMMON         0x0000000000053c88       0x2e obj_cooja/mtype331.a(packetbuf.o)
                0x0000000000053c88                packetbuf_attrs
                0x0000000000053ca6                packetbuf_addrs
 *fill*         0x0000000000053cb6        0xa 
 COMMON         0x0000000000053cc0       0x48 obj_cooja/mtype331.a(rimestats.o)
                0x0000000000053cc0                rimestats
                0x0000000000053d08                . = ALIGN ((. != 0x0)?0x4:0x1)
                0x0000000000053d08                . = ALIGN (0x4)
                0x0000000000053d08                . = SEGMENT_START ("ldata-segment", .)
                0x0000000000053d08                . = ALIGN (0x4)
                0x0000000000053d08                _end = .
                0x0000000000053d08                PROVIDE (end, .)
                0x0000000000053d08                . = DATA_SEGMENT_END (.)

.stab
 *(.stab)

.stabstr
 *(.stabstr)

.stab.excl
 *(.stab.excl)

.stab.exclstr
 *(.stab.exclstr)

.stab.index
 *(.stab.index)

.stab.indexstr
 *(.stab.indexstr)

.comment        0x0000000000000000       0x29
 *(.comment)
 .comment       0x0000000000000000       0x29 /usr/lib/gcc/i686-linux-gnu/4.8/crtbeginS.o
                                         0x2a (size before relaxing)
 .comment       0x0000000000000000       0x2a receiver.co
 .comment       0x0000000000000000       0x2a obj_cooja/mtype331.o
 .comment       0x0000000000000000       0x2a obj_cooja/mtype331.a(dtls.o)
 .comment       0x0000000000000000       0x2a obj_cooja/mtype331.a(tinydtls-crypto)
 .comment       0x0000000000000000       0x2a obj_cooja/mtype331.a(hmac.o)
 .comment       0x0000000000000000       0x2a obj_cooja/mtype331.a(netq.o)
 .comment       0x0000000000000000       0x2a obj_cooja/mtype331.a(dtls_time.o)
 .comment       0x0000000000000000       0x2a obj_cooja/mtype331.a(peer.o)
 .comment       0x0000000000000000       0x2a obj_cooja/mtype331.a(session.o)
 .comment       0x0000000000000000       0x2a obj_cooja/mtype331.a(rijndael.o)
 .comment       0x0000000000000000       0x2a obj_cooja/mtype331.a(tinydtls-ccm.o)
 .comment       0x0000000000000000       0x2a obj_cooja/mtype331.a(sha2.o)
 .comment       0x0000000000000000       0x2a obj_cooja/mtype331.a(debug.o)
 .comment       0x0000000000000000       0x2a obj_cooja/mtype331.a(simEnvChange.o)
 .comment       0x0000000000000000       0x2a obj_cooja/mtype331.a(cooja_mt.o)
 .comment       0x0000000000000000       0x2a obj_cooja/mtype331.a(cooja_mtarch.o)
 .comment       0x0000000000000000       0x2a obj_cooja/mtype331.a(rtimer-arch.o)
 .comment       0x0000000000000000       0x2a obj_cooja/mtype331.a(beep.o)
 .comment       0x0000000000000000       0x2a obj_cooja/mtype331.a(button-sensor.o)
 .comment       0x0000000000000000       0x2a obj_cooja/mtype331.a(leds-arch.o)
 .comment       0x0000000000000000       0x2a obj_cooja/mtype331.a(moteid.o)
 .comment       0x0000000000000000       0x2a obj_cooja/mtype331.a(pir-sensor.o)
 .comment       0x0000000000000000       0x2a obj_cooja/mtype331.a(rs232.o)
 .comment       0x0000000000000000       0x2a obj_cooja/mtype331.a(vib-sensor.o)
 .comment       0x0000000000000000       0x2a obj_cooja/mtype331.a(clock.o)
 .comment       0x0000000000000000       0x2a obj_cooja/mtype331.a(log.o)
 .comment       0x0000000000000000       0x2a obj_cooja/mtype331.a(cfs-cooja.o)
 .comment       0x0000000000000000       0x2a obj_cooja/mtype331.a(cooja-radio.o)
 .comment       0x0000000000000000       0x2a obj_cooja/mtype331.a(eeprom.o)
 .comment       0x0000000000000000       0x2a obj_cooja/mtype331.a(random.o)
 .comment       0x0000000000000000       0x2a obj_cooja/mtype331.a(sensors.o)
 .comment       0x0000000000000000       0x2a obj_cooja/mtype331.a(autostart.o)
 .comment       0x0000000000000000       0x2a obj_cooja/mtype331.a(ctimer.o)
 .comment       0x0000000000000000       0x2a obj_cooja/mtype331.a(etimer.o)
 .comment       0x0000000000000000       0x2a obj_cooja/mtype331.a(process.o)
 .comment       0x0000000000000000       0x2a obj_cooja/mtype331.a(rtimer.o)
 .comment       0x0000000000000000       0x2a obj_cooja/mtype331.a(timer.o)
 .comment       0x0000000000000000       0x2a obj_cooja/mtype331.a(serial-line.o)
 .comment       0x0000000000000000       0x2a obj_cooja/mtype331.a(assert.o)
 .comment       0x0000000000000000       0x2a obj_cooja/mtype331.a(list.o)
 .comment       0x0000000000000000       0x2a obj_cooja/mtype331.a(memb.o)
 .comment       0x0000000000000000       0x2a obj_cooja/mtype331.a(ringbuf.o)
 .comment       0x0000000000000000       0x2a obj_cooja/mtype331.a(sicslowpan.o)
 .comment       0x0000000000000000       0x2a obj_cooja/mtype331.a(uip-ds6-nbr.o)
 .comment       0x0000000000000000       0x2a obj_cooja/mtype331.a(uip-ds6-route.o)
 .comment       0x0000000000000000       0x2a obj_cooja/mtype331.a(uip-ds6.o)
 .comment       0x0000000000000000       0x2a obj_cooja/mtype331.a(uip-nd6.o)
 .comment       0x0000000000000000       0x2a obj_cooja/mtype331.a(uip6.o)
 .comment       0x0000000000000000       0x2a obj_cooja/mtype331.a(resolv.o)
 .comment       0x0000000000000000       0x2a obj_cooja/mtype331.a(tcpip.o)
 .comment       0x0000000000000000       0x2a obj_cooja/mtype331.a(uip-debug.o)
 .comment       0x0000000000000000       0x2a obj_cooja/mtype331.a(uip-nameserver.)
 .comment       0x0000000000000000       0x2a obj_cooja/mtype331.a(uip-packetqueue)
 .comment       0x0000000000000000       0x2a obj_cooja/mtype331.a(uip-udp-packet.)
 .comment       0x0000000000000000       0x2a obj_cooja/mtype331.a(uiplib.o)
 .comment       0x0000000000000000       0x2a obj_cooja/mtype331.a(rpl-dag.o)
 .comment       0x0000000000000000       0x2a obj_cooja/mtype331.a(rpl-ext-header.)
 .comment       0x0000000000000000       0x2a obj_cooja/mtype331.a(rpl-icmp6.o)
 .comment       0x0000000000000000       0x2a obj_cooja/mtype331.a(rpl-mrhof.o)
 .comment       0x0000000000000000       0x2a obj_cooja/mtype331.a(rpl-timers.o)
 .comment       0x0000000000000000       0x2a obj_cooja/mtype331.a(rpl.o)
 .comment       0x0000000000000000       0x2a obj_cooja/mtype331.a(link-stats.o)
 .comment       0x0000000000000000       0x2a obj_cooja/mtype331.a(linkaddr.o)
 .comment       0x0000000000000000       0x2a obj_cooja/mtype331.a(nbr-table.o)
 .comment       0x0000000000000000       0x2a obj_cooja/mtype331.a(netstack.o)
 .comment       0x0000000000000000       0x2a obj_cooja/mtype331.a(packetbuf.o)
 .comment       0x0000000000000000       0x2a obj_cooja/mtype331.a(queuebuf.o)
 .comment       0x0000000000000000       0x2a obj_cooja/mtype331.a(csma.o)
 .comment       0x0000000000000000       0x2a obj_cooja/mtype331.a(framer-802154.o)
 .comment       0x0000000000000000       0x2a obj_cooja/mtype331.a(mac.o)
 .comment       0x0000000000000000       0x2a obj_cooja/mtype331.a(nullrdc.o)
 .comment       0x0000000000000000       0x2a obj_cooja/mtype331.a(nullsec.o)
 .comment       0x0000000000000000       0x2a obj_cooja/mtype331.a(watchdog.o)
 .comment       0x0000000000000000       0x2a obj_cooja/mtype331.a(rimestats.o)
 .comment       0x0000000000000000       0x2a obj_cooja/mtype331.a(stimer.o)
 .comment       0x0000000000000000       0x2a obj_cooja/mtype331.a(uip-icmp6.o)
 .comment       0x0000000000000000       0x2a obj_cooja/mtype331.a(rpl-nbr-policy.)
 .comment       0x0000000000000000       0x2a obj_cooja/mtype331.a(frame802154.o)
 .comment       0x0000000000000000       0x2a obj_cooja/mtype331.a(mac-sequence.o)
 .comment       0x0000000000000000       0x2a /usr/lib/gcc/i686-linux-gnu/4.8/crtendS.o

.debug
 *(.debug)

.line
 *(.line)

.debug_srcinfo
 *(.debug_srcinfo)

.debug_sfnames
 *(.debug_sfnames)

.debug_aranges  0x0000000000000000     0x2190
 *(.debug_aranges)
 .debug_aranges
                0x0000000000000000       0x98 receiver.co
 .debug_aranges
                0x0000000000000098       0x68 obj_cooja/mtype331.o
 .debug_aranges
                0x0000000000000100      0x300 obj_cooja/mtype331.a(dtls.o)
 .debug_aranges
                0x0000000000000400       0xc8 obj_cooja/mtype331.a(tinydtls-crypto)
 .debug_aranges
                0x00000000000004c8       0x70 obj_cooja/mtype331.a(hmac.o)
 .debug_aranges
                0x0000000000000538       0x70 obj_cooja/mtype331.a(netq.o)
 .debug_aranges
                0x00000000000005a8       0x28 obj_cooja/mtype331.a(dtls_time.o)
 .debug_aranges
                0x00000000000005d0       0x38 obj_cooja/mtype331.a(peer.o)
 .debug_aranges
                0x0000000000000608       0x28 obj_cooja/mtype331.a(session.o)
 .debug_aranges
                0x0000000000000630       0x38 obj_cooja/mtype331.a(rijndael.o)
 .debug_aranges
                0x0000000000000668       0x60 obj_cooja/mtype331.a(tinydtls-ccm.o)
 .debug_aranges
                0x00000000000006c8       0x48 obj_cooja/mtype331.a(sha2.o)
 .debug_aranges
                0x0000000000000710       0x68 obj_cooja/mtype331.a(debug.o)
 .debug_aranges
                0x0000000000000778       0x28 obj_cooja/mtype331.a(simEnvChange.o)
 .debug_aranges
                0x00000000000007a0       0x48 obj_cooja/mtype331.a(cooja_mt.o)
 .debug_aranges
                0x00000000000007e8       0x60 obj_cooja/mtype331.a(cooja_mtarch.o)
 .debug_aranges
                0x0000000000000848       0x48 obj_cooja/mtype331.a(rtimer-arch.o)
 .debug_aranges
                0x0000000000000890       0x70 obj_cooja/mtype331.a(beep.o)
 .debug_aranges
                0x0000000000000900       0x40 obj_cooja/mtype331.a(button-sensor.o)
 .debug_aranges
                0x0000000000000940       0x40 obj_cooja/mtype331.a(leds-arch.o)
 .debug_aranges
                0x0000000000000980       0x28 obj_cooja/mtype331.a(moteid.o)
 .debug_aranges
                0x00000000000009a8       0x40 obj_cooja/mtype331.a(pir-sensor.o)
 .debug_aranges
                0x00000000000009e8       0x58 obj_cooja/mtype331.a(rs232.o)
 .debug_aranges
                0x0000000000000a40       0x40 obj_cooja/mtype331.a(vib-sensor.o)
 .debug_aranges
                0x0000000000000a80       0x48 obj_cooja/mtype331.a(clock.o)
 .debug_aranges
                0x0000000000000ac8       0x60 obj_cooja/mtype331.a(log.o)
 .debug_aranges
                0x0000000000000b28       0x70 obj_cooja/mtype331.a(cfs-cooja.o)
 .debug_aranges
                0x0000000000000b98       0xf0 obj_cooja/mtype331.a(cooja-radio.o)
 .debug_aranges
                0x0000000000000c88       0x40 obj_cooja/mtype331.a(eeprom.o)
 .debug_aranges
                0x0000000000000cc8       0x28 obj_cooja/mtype331.a(random.o)
 .debug_aranges
                0x0000000000000cf0       0x48 obj_cooja/mtype331.a(sensors.o)
 .debug_aranges
                0x0000000000000d38       0x28 obj_cooja/mtype331.a(autostart.o)
 .debug_aranges
                0x0000000000000d60       0x58 obj_cooja/mtype331.a(ctimer.o)
 .debug_aranges
                0x0000000000000db8       0x90 obj_cooja/mtype331.a(etimer.o)
 .debug_aranges
                0x0000000000000e48       0x88 obj_cooja/mtype331.a(process.o)
 .debug_aranges
                0x0000000000000ed0       0x30 obj_cooja/mtype331.a(rtimer.o)
 .debug_aranges
                0x0000000000000f00       0x40 obj_cooja/mtype331.a(timer.o)
 .debug_aranges
                0x0000000000000f40       0x30 obj_cooja/mtype331.a(serial-line.o)
 .debug_aranges
                0x0000000000000f70       0x20 obj_cooja/mtype331.a(assert.o)
 .debug_aranges
                0x0000000000000f90       0x78 obj_cooja/mtype331.a(list.o)
 .debug_aranges
                0x0000000000001008       0x40 obj_cooja/mtype331.a(memb.o)
 .debug_aranges
                0x0000000000001048       0x40 obj_cooja/mtype331.a(ringbuf.o)
 .debug_aranges
                0x0000000000001088       0xe0 obj_cooja/mtype331.a(sicslowpan.o)
 .debug_aranges
                0x0000000000001168       0x90 obj_cooja/mtype331.a(uip-ds6-nbr.o)
 .debug_aranges
                0x00000000000011f8       0xc8 obj_cooja/mtype331.a(uip-ds6-route.o)
 .debug_aranges
                0x00000000000012c0       0xc8 obj_cooja/mtype331.a(uip-ds6.o)
 .debug_aranges
                0x0000000000001388       0x48 obj_cooja/mtype331.a(uip-nd6.o)
 .debug_aranges
                0x00000000000013d0       0xb0 obj_cooja/mtype331.a(uip6.o)
 .debug_aranges
                0x0000000000001480       0xb8 obj_cooja/mtype331.a(resolv.o)
 .debug_aranges
                0x0000000000001538       0xb0 obj_cooja/mtype331.a(tcpip.o)
 .debug_aranges
                0x00000000000015e8       0x20 obj_cooja/mtype331.a(uip-debug.o)
 .debug_aranges
                0x0000000000001608       0x38 obj_cooja/mtype331.a(uip-nameserver.)
 .debug_aranges
                0x0000000000001640       0x50 obj_cooja/mtype331.a(uip-packetqueue)
 .debug_aranges
                0x0000000000001690       0x28 obj_cooja/mtype331.a(uip-udp-packet.)
 .debug_aranges
                0x00000000000016b8       0x28 obj_cooja/mtype331.a(uiplib.o)
 .debug_aranges
                0x00000000000016e0      0x1d8 obj_cooja/mtype331.a(rpl-dag.o)
 .debug_aranges
                0x00000000000018b8       0x48 obj_cooja/mtype331.a(rpl-ext-header.)
 .debug_aranges
                0x0000000000001900       0xc0 obj_cooja/mtype331.a(rpl-icmp6.o)
 .debug_aranges
                0x00000000000019c0       0x60 obj_cooja/mtype331.a(rpl-mrhof.o)
 .debug_aranges
                0x0000000000001a20       0xa0 obj_cooja/mtype331.a(rpl-timers.o)
 .debug_aranges
                0x0000000000001ac0       0x68 obj_cooja/mtype331.a(rpl.o)
 .debug_aranges
                0x0000000000001b28       0x58 obj_cooja/mtype331.a(link-stats.o)
 .debug_aranges
                0x0000000000001b80       0x30 obj_cooja/mtype331.a(linkaddr.o)
 .debug_aranges
                0x0000000000001bb0       0xc0 obj_cooja/mtype331.a(nbr-table.o)
 .debug_aranges
                0x0000000000001c70       0x20 obj_cooja/mtype331.a(netstack.o)
 .debug_aranges
                0x0000000000001c90       0xa0 obj_cooja/mtype331.a(packetbuf.o)
 .debug_aranges
                0x0000000000001d30       0x80 obj_cooja/mtype331.a(queuebuf.o)
 .debug_aranges
                0x0000000000001db0       0xb8 obj_cooja/mtype331.a(csma.o)
 .debug_aranges
                0x0000000000001e68       0x58 obj_cooja/mtype331.a(framer-802154.o)
 .debug_aranges
                0x0000000000001ec0       0x20 obj_cooja/mtype331.a(mac.o)
 .debug_aranges
                0x0000000000001ee0       0x70 obj_cooja/mtype331.a(nullrdc.o)
 .debug_aranges
                0x0000000000001f50       0x38 obj_cooja/mtype331.a(nullsec.o)
 .debug_aranges
                0x0000000000001f88       0x40 obj_cooja/mtype331.a(watchdog.o)
 .debug_aranges
                0x0000000000001fc8       0x18 obj_cooja/mtype331.a(rimestats.o)
 .debug_aranges
                0x0000000000001fe0       0x48 obj_cooja/mtype331.a(stimer.o)
 .debug_aranges
                0x0000000000002028       0x68 obj_cooja/mtype331.a(uip-icmp6.o)
 .debug_aranges
                0x0000000000002090       0x48 obj_cooja/mtype331.a(rpl-nbr-policy.)
 .debug_aranges
                0x00000000000020d8       0x80 obj_cooja/mtype331.a(frame802154.o)
 .debug_aranges
                0x0000000000002158       0x38 obj_cooja/mtype331.a(mac-sequence.o)

.debug_pubnames
 *(.debug_pubnames)

.debug_info     0x0000000000000000    0x24cdc
 *(.debug_info .gnu.linkonce.wi.*)
 .debug_info    0x0000000000000000     0x10e7 receiver.co
 .debug_info    0x00000000000010e7     0x36d8 obj_cooja/mtype331.o
 .debug_info    0x00000000000047bf     0x3461 obj_cooja/mtype331.a(dtls.o)
 .debug_info    0x0000000000007c20      0xe43 obj_cooja/mtype331.a(tinydtls-crypto)
 .debug_info    0x0000000000008a63      0x4e9 obj_cooja/mtype331.a(hmac.o)
 .debug_info    0x0000000000008f4c      0x8d5 obj_cooja/mtype331.a(netq.o)
 .debug_info    0x0000000000009821      0x17e obj_cooja/mtype331.a(dtls_time.o)
 .debug_info    0x000000000000999f      0x6d1 obj_cooja/mtype331.a(peer.o)
 .debug_info    0x000000000000a070      0x22c obj_cooja/mtype331.a(session.o)
 .debug_info    0x000000000000a29c      0x37f obj_cooja/mtype331.a(rijndael.o)
 .debug_info    0x000000000000a61b      0x650 obj_cooja/mtype331.a(tinydtls-ccm.o)
 .debug_info    0x000000000000ac6b      0x560 obj_cooja/mtype331.a(sha2.o)
 .debug_info    0x000000000000b1cb      0x518 obj_cooja/mtype331.a(debug.o)
 .debug_info    0x000000000000b6e3      0x15a obj_cooja/mtype331.a(simEnvChange.o)
 .debug_info    0x000000000000b83d      0x1e2 obj_cooja/mtype331.a(cooja_mt.o)
 .debug_info    0x000000000000ba1f      0x2e7 obj_cooja/mtype331.a(cooja_mtarch.o)
 .debug_info    0x000000000000bd06      0x14a obj_cooja/mtype331.a(rtimer-arch.o)
 .debug_info    0x000000000000be50      0x1f3 obj_cooja/mtype331.a(beep.o)
 .debug_info    0x000000000000c043      0x257 obj_cooja/mtype331.a(button-sensor.o)
 .debug_info    0x000000000000c29a      0x132 obj_cooja/mtype331.a(leds-arch.o)
 .debug_info    0x000000000000c3cc      0x10a obj_cooja/mtype331.a(moteid.o)
 .debug_info    0x000000000000c4d6      0x216 obj_cooja/mtype331.a(pir-sensor.o)
 .debug_info    0x000000000000c6ec      0x21e obj_cooja/mtype331.a(rs232.o)
 .debug_info    0x000000000000c90a      0x216 obj_cooja/mtype331.a(vib-sensor.o)
 .debug_info    0x000000000000cb20      0x152 obj_cooja/mtype331.a(clock.o)
 .debug_info    0x000000000000cc72      0x2bb obj_cooja/mtype331.a(log.o)
 .debug_info    0x000000000000cf2d      0x3cf obj_cooja/mtype331.a(cfs-cooja.o)
 .debug_info    0x000000000000d2fc      0xd1b obj_cooja/mtype331.a(cooja-radio.o)
 .debug_info    0x000000000000e017      0x1d5 obj_cooja/mtype331.a(eeprom.o)
 .debug_info    0x000000000000e1ec       0xb3 obj_cooja/mtype331.a(random.o)
 .debug_info    0x000000000000e29f      0x36d obj_cooja/mtype331.a(sensors.o)
 .debug_info    0x000000000000e60c      0x1a5 obj_cooja/mtype331.a(autostart.o)
 .debug_info    0x000000000000e7b1      0x46c obj_cooja/mtype331.a(ctimer.o)
 .debug_info    0x000000000000ec1d      0x49c obj_cooja/mtype331.a(etimer.o)
 .debug_info    0x000000000000f0b9      0x4ab obj_cooja/mtype331.a(process.o)
 .debug_info    0x000000000000f564      0x1b6 obj_cooja/mtype331.a(rtimer.o)
 .debug_info    0x000000000000f71a      0x16c obj_cooja/mtype331.a(timer.o)
 .debug_info    0x000000000000f886      0x2de obj_cooja/mtype331.a(serial-line.o)
 .debug_info    0x000000000000fb64       0xb3 obj_cooja/mtype331.a(assert.o)
 .debug_info    0x000000000000fc17      0x2ed obj_cooja/mtype331.a(list.o)
 .debug_info    0x000000000000ff04      0x1d7 obj_cooja/mtype331.a(memb.o)
 .debug_info    0x00000000000100db      0x1aa obj_cooja/mtype331.a(ringbuf.o)
 .debug_info    0x0000000000010285     0x105d obj_cooja/mtype331.a(sicslowpan.o)
 .debug_info    0x00000000000112e2      0xb48 obj_cooja/mtype331.a(uip-ds6-nbr.o)
 .debug_info    0x0000000000011e2a      0xd6b obj_cooja/mtype331.a(uip-ds6-route.o)
 .debug_info    0x0000000000012b95      0xa4b obj_cooja/mtype331.a(uip-ds6.o)
 .debug_info    0x00000000000135e0      0x97b obj_cooja/mtype331.a(uip-nd6.o)
 .debug_info    0x0000000000013f5b      0xe68 obj_cooja/mtype331.a(uip6.o)
 .debug_info    0x0000000000014dc3     0x1075 obj_cooja/mtype331.a(resolv.o)
 .debug_info    0x0000000000015e38     0x1602 obj_cooja/mtype331.a(tcpip.o)
 .debug_info    0x000000000001743a      0x13b obj_cooja/mtype331.a(uip-debug.o)
 .debug_info    0x0000000000017575      0x243 obj_cooja/mtype331.a(uip-nameserver.)
 .debug_info    0x00000000000177b8      0x470 obj_cooja/mtype331.a(uip-packetqueue)
 .debug_info    0x0000000000017c28      0x37a obj_cooja/mtype331.a(uip-udp-packet.)
 .debug_info    0x0000000000017fa2      0x231 obj_cooja/mtype331.a(uiplib.o)
 .debug_info    0x00000000000181d3     0x1b58 obj_cooja/mtype331.a(rpl-dag.o)
 .debug_info    0x0000000000019d2b      0xf73 obj_cooja/mtype331.a(rpl-ext-header.)
 .debug_info    0x000000000001ac9e     0x16db obj_cooja/mtype331.a(rpl-icmp6.o)
 .debug_info    0x000000000001c379      0xa3d obj_cooja/mtype331.a(rpl-mrhof.o)
 .debug_info    0x000000000001cdb6      0xcc0 obj_cooja/mtype331.a(rpl-timers.o)
 .debug_info    0x000000000001da76      0xd0d obj_cooja/mtype331.a(rpl.o)
 .debug_info    0x000000000001e783      0x691 obj_cooja/mtype331.a(link-stats.o)
 .debug_info    0x000000000001ee14      0x165 obj_cooja/mtype331.a(linkaddr.o)
 .debug_info    0x000000000001ef79      0x969 obj_cooja/mtype331.a(nbr-table.o)
 .debug_info    0x000000000001f8e2      0x4b9 obj_cooja/mtype331.a(netstack.o)
 .debug_info    0x000000000001fd9b      0x48d obj_cooja/mtype331.a(packetbuf.o)
 .debug_info    0x0000000000020228      0x57d obj_cooja/mtype331.a(queuebuf.o)
 .debug_info    0x00000000000207a5      0xc0d obj_cooja/mtype331.a(csma.o)
 .debug_info    0x00000000000213b2      0x5ed obj_cooja/mtype331.a(framer-802154.o)
 .debug_info    0x000000000002199f      0x112 obj_cooja/mtype331.a(mac.o)
 .debug_info    0x0000000000021ab1      0xc3c obj_cooja/mtype331.a(nullrdc.o)
 .debug_info    0x00000000000226ed      0x3aa obj_cooja/mtype331.a(nullsec.o)
 .debug_info    0x0000000000022a97       0x7b obj_cooja/mtype331.a(watchdog.o)
 .debug_info    0x0000000000022b12      0x119 obj_cooja/mtype331.a(rimestats.o)
 .debug_info    0x0000000000022c2b      0x179 obj_cooja/mtype331.a(stimer.o)
 .debug_info    0x0000000000022da4      0x761 obj_cooja/mtype331.a(uip-icmp6.o)
 .debug_info    0x0000000000023505      0xdee obj_cooja/mtype331.a(rpl-nbr-policy.)
 .debug_info    0x00000000000242f3      0x72d obj_cooja/mtype331.a(frame802154.o)
 .debug_info    0x0000000000024a20      0x2bc obj_cooja/mtype331.a(mac-sequence.o)

.debug_abbrev   0x0000000000000000     0x831f
 *(.debug_abbrev)
 .debug_abbrev  0x0000000000000000      0x2f8 receiver.co
 .debug_abbrev  0x00000000000002f8      0x2b3 obj_cooja/mtype331.o
 .debug_abbrev  0x00000000000005ab      0x3b1 obj_cooja/mtype331.a(dtls.o)
 .debug_abbrev  0x000000000000095c      0x2b3 obj_cooja/mtype331.a(tinydtls-crypto)
 .debug_abbrev  0x0000000000000c0f      0x19a obj_cooja/mtype331.a(hmac.o)
 .debug_abbrev  0x0000000000000da9      0x1d3 obj_cooja/mtype331.a(netq.o)
 .debug_abbrev  0x0000000000000f7c      0x101 obj_cooja/mtype331.a(dtls_time.o)
 .debug_abbrev  0x000000000000107d      0x191 obj_cooja/mtype331.a(peer.o)
 .debug_abbrev  0x000000000000120e      0x126 obj_cooja/mtype331.a(session.o)
 .debug_abbrev  0x0000000000001334      0x12c obj_cooja/mtype331.a(rijndael.o)
 .debug_abbrev  0x0000000000001460      0x1a2 obj_cooja/mtype331.a(tinydtls-ccm.o)
 .debug_abbrev  0x0000000000001602      0x165 obj_cooja/mtype331.a(sha2.o)
 .debug_abbrev  0x0000000000001767      0x1e0 obj_cooja/mtype331.a(debug.o)
 .debug_abbrev  0x0000000000001947       0xc3 obj_cooja/mtype331.a(simEnvChange.o)
 .debug_abbrev  0x0000000000001a0a       0xe6 obj_cooja/mtype331.a(cooja_mt.o)
 .debug_abbrev  0x0000000000001af0      0x147 obj_cooja/mtype331.a(cooja_mtarch.o)
 .debug_abbrev  0x0000000000001c37       0xbd obj_cooja/mtype331.a(rtimer-arch.o)
 .debug_abbrev  0x0000000000001cf4       0xe3 obj_cooja/mtype331.a(beep.o)
 .debug_abbrev  0x0000000000001dd7      0x11c obj_cooja/mtype331.a(button-sensor.o)
 .debug_abbrev  0x0000000000001ef3       0xe1 obj_cooja/mtype331.a(leds-arch.o)
 .debug_abbrev  0x0000000000001fd4       0x9c obj_cooja/mtype331.a(moteid.o)
 .debug_abbrev  0x0000000000002070       0xe6 obj_cooja/mtype331.a(pir-sensor.o)
 .debug_abbrev  0x0000000000002156      0x14a obj_cooja/mtype331.a(rs232.o)
 .debug_abbrev  0x00000000000022a0       0xe6 obj_cooja/mtype331.a(vib-sensor.o)
 .debug_abbrev  0x0000000000002386       0xee obj_cooja/mtype331.a(clock.o)
 .debug_abbrev  0x0000000000002474      0x141 obj_cooja/mtype331.a(log.o)
 .debug_abbrev  0x00000000000025b5      0x139 obj_cooja/mtype331.a(cfs-cooja.o)
 .debug_abbrev  0x00000000000026ee      0x324 obj_cooja/mtype331.a(cooja-radio.o)
 .debug_abbrev  0x0000000000002a12       0xf5 obj_cooja/mtype331.a(eeprom.o)
 .debug_abbrev  0x0000000000002b07       0x6d obj_cooja/mtype331.a(random.o)
 .debug_abbrev  0x0000000000002b74      0x1c2 obj_cooja/mtype331.a(sensors.o)
 .debug_abbrev  0x0000000000002d36       0xfb obj_cooja/mtype331.a(autostart.o)
 .debug_abbrev  0x0000000000002e31      0x1a1 obj_cooja/mtype331.a(ctimer.o)
 .debug_abbrev  0x0000000000002fd2      0x1f1 obj_cooja/mtype331.a(etimer.o)
 .debug_abbrev  0x00000000000031c3      0x244 obj_cooja/mtype331.a(process.o)
 .debug_abbrev  0x0000000000003407      0x124 obj_cooja/mtype331.a(rtimer.o)
 .debug_abbrev  0x000000000000352b       0xf5 obj_cooja/mtype331.a(timer.o)
 .debug_abbrev  0x0000000000003620      0x190 obj_cooja/mtype331.a(serial-line.o)
 .debug_abbrev  0x00000000000037b0       0x61 obj_cooja/mtype331.a(assert.o)
 .debug_abbrev  0x0000000000003811      0x145 obj_cooja/mtype331.a(list.o)
 .debug_abbrev  0x0000000000003956       0xe4 obj_cooja/mtype331.a(memb.o)
 .debug_abbrev  0x0000000000003a3a       0xdb obj_cooja/mtype331.a(ringbuf.o)
 .debug_abbrev  0x0000000000003b15      0x290 obj_cooja/mtype331.a(sicslowpan.o)
 .debug_abbrev  0x0000000000003da5      0x2cf obj_cooja/mtype331.a(uip-ds6-nbr.o)
 .debug_abbrev  0x0000000000004074      0x317 obj_cooja/mtype331.a(uip-ds6-route.o)
 .debug_abbrev  0x000000000000438b      0x23a obj_cooja/mtype331.a(uip-ds6.o)
 .debug_abbrev  0x00000000000045c5      0x27e obj_cooja/mtype331.a(uip-nd6.o)
 .debug_abbrev  0x0000000000004843      0x2c9 obj_cooja/mtype331.a(uip6.o)
 .debug_abbrev  0x0000000000004b0c      0x2a4 obj_cooja/mtype331.a(resolv.o)
 .debug_abbrev  0x0000000000004db0      0x349 obj_cooja/mtype331.a(tcpip.o)
 .debug_abbrev  0x00000000000050f9       0xad obj_cooja/mtype331.a(uip-debug.o)
 .debug_abbrev  0x00000000000051a6      0x142 obj_cooja/mtype331.a(uip-nameserver.)
 .debug_abbrev  0x00000000000052e8      0x1d4 obj_cooja/mtype331.a(uip-packetqueue)
 .debug_abbrev  0x00000000000054bc      0x195 obj_cooja/mtype331.a(uip-udp-packet.)
 .debug_abbrev  0x0000000000005651       0xda obj_cooja/mtype331.a(uiplib.o)
 .debug_abbrev  0x000000000000572b      0x373 obj_cooja/mtype331.a(rpl-dag.o)
 .debug_abbrev  0x0000000000005a9e      0x25f obj_cooja/mtype331.a(rpl-ext-header.)
 .debug_abbrev  0x0000000000005cfd      0x37a obj_cooja/mtype331.a(rpl-icmp6.o)
 .debug_abbrev  0x0000000000006077      0x1c4 obj_cooja/mtype331.a(rpl-mrhof.o)
 .debug_abbrev  0x000000000000623b      0x283 obj_cooja/mtype331.a(rpl-timers.o)
 .debug_abbrev  0x00000000000064be      0x25a obj_cooja/mtype331.a(rpl.o)
 .debug_abbrev  0x0000000000006718      0x23f obj_cooja/mtype331.a(link-stats.o)
 .debug_abbrev  0x0000000000006957       0xd8 obj_cooja/mtype331.a(linkaddr.o)
 .debug_abbrev  0x0000000000006a2f      0x1f8 obj_cooja/mtype331.a(nbr-table.o)
 .debug_abbrev  0x0000000000006c27      0x111 obj_cooja/mtype331.a(netstack.o)
 .debug_abbrev  0x0000000000006d38      0x1d8 obj_cooja/mtype331.a(packetbuf.o)
 .debug_abbrev  0x0000000000006f10      0x1ba obj_cooja/mtype331.a(queuebuf.o)
 .debug_abbrev  0x00000000000070ca      0x2aa obj_cooja/mtype331.a(csma.o)
 .debug_abbrev  0x0000000000007374      0x195 obj_cooja/mtype331.a(framer-802154.o)
 .debug_abbrev  0x0000000000007509       0xa3 obj_cooja/mtype331.a(mac.o)
 .debug_abbrev  0x00000000000075ac      0x2a9 obj_cooja/mtype331.a(nullrdc.o)
 .debug_abbrev  0x0000000000007855      0x1ba obj_cooja/mtype331.a(nullsec.o)
 .debug_abbrev  0x0000000000007a0f       0x2c obj_cooja/mtype331.a(watchdog.o)
 .debug_abbrev  0x0000000000007a3b       0x59 obj_cooja/mtype331.a(rimestats.o)
 .debug_abbrev  0x0000000000007a94       0xd9 obj_cooja/mtype331.a(stimer.o)
 .debug_abbrev  0x0000000000007b6d      0x232 obj_cooja/mtype331.a(uip-icmp6.o)
 .debug_abbrev  0x0000000000007d9f      0x23c obj_cooja/mtype331.a(rpl-nbr-policy.)
 .debug_abbrev  0x0000000000007fdb      0x1fb obj_cooja/mtype331.a(frame802154.o)
 .debug_abbrev  0x00000000000081d6      0x149 obj_cooja/mtype331.a(mac-sequence.o)

.debug_line     0x0000000000000000     0xd6b6
 *(.debug_line .debug_line.* .debug_line_end)
 .debug_line    0x0000000000000000      0x45e receiver.co
 .debug_line    0x000000000000045e      0x4f5 obj_cooja/mtype331.o
 .debug_line    0x0000000000000953     0x17b3 obj_cooja/mtype331.a(dtls.o)
 .debug_line    0x0000000000002106      0x454 obj_cooja/mtype331.a(tinydtls-crypto)
 .debug_line    0x000000000000255a      0x254 obj_cooja/mtype331.a(hmac.o)
 .debug_line    0x00000000000027ae      0x2d7 obj_cooja/mtype331.a(netq.o)
 .debug_line    0x0000000000002a85       0xf3 obj_cooja/mtype331.a(dtls_time.o)
 .debug_line    0x0000000000002b78      0x1c5 obj_cooja/mtype331.a(peer.o)
 .debug_line    0x0000000000002d3d      0x11b obj_cooja/mtype331.a(session.o)
 .debug_line    0x0000000000002e58      0x1da obj_cooja/mtype331.a(rijndael.o)
 .debug_line    0x0000000000003032      0x30a obj_cooja/mtype331.a(tinydtls-ccm.o)
 .debug_line    0x000000000000333c      0x2bf obj_cooja/mtype331.a(sha2.o)
 .debug_line    0x00000000000035fb      0x25d obj_cooja/mtype331.a(debug.o)
 .debug_line    0x0000000000003858       0xf4 obj_cooja/mtype331.a(simEnvChange.o)
 .debug_line    0x000000000000394c      0x121 obj_cooja/mtype331.a(cooja_mt.o)
 .debug_line    0x0000000000003a6d      0x182 obj_cooja/mtype331.a(cooja_mtarch.o)
 .debug_line    0x0000000000003bef       0xec obj_cooja/mtype331.a(rtimer-arch.o)
 .debug_line    0x0000000000003cdb      0x168 obj_cooja/mtype331.a(beep.o)
 .debug_line    0x0000000000003e43      0x188 obj_cooja/mtype331.a(button-sensor.o)
 .debug_line    0x0000000000003fcb       0xd2 obj_cooja/mtype331.a(leds-arch.o)
 .debug_line    0x000000000000409d       0x9e obj_cooja/mtype331.a(moteid.o)
 .debug_line    0x000000000000413b      0x10c obj_cooja/mtype331.a(pir-sensor.o)
 .debug_line    0x0000000000004247      0x133 obj_cooja/mtype331.a(rs232.o)
 .debug_line    0x000000000000437a      0x10c obj_cooja/mtype331.a(vib-sensor.o)
 .debug_line    0x0000000000004486      0x10e obj_cooja/mtype331.a(clock.o)
 .debug_line    0x0000000000004594      0x195 obj_cooja/mtype331.a(log.o)
 .debug_line    0x0000000000004729      0x1ac obj_cooja/mtype331.a(cfs-cooja.o)
 .debug_line    0x00000000000048d5      0x4cb obj_cooja/mtype331.a(cooja-radio.o)
 .debug_line    0x0000000000004da0      0x101 obj_cooja/mtype331.a(eeprom.o)
 .debug_line    0x0000000000004ea1       0x60 obj_cooja/mtype331.a(random.o)
 .debug_line    0x0000000000004f01      0x17c obj_cooja/mtype331.a(sensors.o)
 .debug_line    0x000000000000507d       0xc4 obj_cooja/mtype331.a(autostart.o)
 .debug_line    0x0000000000005141      0x1f5 obj_cooja/mtype331.a(ctimer.o)
 .debug_line    0x0000000000005336      0x26c obj_cooja/mtype331.a(etimer.o)
 .debug_line    0x00000000000055a2      0x236 obj_cooja/mtype331.a(process.o)
 .debug_line    0x00000000000057d8       0xf2 obj_cooja/mtype331.a(rtimer.o)
 .debug_line    0x00000000000058ca       0xed obj_cooja/mtype331.a(timer.o)
 .debug_line    0x00000000000059b7      0x13c obj_cooja/mtype331.a(serial-line.o)
 .debug_line    0x0000000000005af3       0x50 obj_cooja/mtype331.a(assert.o)
 .debug_line    0x0000000000005b43      0x1a2 obj_cooja/mtype331.a(list.o)
 .debug_line    0x0000000000005ce5      0x10a obj_cooja/mtype331.a(memb.o)
 .debug_line    0x0000000000005def       0xf1 obj_cooja/mtype331.a(ringbuf.o)
 .debug_line    0x0000000000005ee0      0x8a9 obj_cooja/mtype331.a(sicslowpan.o)
 .debug_line    0x0000000000006789      0x3e2 obj_cooja/mtype331.a(uip-ds6-nbr.o)
 .debug_line    0x0000000000006b6b      0x49f obj_cooja/mtype331.a(uip-ds6-route.o)
 .debug_line    0x000000000000700a      0x473 obj_cooja/mtype331.a(uip-ds6.o)
 .debug_line    0x000000000000747d      0x3c1 obj_cooja/mtype331.a(uip-nd6.o)
 .debug_line    0x000000000000783e      0x890 obj_cooja/mtype331.a(uip6.o)
 .debug_line    0x00000000000080ce      0x731 obj_cooja/mtype331.a(resolv.o)
 .debug_line    0x00000000000087ff      0x502 obj_cooja/mtype331.a(tcpip.o)
 .debug_line    0x0000000000008d01       0xcb obj_cooja/mtype331.a(uip-debug.o)
 .debug_line    0x0000000000008dcc      0x117 obj_cooja/mtype331.a(uip-nameserver.)
 .debug_line    0x0000000000008ee3      0x1eb obj_cooja/mtype331.a(uip-packetqueue)
 .debug_line    0x00000000000090ce      0x10b obj_cooja/mtype331.a(uip-udp-packet.)
 .debug_line    0x00000000000091d9      0x141 obj_cooja/mtype331.a(uiplib.o)
 .debug_line    0x000000000000931a      0xbe7 obj_cooja/mtype331.a(rpl-dag.o)
 .debug_line    0x0000000000009f01      0x374 obj_cooja/mtype331.a(rpl-ext-header.)
 .debug_line    0x000000000000a275      0x761 obj_cooja/mtype331.a(rpl-icmp6.o)
 .debug_line    0x000000000000a9d6      0x32f obj_cooja/mtype331.a(rpl-mrhof.o)
 .debug_line    0x000000000000ad05      0x3d2 obj_cooja/mtype331.a(rpl-timers.o)
 .debug_line    0x000000000000b0d7      0x375 obj_cooja/mtype331.a(rpl.o)
 .debug_line    0x000000000000b44c      0x29a obj_cooja/mtype331.a(link-stats.o)
 .debug_line    0x000000000000b6e6       0x9e obj_cooja/mtype331.a(linkaddr.o)
 .debug_line    0x000000000000b784      0x383 obj_cooja/mtype331.a(nbr-table.o)
 .debug_line    0x000000000000bb07      0x125 obj_cooja/mtype331.a(netstack.o)
 .debug_line    0x000000000000bc2c      0x225 obj_cooja/mtype331.a(packetbuf.o)
 .debug_line    0x000000000000be51      0x1c6 obj_cooja/mtype331.a(queuebuf.o)
 .debug_line    0x000000000000c017      0x400 obj_cooja/mtype331.a(csma.o)
 .debug_line    0x000000000000c417      0x1cd obj_cooja/mtype331.a(framer-802154.o)
 .debug_line    0x000000000000c5e4       0x7e obj_cooja/mtype331.a(mac.o)
 .debug_line    0x000000000000c662      0x337 obj_cooja/mtype331.a(nullrdc.o)
 .debug_line    0x000000000000c999      0x13c obj_cooja/mtype331.a(nullsec.o)
 .debug_line    0x000000000000cad5       0x9a obj_cooja/mtype331.a(watchdog.o)
 .debug_line    0x000000000000cb6f       0x71 obj_cooja/mtype331.a(rimestats.o)
 .debug_line    0x000000000000cbe0       0xd1 obj_cooja/mtype331.a(stimer.o)
 .debug_line    0x000000000000ccb1      0x29a obj_cooja/mtype331.a(uip-icmp6.o)
 .debug_line    0x000000000000cf4b      0x2b5 obj_cooja/mtype331.a(rpl-nbr-policy.)
 .debug_line    0x000000000000d200      0x366 obj_cooja/mtype331.a(frame802154.o)
 .debug_line    0x000000000000d566      0x150 obj_cooja/mtype331.a(mac-sequence.o)

.debug_frame
 *(.debug_frame)

.debug_str      0x0000000000000000     0x8ff8
 *(.debug_str)
 .debug_str     0x0000000000000000      0xae0 receiver.co
                                        0xbf9 (size before relaxing)
 .debug_str     0x0000000000000ae0     0x1790 obj_cooja/mtype331.o
                                       0x1b06 (size before relaxing)
 .debug_str     0x0000000000002270      0xeca obj_cooja/mtype331.a(dtls.o)
                                       0x1721 (size before relaxing)
 .debug_str     0x000000000000313a      0x34c obj_cooja/mtype331.a(tinydtls-crypto)
                                        0x816 (size before relaxing)
 .debug_str     0x0000000000003486      0x112 obj_cooja/mtype331.a(hmac.o)
                                        0x373 (size before relaxing)
 .debug_str     0x0000000000003598       0xf3 obj_cooja/mtype331.a(netq.o)
                                        0x7a5 (size before relaxing)
 .debug_str     0x000000000000368b       0x53 obj_cooja/mtype331.a(dtls_time.o)
                                        0x1fc (size before relaxing)
 .debug_str     0x00000000000036de       0x94 obj_cooja/mtype331.a(peer.o)
                                        0x6ea (size before relaxing)
 .debug_str     0x0000000000003772       0x4f obj_cooja/mtype331.a(session.o)
                                        0x21e (size before relaxing)
 .debug_str     0x00000000000037c1       0xae obj_cooja/mtype331.a(rijndael.o)
                                        0x1dc (size before relaxing)
 .debug_str     0x000000000000386f       0x83 obj_cooja/mtype331.a(tinydtls-ccm.o)
                                        0x281 (size before relaxing)
 .debug_str     0x00000000000038f2       0xe6 obj_cooja/mtype331.a(sha2.o)
                                        0x2d1 (size before relaxing)
 .debug_str     0x00000000000039d8       0xee obj_cooja/mtype331.a(debug.o)
                                        0x356 (size before relaxing)
 .debug_str     0x0000000000003ac6       0x2e obj_cooja/mtype331.a(simEnvChange.o)
                                        0x1f7 (size before relaxing)
 .debug_str     0x0000000000003af4       0x8b obj_cooja/mtype331.a(cooja_mt.o)
                                        0x224 (size before relaxing)
 .debug_str     0x0000000000003b7f       0xfb obj_cooja/mtype331.a(cooja_mtarch.o)
                                        0x2a1 (size before relaxing)
 .debug_str     0x0000000000003c7a       0xea obj_cooja/mtype331.a(rtimer-arch.o)
                                        0x21b (size before relaxing)
 .debug_str     0x0000000000003d64       0xc4 obj_cooja/mtype331.a(beep.o)
                                        0x238 (size before relaxing)
 .debug_str     0x0000000000003e28       0x70 obj_cooja/mtype331.a(button-sensor.o)
                                        0x268 (size before relaxing)
 .debug_str     0x0000000000003e98       0x68 obj_cooja/mtype331.a(leds-arch.o)
                                        0x203 (size before relaxing)
 .debug_str     0x0000000000003f00       0x47 obj_cooja/mtype331.a(moteid.o)
                                        0x1ee (size before relaxing)
 .debug_str     0x0000000000003f47       0x55 obj_cooja/mtype331.a(pir-sensor.o)
                                        0x225 (size before relaxing)
 .debug_str     0x0000000000003f9c       0xc1 obj_cooja/mtype331.a(rs232.o)
                                        0x282 (size before relaxing)
 .debug_str     0x000000000000405d       0x55 obj_cooja/mtype331.a(vib-sensor.o)
                                        0x225 (size before relaxing)
 .debug_str     0x00000000000040b2       0x66 obj_cooja/mtype331.a(clock.o)
                                        0x21a (size before relaxing)
 .debug_str     0x0000000000004118       0xd1 obj_cooja/mtype331.a(log.o)
                                        0x2a8 (size before relaxing)
 .debug_str     0x00000000000041e9      0x111 obj_cooja/mtype331.a(cfs-cooja.o)
                                        0x2c4 (size before relaxing)
 .debug_str     0x00000000000042fa      0x732 obj_cooja/mtype331.a(cooja-radio.o)
                                        0xafe (size before relaxing)
 .debug_str     0x0000000000004a2c       0x99 obj_cooja/mtype331.a(eeprom.o)
                                        0x244 (size before relaxing)
 .debug_str     0x0000000000004ac5       0x36 obj_cooja/mtype331.a(random.o)
                                        0x163 (size before relaxing)
 .debug_str     0x0000000000004afb       0xa1 obj_cooja/mtype331.a(sensors.o)
                                        0x293 (size before relaxing)
 .debug_str     0x0000000000004b9c       0x40 obj_cooja/mtype331.a(autostart.o)
                                        0x1b6 (size before relaxing)
 .debug_str     0x0000000000004bdc       0xd2 obj_cooja/mtype331.a(ctimer.o)
                                        0x2b7 (size before relaxing)
 .debug_str     0x0000000000004cae      0x148 obj_cooja/mtype331.a(etimer.o)
                                        0x32a (size before relaxing)
 .debug_str     0x0000000000004df6      0x15c obj_cooja/mtype331.a(process.o)
                                        0x2f5 (size before relaxing)
 .debug_str     0x0000000000004f52       0xb3 obj_cooja/mtype331.a(rtimer.o)
                                        0x201 (size before relaxing)
 .debug_str     0x0000000000005005       0x1d obj_cooja/mtype331.a(timer.o)
                                        0x1a0 (size before relaxing)
 .debug_str     0x0000000000005022       0xbf obj_cooja/mtype331.a(serial-line.o)
                                        0x27e (size before relaxing)
 .debug_str     0x00000000000050e1       0x2e obj_cooja/mtype331.a(assert.o)
                                        0x15b (size before relaxing)
 .debug_str     0x000000000000510f       0xae obj_cooja/mtype331.a(list.o)
                                        0x15f (size before relaxing)
 .debug_str     0x00000000000051bd       0x62 obj_cooja/mtype331.a(memb.o)
                                        0x19a (size before relaxing)
 .debug_str     0x000000000000521f       0x62 obj_cooja/mtype331.a(ringbuf.o)
                                        0x1b3 (size before relaxing)
 .debug_str     0x0000000000005281      0x4b9 obj_cooja/mtype331.a(sicslowpan.o)
                                        0xa9c (size before relaxing)
 .debug_str     0x000000000000573a      0x3c2 obj_cooja/mtype331.a(uip-ds6-nbr.o)
                                        0x97f (size before relaxing)
 .debug_str     0x0000000000005afc      0x450 obj_cooja/mtype331.a(uip-ds6-route.o)
                                        0x949 (size before relaxing)
 .debug_str     0x0000000000005f4c      0x30f obj_cooja/mtype331.a(uip-ds6.o)
                                        0x674 (size before relaxing)
 .debug_str     0x000000000000625b      0x180 obj_cooja/mtype331.a(uip-nd6.o)
                                        0x64f (size before relaxing)
 .debug_str     0x00000000000063db      0x340 obj_cooja/mtype331.a(uip6.o)
                                        0x7fa (size before relaxing)
 .debug_str     0x000000000000671b      0x392 obj_cooja/mtype331.a(resolv.o)
                                        0x8d3 (size before relaxing)
 .debug_str     0x0000000000006aad      0x40a obj_cooja/mtype331.a(tcpip.o)
                                        0xce9 (size before relaxing)
 .debug_str     0x0000000000006eb7       0x3b obj_cooja/mtype331.a(uip-debug.o)
                                        0x194 (size before relaxing)
 .debug_str     0x0000000000006ef2       0xab obj_cooja/mtype331.a(uip-nameserver.)
                                        0x270 (size before relaxing)
 .debug_str     0x0000000000006f9d       0xfa obj_cooja/mtype331.a(uip-packetqueue)
                                        0x33d (size before relaxing)
 .debug_str     0x0000000000007097       0x71 obj_cooja/mtype331.a(uip-udp-packet.)
                                        0x28f (size before relaxing)
 .debug_str     0x0000000000007108       0x6c obj_cooja/mtype331.a(uiplib.o)
                                        0x1c0 (size before relaxing)
 .debug_str     0x0000000000007174      0x58f obj_cooja/mtype331.a(rpl-dag.o)
                                        0xdc9 (size before relaxing)
 .debug_str     0x0000000000007703       0xf8 obj_cooja/mtype331.a(rpl-ext-header.)
                                        0xba6 (size before relaxing)
 .debug_str     0x00000000000077fb      0x239 obj_cooja/mtype331.a(rpl-icmp6.o)
                                        0xed4 (size before relaxing)
 .debug_str     0x0000000000007a34       0x71 obj_cooja/mtype331.a(rpl-mrhof.o)
                                        0x63f (size before relaxing)
 .debug_str     0x0000000000007aa5      0x1d6 obj_cooja/mtype331.a(rpl-timers.o)
                                        0x86e (size before relaxing)
 .debug_str     0x0000000000007c7b       0xfa obj_cooja/mtype331.a(rpl.o)
                                        0x88f (size before relaxing)
 .debug_str     0x0000000000007d75       0xf3 obj_cooja/mtype331.a(link-stats.o)
                                        0x6d9 (size before relaxing)
 .debug_str     0x0000000000007e68       0x58 obj_cooja/mtype331.a(linkaddr.o)
                                        0x1b7 (size before relaxing)
 .debug_str     0x0000000000007ec0      0x2a5 obj_cooja/mtype331.a(nbr-table.o)
                                        0x589 (size before relaxing)
 .debug_str     0x0000000000008165       0x2e obj_cooja/mtype331.a(netstack.o)
                                        0x33d (size before relaxing)
 .debug_str     0x0000000000008193      0x188 obj_cooja/mtype331.a(packetbuf.o)
                                        0x53d (size before relaxing)
 .debug_str     0x000000000000831b      0x1a5 obj_cooja/mtype331.a(queuebuf.o)
                                        0x53c (size before relaxing)
 .debug_str     0x00000000000084c0      0x207 obj_cooja/mtype331.a(csma.o)
                                        0x793 (size before relaxing)
 .debug_str     0x00000000000086c7      0x218 obj_cooja/mtype331.a(framer-802154.o)
                                        0x61b (size before relaxing)
 .debug_str     0x00000000000088df       0x3d obj_cooja/mtype331.a(mac.o)
                                        0x1cb (size before relaxing)
 .debug_str     0x000000000000891c       0x86 obj_cooja/mtype331.a(nullrdc.o)
                                        0x97e (size before relaxing)
 .debug_str     0x00000000000089a2       0x25 obj_cooja/mtype331.a(nullsec.o)
                                        0x439 (size before relaxing)
 .debug_str     0x00000000000089c7       0x77 obj_cooja/mtype331.a(watchdog.o)
                                        0x10d (size before relaxing)
 .debug_str     0x0000000000008a3e       0x26 obj_cooja/mtype331.a(rimestats.o)
                                        0x161 (size before relaxing)
 .debug_str     0x0000000000008a64       0x74 obj_cooja/mtype331.a(stimer.o)
                                        0x1a4 (size before relaxing)
 .debug_str     0x0000000000008ad8      0x1ef obj_cooja/mtype331.a(uip-icmp6.o)
                                        0x57e (size before relaxing)
 .debug_str     0x0000000000008cc7       0xd0 obj_cooja/mtype331.a(rpl-nbr-policy.)
                                        0x998 (size before relaxing)
 .debug_str     0x0000000000008d97      0x1f3 obj_cooja/mtype331.a(frame802154.o)
                                        0x571 (size before relaxing)
 .debug_str     0x0000000000008f8a       0x6e obj_cooja/mtype331.a(mac-sequence.o)
                                        0x3ff (size before relaxing)

.debug_loc
 *(.debug_loc)

.debug_macinfo
 *(.debug_macinfo)

.debug_weaknames
 *(.debug_weaknames)

.debug_funcnames
 *(.debug_funcnames)

.debug_typenames
 *(.debug_typenames)

.debug_varnames
 *(.debug_varnames)

.debug_pubtypes
 *(.debug_pubtypes)

.debug_ranges   0x0000000000000000     0x1c98
 *(.debug_ranges)
 .debug_ranges  0x0000000000000000       0x88 receiver.co
 .debug_ranges  0x0000000000000088       0x58 obj_cooja/mtype331.o
 .debug_ranges  0x00000000000000e0      0x2f0 obj_cooja/mtype331.a(dtls.o)
 .debug_ranges  0x00000000000003d0       0xb8 obj_cooja/mtype331.a(tinydtls-crypto)
 .debug_ranges  0x0000000000000488       0x60 obj_cooja/mtype331.a(hmac.o)
 .debug_ranges  0x00000000000004e8       0x60 obj_cooja/mtype331.a(netq.o)
 .debug_ranges  0x0000000000000548       0x18 obj_cooja/mtype331.a(dtls_time.o)
 .debug_ranges  0x0000000000000560       0x28 obj_cooja/mtype331.a(peer.o)
 .debug_ranges  0x0000000000000588       0x18 obj_cooja/mtype331.a(session.o)
 .debug_ranges  0x00000000000005a0       0x28 obj_cooja/mtype331.a(rijndael.o)
 .debug_ranges  0x00000000000005c8       0x50 obj_cooja/mtype331.a(tinydtls-ccm.o)
 .debug_ranges  0x0000000000000618       0x38 obj_cooja/mtype331.a(sha2.o)
 .debug_ranges  0x0000000000000650       0x58 obj_cooja/mtype331.a(debug.o)
 .debug_ranges  0x00000000000006a8       0x18 obj_cooja/mtype331.a(simEnvChange.o)
 .debug_ranges  0x00000000000006c0       0x38 obj_cooja/mtype331.a(cooja_mt.o)
 .debug_ranges  0x00000000000006f8       0x50 obj_cooja/mtype331.a(cooja_mtarch.o)
 .debug_ranges  0x0000000000000748       0x38 obj_cooja/mtype331.a(rtimer-arch.o)
 .debug_ranges  0x0000000000000780       0x60 obj_cooja/mtype331.a(beep.o)
 .debug_ranges  0x00000000000007e0       0x30 obj_cooja/mtype331.a(button-sensor.o)
 .debug_ranges  0x0000000000000810       0x30 obj_cooja/mtype331.a(leds-arch.o)
 .debug_ranges  0x0000000000000840       0x18 obj_cooja/mtype331.a(moteid.o)
 .debug_ranges  0x0000000000000858       0x30 obj_cooja/mtype331.a(pir-sensor.o)
 .debug_ranges  0x0000000000000888       0x48 obj_cooja/mtype331.a(rs232.o)
 .debug_ranges  0x00000000000008d0       0x30 obj_cooja/mtype331.a(vib-sensor.o)
 .debug_ranges  0x0000000000000900       0x38 obj_cooja/mtype331.a(clock.o)
 .debug_ranges  0x0000000000000938       0x50 obj_cooja/mtype331.a(log.o)
 .debug_ranges  0x0000000000000988       0x60 obj_cooja/mtype331.a(cfs-cooja.o)
 .debug_ranges  0x00000000000009e8       0xe0 obj_cooja/mtype331.a(cooja-radio.o)
 .debug_ranges  0x0000000000000ac8       0x30 obj_cooja/mtype331.a(eeprom.o)
 .debug_ranges  0x0000000000000af8       0x18 obj_cooja/mtype331.a(random.o)
 .debug_ranges  0x0000000000000b10       0x38 obj_cooja/mtype331.a(sensors.o)
 .debug_ranges  0x0000000000000b48       0x18 obj_cooja/mtype331.a(autostart.o)
 .debug_ranges  0x0000000000000b60       0x48 obj_cooja/mtype331.a(ctimer.o)
 .debug_ranges  0x0000000000000ba8       0x80 obj_cooja/mtype331.a(etimer.o)
 .debug_ranges  0x0000000000000c28       0x78 obj_cooja/mtype331.a(process.o)
 .debug_ranges  0x0000000000000ca0       0x20 obj_cooja/mtype331.a(rtimer.o)
 .debug_ranges  0x0000000000000cc0       0x30 obj_cooja/mtype331.a(timer.o)
 .debug_ranges  0x0000000000000cf0       0x20 obj_cooja/mtype331.a(serial-line.o)
 .debug_ranges  0x0000000000000d10       0x10 obj_cooja/mtype331.a(assert.o)
 .debug_ranges  0x0000000000000d20       0x68 obj_cooja/mtype331.a(list.o)
 .debug_ranges  0x0000000000000d88       0x30 obj_cooja/mtype331.a(memb.o)
 .debug_ranges  0x0000000000000db8       0x30 obj_cooja/mtype331.a(ringbuf.o)
 .debug_ranges  0x0000000000000de8       0xd0 obj_cooja/mtype331.a(sicslowpan.o)
 .debug_ranges  0x0000000000000eb8       0x80 obj_cooja/mtype331.a(uip-ds6-nbr.o)
 .debug_ranges  0x0000000000000f38       0xb8 obj_cooja/mtype331.a(uip-ds6-route.o)
 .debug_ranges  0x0000000000000ff0       0xb8 obj_cooja/mtype331.a(uip-ds6.o)
 .debug_ranges  0x00000000000010a8       0x38 obj_cooja/mtype331.a(uip-nd6.o)
 .debug_ranges  0x00000000000010e0       0xa0 obj_cooja/mtype331.a(uip6.o)
 .debug_ranges  0x0000000000001180       0xa8 obj_cooja/mtype331.a(resolv.o)
 .debug_ranges  0x0000000000001228       0xa0 obj_cooja/mtype331.a(tcpip.o)
 .debug_ranges  0x00000000000012c8       0x10 obj_cooja/mtype331.a(uip-debug.o)
 .debug_ranges  0x00000000000012d8       0x28 obj_cooja/mtype331.a(uip-nameserver.)
 .debug_ranges  0x0000000000001300       0x40 obj_cooja/mtype331.a(uip-packetqueue)
 .debug_ranges  0x0000000000001340       0x18 obj_cooja/mtype331.a(uip-udp-packet.)
 .debug_ranges  0x0000000000001358       0x18 obj_cooja/mtype331.a(uiplib.o)
 .debug_ranges  0x0000000000001370      0x1c8 obj_cooja/mtype331.a(rpl-dag.o)
 .debug_ranges  0x0000000000001538       0x38 obj_cooja/mtype331.a(rpl-ext-header.)
 .debug_ranges  0x0000000000001570       0xb0 obj_cooja/mtype331.a(rpl-icmp6.o)
 .debug_ranges  0x0000000000001620       0x50 obj_cooja/mtype331.a(rpl-mrhof.o)
 .debug_ranges  0x0000000000001670       0x90 obj_cooja/mtype331.a(rpl-timers.o)
 .debug_ranges  0x0000000000001700       0x58 obj_cooja/mtype331.a(rpl.o)
 .debug_ranges  0x0000000000001758       0x48 obj_cooja/mtype331.a(link-stats.o)
 .debug_ranges  0x00000000000017a0       0x20 obj_cooja/mtype331.a(linkaddr.o)
 .debug_ranges  0x00000000000017c0       0xb0 obj_cooja/mtype331.a(nbr-table.o)
 .debug_ranges  0x0000000000001870       0x10 obj_cooja/mtype331.a(netstack.o)
 .debug_ranges  0x0000000000001880       0x90 obj_cooja/mtype331.a(packetbuf.o)
 .debug_ranges  0x0000000000001910       0x70 obj_cooja/mtype331.a(queuebuf.o)
 .debug_ranges  0x0000000000001980       0xa8 obj_cooja/mtype331.a(csma.o)
 .debug_ranges  0x0000000000001a28       0x48 obj_cooja/mtype331.a(framer-802154.o)
 .debug_ranges  0x0000000000001a70       0x10 obj_cooja/mtype331.a(mac.o)
 .debug_ranges  0x0000000000001a80       0x60 obj_cooja/mtype331.a(nullrdc.o)
 .debug_ranges  0x0000000000001ae0       0x28 obj_cooja/mtype331.a(nullsec.o)
 .debug_ranges  0x0000000000001b08       0x30 obj_cooja/mtype331.a(watchdog.o)
 .debug_ranges  0x0000000000001b38       0x38 obj_cooja/mtype331.a(stimer.o)
 .debug_ranges  0x0000000000001b70       0x58 obj_cooja/mtype331.a(uip-icmp6.o)
 .debug_ranges  0x0000000000001bc8       0x38 obj_cooja/mtype331.a(rpl-nbr-policy.)
 .debug_ranges  0x0000000000001c00       0x70 obj_cooja/mtype331.a(frame802154.o)
 .debug_ranges  0x0000000000001c70       0x28 obj_cooja/mtype331.a(mac-sequence.o)

.debug_macro
 *(.debug_macro)

.gnu.attributes
 *(.gnu.attributes)

/DISCARD/
 *(.note.GNU-stack)
 *(.gnu_debuglink)
 *(.gnu.lto_*)
OUTPUT(obj_cooja/mtype331.cooja elf32-i386)
