Archive member included to satisfy reference by file (symbol)

obj_cooja/mtype516.a(dtls.o)  dtls-client.co (dtls_init)
obj_cooja/mtype516.a(tinydtls-crypto)
                              obj_cooja/mtype516.a(dtls.o) (dtls_crypto_init)
obj_cooja/mtype516.a(hmac.o)  obj_cooja/mtype516.a(dtls.o) (dtls_hmac_update)
obj_cooja/mtype516.a(netq.o)  obj_cooja/mtype516.a(dtls.o) (netq_init)
obj_cooja/mtype516.a(dtls_time.o)
                              obj_cooja/mtype516.a(dtls.o) (dtls_clock_init)
obj_cooja/mtype516.a(peer.o)  obj_cooja/mtype516.a(dtls.o) (peer_init)
obj_cooja/mtype516.a(session.o)
                              obj_cooja/mtype516.a(dtls.o) (dtls_session_equals)
obj_cooja/mtype516.a(rijndael.o)
                              obj_cooja/mtype516.a(tinydtls-crypto) (rijndael_set_key_enc_only)
obj_cooja/mtype516.a(tinydtls-ccm.o)
                              obj_cooja/mtype516.a(tinydtls-crypto) (dtls_ccm_encrypt_message)
obj_cooja/mtype516.a(sha2.o)  obj_cooja/mtype516.a(dtls.o) (SHA256_Init)
obj_cooja/mtype516.a(debug.o)
                              dtls-client.co (dtls_set_log_level)
obj_cooja/mtype516.a(simEnvChange.o)
                              obj_cooja/mtype516.o (simDontFallAsleep)
obj_cooja/mtype516.a(cooja_mt.o)
                              obj_cooja/mtype516.o (cooja_mt_start)
obj_cooja/mtype516.a(cooja_mtarch.o)
                              obj_cooja/mtype516.a(cooja_mt.o) (cooja_mtarch_init)
obj_cooja/mtype516.a(rtimer-arch.o)
                              obj_cooja/mtype516.o (rtimer_arch_check)
obj_cooja/mtype516.a(beep.o)  obj_cooja/mtype516.o (beep_interface)
obj_cooja/mtype516.a(button-sensor.o)
                              obj_cooja/mtype516.o (button_interface)
obj_cooja/mtype516.a(leds-arch.o)
                              obj_cooja/mtype516.o (leds_interface)
obj_cooja/mtype516.a(moteid.o)
                              obj_cooja/mtype516.o (moteid_interface)
obj_cooja/mtype516.a(pir-sensor.o)
                              obj_cooja/mtype516.o (pir_interface)
obj_cooja/mtype516.a(rs232.o)
                              obj_cooja/mtype516.o (rs232_interface)
obj_cooja/mtype516.a(vib-sensor.o)
                              obj_cooja/mtype516.o (vib_interface)
obj_cooja/mtype516.a(clock.o)
                              obj_cooja/mtype516.o (clock_interface)
obj_cooja/mtype516.a(log.o)   obj_cooja/mtype516.o (simlog_interface)
obj_cooja/mtype516.a(cfs-cooja.o)
                              obj_cooja/mtype516.o (cfs_interface)
obj_cooja/mtype516.a(cooja-radio.o)
                              obj_cooja/mtype516.o (radio_interface)
obj_cooja/mtype516.a(eeprom.o)
                              obj_cooja/mtype516.o (eeprom_interface)
obj_cooja/mtype516.a(random.o)
                              obj_cooja/mtype516.a(moteid.o) (random_init)
obj_cooja/mtype516.a(sensors.o)
                              obj_cooja/mtype516.o (sensors_process)
obj_cooja/mtype516.a(autostart.o)
                              obj_cooja/mtype516.o (autostart_start)
obj_cooja/mtype516.a(ctimer.o)
                              obj_cooja/mtype516.o (ctimer_init)
obj_cooja/mtype516.a(etimer.o)
                              obj_cooja/mtype516.o (etimer_process)
obj_cooja/mtype516.a(process.o)
                              obj_cooja/mtype516.a(dtls.o) (process_current)
obj_cooja/mtype516.a(rtimer.o)
                              obj_cooja/mtype516.a(rtimer-arch.o) (rtimer_run_next)
obj_cooja/mtype516.a(timer.o)
                              obj_cooja/mtype516.a(button-sensor.o) (timer_set)
obj_cooja/mtype516.a(serial-line.o)
                              obj_cooja/mtype516.a(rs232.o) (serial_line_input_byte)
obj_cooja/mtype516.a(assert.o)
                              obj_cooja/mtype516.a(dtls.o) (_xassert)
obj_cooja/mtype516.a(list.o)  obj_cooja/mtype516.a(dtls.o) (list_init)
obj_cooja/mtype516.a(memb.o)  obj_cooja/mtype516.a(tinydtls-crypto) (memb_init)
obj_cooja/mtype516.a(ringbuf.o)
                              obj_cooja/mtype516.a(serial-line.o) (ringbuf_init)
obj_cooja/mtype516.a(sicslowpan.o)
                              obj_cooja/mtype516.o (sicslowpan_driver)
obj_cooja/mtype516.a(uip-ds6-nbr.o)
                              obj_cooja/mtype516.a(sicslowpan.o) (uip_ds6_link_neighbor_callback)
obj_cooja/mtype516.a(uip-ds6-route.o)
                              obj_cooja/mtype516.a(uip-ds6-nbr.o) (uip_ds6_defrt_lookup)
obj_cooja/mtype516.a(uip-ds6.o)
                              dtls-client.co (uip_ds6_if)
obj_cooja/mtype516.a(uip-nd6.o)
                              obj_cooja/mtype516.a(uip-ds6-nbr.o) (uip_nd6_ns_output)
obj_cooja/mtype516.a(uip6.o)  dtls-client.co (uip_lladdr)
obj_cooja/mtype516.a(resolv.o)
                              dtls-client.co (resolv_event_found)
obj_cooja/mtype516.a(tcpip.o)
                              dtls-client.co (tcpip_event)
obj_cooja/mtype516.a(uip-debug.o)
                              dtls-client.co (uip_debug_ipaddr_print)
obj_cooja/mtype516.a(uip-nameserver.)
                              obj_cooja/mtype516.a(resolv.o) (uip_nameserver_get)
obj_cooja/mtype516.a(uip-packetqueue)
                              obj_cooja/mtype516.a(uip-ds6-nbr.o) (uip_packetqueue_new)
obj_cooja/mtype516.a(uip-udp-packet.)
                              dtls-client.co (uip_udp_packet_send)
obj_cooja/mtype516.a(uiplib.o)
                              dtls-client.co (uiplib_ip6addrconv)
obj_cooja/mtype516.a(rpl-dag.o)
                              obj_cooja/mtype516.a(tcpip.o) (rpl_repair_root)
obj_cooja/mtype516.a(rpl-ext-header.)
                              obj_cooja/mtype516.a(uip6.o) (rpl_verify_hbh_header)
obj_cooja/mtype516.a(rpl-icmp6.o)
                              obj_cooja/mtype516.a(rpl-dag.o) (rpl_icmp6_update_nbr_table)
obj_cooja/mtype516.a(rpl-mrhof.o)
                              obj_cooja/mtype516.a(rpl-dag.o) (rpl_mrhof)
obj_cooja/mtype516.a(rpl-timers.o)
                              obj_cooja/mtype516.a(rpl-dag.o) (rpl_reset_dio_timer)
obj_cooja/mtype516.a(rpl.o)   obj_cooja/mtype516.a(rpl-icmp6.o) (rpl_get_mode)
obj_cooja/mtype516.a(link-stats.o)
                              obj_cooja/mtype516.a(rpl-dag.o) (link_stats_from_lladdr)
obj_cooja/mtype516.a(linkaddr.o)
                              obj_cooja/mtype516.o (linkaddr_node_addr)
obj_cooja/mtype516.a(nbr-table.o)
                              obj_cooja/mtype516.a(uip-ds6-nbr.o) (nbr_table_register)
obj_cooja/mtype516.a(netstack.o)
                              obj_cooja/mtype516.o (netstack_init)
obj_cooja/mtype516.a(packetbuf.o)
                              obj_cooja/mtype516.a(cooja-radio.o) (packetbuf_attrs)
obj_cooja/mtype516.a(queuebuf.o)
                              obj_cooja/mtype516.o (queuebuf_init)
obj_cooja/mtype516.a(csma.o)  obj_cooja/mtype516.o (csma_driver)
obj_cooja/mtype516.a(framer-802154.o)
                              obj_cooja/mtype516.a(sicslowpan.o) (framer_802154)
obj_cooja/mtype516.a(mac.o)   obj_cooja/mtype516.a(csma.o) (mac_call_sent_callback)
obj_cooja/mtype516.a(nullrdc.o)
                              obj_cooja/mtype516.o (nullrdc_driver)
obj_cooja/mtype516.a(nullsec.o)
                              obj_cooja/mtype516.a(sicslowpan.o) (nullsec_driver)
obj_cooja/mtype516.a(watchdog.o)
                              obj_cooja/mtype516.a(sicslowpan.o) (watchdog_periodic)
obj_cooja/mtype516.a(rimestats.o)
                              obj_cooja/mtype516.a(cooja-radio.o) (rimestats)
obj_cooja/mtype516.a(stimer.o)
                              obj_cooja/mtype516.a(uip-ds6-nbr.o) (stimer_set)
obj_cooja/mtype516.a(uip-icmp6.o)
                              obj_cooja/mtype516.a(uip6.o) (uip_icmp6_input)
obj_cooja/mtype516.a(rpl-nbr-policy.)
                              obj_cooja/mtype516.a(nbr-table.o) (rpl_nbr_policy_find_removable)
obj_cooja/mtype516.a(frame802154.o)
                              obj_cooja/mtype516.a(framer-802154.o) (frame802154_get_pan_id)
obj_cooja/mtype516.a(mac-sequence.o)
                              obj_cooja/mtype516.a(nullrdc.o) (mac_sequence_is_duplicate)

Allocating common symbols
Common symbol       size              file

default_instance    0x4               obj_cooja/mtype516.a(rpl-dag.o)
simButtonIsActive   0x1               obj_cooja/mtype516.a(button-sensor.o)
simButtonIsDown     0x1               obj_cooja/mtype516.a(button-sensor.o)
simOutDataBuffer    0x80              obj_cooja/mtype516.a(cooja-radio.o)
uip_ds6_prefix_list
                    0x60              obj_cooja/mtype516.a(uip-ds6.o)
linkaddr_node_addr  0x8               obj_cooja/mtype516.a(linkaddr.o)
simSerialReceivingFlag
                    0x1               obj_cooja/mtype516.a(rs232.o)
simEEPROMData       0x400             obj_cooja/mtype516.a(eeprom.o)
fd_read             0x4               dtls-client.co
periodic_timer      0x20              obj_cooja/mtype516.a(link-stats.o)
simLoggedLength     0x4               obj_cooja/mtype516.a(log.o)
simSerialReceivingLength
                    0x4               obj_cooja/mtype516.a(rs232.o)
simEtimerPending    0x4               obj_cooja/mtype516.a(simEnvChange.o)
uip_slen            0x2               obj_cooja/mtype516.a(uip6.o)
uip_ds6_timer_periodic
                    0x10              obj_cooja/mtype516.a(uip-ds6.o)
uip_acc32           0x4               obj_cooja/mtype516.a(uip6.o)
j                   0x4               dtls-client.co
uip_conns           0xc0              obj_cooja/mtype516.a(uip6.o)
simVibChanged       0x1               obj_cooja/mtype516.a(vib-sensor.o)
rimestats           0x48              obj_cooja/mtype516.a(rimestats.o)
simRtimerPending    0x4               obj_cooja/mtype516.a(rtimer-arch.o)
read_buf            0x12c             dtls-client.co
data_len            0x4               dtls-client.co
uip_ds6_netif_addr_list_offset
                    0x1               obj_cooja/mtype516.a(uip-ds6.o)
uip_lladdr          0x8               obj_cooja/mtype516.a(uip6.o)
instance_table      0x154             obj_cooja/mtype516.a(rpl-dag.o)
simProcessRunValue  0x4               obj_cooja/mtype516.a(simEnvChange.o)
serial_line_event_message
                    0x1               obj_cooja/mtype516.a(serial-line.o)
uip_appdata         0x4               obj_cooja/mtype516.a(uip6.o)
resolv_event_found  0x1               obj_cooja/mtype516.a(resolv.o)
referenceVar        0x4               obj_cooja/mtype516.o
simCurrentTime      0x4               obj_cooja/mtype516.a(clock.o)
simVibIsActive      0x1               obj_cooja/mtype516.a(vib-sensor.o)
uip_ds6_if          0xf8              obj_cooja/mtype516.a(uip-ds6.o)
uip_flags           0x1               obj_cooja/mtype516.a(uip6.o)
uip_ds6_timer_ra    0x8               obj_cooja/mtype516.a(uip-ds6.o)
fd_write            0x4               dtls-client.co
simSerialReceivingData
                    0x800             obj_cooja/mtype516.a(rs232.o)
filename            0x4               dtls-client.co
simLoggedFlag       0x1               obj_cooja/mtype516.a(log.o)
packetbuf_attrs     0x1e              obj_cooja/mtype516.a(packetbuf.o)
uip_ds6_addr_size   0x1               obj_cooja/mtype516.a(uip-ds6.o)
uip_aligned_buf     0x640             obj_cooja/mtype516.a(uip6.o)
simRtimerCurrentTicks
                    0x8               obj_cooja/mtype516.a(rtimer-arch.o)
iterator            0x4               dtls-client.co
simRandomSeed       0x4               obj_cooja/mtype516.a(moteid.o)
simLoggedData       0x400             obj_cooja/mtype516.a(log.o)
simLedsValue        0x1               obj_cooja/mtype516.a(leds-arch.o)
simEtimerNextExpirationTime
                    0x4               obj_cooja/mtype516.a(simEnvChange.o)
uip_listenports     0x10              obj_cooja/mtype516.a(uip6.o)
uip_len             0x2               obj_cooja/mtype516.a(uip6.o)
simButtonChanged    0x1               obj_cooja/mtype516.a(button-sensor.o)
simRtimerNextExpirationTime
                    0x8               obj_cooja/mtype516.a(rtimer-arch.o)
simPirIsActive      0x1               obj_cooja/mtype516.a(pir-sensor.o)
simInDataBuffer     0x80              obj_cooja/mtype516.a(cooja-radio.o)
simPirChanged       0x1               obj_cooja/mtype516.a(pir-sensor.o)
simBeeped           0x1               obj_cooja/mtype516.a(beep.o)
tcpip_event         0x1               obj_cooja/mtype516.a(tcpip.o)
uip_sappdata        0x4               obj_cooja/mtype516.a(uip6.o)
sensors_event       0x1               obj_cooja/mtype516.a(sensors.o)
dtls_clock_offset   0x4               obj_cooja/mtype516.a(dtls_time.o)
uip_udp_conns       0x180             obj_cooja/mtype516.a(uip6.o)
packetbuf_addrs     0x10              obj_cooja/mtype516.a(packetbuf.o)
uip_udp_conn        0x4               obj_cooja/mtype516.a(uip6.o)
simMoteIDChanged    0x1               obj_cooja/mtype516.a(moteid.o)
sensors_flags       0x4               obj_cooja/mtype516.o
uip_next_hdr        0x4               obj_cooja/mtype516.a(uip6.o)
it                  0x4               dtls-client.co
simMoteID           0x4               obj_cooja/mtype516.a(moteid.o)
uip_conn            0x4               obj_cooja/mtype516.a(uip6.o)

Discarded input sections

 .note.GNU-stack
                0x0000000000000000        0x0 /usr/lib/gcc/i686-linux-gnu/4.8/../../../i386-linux-gnu/crti.o
 .gnu_debuglink
                0x0000000000000000        0xc /usr/lib/gcc/i686-linux-gnu/4.8/../../../i386-linux-gnu/crti.o
 .group         0x0000000000000000        0x8 /usr/lib/gcc/i686-linux-gnu/4.8/crtbeginS.o
 .text.__x86.get_pc_thunk.bx
                0x0000000000000000        0x4 /usr/lib/gcc/i686-linux-gnu/4.8/crtbeginS.o
 .note.GNU-stack
                0x0000000000000000        0x0 /usr/lib/gcc/i686-linux-gnu/4.8/crtbeginS.o
 .note.GNU-stack
                0x0000000000000000        0x0 dtls-client.co
 .note.GNU-stack
                0x0000000000000000        0x0 obj_cooja/mtype516.o
 .note.GNU-stack
                0x0000000000000000        0x0 obj_cooja/mtype516.a(dtls.o)
 .note.GNU-stack
                0x0000000000000000        0x0 obj_cooja/mtype516.a(tinydtls-crypto)
 .note.GNU-stack
                0x0000000000000000        0x0 obj_cooja/mtype516.a(hmac.o)
 .note.GNU-stack
                0x0000000000000000        0x0 obj_cooja/mtype516.a(netq.o)
 .note.GNU-stack
                0x0000000000000000        0x0 obj_cooja/mtype516.a(dtls_time.o)
 .note.GNU-stack
                0x0000000000000000        0x0 obj_cooja/mtype516.a(peer.o)
 .note.GNU-stack
                0x0000000000000000        0x0 obj_cooja/mtype516.a(session.o)
 .note.GNU-stack
                0x0000000000000000        0x0 obj_cooja/mtype516.a(rijndael.o)
 .note.GNU-stack
                0x0000000000000000        0x0 obj_cooja/mtype516.a(tinydtls-ccm.o)
 .note.GNU-stack
                0x0000000000000000        0x0 obj_cooja/mtype516.a(sha2.o)
 .note.GNU-stack
                0x0000000000000000        0x0 obj_cooja/mtype516.a(debug.o)
 .note.GNU-stack
                0x0000000000000000        0x0 obj_cooja/mtype516.a(simEnvChange.o)
 .note.GNU-stack
                0x0000000000000000        0x0 obj_cooja/mtype516.a(cooja_mt.o)
 .note.GNU-stack
                0x0000000000000000        0x0 obj_cooja/mtype516.a(cooja_mtarch.o)
 .note.GNU-stack
                0x0000000000000000        0x0 obj_cooja/mtype516.a(rtimer-arch.o)
 .note.GNU-stack
                0x0000000000000000        0x0 obj_cooja/mtype516.a(beep.o)
 .note.GNU-stack
                0x0000000000000000        0x0 obj_cooja/mtype516.a(button-sensor.o)
 .note.GNU-stack
                0x0000000000000000        0x0 obj_cooja/mtype516.a(leds-arch.o)
 .note.GNU-stack
                0x0000000000000000        0x0 obj_cooja/mtype516.a(moteid.o)
 .note.GNU-stack
                0x0000000000000000        0x0 obj_cooja/mtype516.a(pir-sensor.o)
 .note.GNU-stack
                0x0000000000000000        0x0 obj_cooja/mtype516.a(rs232.o)
 .note.GNU-stack
                0x0000000000000000        0x0 obj_cooja/mtype516.a(vib-sensor.o)
 .note.GNU-stack
                0x0000000000000000        0x0 obj_cooja/mtype516.a(clock.o)
 .note.GNU-stack
                0x0000000000000000        0x0 obj_cooja/mtype516.a(log.o)
 .note.GNU-stack
                0x0000000000000000        0x0 obj_cooja/mtype516.a(cfs-cooja.o)
 .note.GNU-stack
                0x0000000000000000        0x0 obj_cooja/mtype516.a(cooja-radio.o)
 .note.GNU-stack
                0x0000000000000000        0x0 obj_cooja/mtype516.a(eeprom.o)
 .note.GNU-stack
                0x0000000000000000        0x0 obj_cooja/mtype516.a(random.o)
 .note.GNU-stack
                0x0000000000000000        0x0 obj_cooja/mtype516.a(sensors.o)
 .note.GNU-stack
                0x0000000000000000        0x0 obj_cooja/mtype516.a(autostart.o)
 .note.GNU-stack
                0x0000000000000000        0x0 obj_cooja/mtype516.a(ctimer.o)
 .note.GNU-stack
                0x0000000000000000        0x0 obj_cooja/mtype516.a(etimer.o)
 .note.GNU-stack
                0x0000000000000000        0x0 obj_cooja/mtype516.a(process.o)
 .note.GNU-stack
                0x0000000000000000        0x0 obj_cooja/mtype516.a(rtimer.o)
 .note.GNU-stack
                0x0000000000000000        0x0 obj_cooja/mtype516.a(timer.o)
 .note.GNU-stack
                0x0000000000000000        0x0 obj_cooja/mtype516.a(serial-line.o)
 .note.GNU-stack
                0x0000000000000000        0x0 obj_cooja/mtype516.a(assert.o)
 .note.GNU-stack
                0x0000000000000000        0x0 obj_cooja/mtype516.a(list.o)
 .note.GNU-stack
                0x0000000000000000        0x0 obj_cooja/mtype516.a(memb.o)
 .note.GNU-stack
                0x0000000000000000        0x0 obj_cooja/mtype516.a(ringbuf.o)
 .note.GNU-stack
                0x0000000000000000        0x0 obj_cooja/mtype516.a(sicslowpan.o)
 .note.GNU-stack
                0x0000000000000000        0x0 obj_cooja/mtype516.a(uip-ds6-nbr.o)
 .note.GNU-stack
                0x0000000000000000        0x0 obj_cooja/mtype516.a(uip-ds6-route.o)
 .note.GNU-stack
                0x0000000000000000        0x0 obj_cooja/mtype516.a(uip-ds6.o)
 .note.GNU-stack
                0x0000000000000000        0x0 obj_cooja/mtype516.a(uip-nd6.o)
 .note.GNU-stack
                0x0000000000000000        0x0 obj_cooja/mtype516.a(uip6.o)
 .note.GNU-stack
                0x0000000000000000        0x0 obj_cooja/mtype516.a(resolv.o)
 .note.GNU-stack
                0x0000000000000000        0x0 obj_cooja/mtype516.a(tcpip.o)
 .note.GNU-stack
                0x0000000000000000        0x0 obj_cooja/mtype516.a(uip-debug.o)
 .note.GNU-stack
                0x0000000000000000        0x0 obj_cooja/mtype516.a(uip-nameserver.)
 .note.GNU-stack
                0x0000000000000000        0x0 obj_cooja/mtype516.a(uip-packetqueue)
 .note.GNU-stack
                0x0000000000000000        0x0 obj_cooja/mtype516.a(uip-udp-packet.)
 .note.GNU-stack
                0x0000000000000000        0x0 obj_cooja/mtype516.a(uiplib.o)
 .note.GNU-stack
                0x0000000000000000        0x0 obj_cooja/mtype516.a(rpl-dag.o)
 .note.GNU-stack
                0x0000000000000000        0x0 obj_cooja/mtype516.a(rpl-ext-header.)
 .note.GNU-stack
                0x0000000000000000        0x0 obj_cooja/mtype516.a(rpl-icmp6.o)
 .note.GNU-stack
                0x0000000000000000        0x0 obj_cooja/mtype516.a(rpl-mrhof.o)
 .note.GNU-stack
                0x0000000000000000        0x0 obj_cooja/mtype516.a(rpl-timers.o)
 .note.GNU-stack
                0x0000000000000000        0x0 obj_cooja/mtype516.a(rpl.o)
 .note.GNU-stack
                0x0000000000000000        0x0 obj_cooja/mtype516.a(link-stats.o)
 .note.GNU-stack
                0x0000000000000000        0x0 obj_cooja/mtype516.a(linkaddr.o)
 .note.GNU-stack
                0x0000000000000000        0x0 obj_cooja/mtype516.a(nbr-table.o)
 .note.GNU-stack
                0x0000000000000000        0x0 obj_cooja/mtype516.a(netstack.o)
 .note.GNU-stack
                0x0000000000000000        0x0 obj_cooja/mtype516.a(packetbuf.o)
 .note.GNU-stack
                0x0000000000000000        0x0 obj_cooja/mtype516.a(queuebuf.o)
 .note.GNU-stack
                0x0000000000000000        0x0 obj_cooja/mtype516.a(csma.o)
 .note.GNU-stack
                0x0000000000000000        0x0 obj_cooja/mtype516.a(framer-802154.o)
 .note.GNU-stack
                0x0000000000000000        0x0 obj_cooja/mtype516.a(mac.o)
 .note.GNU-stack
                0x0000000000000000        0x0 obj_cooja/mtype516.a(nullrdc.o)
 .note.GNU-stack
                0x0000000000000000        0x0 obj_cooja/mtype516.a(nullsec.o)
 .note.GNU-stack
                0x0000000000000000        0x0 obj_cooja/mtype516.a(watchdog.o)
 .note.GNU-stack
                0x0000000000000000        0x0 obj_cooja/mtype516.a(rimestats.o)
 .note.GNU-stack
                0x0000000000000000        0x0 obj_cooja/mtype516.a(stimer.o)
 .note.GNU-stack
                0x0000000000000000        0x0 obj_cooja/mtype516.a(uip-icmp6.o)
 .note.GNU-stack
                0x0000000000000000        0x0 obj_cooja/mtype516.a(rpl-nbr-policy.)
 .note.GNU-stack
                0x0000000000000000        0x0 obj_cooja/mtype516.a(frame802154.o)
 .note.GNU-stack
                0x0000000000000000        0x0 obj_cooja/mtype516.a(mac-sequence.o)
 .note.GNU-stack
                0x0000000000000000        0x0 /usr/lib/gcc/i686-linux-gnu/4.8/crtendS.o
 .note.GNU-stack
                0x0000000000000000        0x0 /usr/lib/gcc/i686-linux-gnu/4.8/../../../i386-linux-gnu/crtn.o
 .gnu_debuglink
                0x0000000000000000        0xc /usr/lib/gcc/i686-linux-gnu/4.8/../../../i386-linux-gnu/crtn.o

Memory Configuration

Name             Origin             Length             Attributes
*default*        0x0000000000000000 0xffffffffffffffff

Linker script and memory map

LOAD /usr/lib/gcc/i686-linux-gnu/4.8/../../../i386-linux-gnu/crti.o
LOAD /usr/lib/gcc/i686-linux-gnu/4.8/crtbeginS.o
LOAD dtls-client.co
LOAD obj_cooja/mtype516.o
LOAD obj_cooja/mtype516.a
LOAD /usr/lib/gcc/i686-linux-gnu/4.8/libgcc.a
LOAD /usr/lib/gcc/i686-linux-gnu/4.8/libgcc_s.so
LOAD /usr/lib/gcc/i686-linux-gnu/4.8/../../../i386-linux-gnu/libc.so
START GROUP
LOAD /lib/i386-linux-gnu/libc.so.6
LOAD /usr/lib/i386-linux-gnu/libc_nonshared.a
LOAD /lib/i386-linux-gnu/ld-linux.so.2
END GROUP
LOAD /usr/lib/gcc/i686-linux-gnu/4.8/libgcc.a
LOAD /usr/lib/gcc/i686-linux-gnu/4.8/libgcc_s.so
LOAD /usr/lib/gcc/i686-linux-gnu/4.8/crtendS.o
LOAD /usr/lib/gcc/i686-linux-gnu/4.8/../../../i386-linux-gnu/crtn.o
                0x0000000000000114                . = (0x0 + SIZEOF_HEADERS)

.note.gnu.build-id
                0x0000000000000114       0x24
 *(.note.gnu.build-id)
 .note.gnu.build-id
                0x0000000000000114       0x24 /usr/lib/gcc/i686-linux-gnu/4.8/../../../i386-linux-gnu/crti.o

.hash
 *(.hash)

.gnu.hash       0x0000000000000138     0x13e4
 *(.gnu.hash)
 .gnu.hash      0x0000000000000138     0x13e4 /usr/lib/gcc/i686-linux-gnu/4.8/../../../i386-linux-gnu/crti.o

.dynsym         0x000000000000151c     0x2830
 *(.dynsym)
 .dynsym        0x000000000000151c     0x2830 /usr/lib/gcc/i686-linux-gnu/4.8/../../../i386-linux-gnu/crti.o

.dynstr         0x0000000000003d4c     0x294f
 *(.dynstr)
 .dynstr        0x0000000000003d4c     0x294f /usr/lib/gcc/i686-linux-gnu/4.8/../../../i386-linux-gnu/crti.o

.gnu.version    0x000000000000669c      0x506
 *(.gnu.version)
 .gnu.version   0x000000000000669c      0x506 /usr/lib/gcc/i686-linux-gnu/4.8/../../../i386-linux-gnu/crti.o

.gnu.version_d  0x0000000000006ba4        0x0
 *(.gnu.version_d)
 .gnu.version_d
                0x0000000000000000        0x0 /usr/lib/gcc/i686-linux-gnu/4.8/../../../i386-linux-gnu/crti.o

.gnu.version_r  0x0000000000006ba4       0x40
 *(.gnu.version_r)
 .gnu.version_r
                0x0000000000006ba4       0x40 /usr/lib/gcc/i686-linux-gnu/4.8/../../../i386-linux-gnu/crti.o

.rel.dyn        0x0000000000006be4     0xa8e8
 *(.rel.init)
 .rel.init      0x0000000000000000        0x0 /usr/lib/gcc/i686-linux-gnu/4.8/../../../i386-linux-gnu/crti.o
 *(.rel.text .rel.text.* .rel.gnu.linkonce.t.*)
 .rel.text      0x0000000000000000        0x0 /usr/lib/gcc/i686-linux-gnu/4.8/../../../i386-linux-gnu/crti.o
 .rel.text.try_send
                0x0000000000006be4       0x48 /usr/lib/gcc/i686-linux-gnu/4.8/../../../i386-linux-gnu/crti.o
 .rel.text.timeout_handler
                0x0000000000006c2c       0x58 /usr/lib/gcc/i686-linux-gnu/4.8/../../../i386-linux-gnu/crti.o
 .rel.text.send_to_peer
                0x0000000000006c84       0x58 /usr/lib/gcc/i686-linux-gnu/4.8/../../../i386-linux-gnu/crti.o
 .rel.text.get_psk_info
                0x0000000000006cdc       0xa8 /usr/lib/gcc/i686-linux-gnu/4.8/../../../i386-linux-gnu/crti.o
 .rel.text.dtls_handle_read
                0x0000000000006d84       0xc8 /usr/lib/gcc/i686-linux-gnu/4.8/../../../i386-linux-gnu/crti.o
 .rel.text.tcpip_handler
                0x0000000000006e4c       0x18 /usr/lib/gcc/i686-linux-gnu/4.8/../../../i386-linux-gnu/crti.o
 .rel.text.print_local_addresses
                0x0000000000006e64       0x40 /usr/lib/gcc/i686-linux-gnu/4.8/../../../i386-linux-gnu/crti.o
 .rel.text.set_global_address
                0x0000000000006ea4       0x20 /usr/lib/gcc/i686-linux-gnu/4.8/../../../i386-linux-gnu/crti.o
 .rel.text.set_connection_address
                0x0000000000006ec4       0x90 /usr/lib/gcc/i686-linux-gnu/4.8/../../../i386-linux-gnu/crti.o
 .rel.text.init_dtls
                0x0000000000006f54       0x90 /usr/lib/gcc/i686-linux-gnu/4.8/../../../i386-linux-gnu/crti.o
 .rel.text.process_thread_udp_client_process
                0x0000000000006fe4      0x180 /usr/lib/gcc/i686-linux-gnu/4.8/../../../i386-linux-gnu/crti.o
 .rel.text.print_processes
                0x0000000000007164       0x28 /usr/lib/gcc/i686-linux-gnu/4.8/../../../i386-linux-gnu/crti.o
 .rel.text.rtimer_thread_loop
                0x000000000000718c       0x10 /usr/lib/gcc/i686-linux-gnu/4.8/../../../i386-linux-gnu/crti.o
 .rel.text.set_rime_addr
                0x000000000000719c       0x58 /usr/lib/gcc/i686-linux-gnu/4.8/../../../i386-linux-gnu/crti.o
 .rel.text.contiki_init
                0x00000000000071f4      0x1d0 /usr/lib/gcc/i686-linux-gnu/4.8/../../../i386-linux-gnu/crti.o
 .rel.text.process_run_thread_loop
                0x00000000000073c4       0x70 /usr/lib/gcc/i686-linux-gnu/4.8/../../../i386-linux-gnu/crti.o
 .rel.text.Java_org_contikios_cooja_corecomm_Lib2_init
                0x0000000000007434       0x30 /usr/lib/gcc/i686-linux-gnu/4.8/../../../i386-linux-gnu/crti.o
 .rel.text.Java_org_contikios_cooja_corecomm_Lib2_getMemory
                0x0000000000007464        0x8 /usr/lib/gcc/i686-linux-gnu/4.8/../../../i386-linux-gnu/crti.o
 .rel.text.Java_org_contikios_cooja_corecomm_Lib2_setMemory
                0x000000000000746c       0x10 /usr/lib/gcc/i686-linux-gnu/4.8/../../../i386-linux-gnu/crti.o
 .rel.text.Java_org_contikios_cooja_corecomm_Lib2_tick
                0x000000000000747c       0x70 /usr/lib/gcc/i686-linux-gnu/4.8/../../../i386-linux-gnu/crti.o
 .rel.text.Java_org_contikios_cooja_corecomm_Lib2_setReferenceAddress
                0x00000000000074ec       0x10 /usr/lib/gcc/i686-linux-gnu/4.8/../../../i386-linux-gnu/crti.o
 .rel.text.dtls_hash_init
                0x00000000000074fc       0x18 /usr/lib/gcc/i686-linux-gnu/4.8/../../../i386-linux-gnu/crti.o
 .rel.text.dtls_hash_update
                0x0000000000007514       0x10 /usr/lib/gcc/i686-linux-gnu/4.8/../../../i386-linux-gnu/crti.o
 .rel.text.dtls_hash_finalize
                0x0000000000007524       0x10 /usr/lib/gcc/i686-linux-gnu/4.8/../../../i386-linux-gnu/crti.o
 .rel.text.dtls_security_params_next
                0x0000000000007534       0x10 /usr/lib/gcc/i686-linux-gnu/4.8/../../../i386-linux-gnu/crti.o
 .rel.text.dtls_security_params_free_other
                0x0000000000007544        0x8 /usr/lib/gcc/i686-linux-gnu/4.8/../../../i386-linux-gnu/crti.o
 .rel.text.dtls_prng
                0x000000000000754c       0x18 /usr/lib/gcc/i686-linux-gnu/4.8/../../../i386-linux-gnu/crti.o
 .rel.text.malloc_context
                0x0000000000007564        0x8 /usr/lib/gcc/i686-linux-gnu/4.8/../../../i386-linux-gnu/crti.o
 .rel.text.dtls_init
                0x000000000000756c       0x20 /usr/lib/gcc/i686-linux-gnu/4.8/../../../i386-linux-gnu/crti.o
 .rel.text.dtls_get_peer
                0x000000000000758c       0x18 /usr/lib/gcc/i686-linux-gnu/4.8/../../../i386-linux-gnu/crti.o
 .rel.text.dtls_add_peer
                0x00000000000075a4        0x8 /usr/lib/gcc/i686-linux-gnu/4.8/../../../i386-linux-gnu/crti.o
 .rel.text.dtls_write
                0x00000000000075ac       0x10 /usr/lib/gcc/i686-linux-gnu/4.8/../../../i386-linux-gnu/crti.o
 .rel.text.dtls_create_cookie
                0x00000000000075bc       0x40 /usr/lib/gcc/i686-linux-gnu/4.8/../../../i386-linux-gnu/crti.o
 .rel.text.dtls_set_record_header
                0x00000000000075fc       0x10 /usr/lib/gcc/i686-linux-gnu/4.8/../../../i386-linux-gnu/crti.o
 .rel.text.dtls_set_handshake_header
                0x000000000000760c        0x8 /usr/lib/gcc/i686-linux-gnu/4.8/../../../i386-linux-gnu/crti.o
 .rel.text.dtls_debug_keyblock
                0x0000000000007614       0x60 /usr/lib/gcc/i686-linux-gnu/4.8/../../../i386-linux-gnu/crti.o
 .rel.text.dtls_handshake_type_to_name
                0x0000000000007674       0x68 /usr/lib/gcc/i686-linux-gnu/4.8/../../../i386-linux-gnu/crti.o
 .rel.text.calculate_key_block
                0x00000000000076dc       0xb8 /usr/lib/gcc/i686-linux-gnu/4.8/../../../i386-linux-gnu/crti.o
 .rel.text.dtls_check_tls_extension
                0x0000000000007794       0x30 /usr/lib/gcc/i686-linux-gnu/4.8/../../../i386-linux-gnu/crti.o
 .rel.text.dtls_update_parameters
                0x00000000000077c4       0x48 /usr/lib/gcc/i686-linux-gnu/4.8/../../../i386-linux-gnu/crti.o
 .rel.text.check_client_keyexchange
                0x000000000000780c       0x18 /usr/lib/gcc/i686-linux-gnu/4.8/../../../i386-linux-gnu/crti.o
 .rel.text.update_hs_hash
                0x0000000000007824       0x10 /usr/lib/gcc/i686-linux-gnu/4.8/../../../i386-linux-gnu/crti.o
 .rel.text.copy_hs_hash
                0x0000000000007834        0x8 /usr/lib/gcc/i686-linux-gnu/4.8/../../../i386-linux-gnu/crti.o
 .rel.text.clear_hs_hash
                0x000000000000783c       0x10 /usr/lib/gcc/i686-linux-gnu/4.8/../../../i386-linux-gnu/crti.o
 .rel.text.check_finished
                0x000000000000784c       0x58 /usr/lib/gcc/i686-linux-gnu/4.8/../../../i386-linux-gnu/crti.o
 .rel.text.dtls_prepare_record
                0x00000000000078a4       0x90 /usr/lib/gcc/i686-linux-gnu/4.8/../../../i386-linux-gnu/crti.o
 .rel.text.dtls_send_handshake_msg_hash
                0x0000000000007934        0x8 /usr/lib/gcc/i686-linux-gnu/4.8/../../../i386-linux-gnu/crti.o
 .rel.text.dtls_send_multi
                0x000000000000793c       0x98 /usr/lib/gcc/i686-linux-gnu/4.8/../../../i386-linux-gnu/crti.o
 .rel.text.dtls_close
                0x00000000000079d4       0x30 /usr/lib/gcc/i686-linux-gnu/4.8/../../../i386-linux-gnu/crti.o
 .rel.text.dtls_destroy_peer
                0x0000000000007a04       0x28 /usr/lib/gcc/i686-linux-gnu/4.8/../../../i386-linux-gnu/crti.o
 .rel.text.dtls_verify_peer
                0x0000000000007a2c       0x80 /usr/lib/gcc/i686-linux-gnu/4.8/../../../i386-linux-gnu/crti.o
 .rel.text.dtls_send_server_hello
                0x0000000000007aac       0x30 /usr/lib/gcc/i686-linux-gnu/4.8/../../../i386-linux-gnu/crti.o
 .rel.text.dtls_send_server_key_exchange_psk
                0x0000000000007adc       0x40 /usr/lib/gcc/i686-linux-gnu/4.8/../../../i386-linux-gnu/crti.o
 .rel.text.dtls_send_server_hello_msgs
                0x0000000000007b1c        0x8 /usr/lib/gcc/i686-linux-gnu/4.8/../../../i386-linux-gnu/crti.o
 .rel.text.dtls_send_client_key_exchange
                0x0000000000007b24       0x60 /usr/lib/gcc/i686-linux-gnu/4.8/../../../i386-linux-gnu/crti.o
 .rel.text.dtls_send_finished
                0x0000000000007b84       0x38 /usr/lib/gcc/i686-linux-gnu/4.8/../../../i386-linux-gnu/crti.o
 .rel.text.dtls_send_client_hello
                0x0000000000007bbc       0x50 /usr/lib/gcc/i686-linux-gnu/4.8/../../../i386-linux-gnu/crti.o
 .rel.text.check_server_hello
                0x0000000000007c0c       0x38 /usr/lib/gcc/i686-linux-gnu/4.8/../../../i386-linux-gnu/crti.o
 .rel.text.check_server_hello_verify_request
                0x0000000000007c44       0x10 /usr/lib/gcc/i686-linux-gnu/4.8/../../../i386-linux-gnu/crti.o
 .rel.text.check_server_key_exchange_psk
                0x0000000000007c54       0x48 /usr/lib/gcc/i686-linux-gnu/4.8/../../../i386-linux-gnu/crti.o
 .rel.text.check_certificate_request
                0x0000000000007c9c       0x60 /usr/lib/gcc/i686-linux-gnu/4.8/../../../i386-linux-gnu/crti.o
 .rel.text.check_server_hellodone
                0x0000000000007cfc        0x8 /usr/lib/gcc/i686-linux-gnu/4.8/../../../i386-linux-gnu/crti.o
 .rel.text.decrypt_verify
                0x0000000000007d04       0xa8 /usr/lib/gcc/i686-linux-gnu/4.8/../../../i386-linux-gnu/crti.o
 .rel.text.dtls_renegotiate
                0x0000000000007dac       0x20 /usr/lib/gcc/i686-linux-gnu/4.8/../../../i386-linux-gnu/crti.o
 .rel.text.handle_handshake_msg
                0x0000000000007dcc      0x130 /usr/lib/gcc/i686-linux-gnu/4.8/../../../i386-linux-gnu/crti.o
 .rel.text.handle_handshake
                0x0000000000007efc       0xd8 /usr/lib/gcc/i686-linux-gnu/4.8/../../../i386-linux-gnu/crti.o
 .rel.text.handle_ccs
                0x0000000000007fd4       0x10 /usr/lib/gcc/i686-linux-gnu/4.8/../../../i386-linux-gnu/crti.o
 .rel.text.handle_alert
                0x0000000000007fe4       0x30 /usr/lib/gcc/i686-linux-gnu/4.8/../../../i386-linux-gnu/crti.o
 .rel.text.dtls_alert_send_from_err
                0x0000000000008014       0x10 /usr/lib/gcc/i686-linux-gnu/4.8/../../../i386-linux-gnu/crti.o
 .rel.text.dtls_handle_message
                0x0000000000008024       0xc8 /usr/lib/gcc/i686-linux-gnu/4.8/../../../i386-linux-gnu/crti.o
 .rel.text.dtls_new_context
                0x00000000000080ec       0x70 /usr/lib/gcc/i686-linux-gnu/4.8/../../../i386-linux-gnu/crti.o
 .rel.text.dtls_free_context
                0x000000000000815c       0x10 /usr/lib/gcc/i686-linux-gnu/4.8/../../../i386-linux-gnu/crti.o
 .rel.text.dtls_connect_peer
                0x000000000000816c       0x50 /usr/lib/gcc/i686-linux-gnu/4.8/../../../i386-linux-gnu/crti.o
 .rel.text.dtls_connect
                0x00000000000081bc       0x38 /usr/lib/gcc/i686-linux-gnu/4.8/../../../i386-linux-gnu/crti.o
 .rel.text.dtls_retransmit
                0x00000000000081f4       0x50 /usr/lib/gcc/i686-linux-gnu/4.8/../../../i386-linux-gnu/crti.o
 .rel.text.dtls_stop_retransmission
                0x0000000000008244       0x30 /usr/lib/gcc/i686-linux-gnu/4.8/../../../i386-linux-gnu/crti.o
 .rel.text.dtls_check_retransmit
                0x0000000000008274       0x20 /usr/lib/gcc/i686-linux-gnu/4.8/../../../i386-linux-gnu/crti.o
 .rel.text.process_thread_dtls_retransmit_process
                0x0000000000008294       0xa0 /usr/lib/gcc/i686-linux-gnu/4.8/../../../i386-linux-gnu/crti.o
 .rel.text.dtls_cipher_context_get
                0x0000000000008334        0x8 /usr/lib/gcc/i686-linux-gnu/4.8/../../../i386-linux-gnu/crti.o
 .rel.text.dtls_crypto_init
                0x000000000000833c       0x20 /usr/lib/gcc/i686-linux-gnu/4.8/../../../i386-linux-gnu/crti.o
 .rel.text.dtls_handshake_malloc
                0x000000000000835c       0x10 /usr/lib/gcc/i686-linux-gnu/4.8/../../../i386-linux-gnu/crti.o
 .rel.text.dtls_handshake_dealloc
                0x000000000000836c       0x10 /usr/lib/gcc/i686-linux-gnu/4.8/../../../i386-linux-gnu/crti.o
 .rel.text.dtls_security_malloc
                0x000000000000837c       0x10 /usr/lib/gcc/i686-linux-gnu/4.8/../../../i386-linux-gnu/crti.o
 .rel.text.dtls_security_dealloc
                0x000000000000838c       0x10 /usr/lib/gcc/i686-linux-gnu/4.8/../../../i386-linux-gnu/crti.o
 .rel.text.dtls_handshake_new
                0x000000000000839c       0x18 /usr/lib/gcc/i686-linux-gnu/4.8/../../../i386-linux-gnu/crti.o
 .rel.text.dtls_handshake_free
                0x00000000000083b4        0x8 /usr/lib/gcc/i686-linux-gnu/4.8/../../../i386-linux-gnu/crti.o
 .rel.text.dtls_security_new
                0x00000000000083bc       0x18 /usr/lib/gcc/i686-linux-gnu/4.8/../../../i386-linux-gnu/crti.o
 .rel.text.dtls_p_hash
                0x00000000000083d4       0xd0 /usr/lib/gcc/i686-linux-gnu/4.8/../../../i386-linux-gnu/crti.o
 .rel.text.dtls_prf
                0x00000000000084a4       0x10 /usr/lib/gcc/i686-linux-gnu/4.8/../../../i386-linux-gnu/crti.o
 .rel.text.dtls_mac
                0x00000000000084b4       0x38 /usr/lib/gcc/i686-linux-gnu/4.8/../../../i386-linux-gnu/crti.o
 .rel.text.dtls_ccm_encrypt
                0x00000000000084ec       0x18 /usr/lib/gcc/i686-linux-gnu/4.8/../../../i386-linux-gnu/crti.o
 .rel.text.dtls_ccm_decrypt
                0x0000000000008504       0x18 /usr/lib/gcc/i686-linux-gnu/4.8/../../../i386-linux-gnu/crti.o
 .rel.text.dtls_psk_pre_master_secret
                0x000000000000851c       0x18 /usr/lib/gcc/i686-linux-gnu/4.8/../../../i386-linux-gnu/crti.o
 .rel.text.dtls_encrypt
                0x0000000000008534       0x20 /usr/lib/gcc/i686-linux-gnu/4.8/../../../i386-linux-gnu/crti.o
 .rel.text.dtls_decrypt
                0x0000000000008554       0x20 /usr/lib/gcc/i686-linux-gnu/4.8/../../../i386-linux-gnu/crti.o
 .rel.text.dtls_hmac_context_new
                0x0000000000008574       0x10 /usr/lib/gcc/i686-linux-gnu/4.8/../../../i386-linux-gnu/crti.o
 .rel.text.dtls_hmac_context_free
                0x0000000000008584       0x10 /usr/lib/gcc/i686-linux-gnu/4.8/../../../i386-linux-gnu/crti.o
 .rel.text.dtls_hmac_storage_init
                0x0000000000008594       0x10 /usr/lib/gcc/i686-linux-gnu/4.8/../../../i386-linux-gnu/crti.o
 .rel.text.dtls_hmac_update
                0x00000000000085a4       0x10 /usr/lib/gcc/i686-linux-gnu/4.8/../../../i386-linux-gnu/crti.o
 .rel.text.dtls_hmac_new
                0x00000000000085b4        0x8 /usr/lib/gcc/i686-linux-gnu/4.8/../../../i386-linux-gnu/crti.o
 .rel.text.dtls_hmac_init
                0x00000000000085bc       0x28 /usr/lib/gcc/i686-linux-gnu/4.8/../../../i386-linux-gnu/crti.o
 .rel.text.dtls_hmac_finalize
                0x00000000000085e4       0x28 /usr/lib/gcc/i686-linux-gnu/4.8/../../../i386-linux-gnu/crti.o
 .rel.text.netq_malloc_node
                0x000000000000860c       0x10 /usr/lib/gcc/i686-linux-gnu/4.8/../../../i386-linux-gnu/crti.o
 .rel.text.netq_free_node
                0x000000000000861c       0x10 /usr/lib/gcc/i686-linux-gnu/4.8/../../../i386-linux-gnu/crti.o
 .rel.text.netq_init
                0x000000000000862c       0x10 /usr/lib/gcc/i686-linux-gnu/4.8/../../../i386-linux-gnu/crti.o
 .rel.text.netq_insert_node
                0x000000000000863c       0x48 /usr/lib/gcc/i686-linux-gnu/4.8/../../../i386-linux-gnu/crti.o
 .rel.text.netq_head
                0x0000000000008684        0x8 /usr/lib/gcc/i686-linux-gnu/4.8/../../../i386-linux-gnu/crti.o
 .rel.text.netq_next
                0x000000000000868c        0x8 /usr/lib/gcc/i686-linux-gnu/4.8/../../../i386-linux-gnu/crti.o
 .rel.text.netq_remove
                0x0000000000008694        0x8 /usr/lib/gcc/i686-linux-gnu/4.8/../../../i386-linux-gnu/crti.o
 .rel.text.netq_pop_first
                0x000000000000869c        0x8 /usr/lib/gcc/i686-linux-gnu/4.8/../../../i386-linux-gnu/crti.o
 .rel.text.netq_node_new
                0x00000000000086a4       0x18 /usr/lib/gcc/i686-linux-gnu/4.8/../../../i386-linux-gnu/crti.o
 .rel.text.netq_delete_all
                0x00000000000086bc        0x8 /usr/lib/gcc/i686-linux-gnu/4.8/../../../i386-linux-gnu/crti.o
 .rel.text.dtls_clock_init
                0x00000000000086c4       0x10 /usr/lib/gcc/i686-linux-gnu/4.8/../../../i386-linux-gnu/crti.o
 .rel.text.dtls_ticks
                0x00000000000086d4        0x8 /usr/lib/gcc/i686-linux-gnu/4.8/../../../i386-linux-gnu/crti.o
 .rel.text.peer_init
                0x00000000000086dc       0x10 /usr/lib/gcc/i686-linux-gnu/4.8/../../../i386-linux-gnu/crti.o
 .rel.text.dtls_malloc_peer
                0x00000000000086ec       0x10 /usr/lib/gcc/i686-linux-gnu/4.8/../../../i386-linux-gnu/crti.o
 .rel.text.dtls_free_peer
                0x00000000000086fc       0x28 /usr/lib/gcc/i686-linux-gnu/4.8/../../../i386-linux-gnu/crti.o
 .rel.text.dtls_new_peer
                0x0000000000008724       0x30 /usr/lib/gcc/i686-linux-gnu/4.8/../../../i386-linux-gnu/crti.o
 .rel.text.dtls_session_init
                0x0000000000008754       0x18 /usr/lib/gcc/i686-linux-gnu/4.8/../../../i386-linux-gnu/crti.o
 .rel.text.dtls_session_equals
                0x000000000000876c       0x28 /usr/lib/gcc/i686-linux-gnu/4.8/../../../i386-linux-gnu/crti.o
 .rel.text.rijndaelKeySetupEnc
                0x0000000000008794       0x98 /usr/lib/gcc/i686-linux-gnu/4.8/../../../i386-linux-gnu/crti.o
 .rel.text.rijndaelEncrypt
                0x000000000000882c      0x180 /usr/lib/gcc/i686-linux-gnu/4.8/../../../i386-linux-gnu/crti.o
 .rel.text.rijndael_set_key_enc_only
                0x00000000000089ac        0x8 /usr/lib/gcc/i686-linux-gnu/4.8/../../../i386-linux-gnu/crti.o
 .rel.text.rijndael_encrypt
                0x00000000000089b4        0x8 /usr/lib/gcc/i686-linux-gnu/4.8/../../../i386-linux-gnu/crti.o
 .rel.text.block0
                0x00000000000089bc        0x8 /usr/lib/gcc/i686-linux-gnu/4.8/../../../i386-linux-gnu/crti.o
 .rel.text.add_auth_data
                0x00000000000089c4       0x50 /usr/lib/gcc/i686-linux-gnu/4.8/../../../i386-linux-gnu/crti.o
 .rel.text.encrypt
                0x0000000000008a14       0x38 /usr/lib/gcc/i686-linux-gnu/4.8/../../../i386-linux-gnu/crti.o
 .rel.text.mac  0x0000000000008a4c        0x8 /usr/lib/gcc/i686-linux-gnu/4.8/../../../i386-linux-gnu/crti.o
 .rel.text.dtls_ccm_encrypt_message
                0x0000000000008a54       0x28 /usr/lib/gcc/i686-linux-gnu/4.8/../../../i386-linux-gnu/crti.o
 .rel.text.dtls_ccm_decrypt_message
                0x0000000000008a7c       0x28 /usr/lib/gcc/i686-linux-gnu/4.8/../../../i386-linux-gnu/crti.o
 .rel.text.SHA256_Init
                0x0000000000008aa4       0x18 /usr/lib/gcc/i686-linux-gnu/4.8/../../../i386-linux-gnu/crti.o
 .rel.text.SHA256_Transform
                0x0000000000008abc       0x10 /usr/lib/gcc/i686-linux-gnu/4.8/../../../i386-linux-gnu/crti.o
 .rel.text.SHA256_Update
                0x0000000000008acc       0x38 /usr/lib/gcc/i686-linux-gnu/4.8/../../../i386-linux-gnu/crti.o
 .rel.text.SHA256_Final
                0x0000000000008b04       0x48 /usr/lib/gcc/i686-linux-gnu/4.8/../../../i386-linux-gnu/crti.o
 .rel.text.SHA256_End
                0x0000000000008b4c       0x40 /usr/lib/gcc/i686-linux-gnu/4.8/../../../i386-linux-gnu/crti.o
 .rel.text.SHA256_Data
                0x0000000000008b8c       0x20 /usr/lib/gcc/i686-linux-gnu/4.8/../../../i386-linux-gnu/crti.o
 .rel.text.dtls_package_name
                0x0000000000008bac        0x8 /usr/lib/gcc/i686-linux-gnu/4.8/../../../i386-linux-gnu/crti.o
 .rel.text.dtls_package_version
                0x0000000000008bb4        0x8 /usr/lib/gcc/i686-linux-gnu/4.8/../../../i386-linux-gnu/crti.o
 .rel.text.dtls_get_log_level
                0x0000000000008bbc        0x8 /usr/lib/gcc/i686-linux-gnu/4.8/../../../i386-linux-gnu/crti.o
 .rel.text.dtls_set_log_level
                0x0000000000008bc4        0x8 /usr/lib/gcc/i686-linux-gnu/4.8/../../../i386-linux-gnu/crti.o
 .rel.text.dsrv_print_addr
                0x0000000000008bcc       0x20 /usr/lib/gcc/i686-linux-gnu/4.8/../../../i386-linux-gnu/crti.o
 .rel.text.hexdump
                0x0000000000008bec       0x40 /usr/lib/gcc/i686-linux-gnu/4.8/../../../i386-linux-gnu/crti.o
 .rel.text.dump
                0x0000000000008c2c       0x10 /usr/lib/gcc/i686-linux-gnu/4.8/../../../i386-linux-gnu/crti.o
 .rel.text.dtls_dsrv_log_addr
                0x0000000000008c3c       0x18 /usr/lib/gcc/i686-linux-gnu/4.8/../../../i386-linux-gnu/crti.o
 .rel.text.dtls_dsrv_hexdump_log
                0x0000000000008c54       0xc8 /usr/lib/gcc/i686-linux-gnu/4.8/../../../i386-linux-gnu/crti.o
 .rel.text.doActionsBeforeTick
                0x0000000000008d1c       0x10 /usr/lib/gcc/i686-linux-gnu/4.8/../../../i386-linux-gnu/crti.o
 .rel.text.doActionsAfterTick
                0x0000000000008d2c       0x10 /usr/lib/gcc/i686-linux-gnu/4.8/../../../i386-linux-gnu/crti.o
 .rel.text.cooja_mt_init
                0x0000000000008d3c        0x8 /usr/lib/gcc/i686-linux-gnu/4.8/../../../i386-linux-gnu/crti.o
 .rel.text.cooja_mt_remove
                0x0000000000008d44        0x8 /usr/lib/gcc/i686-linux-gnu/4.8/../../../i386-linux-gnu/crti.o
 .rel.text.cooja_mt_start
                0x0000000000008d4c        0x8 /usr/lib/gcc/i686-linux-gnu/4.8/../../../i386-linux-gnu/crti.o
 .rel.text.cooja_mt_exec
                0x0000000000008d54       0x10 /usr/lib/gcc/i686-linux-gnu/4.8/../../../i386-linux-gnu/crti.o
 .rel.text.cooja_mt_exit
                0x0000000000008d64       0x18 /usr/lib/gcc/i686-linux-gnu/4.8/../../../i386-linux-gnu/crti.o
 .rel.text.cooja_mt_yield
                0x0000000000008d7c       0x18 /usr/lib/gcc/i686-linux-gnu/4.8/../../../i386-linux-gnu/crti.o
 .rel.text.cooja_mtarch_start
                0x0000000000008d94        0x8 /usr/lib/gcc/i686-linux-gnu/4.8/../../../i386-linux-gnu/crti.o
 .rel.text.cooja_sw
                0x0000000000008d9c        0x8 /usr/lib/gcc/i686-linux-gnu/4.8/../../../i386-linux-gnu/crti.o
 .rel.text.cooja_mtarch_exec
                0x0000000000008da4       0x18 /usr/lib/gcc/i686-linux-gnu/4.8/../../../i386-linux-gnu/crti.o
 .rel.text.cooja_mtarch_yield
                0x0000000000008dbc        0x8 /usr/lib/gcc/i686-linux-gnu/4.8/../../../i386-linux-gnu/crti.o
 .rel.text.rtimer_arch_init
                0x0000000000008dc4       0x18 /usr/lib/gcc/i686-linux-gnu/4.8/../../../i386-linux-gnu/crti.o
 .rel.text.rtimer_arch_schedule
                0x0000000000008ddc       0x18 /usr/lib/gcc/i686-linux-gnu/4.8/../../../i386-linux-gnu/crti.o
 .rel.text.rtimer_arch_next
                0x0000000000008df4       0x10 /usr/lib/gcc/i686-linux-gnu/4.8/../../../i386-linux-gnu/crti.o
 .rel.text.rtimer_arch_pending
                0x0000000000008e04        0x8 /usr/lib/gcc/i686-linux-gnu/4.8/../../../i386-linux-gnu/crti.o
 .rel.text.rtimer_arch_check
                0x0000000000008e0c       0x30 /usr/lib/gcc/i686-linux-gnu/4.8/../../../i386-linux-gnu/crti.o
 .rel.text.rtimer_arch_now
                0x0000000000008e3c       0x10 /usr/lib/gcc/i686-linux-gnu/4.8/../../../i386-linux-gnu/crti.o
 .rel.text.beep_alarm
                0x0000000000008e4c        0x8 /usr/lib/gcc/i686-linux-gnu/4.8/../../../i386-linux-gnu/crti.o
 .rel.text.beep_beep
                0x0000000000008e54        0x8 /usr/lib/gcc/i686-linux-gnu/4.8/../../../i386-linux-gnu/crti.o
 .rel.text.beep
                0x0000000000008e5c        0x8 /usr/lib/gcc/i686-linux-gnu/4.8/../../../i386-linux-gnu/crti.o
 .rel.text.beep_down
                0x0000000000008e64        0x8 /usr/lib/gcc/i686-linux-gnu/4.8/../../../i386-linux-gnu/crti.o
 .rel.text.beep_on
                0x0000000000008e6c        0x8 /usr/lib/gcc/i686-linux-gnu/4.8/../../../i386-linux-gnu/crti.o
 .rel.text.beep_off
                0x0000000000008e74        0x8 /usr/lib/gcc/i686-linux-gnu/4.8/../../../i386-linux-gnu/crti.o
 .rel.text.beep_spinup
                0x0000000000008e7c        0x8 /usr/lib/gcc/i686-linux-gnu/4.8/../../../i386-linux-gnu/crti.o
 .rel.text.beep_quick
                0x0000000000008e84        0x8 /usr/lib/gcc/i686-linux-gnu/4.8/../../../i386-linux-gnu/crti.o
 .rel.text.beep_long
                0x0000000000008e8c        0x8 /usr/lib/gcc/i686-linux-gnu/4.8/../../../i386-linux-gnu/crti.o
 .rel.text.value
                0x0000000000008e94       0x28 /usr/lib/gcc/i686-linux-gnu/4.8/../../../i386-linux-gnu/crti.o
 .rel.text.configure
                0x0000000000008ebc       0x40 /usr/lib/gcc/i686-linux-gnu/4.8/../../../i386-linux-gnu/crti.o
 .rel.text.status
                0x0000000000008efc       0x18 /usr/lib/gcc/i686-linux-gnu/4.8/../../../i386-linux-gnu/crti.o
 .rel.text.doInterfaceActionsBeforeTick
                0x0000000000008f14      0x188 /usr/lib/gcc/i686-linux-gnu/4.8/../../../i386-linux-gnu/crti.o
 .rel.text.leds_arch_init
                0x000000000000909c        0x8 /usr/lib/gcc/i686-linux-gnu/4.8/../../../i386-linux-gnu/crti.o
 .rel.text.leds_arch_get
                0x00000000000090a4        0x8 /usr/lib/gcc/i686-linux-gnu/4.8/../../../i386-linux-gnu/crti.o
 .rel.text.leds_arch_set
                0x00000000000090ac       0x10 /usr/lib/gcc/i686-linux-gnu/4.8/../../../i386-linux-gnu/crti.o
 .rel.text.rs232_set_input
                0x00000000000090bc        0x8 /usr/lib/gcc/i686-linux-gnu/4.8/../../../i386-linux-gnu/crti.o
 .rel.text.rs232_send
                0x00000000000090c4       0x10 /usr/lib/gcc/i686-linux-gnu/4.8/../../../i386-linux-gnu/crti.o
 .rel.text.rs232_print
                0x00000000000090d4       0x10 /usr/lib/gcc/i686-linux-gnu/4.8/../../../i386-linux-gnu/crti.o
 .rel.text.slip_arch_writeb
                0x00000000000090e4        0x8 /usr/lib/gcc/i686-linux-gnu/4.8/../../../i386-linux-gnu/crti.o
 .rel.text.clock_time
                0x00000000000090ec        0x8 /usr/lib/gcc/i686-linux-gnu/4.8/../../../i386-linux-gnu/crti.o
 .rel.text.clock_seconds
                0x00000000000090f4        0x8 /usr/lib/gcc/i686-linux-gnu/4.8/../../../i386-linux-gnu/crti.o
 .rel.text.simlog_char
                0x00000000000090fc       0x30 /usr/lib/gcc/i686-linux-gnu/4.8/../../../i386-linux-gnu/crti.o
 .rel.text.simlog
                0x000000000000912c       0x50 /usr/lib/gcc/i686-linux-gnu/4.8/../../../i386-linux-gnu/crti.o
 .rel.text.log_message
                0x000000000000917c       0x10 /usr/lib/gcc/i686-linux-gnu/4.8/../../../i386-linux-gnu/crti.o
 .rel.text.log_set_putchar_with_slip
                0x000000000000918c        0x8 /usr/lib/gcc/i686-linux-gnu/4.8/../../../i386-linux-gnu/crti.o
 .rel.text.putchar
                0x0000000000009194       0x50 /usr/lib/gcc/i686-linux-gnu/4.8/../../../i386-linux-gnu/crti.o
 .rel.text.puts
                0x00000000000091e4       0x10 /usr/lib/gcc/i686-linux-gnu/4.8/../../../i386-linux-gnu/crti.o
 .rel.text.printf
                0x00000000000091f4       0x20 /usr/lib/gcc/i686-linux-gnu/4.8/../../../i386-linux-gnu/crti.o
 .rel.text.cfs_open
                0x0000000000009214       0x48 /usr/lib/gcc/i686-linux-gnu/4.8/../../../i386-linux-gnu/crti.o
 .rel.text.cfs_close
                0x000000000000925c        0x8 /usr/lib/gcc/i686-linux-gnu/4.8/../../../i386-linux-gnu/crti.o
 .rel.text.cfs_read
                0x0000000000009264       0x70 /usr/lib/gcc/i686-linux-gnu/4.8/../../../i386-linux-gnu/crti.o
 .rel.text.cfs_write
                0x00000000000092d4       0xb0 /usr/lib/gcc/i686-linux-gnu/4.8/../../../i386-linux-gnu/crti.o
 .rel.text.cfs_seek
                0x0000000000009384       0x68 /usr/lib/gcc/i686-linux-gnu/4.8/../../../i386-linux-gnu/crti.o
 .rel.text.cfs_remove
                0x00000000000093ec       0x10 /usr/lib/gcc/i686-linux-gnu/4.8/../../../i386-linux-gnu/crti.o
 .rel.text.packetbuf_set_attr
                0x00000000000093fc       0x30 /usr/lib/gcc/i686-linux-gnu/4.8/../../../i386-linux-gnu/crti.o
 .rel.text.set_send_on_cca
                0x000000000000942c        0x8 /usr/lib/gcc/i686-linux-gnu/4.8/../../../i386-linux-gnu/crti.o
 .rel.text.set_frame_filtering
                0x0000000000009434        0x8 /usr/lib/gcc/i686-linux-gnu/4.8/../../../i386-linux-gnu/crti.o
 .rel.text.set_auto_ack
                0x000000000000943c        0x8 /usr/lib/gcc/i686-linux-gnu/4.8/../../../i386-linux-gnu/crti.o
 .rel.text.set_poll_mode
                0x0000000000009444        0x8 /usr/lib/gcc/i686-linux-gnu/4.8/../../../i386-linux-gnu/crti.o
 .rel.text.radio_set_channel
                0x000000000000944c        0x8 /usr/lib/gcc/i686-linux-gnu/4.8/../../../i386-linux-gnu/crti.o
 .rel.text.radio_set_txpower
                0x0000000000009454        0x8 /usr/lib/gcc/i686-linux-gnu/4.8/../../../i386-linux-gnu/crti.o
 .rel.text.radio_signal_strength_last
                0x000000000000945c        0x8 /usr/lib/gcc/i686-linux-gnu/4.8/../../../i386-linux-gnu/crti.o
 .rel.text.radio_signal_strength_current
                0x0000000000009464        0x8 /usr/lib/gcc/i686-linux-gnu/4.8/../../../i386-linux-gnu/crti.o
 .rel.text.radio_LQI
                0x000000000000946c        0x8 /usr/lib/gcc/i686-linux-gnu/4.8/../../../i386-linux-gnu/crti.o
 .rel.text.radio_on
                0x0000000000009474        0x8 /usr/lib/gcc/i686-linux-gnu/4.8/../../../i386-linux-gnu/crti.o
 .rel.text.radio_off
                0x000000000000947c        0x8 /usr/lib/gcc/i686-linux-gnu/4.8/../../../i386-linux-gnu/crti.o
 .rel.text.radio_read
                0x0000000000009484       0x68 /usr/lib/gcc/i686-linux-gnu/4.8/../../../i386-linux-gnu/crti.o
 .rel.text.channel_clear
                0x00000000000094ec        0x8 /usr/lib/gcc/i686-linux-gnu/4.8/../../../i386-linux-gnu/crti.o
 .rel.text.radio_send
                0x00000000000094f4       0x78 /usr/lib/gcc/i686-linux-gnu/4.8/../../../i386-linux-gnu/crti.o
 .rel.text.prepare_packet
                0x000000000000956c        0x8 /usr/lib/gcc/i686-linux-gnu/4.8/../../../i386-linux-gnu/crti.o
 .rel.text.transmit_packet
                0x0000000000009574       0x10 /usr/lib/gcc/i686-linux-gnu/4.8/../../../i386-linux-gnu/crti.o
 .rel.text.receiving_packet
                0x0000000000009584        0x8 /usr/lib/gcc/i686-linux-gnu/4.8/../../../i386-linux-gnu/crti.o
 .rel.text.pending_packet
                0x000000000000958c       0x10 /usr/lib/gcc/i686-linux-gnu/4.8/../../../i386-linux-gnu/crti.o
 .rel.text.process_thread_cooja_radio_process
                0x000000000000959c       0x28 /usr/lib/gcc/i686-linux-gnu/4.8/../../../i386-linux-gnu/crti.o
 .rel.text.init
                0x00000000000095c4       0x60 /usr/lib/gcc/i686-linux-gnu/4.8/../../../i386-linux-gnu/crti.o
 .rel.text.get_value
                0x0000000000009624       0x30 /usr/lib/gcc/i686-linux-gnu/4.8/../../../i386-linux-gnu/crti.o
 .rel.text.set_value
                0x0000000000009654        0x8 /usr/lib/gcc/i686-linux-gnu/4.8/../../../i386-linux-gnu/crti.o
 .rel.text.get_object
                0x000000000000965c       0x10 /usr/lib/gcc/i686-linux-gnu/4.8/../../../i386-linux-gnu/crti.o
 .rel.text.eeprom_read
                0x000000000000966c       0x28 /usr/lib/gcc/i686-linux-gnu/4.8/../../../i386-linux-gnu/crti.o
 .rel.text.eeprom_write
                0x0000000000009694       0x28 /usr/lib/gcc/i686-linux-gnu/4.8/../../../i386-linux-gnu/crti.o
 .rel.text.random_init
                0x00000000000096bc        0x8 /usr/lib/gcc/i686-linux-gnu/4.8/../../../i386-linux-gnu/crti.o
 .rel.text.random_rand
                0x00000000000096c4        0x8 /usr/lib/gcc/i686-linux-gnu/4.8/../../../i386-linux-gnu/crti.o
 .rel.text.get_sensor_index
                0x00000000000096cc       0x10 /usr/lib/gcc/i686-linux-gnu/4.8/../../../i386-linux-gnu/crti.o
 .rel.text.sensors_first
                0x00000000000096dc        0x8 /usr/lib/gcc/i686-linux-gnu/4.8/../../../i386-linux-gnu/crti.o
 .rel.text.sensors_next
                0x00000000000096e4        0x8 /usr/lib/gcc/i686-linux-gnu/4.8/../../../i386-linux-gnu/crti.o
 .rel.text.sensors_changed
                0x00000000000096ec       0x20 /usr/lib/gcc/i686-linux-gnu/4.8/../../../i386-linux-gnu/crti.o
 .rel.text.sensors_find
                0x000000000000970c       0x28 /usr/lib/gcc/i686-linux-gnu/4.8/../../../i386-linux-gnu/crti.o
 .rel.text.process_thread_sensors_process
                0x0000000000009734      0x108 /usr/lib/gcc/i686-linux-gnu/4.8/../../../i386-linux-gnu/crti.o
 .rel.text.autostart_start
                0x000000000000983c        0x8 /usr/lib/gcc/i686-linux-gnu/4.8/../../../i386-linux-gnu/crti.o
 .rel.text.autostart_exit
                0x0000000000009844        0x8 /usr/lib/gcc/i686-linux-gnu/4.8/../../../i386-linux-gnu/crti.o
 .rel.text.process_thread_ctimer_process
                0x000000000000984c       0x58 /usr/lib/gcc/i686-linux-gnu/4.8/../../../i386-linux-gnu/crti.o
 .rel.text.ctimer_init
                0x00000000000098a4       0x28 /usr/lib/gcc/i686-linux-gnu/4.8/../../../i386-linux-gnu/crti.o
 .rel.text.ctimer_set
                0x00000000000098cc       0x10 /usr/lib/gcc/i686-linux-gnu/4.8/../../../i386-linux-gnu/crti.o
 .rel.text.ctimer_set_with_process
                0x00000000000098dc       0x40 /usr/lib/gcc/i686-linux-gnu/4.8/../../../i386-linux-gnu/crti.o
 .rel.text.ctimer_reset
                0x000000000000991c       0x40 /usr/lib/gcc/i686-linux-gnu/4.8/../../../i386-linux-gnu/crti.o
 .rel.text.ctimer_restart
                0x000000000000995c       0x40 /usr/lib/gcc/i686-linux-gnu/4.8/../../../i386-linux-gnu/crti.o
 .rel.text.ctimer_stop
                0x000000000000999c       0x20 /usr/lib/gcc/i686-linux-gnu/4.8/../../../i386-linux-gnu/crti.o
 .rel.text.ctimer_expired
                0x00000000000099bc       0x20 /usr/lib/gcc/i686-linux-gnu/4.8/../../../i386-linux-gnu/crti.o
 .rel.text.update_time
                0x00000000000099dc       0x28 /usr/lib/gcc/i686-linux-gnu/4.8/../../../i386-linux-gnu/crti.o
 .rel.text.process_thread_etimer_process
                0x0000000000009a04       0x60 /usr/lib/gcc/i686-linux-gnu/4.8/../../../i386-linux-gnu/crti.o
 .rel.text.etimer_request_poll
                0x0000000000009a64       0x10 /usr/lib/gcc/i686-linux-gnu/4.8/../../../i386-linux-gnu/crti.o
 .rel.text.add_timer
                0x0000000000009a74       0x30 /usr/lib/gcc/i686-linux-gnu/4.8/../../../i386-linux-gnu/crti.o
 .rel.text.etimer_set
                0x0000000000009aa4        0x8 /usr/lib/gcc/i686-linux-gnu/4.8/../../../i386-linux-gnu/crti.o
 .rel.text.etimer_reset_with_new_interval
                0x0000000000009aac        0x8 /usr/lib/gcc/i686-linux-gnu/4.8/../../../i386-linux-gnu/crti.o
 .rel.text.etimer_reset
                0x0000000000009ab4        0x8 /usr/lib/gcc/i686-linux-gnu/4.8/../../../i386-linux-gnu/crti.o
 .rel.text.etimer_restart
                0x0000000000009abc        0x8 /usr/lib/gcc/i686-linux-gnu/4.8/../../../i386-linux-gnu/crti.o
 .rel.text.etimer_pending
                0x0000000000009ac4        0x8 /usr/lib/gcc/i686-linux-gnu/4.8/../../../i386-linux-gnu/crti.o
 .rel.text.etimer_next_expiration_time
                0x0000000000009acc       0x10 /usr/lib/gcc/i686-linux-gnu/4.8/../../../i386-linux-gnu/crti.o
 .rel.text.etimer_stop
                0x0000000000009adc       0x20 /usr/lib/gcc/i686-linux-gnu/4.8/../../../i386-linux-gnu/crti.o
 .rel.text.process_alloc_event
                0x0000000000009afc       0x10 /usr/lib/gcc/i686-linux-gnu/4.8/../../../i386-linux-gnu/crti.o
 .rel.text.process_start
                0x0000000000009b0c       0x20 /usr/lib/gcc/i686-linux-gnu/4.8/../../../i386-linux-gnu/crti.o
 .rel.text.exit_process
                0x0000000000009b2c       0x50 /usr/lib/gcc/i686-linux-gnu/4.8/../../../i386-linux-gnu/crti.o
 .rel.text.call_process
                0x0000000000009b7c        0x8 /usr/lib/gcc/i686-linux-gnu/4.8/../../../i386-linux-gnu/crti.o
 .rel.text.process_exit
                0x0000000000009b84        0x8 /usr/lib/gcc/i686-linux-gnu/4.8/../../../i386-linux-gnu/crti.o
 .rel.text.process_init
                0x0000000000009b8c       0x38 /usr/lib/gcc/i686-linux-gnu/4.8/../../../i386-linux-gnu/crti.o
 .rel.text.do_poll
                0x0000000000009bc4       0x10 /usr/lib/gcc/i686-linux-gnu/4.8/../../../i386-linux-gnu/crti.o
 .rel.text.do_event
                0x0000000000009bd4       0x68 /usr/lib/gcc/i686-linux-gnu/4.8/../../../i386-linux-gnu/crti.o
 .rel.text.process_run
                0x0000000000009c3c       0x18 /usr/lib/gcc/i686-linux-gnu/4.8/../../../i386-linux-gnu/crti.o
 .rel.text.process_nevents
                0x0000000000009c54       0x10 /usr/lib/gcc/i686-linux-gnu/4.8/../../../i386-linux-gnu/crti.o
 .rel.text.process_post
                0x0000000000009c64       0x40 /usr/lib/gcc/i686-linux-gnu/4.8/../../../i386-linux-gnu/crti.o
 .rel.text.process_post_synch
                0x0000000000009ca4       0x10 /usr/lib/gcc/i686-linux-gnu/4.8/../../../i386-linux-gnu/crti.o
 .rel.text.process_poll
                0x0000000000009cb4        0x8 /usr/lib/gcc/i686-linux-gnu/4.8/../../../i386-linux-gnu/crti.o
 .rel.text.rtimer_init
                0x0000000000009cbc        0x8 /usr/lib/gcc/i686-linux-gnu/4.8/../../../i386-linux-gnu/crti.o
 .rel.text.rtimer_set
                0x0000000000009cc4       0x18 /usr/lib/gcc/i686-linux-gnu/4.8/../../../i386-linux-gnu/crti.o
 .rel.text.rtimer_run_next
                0x0000000000009cdc       0x30 /usr/lib/gcc/i686-linux-gnu/4.8/../../../i386-linux-gnu/crti.o
 .rel.text.timer_set
                0x0000000000009d0c        0x8 /usr/lib/gcc/i686-linux-gnu/4.8/../../../i386-linux-gnu/crti.o
 .rel.text.timer_restart
                0x0000000000009d14        0x8 /usr/lib/gcc/i686-linux-gnu/4.8/../../../i386-linux-gnu/crti.o
 .rel.text.timer_expired
                0x0000000000009d1c        0x8 /usr/lib/gcc/i686-linux-gnu/4.8/../../../i386-linux-gnu/crti.o
 .rel.text.timer_remaining
                0x0000000000009d24        0x8 /usr/lib/gcc/i686-linux-gnu/4.8/../../../i386-linux-gnu/crti.o
 .rel.text.serial_line_input_byte
                0x0000000000009d2c       0x48 /usr/lib/gcc/i686-linux-gnu/4.8/../../../i386-linux-gnu/crti.o
 .rel.text.process_thread_serial_line_process
                0x0000000000009d74       0x90 /usr/lib/gcc/i686-linux-gnu/4.8/../../../i386-linux-gnu/crti.o
 .rel.text.serial_line_init
                0x0000000000009e04       0x28 /usr/lib/gcc/i686-linux-gnu/4.8/../../../i386-linux-gnu/crti.o
 .rel.text._xassert
                0x0000000000009e2c       0x10 /usr/lib/gcc/i686-linux-gnu/4.8/../../../i386-linux-gnu/crti.o
 .rel.text.list_add
                0x0000000000009e3c       0x10 /usr/lib/gcc/i686-linux-gnu/4.8/../../../i386-linux-gnu/crti.o
 .rel.text.list_push
                0x0000000000009e4c        0x8 /usr/lib/gcc/i686-linux-gnu/4.8/../../../i386-linux-gnu/crti.o
 .rel.text.list_insert
                0x0000000000009e54        0x8 /usr/lib/gcc/i686-linux-gnu/4.8/../../../i386-linux-gnu/crti.o
 .rel.text.memb_init
                0x0000000000009e5c       0x10 /usr/lib/gcc/i686-linux-gnu/4.8/../../../i386-linux-gnu/crti.o
 .rel.text.packetbuf_attr
                0x0000000000009e6c       0x28 /usr/lib/gcc/i686-linux-gnu/4.8/../../../i386-linux-gnu/crti.o
 .rel.text.packetbuf_set_addr
                0x0000000000009e94       0x30 /usr/lib/gcc/i686-linux-gnu/4.8/../../../i386-linux-gnu/crti.o
 .rel.text.packetbuf_addr
                0x0000000000009ec4       0x40 /usr/lib/gcc/i686-linux-gnu/4.8/../../../i386-linux-gnu/crti.o
 .rel.text.clear_fragments
                0x0000000000009f04       0x20 /usr/lib/gcc/i686-linux-gnu/4.8/../../../i386-linux-gnu/crti.o
 .rel.text.timeout_fragments
                0x0000000000009f24       0x18 /usr/lib/gcc/i686-linux-gnu/4.8/../../../i386-linux-gnu/crti.o
 .rel.text.store_fragment
                0x0000000000009f3c       0x68 /usr/lib/gcc/i686-linux-gnu/4.8/../../../i386-linux-gnu/crti.o
 .rel.text.add_fragment
                0x0000000000009fa4       0x80 /usr/lib/gcc/i686-linux-gnu/4.8/../../../i386-linux-gnu/crti.o
 .rel.text.copy_frags2uip
                0x000000000000a024       0x58 /usr/lib/gcc/i686-linux-gnu/4.8/../../../i386-linux-gnu/crti.o
 .rel.text.rime_sniffer_add
                0x000000000000a07c        0x8 /usr/lib/gcc/i686-linux-gnu/4.8/../../../i386-linux-gnu/crti.o
 .rel.text.rime_sniffer_remove
                0x000000000000a084        0x8 /usr/lib/gcc/i686-linux-gnu/4.8/../../../i386-linux-gnu/crti.o
 .rel.text.set_packet_attrs
                0x000000000000a08c       0x60 /usr/lib/gcc/i686-linux-gnu/4.8/../../../i386-linux-gnu/crti.o
 .rel.text.addr_context_lookup_by_prefix
                0x000000000000a0ec       0x20 /usr/lib/gcc/i686-linux-gnu/4.8/../../../i386-linux-gnu/crti.o
 .rel.text.addr_context_lookup_by_number
                0x000000000000a10c       0x18 /usr/lib/gcc/i686-linux-gnu/4.8/../../../i386-linux-gnu/crti.o
 .rel.text.compress_addr_64
                0x000000000000a124       0x40 /usr/lib/gcc/i686-linux-gnu/4.8/../../../i386-linux-gnu/crti.o
 .rel.text.uncompress_addr
                0x000000000000a164       0x38 /usr/lib/gcc/i686-linux-gnu/4.8/../../../i386-linux-gnu/crti.o
 .rel.text.compress_hdr_iphc
                0x000000000000a19c      0x5f8 /usr/lib/gcc/i686-linux-gnu/4.8/../../../i386-linux-gnu/crti.o
 .rel.text.uncompress_hdr_iphc
                0x000000000000a794      0x2f0 /usr/lib/gcc/i686-linux-gnu/4.8/../../../i386-linux-gnu/crti.o
 .rel.text.compress_hdr_ipv6
                0x000000000000aa84       0x58 /usr/lib/gcc/i686-linux-gnu/4.8/../../../i386-linux-gnu/crti.o
 .rel.text.packet_sent
                0x000000000000aadc       0x38 /usr/lib/gcc/i686-linux-gnu/4.8/../../../i386-linux-gnu/crti.o
 .rel.text.send_packet
                0x000000000000ab14      0x120 /usr/lib/gcc/i686-linux-gnu/4.8/../../../i386-linux-gnu/crti.o
 .rel.text.output
                0x000000000000ac34      0x2c8 /usr/lib/gcc/i686-linux-gnu/4.8/../../../i386-linux-gnu/crti.o
 .rel.text.input
                0x000000000000aefc      0x200 /usr/lib/gcc/i686-linux-gnu/4.8/../../../i386-linux-gnu/crti.o
 .rel.text.sicslowpan_init
                0x000000000000b0fc       0x38 /usr/lib/gcc/i686-linux-gnu/4.8/../../../i386-linux-gnu/crti.o
 .rel.text.sicslowpan_get_last_rssi
                0x000000000000b134        0x8 /usr/lib/gcc/i686-linux-gnu/4.8/../../../i386-linux-gnu/crti.o
 .rel.text.uip_ds6_neighbors_init
                0x000000000000b13c       0x20 /usr/lib/gcc/i686-linux-gnu/4.8/../../../i386-linux-gnu/crti.o
 .rel.text.uip_ds6_nbr_add
                0x000000000000b15c       0x38 /usr/lib/gcc/i686-linux-gnu/4.8/../../../i386-linux-gnu/crti.o
 .rel.text.uip_ds6_nbr_rm
                0x000000000000b194       0x20 /usr/lib/gcc/i686-linux-gnu/4.8/../../../i386-linux-gnu/crti.o
 .rel.text.uip_ds6_nbr_get_ll
                0x000000000000b1b4       0x10 /usr/lib/gcc/i686-linux-gnu/4.8/../../../i386-linux-gnu/crti.o
 .rel.text.uip_ds6_nbr_num
                0x000000000000b1c4       0x20 /usr/lib/gcc/i686-linux-gnu/4.8/../../../i386-linux-gnu/crti.o
 .rel.text.uip_ds6_nbr_lookup
                0x000000000000b1e4       0x28 /usr/lib/gcc/i686-linux-gnu/4.8/../../../i386-linux-gnu/crti.o
 .rel.text.uip_ds6_nbr_ll_lookup
                0x000000000000b20c       0x10 /usr/lib/gcc/i686-linux-gnu/4.8/../../../i386-linux-gnu/crti.o
 .rel.text.uip_ds6_nbr_ipaddr_from_lladdr
                0x000000000000b21c        0x8 /usr/lib/gcc/i686-linux-gnu/4.8/../../../i386-linux-gnu/crti.o
 .rel.text.uip_ds6_nbr_lladdr_from_ipaddr
                0x000000000000b224       0x10 /usr/lib/gcc/i686-linux-gnu/4.8/../../../i386-linux-gnu/crti.o
 .rel.text.uip_ds6_link_neighbor_callback
                0x000000000000b234       0x20 /usr/lib/gcc/i686-linux-gnu/4.8/../../../i386-linux-gnu/crti.o
 .rel.text.uip_ds6_neighbor_periodic
                0x000000000000b254       0xb8 /usr/lib/gcc/i686-linux-gnu/4.8/../../../i386-linux-gnu/crti.o
 .rel.text.uip_ds6_nbr_refresh_reachable_state
                0x000000000000b30c       0x10 /usr/lib/gcc/i686-linux-gnu/4.8/../../../i386-linux-gnu/crti.o
 .rel.text.uip_ds6_get_least_lifetime_neighbor
                0x000000000000b31c       0x30 /usr/lib/gcc/i686-linux-gnu/4.8/../../../i386-linux-gnu/crti.o
 .rel.text.call_route_callback
                0x000000000000b34c       0x30 /usr/lib/gcc/i686-linux-gnu/4.8/../../../i386-linux-gnu/crti.o
 .rel.text.uip_ds6_notification_add
                0x000000000000b37c       0x10 /usr/lib/gcc/i686-linux-gnu/4.8/../../../i386-linux-gnu/crti.o
 .rel.text.uip_ds6_notification_rm
                0x000000000000b38c       0x10 /usr/lib/gcc/i686-linux-gnu/4.8/../../../i386-linux-gnu/crti.o
 .rel.text.uip_ds6_route_init
                0x000000000000b39c       0x68 /usr/lib/gcc/i686-linux-gnu/4.8/../../../i386-linux-gnu/crti.o
 .rel.text.uip_ds6_route_nexthop_lladdr
                0x000000000000b404       0x10 /usr/lib/gcc/i686-linux-gnu/4.8/../../../i386-linux-gnu/crti.o
 .rel.text.uip_ds6_route_nexthop
                0x000000000000b414        0x8 /usr/lib/gcc/i686-linux-gnu/4.8/../../../i386-linux-gnu/crti.o
 .rel.text.uip_ds6_route_head
                0x000000000000b41c       0x10 /usr/lib/gcc/i686-linux-gnu/4.8/../../../i386-linux-gnu/crti.o
 .rel.text.uip_ds6_route_next
                0x000000000000b42c        0x8 /usr/lib/gcc/i686-linux-gnu/4.8/../../../i386-linux-gnu/crti.o
 .rel.text.uip_ds6_route_is_nexthop
                0x000000000000b434       0x18 /usr/lib/gcc/i686-linux-gnu/4.8/../../../i386-linux-gnu/crti.o
 .rel.text.uip_ds6_route_num_routes
                0x000000000000b44c        0x8 /usr/lib/gcc/i686-linux-gnu/4.8/../../../i386-linux-gnu/crti.o
 .rel.text.uip_ds6_route_lookup
                0x000000000000b454       0x48 /usr/lib/gcc/i686-linux-gnu/4.8/../../../i386-linux-gnu/crti.o
 .rel.text.uip_ds6_route_add
                0x000000000000b49c       0xd0 /usr/lib/gcc/i686-linux-gnu/4.8/../../../i386-linux-gnu/crti.o
 .rel.text.uip_ds6_route_rm
                0x000000000000b56c       0x80 /usr/lib/gcc/i686-linux-gnu/4.8/../../../i386-linux-gnu/crti.o
 .rel.text.rm_routelist
                0x000000000000b5ec       0x28 /usr/lib/gcc/i686-linux-gnu/4.8/../../../i386-linux-gnu/crti.o
 .rel.text.uip_ds6_route_rm_by_nexthop
                0x000000000000b614       0x18 /usr/lib/gcc/i686-linux-gnu/4.8/../../../i386-linux-gnu/crti.o
 .rel.text.uip_ds6_defrt_head
                0x000000000000b62c       0x10 /usr/lib/gcc/i686-linux-gnu/4.8/../../../i386-linux-gnu/crti.o
 .rel.text.uip_ds6_defrt_add
                0x000000000000b63c       0x30 /usr/lib/gcc/i686-linux-gnu/4.8/../../../i386-linux-gnu/crti.o
 .rel.text.uip_ds6_defrt_rm
                0x000000000000b66c       0x38 /usr/lib/gcc/i686-linux-gnu/4.8/../../../i386-linux-gnu/crti.o
 .rel.text.uip_ds6_defrt_lookup
                0x000000000000b6a4       0x20 /usr/lib/gcc/i686-linux-gnu/4.8/../../../i386-linux-gnu/crti.o
 .rel.text.uip_ds6_defrt_choose
                0x000000000000b6c4       0x20 /usr/lib/gcc/i686-linux-gnu/4.8/../../../i386-linux-gnu/crti.o
 .rel.text.uip_ds6_defrt_periodic
                0x000000000000b6e4       0x38 /usr/lib/gcc/i686-linux-gnu/4.8/../../../i386-linux-gnu/crti.o
 .rel.text.uip_ds6_init
                0x000000000000b71c      0x180 /usr/lib/gcc/i686-linux-gnu/4.8/../../../i386-linux-gnu/crti.o
 .rel.text.uip_ds6_periodic
                0x000000000000b89c       0x80 /usr/lib/gcc/i686-linux-gnu/4.8/../../../i386-linux-gnu/crti.o
 .rel.text.uip_ds6_list_loop
                0x000000000000b91c        0x8 /usr/lib/gcc/i686-linux-gnu/4.8/../../../i386-linux-gnu/crti.o
 .rel.text.uip_ds6_prefix_add
                0x000000000000b924       0x58 /usr/lib/gcc/i686-linux-gnu/4.8/../../../i386-linux-gnu/crti.o
 .rel.text.uip_ds6_prefix_lookup
                0x000000000000b97c       0x20 /usr/lib/gcc/i686-linux-gnu/4.8/../../../i386-linux-gnu/crti.o
 .rel.text.uip_ds6_is_addr_onlink
                0x000000000000b99c       0x50 /usr/lib/gcc/i686-linux-gnu/4.8/../../../i386-linux-gnu/crti.o
 .rel.text.uip_ds6_addr_add
                0x000000000000b9ec       0xc8 /usr/lib/gcc/i686-linux-gnu/4.8/../../../i386-linux-gnu/crti.o
 .rel.text.uip_ds6_addr_rm
                0x000000000000bab4       0x88 /usr/lib/gcc/i686-linux-gnu/4.8/../../../i386-linux-gnu/crti.o
 .rel.text.uip_ds6_addr_lookup
                0x000000000000bb3c       0x20 /usr/lib/gcc/i686-linux-gnu/4.8/../../../i386-linux-gnu/crti.o
 .rel.text.uip_ds6_get_link_local
                0x000000000000bb5c       0x58 /usr/lib/gcc/i686-linux-gnu/4.8/../../../i386-linux-gnu/crti.o
 .rel.text.uip_ds6_get_global
                0x000000000000bbb4       0x58 /usr/lib/gcc/i686-linux-gnu/4.8/../../../i386-linux-gnu/crti.o
 .rel.text.uip_ds6_maddr_add
                0x000000000000bc0c       0x30 /usr/lib/gcc/i686-linux-gnu/4.8/../../../i386-linux-gnu/crti.o
 .rel.text.uip_ds6_maddr_lookup
                0x000000000000bc3c       0x20 /usr/lib/gcc/i686-linux-gnu/4.8/../../../i386-linux-gnu/crti.o
 .rel.text.uip_ds6_aaddr_add
                0x000000000000bc5c       0x30 /usr/lib/gcc/i686-linux-gnu/4.8/../../../i386-linux-gnu/crti.o
 .rel.text.uip_ds6_aaddr_lookup
                0x000000000000bc8c       0x20 /usr/lib/gcc/i686-linux-gnu/4.8/../../../i386-linux-gnu/crti.o
 .rel.text.uip_ds6_select_src
                0x000000000000bcac       0x70 /usr/lib/gcc/i686-linux-gnu/4.8/../../../i386-linux-gnu/crti.o
 .rel.text.uip_ds6_set_addr_iid
                0x000000000000bd1c        0x8 /usr/lib/gcc/i686-linux-gnu/4.8/../../../i386-linux-gnu/crti.o
 .rel.text.uip_ds6_compute_reachable_time
                0x000000000000bd24       0x30 /usr/lib/gcc/i686-linux-gnu/4.8/../../../i386-linux-gnu/crti.o
 .rel.text.extract_lladdr_from_llao_aligned
                0x000000000000bd54       0x18 /usr/lib/gcc/i686-linux-gnu/4.8/../../../i386-linux-gnu/crti.o
 .rel.text.create_llao
                0x000000000000bd6c       0x18 /usr/lib/gcc/i686-linux-gnu/4.8/../../../i386-linux-gnu/crti.o
 .rel.text.ns_input
                0x000000000000bd84      0x388 /usr/lib/gcc/i686-linux-gnu/4.8/../../../i386-linux-gnu/crti.o
 .rel.text.uip_nd6_ns_output
                0x000000000000c10c      0x1e8 /usr/lib/gcc/i686-linux-gnu/4.8/../../../i386-linux-gnu/crti.o
 .rel.text.na_input
                0x000000000000c2f4      0x280 /usr/lib/gcc/i686-linux-gnu/4.8/../../../i386-linux-gnu/crti.o
 .rel.text.uip_nd6_init
                0x000000000000c574       0x20 /usr/lib/gcc/i686-linux-gnu/4.8/../../../i386-linux-gnu/crti.o
 .rel.text.uip_add32
                0x000000000000c594       0x98 /usr/lib/gcc/i686-linux-gnu/4.8/../../../i386-linux-gnu/crti.o
 .rel.text.uip_chksum
                0x000000000000c62c        0x8 /usr/lib/gcc/i686-linux-gnu/4.8/../../../i386-linux-gnu/crti.o
 .rel.text.upper_layer_chksum
                0x000000000000c634       0x38 /usr/lib/gcc/i686-linux-gnu/4.8/../../../i386-linux-gnu/crti.o
 .rel.text.uip_init
                0x000000000000c66c       0x38 /usr/lib/gcc/i686-linux-gnu/4.8/../../../i386-linux-gnu/crti.o
 .rel.text.uip_connect
                0x000000000000c6a4       0x70 /usr/lib/gcc/i686-linux-gnu/4.8/../../../i386-linux-gnu/crti.o
 .rel.text.remove_ext_hdr
                0x000000000000c714       0x98 /usr/lib/gcc/i686-linux-gnu/4.8/../../../i386-linux-gnu/crti.o
 .rel.text.uip_udp_new
                0x000000000000c7ac       0x68 /usr/lib/gcc/i686-linux-gnu/4.8/../../../i386-linux-gnu/crti.o
 .rel.text.uip_unlisten
                0x000000000000c814       0x10 /usr/lib/gcc/i686-linux-gnu/4.8/../../../i386-linux-gnu/crti.o
 .rel.text.uip_listen
                0x000000000000c824       0x10 /usr/lib/gcc/i686-linux-gnu/4.8/../../../i386-linux-gnu/crti.o
 .rel.text.uip_add_rcv_nxt
                0x000000000000c834       0x50 /usr/lib/gcc/i686-linux-gnu/4.8/../../../i386-linux-gnu/crti.o
 .rel.text.ext_hdr_options_process
                0x000000000000c884      0x108 /usr/lib/gcc/i686-linux-gnu/4.8/../../../i386-linux-gnu/crti.o
 .rel.text.uip_process
                0x000000000000c98c      0xf70 /usr/lib/gcc/i686-linux-gnu/4.8/../../../i386-linux-gnu/crti.o
 .rel.text.uip_send
                0x000000000000d8fc       0x60 /usr/lib/gcc/i686-linux-gnu/4.8/../../../i386-linux-gnu/crti.o
 .rel.text.dns_name_isequal
                0x000000000000d95c       0x10 /usr/lib/gcc/i686-linux-gnu/4.8/../../../i386-linux-gnu/crti.o
 .rel.text.mdns_announce_requested
                0x000000000000d96c        0x8 /usr/lib/gcc/i686-linux-gnu/4.8/../../../i386-linux-gnu/crti.o
 .rel.text.start_name_collision_check
                0x000000000000d974       0x20 /usr/lib/gcc/i686-linux-gnu/4.8/../../../i386-linux-gnu/crti.o
 .rel.text.mdns_write_announce_records
                0x000000000000d994       0x28 /usr/lib/gcc/i686-linux-gnu/4.8/../../../i386-linux-gnu/crti.o
 .rel.text.mdns_prep_host_announce_packet
                0x000000000000d9bc       0x50 /usr/lib/gcc/i686-linux-gnu/4.8/../../../i386-linux-gnu/crti.o
 .rel.text.try_next_server
                0x000000000000da0c        0x8 /usr/lib/gcc/i686-linux-gnu/4.8/../../../i386-linux-gnu/crti.o
 .rel.text.check_entries
                0x000000000000da14       0xc0 /usr/lib/gcc/i686-linux-gnu/4.8/../../../i386-linux-gnu/crti.o
 .rel.text.newdata
                0x000000000000dad4      0x180 /usr/lib/gcc/i686-linux-gnu/4.8/../../../i386-linux-gnu/crti.o
 .rel.text.resolv_set_hostname
                0x000000000000dc54       0x88 /usr/lib/gcc/i686-linux-gnu/4.8/../../../i386-linux-gnu/crti.o
 .rel.text.resolv_get_hostname
                0x000000000000dcdc        0x8 /usr/lib/gcc/i686-linux-gnu/4.8/../../../i386-linux-gnu/crti.o
 .rel.text.process_thread_mdns_probe_process
                0x000000000000dce4       0x98 /usr/lib/gcc/i686-linux-gnu/4.8/../../../i386-linux-gnu/crti.o
 .rel.text.process_thread_resolv_process
                0x000000000000dd7c      0x130 /usr/lib/gcc/i686-linux-gnu/4.8/../../../i386-linux-gnu/crti.o
 .rel.text.remove_trailing_dots
                0x000000000000deac       0x30 /usr/lib/gcc/i686-linux-gnu/4.8/../../../i386-linux-gnu/crti.o
 .rel.text.resolv_query
                0x000000000000dedc       0xb8 /usr/lib/gcc/i686-linux-gnu/4.8/../../../i386-linux-gnu/crti.o
 .rel.text.resolv_lookup
                0x000000000000df94       0x20 /usr/lib/gcc/i686-linux-gnu/4.8/../../../i386-linux-gnu/crti.o
 .rel.text.resolv_found
                0x000000000000dfb4       0xd8 /usr/lib/gcc/i686-linux-gnu/4.8/../../../i386-linux-gnu/crti.o
 .rel.text.tcpip_output
                0x000000000000e08c       0x10 /usr/lib/gcc/i686-linux-gnu/4.8/../../../i386-linux-gnu/crti.o
 .rel.text.tcpip_set_outputfunc
                0x000000000000e09c        0x8 /usr/lib/gcc/i686-linux-gnu/4.8/../../../i386-linux-gnu/crti.o
 .rel.text.start_periodic_tcp_timer
                0x000000000000e0a4       0x20 /usr/lib/gcc/i686-linux-gnu/4.8/../../../i386-linux-gnu/crti.o
 .rel.text.check_for_tcp_syn
                0x000000000000e0c4       0x10 /usr/lib/gcc/i686-linux-gnu/4.8/../../../i386-linux-gnu/crti.o
 .rel.text.packet_input
                0x000000000000e0d4       0x98 /usr/lib/gcc/i686-linux-gnu/4.8/../../../i386-linux-gnu/crti.o
 .rel.text.tcp_connect
                0x000000000000e16c       0x18 /usr/lib/gcc/i686-linux-gnu/4.8/../../../i386-linux-gnu/crti.o
 .rel.text.tcp_unlisten
                0x000000000000e184       0x18 /usr/lib/gcc/i686-linux-gnu/4.8/../../../i386-linux-gnu/crti.o
 .rel.text.tcp_listen
                0x000000000000e19c       0x18 /usr/lib/gcc/i686-linux-gnu/4.8/../../../i386-linux-gnu/crti.o
 .rel.text.tcp_attach
                0x000000000000e1b4        0x8 /usr/lib/gcc/i686-linux-gnu/4.8/../../../i386-linux-gnu/crti.o
 .rel.text.udp_attach
                0x000000000000e1bc        0x8 /usr/lib/gcc/i686-linux-gnu/4.8/../../../i386-linux-gnu/crti.o
 .rel.text.udp_new
                0x000000000000e1c4       0x10 /usr/lib/gcc/i686-linux-gnu/4.8/../../../i386-linux-gnu/crti.o
 .rel.text.udp_broadcast_new
                0x000000000000e1d4       0x10 /usr/lib/gcc/i686-linux-gnu/4.8/../../../i386-linux-gnu/crti.o
 .rel.text.eventhandler
                0x000000000000e1e4       0xd8 /usr/lib/gcc/i686-linux-gnu/4.8/../../../i386-linux-gnu/crti.o
 .rel.text.tcpip_input
                0x000000000000e2bc       0x20 /usr/lib/gcc/i686-linux-gnu/4.8/../../../i386-linux-gnu/crti.o
 .rel.text.tcpip_ipv6_output
                0x000000000000e2dc      0x290 /usr/lib/gcc/i686-linux-gnu/4.8/../../../i386-linux-gnu/crti.o
 .rel.text.tcpip_poll_udp
                0x000000000000e56c       0x10 /usr/lib/gcc/i686-linux-gnu/4.8/../../../i386-linux-gnu/crti.o
 .rel.text.tcpip_poll_tcp
                0x000000000000e57c       0x10 /usr/lib/gcc/i686-linux-gnu/4.8/../../../i386-linux-gnu/crti.o
 .rel.text.tcpip_uipcall
                0x000000000000e58c       0x40 /usr/lib/gcc/i686-linux-gnu/4.8/../../../i386-linux-gnu/crti.o
 .rel.text.process_thread_tcpip_process
                0x000000000000e5cc       0x48 /usr/lib/gcc/i686-linux-gnu/4.8/../../../i386-linux-gnu/crti.o
 .rel.text.uip_debug_ipaddr_print
                0x000000000000e614       0x50 /usr/lib/gcc/i686-linux-gnu/4.8/../../../i386-linux-gnu/crti.o
 .rel.text.uip_nameserver_update
                0x000000000000e664       0x28 /usr/lib/gcc/i686-linux-gnu/4.8/../../../i386-linux-gnu/crti.o
 .rel.text.uip_nameserver_get
                0x000000000000e68c        0x8 /usr/lib/gcc/i686-linux-gnu/4.8/../../../i386-linux-gnu/crti.o
 .rel.text.uip_nameserver_next_expiration
                0x000000000000e694        0x8 /usr/lib/gcc/i686-linux-gnu/4.8/../../../i386-linux-gnu/crti.o
 .rel.text.uip_nameserver_count
                0x000000000000e69c       0x40 /usr/lib/gcc/i686-linux-gnu/4.8/../../../i386-linux-gnu/crti.o
 .rel.text.packet_timedout
                0x000000000000e6dc       0x10 /usr/lib/gcc/i686-linux-gnu/4.8/../../../i386-linux-gnu/crti.o
 .rel.text.uip_packetqueue_alloc
                0x000000000000e6ec       0x20 /usr/lib/gcc/i686-linux-gnu/4.8/../../../i386-linux-gnu/crti.o
 .rel.text.uip_packetqueue_free
                0x000000000000e70c       0x18 /usr/lib/gcc/i686-linux-gnu/4.8/../../../i386-linux-gnu/crti.o
 .rel.text.uip_udp_packet_send
                0x000000000000e724       0x38 /usr/lib/gcc/i686-linux-gnu/4.8/../../../i386-linux-gnu/crti.o
 .rel.text.uip_udp_packet_sendto
                0x000000000000e75c       0x10 /usr/lib/gcc/i686-linux-gnu/4.8/../../../i386-linux-gnu/crti.o
 .rel.text.uiplib_ip6addrconv
                0x000000000000e76c       0x10 /usr/lib/gcc/i686-linux-gnu/4.8/../../../i386-linux-gnu/crti.o
 .rel.text.rpl_print_neighbor_list
                0x000000000000e77c       0xc8 /usr/lib/gcc/i686-linux-gnu/4.8/../../../i386-linux-gnu/crti.o
 .rel.text.rpl_get_nbr
                0x000000000000e844       0x18 /usr/lib/gcc/i686-linux-gnu/4.8/../../../i386-linux-gnu/crti.o
 .rel.text.nbr_callback
                0x000000000000e85c        0x8 /usr/lib/gcc/i686-linux-gnu/4.8/../../../i386-linux-gnu/crti.o
 .rel.text.rpl_dag_init
                0x000000000000e864       0x18 /usr/lib/gcc/i686-linux-gnu/4.8/../../../i386-linux-gnu/crti.o
 .rel.text.rpl_get_parent
                0x000000000000e87c       0x10 /usr/lib/gcc/i686-linux-gnu/4.8/../../../i386-linux-gnu/crti.o
 .rel.text.rpl_get_parent_rank
                0x000000000000e88c       0x10 /usr/lib/gcc/i686-linux-gnu/4.8/../../../i386-linux-gnu/crti.o
 .rel.text.rpl_get_parent_lladdr
                0x000000000000e89c       0x10 /usr/lib/gcc/i686-linux-gnu/4.8/../../../i386-linux-gnu/crti.o
 .rel.text.rpl_get_parent_ipaddr
                0x000000000000e8ac       0x10 /usr/lib/gcc/i686-linux-gnu/4.8/../../../i386-linux-gnu/crti.o
 .rel.text.rpl_get_parent_link_stats
                0x000000000000e8bc       0x10 /usr/lib/gcc/i686-linux-gnu/4.8/../../../i386-linux-gnu/crti.o
 .rel.text.rpl_parent_is_fresh
                0x000000000000e8cc       0x10 /usr/lib/gcc/i686-linux-gnu/4.8/../../../i386-linux-gnu/crti.o
 .rel.text.rpl_parent_is_reachable
                0x000000000000e8dc       0x10 /usr/lib/gcc/i686-linux-gnu/4.8/../../../i386-linux-gnu/crti.o
 .rel.text.rpl_set_preferred_parent
                0x000000000000e8ec       0x20 /usr/lib/gcc/i686-linux-gnu/4.8/../../../i386-linux-gnu/crti.o
 .rel.text.remove_parents
                0x000000000000e90c       0x28 /usr/lib/gcc/i686-linux-gnu/4.8/../../../i386-linux-gnu/crti.o
 .rel.text.nullify_parents
                0x000000000000e934       0x28 /usr/lib/gcc/i686-linux-gnu/4.8/../../../i386-linux-gnu/crti.o
 .rel.text.get_dag
                0x000000000000e95c       0x10 /usr/lib/gcc/i686-linux-gnu/4.8/../../../i386-linux-gnu/crti.o
 .rel.text.rpl_set_root
                0x000000000000e96c       0x48 /usr/lib/gcc/i686-linux-gnu/4.8/../../../i386-linux-gnu/crti.o
 .rel.text.rpl_repair_root
                0x000000000000e9b4       0x10 /usr/lib/gcc/i686-linux-gnu/4.8/../../../i386-linux-gnu/crti.o
 .rel.text.set_ip_from_prefix
                0x000000000000e9c4       0x20 /usr/lib/gcc/i686-linux-gnu/4.8/../../../i386-linux-gnu/crti.o
 .rel.text.check_prefix
                0x000000000000e9e4       0x30 /usr/lib/gcc/i686-linux-gnu/4.8/../../../i386-linux-gnu/crti.o
 .rel.text.rpl_set_prefix
                0x000000000000ea14       0x20 /usr/lib/gcc/i686-linux-gnu/4.8/../../../i386-linux-gnu/crti.o
 .rel.text.rpl_set_default_route
                0x000000000000ea34       0x10 /usr/lib/gcc/i686-linux-gnu/4.8/../../../i386-linux-gnu/crti.o
 .rel.text.rpl_alloc_instance
                0x000000000000ea44       0x18 /usr/lib/gcc/i686-linux-gnu/4.8/../../../i386-linux-gnu/crti.o
 .rel.text.rpl_alloc_dag
                0x000000000000ea5c       0x18 /usr/lib/gcc/i686-linux-gnu/4.8/../../../i386-linux-gnu/crti.o
 .rel.text.rpl_set_default_instance
                0x000000000000ea74        0x8 /usr/lib/gcc/i686-linux-gnu/4.8/../../../i386-linux-gnu/crti.o
 .rel.text.rpl_get_default_instance
                0x000000000000ea7c        0x8 /usr/lib/gcc/i686-linux-gnu/4.8/../../../i386-linux-gnu/crti.o
 .rel.text.rpl_free_instance
                0x000000000000ea84       0x40 /usr/lib/gcc/i686-linux-gnu/4.8/../../../i386-linux-gnu/crti.o
 .rel.text.rpl_free_dag
                0x000000000000eac4        0x8 /usr/lib/gcc/i686-linux-gnu/4.8/../../../i386-linux-gnu/crti.o
 .rel.text.rpl_add_parent
                0x000000000000eacc       0x18 /usr/lib/gcc/i686-linux-gnu/4.8/../../../i386-linux-gnu/crti.o
 .rel.text.find_parent_any_dag_any_instance
                0x000000000000eae4       0x20 /usr/lib/gcc/i686-linux-gnu/4.8/../../../i386-linux-gnu/crti.o
 .rel.text.rpl_select_dag
                0x000000000000eb04       0x48 /usr/lib/gcc/i686-linux-gnu/4.8/../../../i386-linux-gnu/crti.o
 .rel.text.best_parent
                0x000000000000eb4c       0x30 /usr/lib/gcc/i686-linux-gnu/4.8/../../../i386-linux-gnu/crti.o
 .rel.text.rpl_select_parent
                0x000000000000eb7c       0x18 /usr/lib/gcc/i686-linux-gnu/4.8/../../../i386-linux-gnu/crti.o
 .rel.text.rpl_remove_parent
                0x000000000000eb94       0x18 /usr/lib/gcc/i686-linux-gnu/4.8/../../../i386-linux-gnu/crti.o
 .rel.text.rpl_nullify_parent
                0x000000000000ebac       0x10 /usr/lib/gcc/i686-linux-gnu/4.8/../../../i386-linux-gnu/crti.o
 .rel.text.rpl_move_parent
                0x000000000000ebbc       0x18 /usr/lib/gcc/i686-linux-gnu/4.8/../../../i386-linux-gnu/crti.o
 .rel.text.rpl_has_downward_route
                0x000000000000ebd4       0x10 /usr/lib/gcc/i686-linux-gnu/4.8/../../../i386-linux-gnu/crti.o
 .rel.text.rpl_get_dag
                0x000000000000ebe4       0x30 /usr/lib/gcc/i686-linux-gnu/4.8/../../../i386-linux-gnu/crti.o
 .rel.text.rpl_get_any_dag
                0x000000000000ec14       0x18 /usr/lib/gcc/i686-linux-gnu/4.8/../../../i386-linux-gnu/crti.o
 .rel.text.rpl_get_instance
                0x000000000000ec2c       0x18 /usr/lib/gcc/i686-linux-gnu/4.8/../../../i386-linux-gnu/crti.o
 .rel.text.rpl_find_of
                0x000000000000ec44       0x10 /usr/lib/gcc/i686-linux-gnu/4.8/../../../i386-linux-gnu/crti.o
 .rel.text.rpl_join_instance
                0x000000000000ec54       0x58 /usr/lib/gcc/i686-linux-gnu/4.8/../../../i386-linux-gnu/crti.o
 .rel.text.rpl_add_dag
                0x000000000000ecac       0x50 /usr/lib/gcc/i686-linux-gnu/4.8/../../../i386-linux-gnu/crti.o
 .rel.text.global_repair
                0x000000000000ecfc       0x18 /usr/lib/gcc/i686-linux-gnu/4.8/../../../i386-linux-gnu/crti.o
 .rel.text.rpl_local_repair
                0x000000000000ed14        0x8 /usr/lib/gcc/i686-linux-gnu/4.8/../../../i386-linux-gnu/crti.o
 .rel.text.rpl_recalculate_ranks
                0x000000000000ed1c       0x28 /usr/lib/gcc/i686-linux-gnu/4.8/../../../i386-linux-gnu/crti.o
 .rel.text.rpl_process_parent_event
                0x000000000000ed44       0x40 /usr/lib/gcc/i686-linux-gnu/4.8/../../../i386-linux-gnu/crti.o
 .rel.text.add_nbr_from_dio
                0x000000000000ed84        0x8 /usr/lib/gcc/i686-linux-gnu/4.8/../../../i386-linux-gnu/crti.o
 .rel.text.rpl_process_dio
                0x000000000000ed8c       0x78 /usr/lib/gcc/i686-linux-gnu/4.8/../../../i386-linux-gnu/crti.o
 .rel.text.rpl_verify_hbh_header
                0x000000000000ee04      0x108 /usr/lib/gcc/i686-linux-gnu/4.8/../../../i386-linux-gnu/crti.o
 .rel.text.update_hbh_header
                0x000000000000ef0c      0x138 /usr/lib/gcc/i686-linux-gnu/4.8/../../../i386-linux-gnu/crti.o
 .rel.text.insert_hbh_header
                0x000000000000f044      0x128 /usr/lib/gcc/i686-linux-gnu/4.8/../../../i386-linux-gnu/crti.o
 .rel.text.rpl_remove_header
                0x000000000000f16c       0xc8 /usr/lib/gcc/i686-linux-gnu/4.8/../../../i386-linux-gnu/crti.o
 .rel.text.rpl_update_header
                0x000000000000f234       0x80 /usr/lib/gcc/i686-linux-gnu/4.8/../../../i386-linux-gnu/crti.o
 .rel.text.prepare_for_dao_fwd
                0x000000000000f2b4       0x38 /usr/lib/gcc/i686-linux-gnu/4.8/../../../i386-linux-gnu/crti.o
 .rel.text.get_global_addr
                0x000000000000f2ec       0x30 /usr/lib/gcc/i686-linux-gnu/4.8/../../../i386-linux-gnu/crti.o
 .rel.text.rpl_icmp6_update_nbr_table
                0x000000000000f31c       0x10 /usr/lib/gcc/i686-linux-gnu/4.8/../../../i386-linux-gnu/crti.o
 .rel.text.dis_input
                0x000000000000f32c       0x48 /usr/lib/gcc/i686-linux-gnu/4.8/../../../i386-linux-gnu/crti.o
 .rel.text.dis_output
                0x000000000000f374       0x20 /usr/lib/gcc/i686-linux-gnu/4.8/../../../i386-linux-gnu/crti.o
 .rel.text.dio_input
                0x000000000000f394       0x58 /usr/lib/gcc/i686-linux-gnu/4.8/../../../i386-linux-gnu/crti.o
 .rel.text.dio_output
                0x000000000000f3ec       0x40 /usr/lib/gcc/i686-linux-gnu/4.8/../../../i386-linux-gnu/crti.o
 .rel.text.dao_input_storing
                0x000000000000f42c      0x120 /usr/lib/gcc/i686-linux-gnu/4.8/../../../i386-linux-gnu/crti.o
 .rel.text.dao_input
                0x000000000000f54c       0x28 /usr/lib/gcc/i686-linux-gnu/4.8/../../../i386-linux-gnu/crti.o
 .rel.text.dao_output
                0x000000000000f574       0x38 /usr/lib/gcc/i686-linux-gnu/4.8/../../../i386-linux-gnu/crti.o
 .rel.text.dao_output_target
                0x000000000000f5ac        0x8 /usr/lib/gcc/i686-linux-gnu/4.8/../../../i386-linux-gnu/crti.o
 .rel.text.dao_output_target_seq
                0x000000000000f5b4       0x48 /usr/lib/gcc/i686-linux-gnu/4.8/../../../i386-linux-gnu/crti.o
 .rel.text.dao_ack_input
                0x000000000000f5fc       0x10 /usr/lib/gcc/i686-linux-gnu/4.8/../../../i386-linux-gnu/crti.o
 .rel.text.rpl_icmp6_register_handlers
                0x000000000000f60c       0x40 /usr/lib/gcc/i686-linux-gnu/4.8/../../../i386-linux-gnu/crti.o
 .rel.text.parent_link_metric
                0x000000000000f64c        0x8 /usr/lib/gcc/i686-linux-gnu/4.8/../../../i386-linux-gnu/crti.o
 .rel.text.handle_periodic_timer
                0x000000000000f654       0x68 /usr/lib/gcc/i686-linux-gnu/4.8/../../../i386-linux-gnu/crti.o
 .rel.text.new_dio_interval
                0x000000000000f6bc       0x18 /usr/lib/gcc/i686-linux-gnu/4.8/../../../i386-linux-gnu/crti.o
 .rel.text.handle_dio_timer
                0x000000000000f6d4       0x40 /usr/lib/gcc/i686-linux-gnu/4.8/../../../i386-linux-gnu/crti.o
 .rel.text.rpl_reset_periodic_timer
                0x000000000000f714       0x28 /usr/lib/gcc/i686-linux-gnu/4.8/../../../i386-linux-gnu/crti.o
 .rel.text.set_dao_lifetime_timer
                0x000000000000f73c       0x20 /usr/lib/gcc/i686-linux-gnu/4.8/../../../i386-linux-gnu/crti.o
 .rel.text.handle_dao_timer
                0x000000000000f75c       0x38 /usr/lib/gcc/i686-linux-gnu/4.8/../../../i386-linux-gnu/crti.o
 .rel.text.schedule_dao
                0x000000000000f794       0x30 /usr/lib/gcc/i686-linux-gnu/4.8/../../../i386-linux-gnu/crti.o
 .rel.text.rpl_cancel_dao
                0x000000000000f7c4       0x10 /usr/lib/gcc/i686-linux-gnu/4.8/../../../i386-linux-gnu/crti.o
 .rel.text.handle_unicast_dio_timer
                0x000000000000f7d4       0x10 /usr/lib/gcc/i686-linux-gnu/4.8/../../../i386-linux-gnu/crti.o
 .rel.text.rpl_schedule_unicast_dio_immediately
                0x000000000000f7e4       0x10 /usr/lib/gcc/i686-linux-gnu/4.8/../../../i386-linux-gnu/crti.o
 .rel.text.get_probing_delay
                0x000000000000f7f4       0x10 /usr/lib/gcc/i686-linux-gnu/4.8/../../../i386-linux-gnu/crti.o
 .rel.text.get_probing_target
                0x000000000000f804       0x70 /usr/lib/gcc/i686-linux-gnu/4.8/../../../i386-linux-gnu/crti.o
 .rel.text.handle_probing_timer
                0x000000000000f874       0x28 /usr/lib/gcc/i686-linux-gnu/4.8/../../../i386-linux-gnu/crti.o
 .rel.text.rpl_schedule_probing
                0x000000000000f89c       0x18 /usr/lib/gcc/i686-linux-gnu/4.8/../../../i386-linux-gnu/crti.o
 .rel.text.rpl_get_mode
                0x000000000000f8b4        0x8 /usr/lib/gcc/i686-linux-gnu/4.8/../../../i386-linux-gnu/crti.o
 .rel.text.rpl_set_mode
                0x000000000000f8bc       0x68 /usr/lib/gcc/i686-linux-gnu/4.8/../../../i386-linux-gnu/crti.o
 .rel.text.rpl_purge_routes
                0x000000000000f924       0x50 /usr/lib/gcc/i686-linux-gnu/4.8/../../../i386-linux-gnu/crti.o
 .rel.text.rpl_remove_routes
                0x000000000000f974       0x20 /usr/lib/gcc/i686-linux-gnu/4.8/../../../i386-linux-gnu/crti.o
 .rel.text.rpl_remove_routes_by_nexthop
                0x000000000000f994       0x20 /usr/lib/gcc/i686-linux-gnu/4.8/../../../i386-linux-gnu/crti.o
 .rel.text.rpl_add_route
                0x000000000000f9b4        0x8 /usr/lib/gcc/i686-linux-gnu/4.8/../../../i386-linux-gnu/crti.o
 .rel.text.rpl_link_neighbor_callback
                0x000000000000f9bc       0x20 /usr/lib/gcc/i686-linux-gnu/4.8/../../../i386-linux-gnu/crti.o
 .rel.text.rpl_ipv6_neighbor_callback
                0x000000000000f9dc       0x10 /usr/lib/gcc/i686-linux-gnu/4.8/../../../i386-linux-gnu/crti.o
 .rel.text.rpl_purge_dags
                0x000000000000f9ec       0x10 /usr/lib/gcc/i686-linux-gnu/4.8/../../../i386-linux-gnu/crti.o
 .rel.text.rpl_init
                0x000000000000f9fc       0x30 /usr/lib/gcc/i686-linux-gnu/4.8/../../../i386-linux-gnu/crti.o
 .rel.text.link_stats_from_lladdr
                0x000000000000fa2c       0x10 /usr/lib/gcc/i686-linux-gnu/4.8/../../../i386-linux-gnu/crti.o
 .rel.text.link_stats_is_fresh
                0x000000000000fa3c        0x8 /usr/lib/gcc/i686-linux-gnu/4.8/../../../i386-linux-gnu/crti.o
 .rel.text.link_stats_packet_sent
                0x000000000000fa44       0x30 /usr/lib/gcc/i686-linux-gnu/4.8/../../../i386-linux-gnu/crti.o
 .rel.text.link_stats_input_callback
                0x000000000000fa74       0x20 /usr/lib/gcc/i686-linux-gnu/4.8/../../../i386-linux-gnu/crti.o
 .rel.text.periodic
                0x000000000000fa94       0x30 /usr/lib/gcc/i686-linux-gnu/4.8/../../../i386-linux-gnu/crti.o
 .rel.text.link_stats_init
                0x000000000000fac4       0x28 /usr/lib/gcc/i686-linux-gnu/4.8/../../../i386-linux-gnu/crti.o
 .rel.text.linkaddr_copy
                0x000000000000faec        0x8 /usr/lib/gcc/i686-linux-gnu/4.8/../../../i386-linux-gnu/crti.o
 .rel.text.linkaddr_cmp
                0x000000000000faf4        0x8 /usr/lib/gcc/i686-linux-gnu/4.8/../../../i386-linux-gnu/crti.o
 .rel.text.linkaddr_set_node_addr
                0x000000000000fafc       0x10 /usr/lib/gcc/i686-linux-gnu/4.8/../../../i386-linux-gnu/crti.o
 .rel.text.key_from_index
                0x000000000000fb0c        0x8 /usr/lib/gcc/i686-linux-gnu/4.8/../../../i386-linux-gnu/crti.o
 .rel.text.index_from_key
                0x000000000000fb14        0x8 /usr/lib/gcc/i686-linux-gnu/4.8/../../../i386-linux-gnu/crti.o
 .rel.text.index_from_lladdr
                0x000000000000fb1c       0x28 /usr/lib/gcc/i686-linux-gnu/4.8/../../../i386-linux-gnu/crti.o
 .rel.text.remove_key
                0x000000000000fb44       0x48 /usr/lib/gcc/i686-linux-gnu/4.8/../../../i386-linux-gnu/crti.o
 .rel.text.nbr_table_allocate
                0x000000000000fb8c       0x50 /usr/lib/gcc/i686-linux-gnu/4.8/../../../i386-linux-gnu/crti.o
 .rel.text.nbr_table_register
                0x000000000000fbdc       0x20 /usr/lib/gcc/i686-linux-gnu/4.8/../../../i386-linux-gnu/crti.o
 .rel.text.nbr_table_head
                0x000000000000fbfc       0x20 /usr/lib/gcc/i686-linux-gnu/4.8/../../../i386-linux-gnu/crti.o
 .rel.text.nbr_table_next
                0x000000000000fc1c       0x10 /usr/lib/gcc/i686-linux-gnu/4.8/../../../i386-linux-gnu/crti.o
 .rel.text.nbr_table_add_lladdr
                0x000000000000fc2c       0x30 /usr/lib/gcc/i686-linux-gnu/4.8/../../../i386-linux-gnu/crti.o
 .rel.text.nbr_table_get_from_lladdr
                0x000000000000fc5c        0x8 /usr/lib/gcc/i686-linux-gnu/4.8/../../../i386-linux-gnu/crti.o
 .rel.text.nbr_table_remove
                0x000000000000fc64       0x10 /usr/lib/gcc/i686-linux-gnu/4.8/../../../i386-linux-gnu/crti.o
 .rel.text.nbr_table_lock
                0x000000000000fc74        0x8 /usr/lib/gcc/i686-linux-gnu/4.8/../../../i386-linux-gnu/crti.o
 .rel.text.nbr_table_unlock
                0x000000000000fc7c        0x8 /usr/lib/gcc/i686-linux-gnu/4.8/../../../i386-linux-gnu/crti.o
 .rel.text.nbr_table_update_lladdr
                0x000000000000fc84        0x8 /usr/lib/gcc/i686-linux-gnu/4.8/../../../i386-linux-gnu/crti.o
 .rel.text.netstack_init
                0x000000000000fc8c       0x28 /usr/lib/gcc/i686-linux-gnu/4.8/../../../i386-linux-gnu/crti.o
 .rel.text.packetbuf_clear
                0x000000000000fcb4       0x28 /usr/lib/gcc/i686-linux-gnu/4.8/../../../i386-linux-gnu/crti.o
 .rel.text.packetbuf_copyfrom
                0x000000000000fcdc       0x20 /usr/lib/gcc/i686-linux-gnu/4.8/../../../i386-linux-gnu/crti.o
 .rel.text.packetbuf_compact
                0x000000000000fcfc       0x38 /usr/lib/gcc/i686-linux-gnu/4.8/../../../i386-linux-gnu/crti.o
 .rel.text.packetbuf_copyto
                0x000000000000fd34       0x58 /usr/lib/gcc/i686-linux-gnu/4.8/../../../i386-linux-gnu/crti.o
 .rel.text.packetbuf_hdralloc
                0x000000000000fd8c       0x30 /usr/lib/gcc/i686-linux-gnu/4.8/../../../i386-linux-gnu/crti.o
 .rel.text.packetbuf_hdrreduce
                0x000000000000fdbc       0x28 /usr/lib/gcc/i686-linux-gnu/4.8/../../../i386-linux-gnu/crti.o
 .rel.text.packetbuf_set_datalen
                0x000000000000fde4        0x8 /usr/lib/gcc/i686-linux-gnu/4.8/../../../i386-linux-gnu/crti.o
 .rel.text.packetbuf_dataptr
                0x000000000000fdec       0x10 /usr/lib/gcc/i686-linux-gnu/4.8/../../../i386-linux-gnu/crti.o
 .rel.text.packetbuf_hdrptr
                0x000000000000fdfc        0x8 /usr/lib/gcc/i686-linux-gnu/4.8/../../../i386-linux-gnu/crti.o
 .rel.text.packetbuf_datalen
                0x000000000000fe04        0x8 /usr/lib/gcc/i686-linux-gnu/4.8/../../../i386-linux-gnu/crti.o
 .rel.text.packetbuf_hdrlen
                0x000000000000fe0c       0x10 /usr/lib/gcc/i686-linux-gnu/4.8/../../../i386-linux-gnu/crti.o
 .rel.text.packetbuf_totlen
                0x000000000000fe1c       0x10 /usr/lib/gcc/i686-linux-gnu/4.8/../../../i386-linux-gnu/crti.o
 .rel.text.packetbuf_remaininglen
                0x000000000000fe2c        0x8 /usr/lib/gcc/i686-linux-gnu/4.8/../../../i386-linux-gnu/crti.o
 .rel.text.packetbuf_attr_clear
                0x000000000000fe34       0x28 /usr/lib/gcc/i686-linux-gnu/4.8/../../../i386-linux-gnu/crti.o
 .rel.text.packetbuf_attr_copyto
                0x000000000000fe5c       0x30 /usr/lib/gcc/i686-linux-gnu/4.8/../../../i386-linux-gnu/crti.o
 .rel.text.packetbuf_attr_copyfrom
                0x000000000000fe8c       0x30 /usr/lib/gcc/i686-linux-gnu/4.8/../../../i386-linux-gnu/crti.o
 .rel.text.packetbuf_holds_broadcast
                0x000000000000febc       0x18 /usr/lib/gcc/i686-linux-gnu/4.8/../../../i386-linux-gnu/crti.o
 .rel.text.queuebuf_init
                0x000000000000fed4       0x20 /usr/lib/gcc/i686-linux-gnu/4.8/../../../i386-linux-gnu/crti.o
 .rel.text.queuebuf_numfree
                0x000000000000fef4       0x10 /usr/lib/gcc/i686-linux-gnu/4.8/../../../i386-linux-gnu/crti.o
 .rel.text.queuebuf_new_from_packetbuf
                0x000000000000ff04       0x40 /usr/lib/gcc/i686-linux-gnu/4.8/../../../i386-linux-gnu/crti.o
 .rel.text.queuebuf_update_attr_from_packetbuf
                0x000000000000ff44        0x8 /usr/lib/gcc/i686-linux-gnu/4.8/../../../i386-linux-gnu/crti.o
 .rel.text.queuebuf_update_from_packetbuf
                0x000000000000ff4c       0x10 /usr/lib/gcc/i686-linux-gnu/4.8/../../../i386-linux-gnu/crti.o
 .rel.text.queuebuf_free
                0x000000000000ff5c       0x30 /usr/lib/gcc/i686-linux-gnu/4.8/../../../i386-linux-gnu/crti.o
 .rel.text.queuebuf_to_packetbuf
                0x000000000000ff8c       0x20 /usr/lib/gcc/i686-linux-gnu/4.8/../../../i386-linux-gnu/crti.o
 .rel.text.queuebuf_dataptr
                0x000000000000ffac       0x10 /usr/lib/gcc/i686-linux-gnu/4.8/../../../i386-linux-gnu/crti.o
 .rel.text.neighbor_queue_from_addr
                0x000000000000ffbc       0x20 /usr/lib/gcc/i686-linux-gnu/4.8/../../../i386-linux-gnu/crti.o
 .rel.text.backoff_period
                0x000000000000ffdc        0x8 /usr/lib/gcc/i686-linux-gnu/4.8/../../../i386-linux-gnu/crti.o
 .rel.text.transmit_packet_list
                0x000000000000ffe4       0x18 /usr/lib/gcc/i686-linux-gnu/4.8/../../../i386-linux-gnu/crti.o
 .rel.text.schedule_transmission
                0x000000000000fffc       0x18 /usr/lib/gcc/i686-linux-gnu/4.8/../../../i386-linux-gnu/crti.o
 .rel.text.free_packet
                0x0000000000010014       0x60 /usr/lib/gcc/i686-linux-gnu/4.8/../../../i386-linux-gnu/crti.o
 .rel.text.tx_done
                0x0000000000010074        0x8 /usr/lib/gcc/i686-linux-gnu/4.8/../../../i386-linux-gnu/crti.o
 .rel.text.rexmit
                0x000000000001007c        0x8 /usr/lib/gcc/i686-linux-gnu/4.8/../../../i386-linux-gnu/crti.o
 .rel.text.input_packet
                0x0000000000010084        0x8 /usr/lib/gcc/i686-linux-gnu/4.8/../../../i386-linux-gnu/crti.o
 .rel.text.on   0x000000000001008c       0x10 /usr/lib/gcc/i686-linux-gnu/4.8/../../../i386-linux-gnu/crti.o
 .rel.text.off  0x000000000001009c       0x18 /usr/lib/gcc/i686-linux-gnu/4.8/../../../i386-linux-gnu/crti.o
 .rel.text.channel_check_interval
                0x00000000000100b4       0x10 /usr/lib/gcc/i686-linux-gnu/4.8/../../../i386-linux-gnu/crti.o
 .rel.text.create_frame
                0x00000000000100c4       0xc0 /usr/lib/gcc/i686-linux-gnu/4.8/../../../i386-linux-gnu/crti.o
 .rel.text.parse
                0x0000000000010184       0x38 /usr/lib/gcc/i686-linux-gnu/4.8/../../../i386-linux-gnu/crti.o
 .rel.text.send_one_packet
                0x00000000000101bc       0xd0 /usr/lib/gcc/i686-linux-gnu/4.8/../../../i386-linux-gnu/crti.o
 .rel.text.send_list
                0x000000000001028c        0x8 /usr/lib/gcc/i686-linux-gnu/4.8/../../../i386-linux-gnu/crti.o
 .rel.text.send
                0x0000000000010294        0x8 /usr/lib/gcc/i686-linux-gnu/4.8/../../../i386-linux-gnu/crti.o
 .rel.text.stimer_set
                0x000000000001029c        0x8 /usr/lib/gcc/i686-linux-gnu/4.8/../../../i386-linux-gnu/crti.o
 .rel.text.stimer_restart
                0x00000000000102a4        0x8 /usr/lib/gcc/i686-linux-gnu/4.8/../../../i386-linux-gnu/crti.o
 .rel.text.stimer_expired
                0x00000000000102ac        0x8 /usr/lib/gcc/i686-linux-gnu/4.8/../../../i386-linux-gnu/crti.o
 .rel.text.stimer_remaining
                0x00000000000102b4        0x8 /usr/lib/gcc/i686-linux-gnu/4.8/../../../i386-linux-gnu/crti.o
 .rel.text.stimer_elapsed
                0x00000000000102bc        0x8 /usr/lib/gcc/i686-linux-gnu/4.8/../../../i386-linux-gnu/crti.o
 .rel.text.input_handler_lookup
                0x00000000000102c4       0x18 /usr/lib/gcc/i686-linux-gnu/4.8/../../../i386-linux-gnu/crti.o
 .rel.text.uip_icmp6_register_input_handler
                0x00000000000102dc       0x10 /usr/lib/gcc/i686-linux-gnu/4.8/../../../i386-linux-gnu/crti.o
 .rel.text.echo_request_input
                0x00000000000102ec      0x160 /usr/lib/gcc/i686-linux-gnu/4.8/../../../i386-linux-gnu/crti.o
 .rel.text.uip_icmp6_error_output
                0x000000000001044c      0x250 /usr/lib/gcc/i686-linux-gnu/4.8/../../../i386-linux-gnu/crti.o
 .rel.text.uip_icmp6_send
                0x000000000001069c       0xc0 /usr/lib/gcc/i686-linux-gnu/4.8/../../../i386-linux-gnu/crti.o
 .rel.text.echo_reply_input
                0x000000000001075c       0xd0 /usr/lib/gcc/i686-linux-gnu/4.8/../../../i386-linux-gnu/crti.o
 .rel.text.uip_icmp6_echo_reply_callback_add
                0x000000000001082c       0x10 /usr/lib/gcc/i686-linux-gnu/4.8/../../../i386-linux-gnu/crti.o
 .rel.text.uip_icmp6_echo_reply_callback_rm
                0x000000000001083c       0x10 /usr/lib/gcc/i686-linux-gnu/4.8/../../../i386-linux-gnu/crti.o
 .rel.text.uip_icmp6_init
                0x000000000001084c       0x20 /usr/lib/gcc/i686-linux-gnu/4.8/../../../i386-linux-gnu/crti.o
 .rel.text.update_nbr
                0x000000000001086c       0xe0 /usr/lib/gcc/i686-linux-gnu/4.8/../../../i386-linux-gnu/crti.o
 .rel.text.find_removable_dis
                0x000000000001094c       0x10 /usr/lib/gcc/i686-linux-gnu/4.8/../../../i386-linux-gnu/crti.o
 .rel.text.find_removable_dio
                0x000000000001095c       0x18 /usr/lib/gcc/i686-linux-gnu/4.8/../../../i386-linux-gnu/crti.o
 .rel.text.find_removable_dao
                0x0000000000010974       0x10 /usr/lib/gcc/i686-linux-gnu/4.8/../../../i386-linux-gnu/crti.o
 .rel.text.rpl_nbr_policy_find_removable
                0x0000000000010984       0x30 /usr/lib/gcc/i686-linux-gnu/4.8/../../../i386-linux-gnu/crti.o
 .rel.text.frame802154_get_pan_id
                0x00000000000109b4        0x8 /usr/lib/gcc/i686-linux-gnu/4.8/../../../i386-linux-gnu/crti.o
 .rel.text.frame802154_set_pan_id
                0x00000000000109bc        0x8 /usr/lib/gcc/i686-linux-gnu/4.8/../../../i386-linux-gnu/crti.o
 .rel.text.frame802154_check_dest_panid
                0x00000000000109c4       0x10 /usr/lib/gcc/i686-linux-gnu/4.8/../../../i386-linux-gnu/crti.o
 .rel.text.frame802154_extract_linkaddr
                0x00000000000109d4       0x40 /usr/lib/gcc/i686-linux-gnu/4.8/../../../i386-linux-gnu/crti.o
 .rel.text.field_len
                0x0000000000010a14       0x10 /usr/lib/gcc/i686-linux-gnu/4.8/../../../i386-linux-gnu/crti.o
 .rel.text.frame802154_create
                0x0000000000010a24        0x8 /usr/lib/gcc/i686-linux-gnu/4.8/../../../i386-linux-gnu/crti.o
 .rel.text.frame802154_parse
                0x0000000000010a2c       0x50 /usr/lib/gcc/i686-linux-gnu/4.8/../../../i386-linux-gnu/crti.o
 .rel.text.mac_sequence_is_duplicate
                0x0000000000010a7c       0x28 /usr/lib/gcc/i686-linux-gnu/4.8/../../../i386-linux-gnu/crti.o
 .rel.text.mac_sequence_register_seqno
                0x0000000000010aa4       0x48 /usr/lib/gcc/i686-linux-gnu/4.8/../../../i386-linux-gnu/crti.o
 *(.rel.fini)
 .rel.fini      0x0000000000000000        0x0 /usr/lib/gcc/i686-linux-gnu/4.8/../../../i386-linux-gnu/crti.o
 *(.rel.rodata .rel.rodata.* .rel.gnu.linkonce.r.*)
 .rel.rodata    0x0000000000010aec      0x638 /usr/lib/gcc/i686-linux-gnu/4.8/../../../i386-linux-gnu/crti.o
 *(.rel.data.rel.ro .rel.data.rel.ro.* .rel.gnu.linkonce.d.rel.ro.*)
 *(.rel.data .rel.data.* .rel.gnu.linkonce.d.*)
 .rel.data.rel  0x0000000000011124        0x8 /usr/lib/gcc/i686-linux-gnu/4.8/../../../i386-linux-gnu/crti.o
 .rel.data      0x000000000001112c      0x368 /usr/lib/gcc/i686-linux-gnu/4.8/../../../i386-linux-gnu/crti.o
 *(.rel.tdata .rel.tdata.* .rel.gnu.linkonce.td.*)
 *(.rel.tbss .rel.tbss.* .rel.gnu.linkonce.tb.*)
 *(.rel.ctors)
 *(.rel.dtors)
 *(.rel.got)
 .rel.got       0x0000000000011494       0x28 /usr/lib/gcc/i686-linux-gnu/4.8/../../../i386-linux-gnu/crti.o
 *(.rel.bss .rel.bss.* .rel.gnu.linkonce.b.*)
 *(.rel.ifunc)
 .rel.ifunc     0x0000000000000000        0x0 /usr/lib/gcc/i686-linux-gnu/4.8/../../../i386-linux-gnu/crti.o
 .rel.fini_array
                0x00000000000114bc        0x8 /usr/lib/gcc/i686-linux-gnu/4.8/../../../i386-linux-gnu/crti.o
 .rel.init_array
                0x00000000000114c4        0x8 /usr/lib/gcc/i686-linux-gnu/4.8/../../../i386-linux-gnu/crti.o

.rel.plt        0x00000000000114cc       0x10
 *(.rel.plt)
 .rel.plt       0x00000000000114cc       0x10 /usr/lib/gcc/i686-linux-gnu/4.8/../../../i386-linux-gnu/crti.o
 *(.rel.iplt)

.init           0x00000000000114dc       0x23
 *(SORT(.init))
 .init          0x00000000000114dc       0x1e /usr/lib/gcc/i686-linux-gnu/4.8/../../../i386-linux-gnu/crti.o
                0x00000000000114dc                _init
 .init          0x00000000000114fa        0x5 /usr/lib/gcc/i686-linux-gnu/4.8/../../../i386-linux-gnu/crtn.o

.plt            0x0000000000011500       0x30
 *(.plt)
 .plt           0x0000000000011500       0x30 /usr/lib/gcc/i686-linux-gnu/4.8/../../../i386-linux-gnu/crti.o
 *(.iplt)

.text           0x0000000000011530    0x20786
 *(.text.unlikely .text.*_unlikely .text.unlikely.*)
 *(.text.exit .text.exit.*)
 *(.text.startup .text.startup.*)
 *(.text.hot .text.hot.*)
 *(.text .stub .text.* .gnu.linkonce.t.*)
 .text          0x0000000000011530        0x0 /usr/lib/gcc/i686-linux-gnu/4.8/../../../i386-linux-gnu/crti.o
 .gnu.linkonce.t.__x86.get_pc_thunk.bx
                0x0000000000011530        0x4 /usr/lib/gcc/i686-linux-gnu/4.8/../../../i386-linux-gnu/crti.o
                0x0000000000011530                __x86.get_pc_thunk.bx
 *fill*         0x0000000000011534        0xc 
 .text          0x0000000000011540      0x11b /usr/lib/gcc/i686-linux-gnu/4.8/crtbeginS.o
 .text          0x000000000001165b        0x0 dtls-client.co
 .text.dtls_alert_create
                0x000000000001165b       0x10 dtls-client.co
 .text.dtls_alert_fatal_create
                0x000000000001166b       0x1b dtls-client.co
 .text.dtls_set_handler
                0x0000000000011686        0xe dtls-client.co
 .text.try_send
                0x0000000000011694       0x6d dtls-client.co
 .text.read_from_peer
                0x0000000000011701       0x1e dtls-client.co
 .text.timeout_handler
                0x000000000001171f       0x59 dtls-client.co
 .text.send_to_peer
                0x0000000000011778       0xd6 dtls-client.co
 .text.get_psk_info
                0x000000000001184e      0x10f dtls-client.co
 .text.dtls_handle_read
                0x000000000001195d       0xe1 dtls-client.co
 .text.tcpip_handler
                0x0000000000011a3e       0x33 dtls-client.co
 .text.print_local_addresses
                0x0000000000011a71       0x80 dtls-client.co
 .text.set_global_address
                0x0000000000011af1       0x82 dtls-client.co
 .text.set_connection_address
                0x0000000000011b73      0x100 dtls-client.co
 .text.init_dtls
                0x0000000000011c73       0xd7 dtls-client.co
                0x0000000000011c73                init_dtls
 .text.process_thread_udp_client_process
                0x0000000000011d4a      0x2a5 dtls-client.co
 .text          0x0000000000011fef        0x0 obj_cooja/mtype516.o
 .text.print_processes
                0x0000000000011fef       0x47 obj_cooja/mtype516.o
 .text.rtimer_thread_loop
                0x0000000000012036       0x12 obj_cooja/mtype516.o
 .text.set_rime_addr
                0x0000000000012048       0xdd obj_cooja/mtype516.o
 .text.contiki_init
                0x0000000000012125      0x385 obj_cooja/mtype516.o
                0x0000000000012125                contiki_init
 .text.process_run_thread_loop
                0x00000000000124aa       0x6a obj_cooja/mtype516.o
 .text.Java_org_contikios_cooja_corecomm_Lib2_init
                0x0000000000012514       0x40 obj_cooja/mtype516.o
                0x0000000000012514                Java_org_contikios_cooja_corecomm_Lib2_init
 .text.Java_org_contikios_cooja_corecomm_Lib2_getMemory
                0x0000000000012554       0x40 obj_cooja/mtype516.o
                0x0000000000012554                Java_org_contikios_cooja_corecomm_Lib2_getMemory
 .text.Java_org_contikios_cooja_corecomm_Lib2_setMemory
                0x0000000000012594       0x77 obj_cooja/mtype516.o
                0x0000000000012594                Java_org_contikios_cooja_corecomm_Lib2_setMemory
 .text.Java_org_contikios_cooja_corecomm_Lib2_tick
                0x000000000001260b       0x5f obj_cooja/mtype516.o
                0x000000000001260b                Java_org_contikios_cooja_corecomm_Lib2_tick
 .text.Java_org_contikios_cooja_corecomm_Lib2_setReferenceAddress
                0x000000000001266a       0x12 obj_cooja/mtype516.o
                0x000000000001266a                Java_org_contikios_cooja_corecomm_Lib2_setReferenceAddress
 .text          0x000000000001267c        0x0 obj_cooja/mtype516.a(dtls.o)
 .text.equals   0x000000000001267c       0x44 obj_cooja/mtype516.a(dtls.o)
 .text.check_stack
                0x00000000000126c0        0x5 obj_cooja/mtype516.a(dtls.o)
 .text.dtls_int_to_uint8
                0x00000000000126c5       0x1c obj_cooja/mtype516.a(dtls.o)
 .text.dtls_int_to_uint16
                0x00000000000126e1       0x2f obj_cooja/mtype516.a(dtls.o)
 .text.dtls_int_to_uint24
                0x0000000000012710       0x30 obj_cooja/mtype516.a(dtls.o)
 .text.dtls_int_to_uint32
                0x0000000000012740       0x3e obj_cooja/mtype516.a(dtls.o)
 .text.dtls_int_to_uint48
                0x000000000001277e       0x89 obj_cooja/mtype516.a(dtls.o)
 .text.dtls_uint8_to_int
                0x0000000000012807        0xb obj_cooja/mtype516.a(dtls.o)
 .text.dtls_uint16_to_int
                0x0000000000012812       0x21 obj_cooja/mtype516.a(dtls.o)
 .text.dtls_uint24_to_int
                0x0000000000012833       0x32 obj_cooja/mtype516.a(dtls.o)
 .text.dtls_hash_init
                0x0000000000012865       0x13 obj_cooja/mtype516.a(dtls.o)
 .text.dtls_hash_update
                0x0000000000012878       0x21 obj_cooja/mtype516.a(dtls.o)
 .text.dtls_hash_finalize
                0x0000000000012899       0x1f obj_cooja/mtype516.a(dtls.o)
 .text.dtls_security_params_epoch
                0x00000000000128b8       0x58 obj_cooja/mtype516.a(dtls.o)
 .text.dtls_security_params
                0x0000000000012910        0xb obj_cooja/mtype516.a(dtls.o)
 .text.dtls_security_params_next
                0x000000000001291b       0x59 obj_cooja/mtype516.a(dtls.o)
 .text.dtls_security_params_free_other
                0x0000000000012974       0x50 obj_cooja/mtype516.a(dtls.o)
 .text.dtls_security_params_switch
                0x00000000000129c4       0x26 obj_cooja/mtype516.a(dtls.o)
 .text.dtls_alert_create
                0x00000000000129ea       0x10 obj_cooja/mtype516.a(dtls.o)
 .text.dtls_alert_fatal_create
                0x00000000000129fa       0x1b obj_cooja/mtype516.a(dtls.o)
 .text.dtls_prng
                0x0000000000012a15       0x52 obj_cooja/mtype516.a(dtls.o)
 .text.dtls_prng_init
                0x0000000000012a67        0xf obj_cooja/mtype516.a(dtls.o)
 .text.malloc_context
                0x0000000000012a76        0xa obj_cooja/mtype516.a(dtls.o)
 .text.free_context
                0x0000000000012a80        0x5 obj_cooja/mtype516.a(dtls.o)
 .text.dtls_init
                0x0000000000012a85       0x1c obj_cooja/mtype516.a(dtls.o)
                0x0000000000012a85                dtls_init
 .text.dtls_send
                0x0000000000012aa1       0x5e obj_cooja/mtype516.a(dtls.o)
 .text.dtls_get_peer
                0x0000000000012aff       0x57 obj_cooja/mtype516.a(dtls.o)
                0x0000000000012aff                dtls_get_peer
 .text.dtls_add_peer
                0x0000000000012b56       0x1d obj_cooja/mtype516.a(dtls.o)
 .text.dtls_write
                0x0000000000012b73       0x81 obj_cooja/mtype516.a(dtls.o)
                0x0000000000012b73                dtls_write
 .text.dtls_get_cookie
                0x0000000000012bf4       0xd8 obj_cooja/mtype516.a(dtls.o)
 .text.dtls_create_cookie
                0x0000000000012ccc      0x233 obj_cooja/mtype516.a(dtls.o)
 .text.is_record
                0x0000000000012eff       0x58 obj_cooja/mtype516.a(dtls.o)
 .text.dtls_set_record_header
                0x0000000000012f57       0xd9 obj_cooja/mtype516.a(dtls.o)
 .text.dtls_set_handshake_header
                0x0000000000013030       0xc8 obj_cooja/mtype516.a(dtls.o)
 .text.is_tls_ecdhe_ecdsa_with_aes_128_ccm_8
                0x00000000000130f8        0xa obj_cooja/mtype516.a(dtls.o)
 .text.is_tls_psk_with_aes_128_ccm_8
                0x0000000000013102       0x12 obj_cooja/mtype516.a(dtls.o)
 .text.is_psk_supported
                0x0000000000013114       0x2e obj_cooja/mtype516.a(dtls.o)
 .text.is_rpk_supported
                0x0000000000013142        0xa obj_cooja/mtype516.a(dtls.o)
 .text.is_cert_supported
                0x000000000001314c        0xa obj_cooja/mtype516.a(dtls.o)
 .text.known_cipher
                0x0000000000013156       0x7c obj_cooja/mtype516.a(dtls.o)
 .text.dtls_debug_keyblock
                0x00000000000131d2      0x11c obj_cooja/mtype516.a(dtls.o)
 .text.dtls_handshake_type_to_name
                0x00000000000132ee       0x6c obj_cooja/mtype516.a(dtls.o)
 .text.calculate_key_block
                0x000000000001335a      0x39e obj_cooja/mtype516.a(dtls.o)
 .text.dtls_check_tls_extension
                0x00000000000136f8      0x1a0 obj_cooja/mtype516.a(dtls.o)
 .text.dtls_update_parameters
                0x0000000000013898      0x376 obj_cooja/mtype516.a(dtls.o)
 .text.check_client_keyexchange
                0x0000000000013c0e       0xbd obj_cooja/mtype516.a(dtls.o)
 .text.update_hs_hash
                0x0000000000013ccb       0x51 obj_cooja/mtype516.a(dtls.o)
 .text.copy_hs_hash
                0x0000000000013d1c       0x28 obj_cooja/mtype516.a(dtls.o)
 .text.finalize_hs_hash
                0x0000000000013d44       0x20 obj_cooja/mtype516.a(dtls.o)
 .text.clear_hs_hash
                0x0000000000013d64       0x33 obj_cooja/mtype516.a(dtls.o)
 .text.check_finished
                0x0000000000013d97      0x1ef obj_cooja/mtype516.a(dtls.o)
 .text.dtls_prepare_record
                0x0000000000013f86      0x461 obj_cooja/mtype516.a(dtls.o)
 .text.dtls_send_handshake_msg_hash
                0x00000000000143e7      0x14e obj_cooja/mtype516.a(dtls.o)
 .text.dtls_send_handshake_msg
                0x0000000000014535       0x48 obj_cooja/mtype516.a(dtls.o)
 .text.dtls_send_multi
                0x000000000001457d      0x42f obj_cooja/mtype516.a(dtls.o)
 .text.dtls_send_alert
                0x00000000000149ac       0x42 obj_cooja/mtype516.a(dtls.o)
 .text.dtls_close
                0x00000000000149ee       0x8c obj_cooja/mtype516.a(dtls.o)
                0x00000000000149ee                dtls_close
 .text.dtls_destroy_peer
                0x0000000000014a7a       0x77 obj_cooja/mtype516.a(dtls.o)
 .text.dtls_verify_peer
                0x0000000000014af1      0x253 obj_cooja/mtype516.a(dtls.o)
 .text.dtls_send_server_hello
                0x0000000000014d44      0x1ab obj_cooja/mtype516.a(dtls.o)
 .text.dtls_send_server_key_exchange_psk
                0x0000000000014eef      0x103 obj_cooja/mtype516.a(dtls.o)
 .text.dtls_send_server_hello_done
                0x0000000000014ff2       0x32 obj_cooja/mtype516.a(dtls.o)
 .text.dtls_send_server_hello_msgs
                0x0000000000015024      0x13b obj_cooja/mtype516.a(dtls.o)
 .text.dtls_send_ccs
                0x000000000001515f       0x35 obj_cooja/mtype516.a(dtls.o)
 .text.dtls_send_client_key_exchange
                0x0000000000015194      0x231 obj_cooja/mtype516.a(dtls.o)
 .text.dtls_send_finished
                0x00000000000153c5      0x182 obj_cooja/mtype516.a(dtls.o)
 .text.dtls_send_client_hello
                0x0000000000015547      0x631 obj_cooja/mtype516.a(dtls.o)
 .text.check_server_hello
                0x0000000000015b78      0x1db obj_cooja/mtype516.a(dtls.o)
 .text.check_server_hello_verify_request
                0x0000000000015d53       0x67 obj_cooja/mtype516.a(dtls.o)
 .text.check_server_key_exchange_psk
                0x0000000000015dba      0x109 obj_cooja/mtype516.a(dtls.o)
 .text.check_certificate_request
                0x0000000000015ec3      0x1f7 obj_cooja/mtype516.a(dtls.o)
 .text.check_server_hellodone
                0x00000000000160ba       0xdb obj_cooja/mtype516.a(dtls.o)
 .text.decrypt_verify
                0x0000000000016195      0x2ec obj_cooja/mtype516.a(dtls.o)
 .text.dtls_send_hello_request
                0x0000000000016481       0x44 obj_cooja/mtype516.a(dtls.o)
 .text.dtls_renegotiate
                0x00000000000164c5       0xf6 obj_cooja/mtype516.a(dtls.o)
                0x00000000000164c5                dtls_renegotiate
 .text.handle_handshake_msg
                0x00000000000165bb      0x77f obj_cooja/mtype516.a(dtls.o)
 .text.handle_handshake
                0x0000000000016d3a      0x3f6 obj_cooja/mtype516.a(dtls.o)
 .text.handle_ccs
                0x0000000000017130       0xa8 obj_cooja/mtype516.a(dtls.o)
 .text.handle_alert
                0x00000000000171d8      0x17e obj_cooja/mtype516.a(dtls.o)
 .text.dtls_alert_send_from_err
                0x0000000000017356       0xe0 obj_cooja/mtype516.a(dtls.o)
 .text.dtls_handle_message
                0x0000000000017436      0x5aa obj_cooja/mtype516.a(dtls.o)
                0x0000000000017436                dtls_handle_message
 .text.dtls_new_context
                0x00000000000179e0      0x12b obj_cooja/mtype516.a(dtls.o)
                0x00000000000179e0                dtls_new_context
 .text.dtls_free_context
                0x0000000000017b0b       0x5c obj_cooja/mtype516.a(dtls.o)
                0x0000000000017b0b                dtls_free_context
 .text.dtls_connect_peer
                0x0000000000017b67      0x13b obj_cooja/mtype516.a(dtls.o)
                0x0000000000017b67                dtls_connect_peer
 .text.dtls_connect
                0x0000000000017ca2      0x114 obj_cooja/mtype516.a(dtls.o)
                0x0000000000017ca2                dtls_connect
 .text.dtls_retransmit
                0x0000000000017db6      0x289 obj_cooja/mtype516.a(dtls.o)
 .text.dtls_stop_retransmission
                0x000000000001803f       0x84 obj_cooja/mtype516.a(dtls.o)
 .text.dtls_check_retransmit
                0x00000000000180c3       0x81 obj_cooja/mtype516.a(dtls.o)
                0x00000000000180c3                dtls_check_retransmit
 .text.process_thread_dtls_retransmit_process
                0x0000000000018144      0x19e obj_cooja/mtype516.a(dtls.o)
 .text          0x00000000000182e2        0x0 obj_cooja/mtype516.a(tinydtls-crypto)
 .text.dtls_int_to_uint16
                0x00000000000182e2       0x2f obj_cooja/mtype516.a(tinydtls-crypto)
 .text.dtls_hash_init
                0x0000000000018311       0x13 obj_cooja/mtype516.a(tinydtls-crypto)
 .text.dtls_cipher_context_get
                0x0000000000018324        0xa obj_cooja/mtype516.a(tinydtls-crypto)
 .text.dtls_cipher_context_release
                0x000000000001832e        0x5 obj_cooja/mtype516.a(tinydtls-crypto)
 .text.dtls_crypto_init
                0x0000000000018333       0x20 obj_cooja/mtype516.a(tinydtls-crypto)
                0x0000000000018333                dtls_crypto_init
 .text.dtls_handshake_malloc
                0x0000000000018353       0x14 obj_cooja/mtype516.a(tinydtls-crypto)
 .text.dtls_handshake_dealloc
                0x0000000000018367       0x1b obj_cooja/mtype516.a(tinydtls-crypto)
 .text.dtls_security_malloc
                0x0000000000018382       0x14 obj_cooja/mtype516.a(tinydtls-crypto)
 .text.dtls_security_dealloc
                0x0000000000018396       0x1b obj_cooja/mtype516.a(tinydtls-crypto)
 .text.dtls_handshake_new
                0x00000000000183b1       0x5b obj_cooja/mtype516.a(tinydtls-crypto)
                0x00000000000183b1                dtls_handshake_new
 .text.dtls_handshake_free
                0x000000000001840c       0x29 obj_cooja/mtype516.a(tinydtls-crypto)
                0x000000000001840c                dtls_handshake_free
 .text.dtls_security_new
                0x0000000000018435       0x60 obj_cooja/mtype516.a(tinydtls-crypto)
                0x0000000000018435                dtls_security_new
 .text.dtls_security_free
                0x0000000000018495       0x1b obj_cooja/mtype516.a(tinydtls-crypto)
                0x0000000000018495                dtls_security_free
 .text.dtls_p_hash
                0x00000000000184b0      0x2fa obj_cooja/mtype516.a(tinydtls-crypto)
                0x00000000000184b0                dtls_p_hash
 .text.dtls_prf
                0x00000000000187aa       0x74 obj_cooja/mtype516.a(tinydtls-crypto)
                0x00000000000187aa                dtls_prf
 .text.dtls_mac
                0x000000000001881e       0xb3 obj_cooja/mtype516.a(tinydtls-crypto)
                0x000000000001881e                dtls_mac
 .text.dtls_ccm_encrypt
                0x00000000000188d1       0x66 obj_cooja/mtype516.a(tinydtls-crypto)
 .text.dtls_ccm_decrypt
                0x0000000000018937       0x66 obj_cooja/mtype516.a(tinydtls-crypto)
 .text.dtls_psk_pre_master_secret
                0x000000000001899d       0x9a obj_cooja/mtype516.a(tinydtls-crypto)
                0x000000000001899d                dtls_psk_pre_master_secret
 .text.dtls_encrypt
                0x0000000000018a37       0xa6 obj_cooja/mtype516.a(tinydtls-crypto)
                0x0000000000018a37                dtls_encrypt
 .text.dtls_decrypt
                0x0000000000018add       0xa6 obj_cooja/mtype516.a(tinydtls-crypto)
                0x0000000000018add                dtls_decrypt
 .text          0x0000000000018b83        0x0 obj_cooja/mtype516.a(hmac.o)
 .text.dtls_hash_init
                0x0000000000018b83       0x13 obj_cooja/mtype516.a(hmac.o)
 .text.dtls_hash_update
                0x0000000000018b96       0x21 obj_cooja/mtype516.a(hmac.o)
 .text.dtls_hash_finalize
                0x0000000000018bb7       0x1f obj_cooja/mtype516.a(hmac.o)
 .text.dtls_hmac_context_new
                0x0000000000018bd6       0x14 obj_cooja/mtype516.a(hmac.o)
 .text.dtls_hmac_context_free
                0x0000000000018bea       0x1b obj_cooja/mtype516.a(hmac.o)
 .text.dtls_hmac_storage_init
                0x0000000000018c05       0x14 obj_cooja/mtype516.a(hmac.o)
                0x0000000000018c05                dtls_hmac_storage_init
 .text.dtls_hmac_update
                0x0000000000018c19       0x3e obj_cooja/mtype516.a(hmac.o)
                0x0000000000018c19                dtls_hmac_update
 .text.dtls_hmac_new
                0x0000000000018c57       0x32 obj_cooja/mtype516.a(hmac.o)
                0x0000000000018c57                dtls_hmac_new
 .text.dtls_hmac_init
                0x0000000000018c89      0x11b obj_cooja/mtype516.a(hmac.o)
                0x0000000000018c89                dtls_hmac_init
 .text.dtls_hmac_free
                0x0000000000018da4       0x19 obj_cooja/mtype516.a(hmac.o)
                0x0000000000018da4                dtls_hmac_free
 .text.dtls_hmac_finalize
                0x0000000000018dbd       0xde obj_cooja/mtype516.a(hmac.o)
                0x0000000000018dbd                dtls_hmac_finalize
 .text          0x0000000000018e9b        0x0 obj_cooja/mtype516.a(netq.o)
 .text.netq_malloc_node
                0x0000000000018e9b       0x14 obj_cooja/mtype516.a(netq.o)
 .text.netq_free_node
                0x0000000000018eaf       0x1b obj_cooja/mtype516.a(netq.o)
 .text.netq_init
                0x0000000000018eca       0x14 obj_cooja/mtype516.a(netq.o)
                0x0000000000018eca                netq_init
 .text.netq_insert_node
                0x0000000000018ede       0xb7 obj_cooja/mtype516.a(netq.o)
                0x0000000000018ede                netq_insert_node
 .text.netq_head
                0x0000000000018f95       0x20 obj_cooja/mtype516.a(netq.o)
                0x0000000000018f95                netq_head
 .text.netq_next
                0x0000000000018fb5       0x20 obj_cooja/mtype516.a(netq.o)
                0x0000000000018fb5                netq_next
 .text.netq_remove
                0x0000000000018fd5       0x28 obj_cooja/mtype516.a(netq.o)
                0x0000000000018fd5                netq_remove
 .text.netq_pop_first
                0x0000000000018ffd       0x20 obj_cooja/mtype516.a(netq.o)
                0x0000000000018ffd                netq_pop_first
 .text.netq_node_new
                0x000000000001901d       0x4c obj_cooja/mtype516.a(netq.o)
                0x000000000001901d                netq_node_new
 .text.netq_node_free
                0x0000000000019069       0x19 obj_cooja/mtype516.a(netq.o)
                0x0000000000019069                netq_node_free
 .text.netq_delete_all
                0x0000000000019082       0x2f obj_cooja/mtype516.a(netq.o)
                0x0000000000019082                netq_delete_all
 .text          0x00000000000190b1        0x0 obj_cooja/mtype516.a(dtls_time.o)
 .text.dtls_clock_init
                0x00000000000190b1       0x12 obj_cooja/mtype516.a(dtls_time.o)
                0x00000000000190b1                dtls_clock_init
 .text.dtls_ticks
                0x00000000000190c3       0x12 obj_cooja/mtype516.a(dtls_time.o)
                0x00000000000190c3                dtls_ticks
 .text          0x00000000000190d5        0x0 obj_cooja/mtype516.a(peer.o)
 .text.peer_init
                0x00000000000190d5       0x14 obj_cooja/mtype516.a(peer.o)
                0x00000000000190d5                peer_init
 .text.dtls_malloc_peer
                0x00000000000190e9       0x14 obj_cooja/mtype516.a(peer.o)
 .text.dtls_free_peer
                0x00000000000190fd       0x45 obj_cooja/mtype516.a(peer.o)
                0x00000000000190fd                dtls_free_peer
 .text.dtls_new_peer
                0x0000000000019142       0x93 obj_cooja/mtype516.a(peer.o)
                0x0000000000019142                dtls_new_peer
 .text          0x00000000000191d5        0x0 obj_cooja/mtype516.a(session.o)
 .text.dtls_session_init
                0x00000000000191d5       0x43 obj_cooja/mtype516.a(session.o)
                0x00000000000191d5                dtls_session_init
 .text.dtls_session_equals
                0x0000000000019218       0x9f obj_cooja/mtype516.a(session.o)
                0x0000000000019218                dtls_session_equals
 .text          0x00000000000192b7        0x0 obj_cooja/mtype516.a(rijndael.o)
 .text.rijndaelKeySetupEnc
                0x00000000000192b7      0x610 obj_cooja/mtype516.a(rijndael.o)
                0x00000000000192b7                rijndaelKeySetupEnc
 .text.rijndaelEncrypt
                0x00000000000198c7      0x613 obj_cooja/mtype516.a(rijndael.o)
                0x00000000000198c7                rijndaelEncrypt
 .text.rijndael_set_key_enc_only
                0x0000000000019eda       0x41 obj_cooja/mtype516.a(rijndael.o)
                0x0000000000019eda                rijndael_set_key_enc_only
 .text.rijndael_encrypt
                0x0000000000019f1b       0x2d obj_cooja/mtype516.a(rijndael.o)
                0x0000000000019f1b                rijndael_encrypt
 .text          0x0000000000019f48        0x0 obj_cooja/mtype516.a(tinydtls-ccm.o)
 .text.memxor   0x0000000000019f48       0x2f obj_cooja/mtype516.a(tinydtls-ccm.o)
 .text.equals   0x0000000000019f77       0x44 obj_cooja/mtype516.a(tinydtls-ccm.o)
 .text.dtls_int_to_uint16
                0x0000000000019fbb       0x2f obj_cooja/mtype516.a(tinydtls-ccm.o)
 .text.block0   0x0000000000019fea       0x82 obj_cooja/mtype516.a(tinydtls-ccm.o)
 .text.add_auth_data
                0x000000000001a06c      0x1c0 obj_cooja/mtype516.a(tinydtls-ccm.o)
 .text.encrypt  0x000000000001a22c       0xc3 obj_cooja/mtype516.a(tinydtls-ccm.o)
 .text.mac      0x000000000001a2ef       0x5d obj_cooja/mtype516.a(tinydtls-ccm.o)
 .text.dtls_ccm_encrypt_message
                0x000000000001a34c      0x298 obj_cooja/mtype516.a(tinydtls-ccm.o)
                0x000000000001a34c                dtls_ccm_encrypt_message
 .text.dtls_ccm_decrypt_message
                0x000000000001a5e4      0x2b2 obj_cooja/mtype516.a(tinydtls-ccm.o)
                0x000000000001a5e4                dtls_ccm_decrypt_message
 .text          0x000000000001a896        0x0 obj_cooja/mtype516.a(sha2.o)
 .text.SHA256_Init
                0x000000000001a896       0x5a obj_cooja/mtype516.a(sha2.o)
                0x000000000001a896                SHA256_Init
 .text.SHA256_Transform
                0x000000000001a8f0      0x3c3 obj_cooja/mtype516.a(sha2.o)
                0x000000000001a8f0                SHA256_Transform
 .text.SHA256_Update
                0x000000000001acb3      0x1b6 obj_cooja/mtype516.a(sha2.o)
                0x000000000001acb3                SHA256_Update
 .text.SHA256_Final
                0x000000000001ae69      0x2a4 obj_cooja/mtype516.a(sha2.o)
                0x000000000001ae69                SHA256_Final
 .text.SHA256_End
                0x000000000001b10d      0x109 obj_cooja/mtype516.a(sha2.o)
                0x000000000001b10d                SHA256_End
 .text.SHA256_Data
                0x000000000001b216       0x69 obj_cooja/mtype516.a(sha2.o)
                0x000000000001b216                SHA256_Data
 .text          0x000000000001b27f        0x0 obj_cooja/mtype516.a(debug.o)
 .text.dtls_package_name
                0x000000000001b27f        0xa obj_cooja/mtype516.a(debug.o)
                0x000000000001b27f                dtls_package_name
 .text.dtls_package_version
                0x000000000001b289        0xa obj_cooja/mtype516.a(debug.o)
                0x000000000001b289                dtls_package_version
 .text.dtls_get_log_level
                0x000000000001b293        0xa obj_cooja/mtype516.a(debug.o)
                0x000000000001b293                dtls_get_log_level
 .text.dtls_set_log_level
                0x000000000001b29d        0xd obj_cooja/mtype516.a(debug.o)
                0x000000000001b29d                dtls_set_log_level
 .text.print_timestamp
                0x000000000001b2aa        0xa obj_cooja/mtype516.a(debug.o)
 .text.dsrv_print_addr
                0x000000000001b2b4      0x190 obj_cooja/mtype516.a(debug.o)
 .text.hexdump  0x000000000001b444       0x8c obj_cooja/mtype516.a(debug.o)
                0x000000000001b444                hexdump
 .text.dump     0x000000000001b4d0       0x36 obj_cooja/mtype516.a(debug.o)
                0x000000000001b4d0                dump
 .text.dtls_dsrv_log_addr
                0x000000000001b506       0x76 obj_cooja/mtype516.a(debug.o)
                0x000000000001b506                dtls_dsrv_log_addr
 .text.dtls_dsrv_hexdump_log
                0x000000000001b57c      0x16a obj_cooja/mtype516.a(debug.o)
                0x000000000001b57c                dtls_dsrv_hexdump_log
 .text          0x000000000001b6e6        0x0 obj_cooja/mtype516.a(simEnvChange.o)
 .text.doActionsBeforeTick
                0x000000000001b6e6       0x31 obj_cooja/mtype516.a(simEnvChange.o)
                0x000000000001b6e6                doActionsBeforeTick
 .text.doActionsAfterTick
                0x000000000001b717       0x32 obj_cooja/mtype516.a(simEnvChange.o)
                0x000000000001b717                doActionsAfterTick
 .text          0x000000000001b749        0x0 obj_cooja/mtype516.a(cooja_mt.o)
 .text.cooja_mt_init
                0x000000000001b749        0xd obj_cooja/mtype516.a(cooja_mt.o)
                0x000000000001b749                cooja_mt_init
 .text.cooja_mt_remove
                0x000000000001b756        0xd obj_cooja/mtype516.a(cooja_mt.o)
                0x000000000001b756                cooja_mt_remove
 .text.cooja_mt_start
                0x000000000001b763       0x2d obj_cooja/mtype516.a(cooja_mt.o)
                0x000000000001b763                cooja_mt_start
 .text.cooja_mt_exec
                0x000000000001b790       0x31 obj_cooja/mtype516.a(cooja_mt.o)
                0x000000000001b790                cooja_mt_exec
 .text.cooja_mt_exit
                0x000000000001b7c1       0x22 obj_cooja/mtype516.a(cooja_mt.o)
                0x000000000001b7c1                cooja_mt_exit
 .text.cooja_mt_yield
                0x000000000001b7e3       0x22 obj_cooja/mtype516.a(cooja_mt.o)
                0x000000000001b7e3                cooja_mt_yield
 .text          0x000000000001b805        0x0 obj_cooja/mtype516.a(cooja_mtarch.o)
 .text.cooja_mtarch_init
                0x000000000001b805        0x5 obj_cooja/mtype516.a(cooja_mtarch.o)
                0x000000000001b805                cooja_mtarch_init
 .text.cooja_mtarch_start
                0x000000000001b80a       0x7b obj_cooja/mtype516.a(cooja_mtarch.o)
                0x000000000001b80a                cooja_mtarch_start
 .text.cooja_sw
                0x000000000001b885       0x22 obj_cooja/mtype516.a(cooja_mtarch.o)
                0x000000000001b885                cooja_sw
 .text.cooja_mtarch_exec
                0x000000000001b8a7       0x1c obj_cooja/mtype516.a(cooja_mtarch.o)
                0x000000000001b8a7                cooja_mtarch_exec
 .text.cooja_mtarch_remove
                0x000000000001b8c3        0x5 obj_cooja/mtype516.a(cooja_mtarch.o)
                0x000000000001b8c3                cooja_mtarch_remove
 .text.cooja_mtarch_yield
                0x000000000001b8c8        0xa obj_cooja/mtype516.a(cooja_mtarch.o)
                0x000000000001b8c8                cooja_mtarch_yield
 .text.cooja_mtarch_pstop
                0x000000000001b8d2        0x5 obj_cooja/mtype516.a(cooja_mtarch.o)
                0x000000000001b8d2                cooja_mtarch_pstop
 .text.cooja_mtarch_pstart
                0x000000000001b8d7        0x5 obj_cooja/mtype516.a(cooja_mtarch.o)
                0x000000000001b8d7                cooja_mtarch_pstart
 .text.cooja_mtarch_stack_usage
                0x000000000001b8dc       0x3e obj_cooja/mtype516.a(cooja_mtarch.o)
                0x000000000001b8dc                cooja_mtarch_stack_usage
 .text          0x000000000001b91a        0x0 obj_cooja/mtype516.a(rtimer-arch.o)
 .text.rtimer_arch_init
                0x000000000001b91a       0x23 obj_cooja/mtype516.a(rtimer-arch.o)
                0x000000000001b91a                rtimer_arch_init
 .text.rtimer_arch_schedule
                0x000000000001b93d       0x2f obj_cooja/mtype516.a(rtimer-arch.o)
                0x000000000001b93d                rtimer_arch_schedule
 .text.rtimer_arch_next
                0x000000000001b96c       0x10 obj_cooja/mtype516.a(rtimer-arch.o)
                0x000000000001b96c                rtimer_arch_next
 .text.rtimer_arch_pending
                0x000000000001b97c        0xa obj_cooja/mtype516.a(rtimer-arch.o)
                0x000000000001b97c                rtimer_arch_pending
 .text.rtimer_arch_check
                0x000000000001b986       0x47 obj_cooja/mtype516.a(rtimer-arch.o)
                0x000000000001b986                rtimer_arch_check
 .text.rtimer_arch_now
                0x000000000001b9cd       0x10 obj_cooja/mtype516.a(rtimer-arch.o)
                0x000000000001b9cd                rtimer_arch_now
 .text          0x000000000001b9dd        0x0 obj_cooja/mtype516.a(beep.o)
 .text.beep_alarm
                0x000000000001b9dd        0xc obj_cooja/mtype516.a(beep.o)
                0x000000000001b9dd                beep_alarm
 .text.beep_beep
                0x000000000001b9e9        0xc obj_cooja/mtype516.a(beep.o)
                0x000000000001b9e9                beep_beep
 .text.beep     0x000000000001b9f5        0xc obj_cooja/mtype516.a(beep.o)
                0x000000000001b9f5                beep
 .text.beep_down
                0x000000000001ba01        0xc obj_cooja/mtype516.a(beep.o)
                0x000000000001ba01                beep_down
 .text.beep_on  0x000000000001ba0d        0xc obj_cooja/mtype516.a(beep.o)
                0x000000000001ba0d                beep_on
 .text.beep_off
                0x000000000001ba19        0xc obj_cooja/mtype516.a(beep.o)
                0x000000000001ba19                beep_off
 .text.beep_spinup
                0x000000000001ba25        0xc obj_cooja/mtype516.a(beep.o)
                0x000000000001ba25                beep_spinup
 .text.beep_quick
                0x000000000001ba31        0xc obj_cooja/mtype516.a(beep.o)
                0x000000000001ba31                beep_quick
 .text.beep_long
                0x000000000001ba3d        0xc obj_cooja/mtype516.a(beep.o)
                0x000000000001ba3d                beep_long
 .text.doInterfaceActionsBeforeTick
                0x000000000001ba49        0x5 obj_cooja/mtype516.a(beep.o)
 .text.doInterfaceActionsAfterTick
                0x000000000001ba4e        0x5 obj_cooja/mtype516.a(beep.o)
 .text          0x000000000001ba53        0x0 obj_cooja/mtype516.a(button-sensor.o)
 .text.value    0x000000000001ba53       0x2f obj_cooja/mtype516.a(button-sensor.o)
 .text.configure
                0x000000000001ba82       0x50 obj_cooja/mtype516.a(button-sensor.o)
 .text.status   0x000000000001bad2       0x1f obj_cooja/mtype516.a(button-sensor.o)
 .text.doInterfaceActionsBeforeTick
                0x000000000001baf1       0x60 obj_cooja/mtype516.a(button-sensor.o)
 .text.doInterfaceActionsAfterTick
                0x000000000001bb51        0x5 obj_cooja/mtype516.a(button-sensor.o)
 .text          0x000000000001bb56        0x0 obj_cooja/mtype516.a(leds-arch.o)
 .text.leds_arch_init
                0x000000000001bb56        0xc obj_cooja/mtype516.a(leds-arch.o)
                0x000000000001bb56                leds_arch_init
 .text.leds_arch_get
                0x000000000001bb62        0xc obj_cooja/mtype516.a(leds-arch.o)
                0x000000000001bb62                leds_arch_get
 .text.leds_arch_set
                0x000000000001bb6e       0x23 obj_cooja/mtype516.a(leds-arch.o)
                0x000000000001bb6e                leds_arch_set
 .text.doInterfaceActionsBeforeTick
                0x000000000001bb91        0x5 obj_cooja/mtype516.a(leds-arch.o)
 .text.doInterfaceActionsAfterTick
                0x000000000001bb96        0x5 obj_cooja/mtype516.a(leds-arch.o)
 .text          0x000000000001bb9b        0x0 obj_cooja/mtype516.a(moteid.o)
 .text.doInterfaceActionsBeforeTick
                0x000000000001bb9b       0x2a obj_cooja/mtype516.a(moteid.o)
 .text.doInterfaceActionsAfterTick
                0x000000000001bbc5        0x5 obj_cooja/mtype516.a(moteid.o)
 .text          0x000000000001bbca        0x0 obj_cooja/mtype516.a(pir-sensor.o)
 .text.value    0x000000000001bbca        0xf obj_cooja/mtype516.a(pir-sensor.o)
 .text.configure
                0x000000000001bbd9       0x3a obj_cooja/mtype516.a(pir-sensor.o)
 .text.status   0x000000000001bc13       0x23 obj_cooja/mtype516.a(pir-sensor.o)
 .text.doInterfaceActionsBeforeTick
                0x000000000001bc36       0x40 obj_cooja/mtype516.a(pir-sensor.o)
 .text.doInterfaceActionsAfterTick
                0x000000000001bc76        0x5 obj_cooja/mtype516.a(pir-sensor.o)
 .text          0x000000000001bc7b        0x0 obj_cooja/mtype516.a(rs232.o)
 .text.rs232_init
                0x000000000001bc7b        0x5 obj_cooja/mtype516.a(rs232.o)
                0x000000000001bc7b                rs232_init
 .text.rs232_set_speed
                0x000000000001bc80        0xe obj_cooja/mtype516.a(rs232.o)
                0x000000000001bc80                rs232_set_speed
 .text.rs232_set_input
                0x000000000001bc8e        0xd obj_cooja/mtype516.a(rs232.o)
                0x000000000001bc8e                rs232_set_input
 .text.rs232_send
                0x000000000001bc9b       0x22 obj_cooja/mtype516.a(rs232.o)
                0x000000000001bc9b                rs232_send
 .text.rs232_print
                0x000000000001bcbd       0x1b obj_cooja/mtype516.a(rs232.o)
                0x000000000001bcbd                rs232_print
 .text.slip_arch_writeb
                0x000000000001bcd8       0x1d obj_cooja/mtype516.a(rs232.o)
                0x000000000001bcd8                slip_arch_writeb
 .text.doInterfaceActionsBeforeTick
                0x000000000001bcf5       0xb2 obj_cooja/mtype516.a(rs232.o)
 .text.doInterfaceActionsAfterTick
                0x000000000001bda7        0x5 obj_cooja/mtype516.a(rs232.o)
 .text          0x000000000001bdac        0x0 obj_cooja/mtype516.a(vib-sensor.o)
 .text.value    0x000000000001bdac        0xf obj_cooja/mtype516.a(vib-sensor.o)
 .text.configure
                0x000000000001bdbb       0x3a obj_cooja/mtype516.a(vib-sensor.o)
 .text.status   0x000000000001bdf5       0x23 obj_cooja/mtype516.a(vib-sensor.o)
 .text.doInterfaceActionsBeforeTick
                0x000000000001be18       0x40 obj_cooja/mtype516.a(vib-sensor.o)
 .text.doInterfaceActionsAfterTick
                0x000000000001be58        0x5 obj_cooja/mtype516.a(vib-sensor.o)
 .text          0x000000000001be5d        0x0 obj_cooja/mtype516.a(clock.o)
 .text.clock_init
                0x000000000001be5d        0x5 obj_cooja/mtype516.a(clock.o)
                0x000000000001be5d                clock_init
 .text.clock_time
                0x000000000001be62        0xa obj_cooja/mtype516.a(clock.o)
                0x000000000001be62                clock_time
 .text.clock_seconds
                0x000000000001be6c       0x16 obj_cooja/mtype516.a(clock.o)
                0x000000000001be6c                clock_seconds
 .text.clock_delay
                0x000000000001be82        0x5 obj_cooja/mtype516.a(clock.o)
                0x000000000001be82                clock_delay
 .text.doInterfaceActionsBeforeTick
                0x000000000001be87        0x5 obj_cooja/mtype516.a(clock.o)
 .text.doInterfaceActionsAfterTick
                0x000000000001be8c        0x5 obj_cooja/mtype516.a(clock.o)
 .text          0x000000000001be91        0x0 obj_cooja/mtype516.a(log.o)
 .text.simlog_char
                0x000000000001be91       0x42 obj_cooja/mtype516.a(log.o)
                0x000000000001be91                simlog_char
 .text.simlog   0x000000000001bed3       0x6d obj_cooja/mtype516.a(log.o)
                0x000000000001bed3                simlog
 .text.log_message
                0x000000000001bf40       0x1e obj_cooja/mtype516.a(log.o)
                0x000000000001bf40                log_message
 .text.doInterfaceActionsBeforeTick
                0x000000000001bf5e        0x5 obj_cooja/mtype516.a(log.o)
 .text.doInterfaceActionsAfterTick
                0x000000000001bf63        0x5 obj_cooja/mtype516.a(log.o)
 .text.log_set_putchar_with_slip
                0x000000000001bf68        0xd obj_cooja/mtype516.a(log.o)
                0x000000000001bf68                log_set_putchar_with_slip
 .text.putchar  0x000000000001bf75       0x84 obj_cooja/mtype516.a(log.o)
                0x000000000001bf75                log_putchar
 .text.puts     0x000000000001bff9       0x24 obj_cooja/mtype516.a(log.o)
                0x000000000001bff9                log_puts
 .text.printf   0x000000000001c01d       0x61 obj_cooja/mtype516.a(log.o)
                0x000000000001c01d                log_printf
 .text          0x000000000001c07e        0x0 obj_cooja/mtype516.a(cfs-cooja.o)
 .text.cfs_open
                0x000000000001c07e       0x69 obj_cooja/mtype516.a(cfs-cooja.o)
                0x000000000001c07e                cfs_open
 .text.cfs_close
                0x000000000001c0e7        0xc obj_cooja/mtype516.a(cfs-cooja.o)
                0x000000000001c0e7                cfs_close
 .text.cfs_read
                0x000000000001c0f3       0x9e obj_cooja/mtype516.a(cfs-cooja.o)
                0x000000000001c0f3                cfs_read
 .text.cfs_write
                0x000000000001c191       0xdd obj_cooja/mtype516.a(cfs-cooja.o)
                0x000000000001c191                cfs_write
 .text.cfs_seek
                0x000000000001c26e       0x88 obj_cooja/mtype516.a(cfs-cooja.o)
                0x000000000001c26e                cfs_seek
 .text.cfs_remove
                0x000000000001c2f6       0x29 obj_cooja/mtype516.a(cfs-cooja.o)
                0x000000000001c2f6                cfs_remove
 .text.cfs_opendir
                0x000000000001c31f        0xa obj_cooja/mtype516.a(cfs-cooja.o)
                0x000000000001c31f                cfs_opendir
 .text.cfs_readdir
                0x000000000001c329        0xa obj_cooja/mtype516.a(cfs-cooja.o)
                0x000000000001c329                cfs_readdir
 .text.cfs_closedir
                0x000000000001c333        0x5 obj_cooja/mtype516.a(cfs-cooja.o)
                0x000000000001c333                cfs_closedir
 .text.doInterfaceActionsBeforeTick
                0x000000000001c338        0x5 obj_cooja/mtype516.a(cfs-cooja.o)
 .text.doInterfaceActionsAfterTick
                0x000000000001c33d        0x5 obj_cooja/mtype516.a(cfs-cooja.o)
 .text          0x000000000001c342        0x0 obj_cooja/mtype516.a(cooja-radio.o)
 .text.packetbuf_set_attr
                0x000000000001c342       0x2a obj_cooja/mtype516.a(cooja-radio.o)
 .text.set_send_on_cca
                0x000000000001c36c       0x17 obj_cooja/mtype516.a(cooja-radio.o)
 .text.set_frame_filtering
                0x000000000001c383        0xd obj_cooja/mtype516.a(cooja-radio.o)
 .text.set_auto_ack
                0x000000000001c390        0xd obj_cooja/mtype516.a(cooja-radio.o)
 .text.set_poll_mode
                0x000000000001c39d        0xd obj_cooja/mtype516.a(cooja-radio.o)
 .text.radio_set_channel
                0x000000000001c3aa        0xd obj_cooja/mtype516.a(cooja-radio.o)
                0x000000000001c3aa                radio_set_channel
 .text.radio_set_txpower
                0x000000000001c3b7       0x17 obj_cooja/mtype516.a(cooja-radio.o)
                0x000000000001c3b7                radio_set_txpower
 .text.radio_signal_strength_last
                0x000000000001c3ce        0xa obj_cooja/mtype516.a(cooja-radio.o)
                0x000000000001c3ce                radio_signal_strength_last
 .text.radio_signal_strength_current
                0x000000000001c3d8        0xa obj_cooja/mtype516.a(cooja-radio.o)
                0x000000000001c3d8                radio_signal_strength_current
 .text.radio_LQI
                0x000000000001c3e2        0xa obj_cooja/mtype516.a(cooja-radio.o)
                0x000000000001c3e2                radio_LQI
 .text.radio_on
                0x000000000001c3ec       0x11 obj_cooja/mtype516.a(cooja-radio.o)
 .text.radio_off
                0x000000000001c3fd       0x11 obj_cooja/mtype516.a(cooja-radio.o)
 .text.doInterfaceActionsBeforeTick
                0x000000000001c40e       0x4b obj_cooja/mtype516.a(cooja-radio.o)
 .text.doInterfaceActionsAfterTick
                0x000000000001c459        0x5 obj_cooja/mtype516.a(cooja-radio.o)
 .text.radio_read
                0x000000000001c45e       0xb7 obj_cooja/mtype516.a(cooja-radio.o)
 .text.channel_clear
                0x000000000001c515       0x1b obj_cooja/mtype516.a(cooja-radio.o)
 .text.radio_send
                0x000000000001c530       0xda obj_cooja/mtype516.a(cooja-radio.o)
 .text.prepare_packet
                0x000000000001c60a       0x1c obj_cooja/mtype516.a(cooja-radio.o)
 .text.transmit_packet
                0x000000000001c626       0x3a obj_cooja/mtype516.a(cooja-radio.o)
 .text.receiving_packet
                0x000000000001c660        0xf obj_cooja/mtype516.a(cooja-radio.o)
 .text.pending_packet
                0x000000000001c66f       0x25 obj_cooja/mtype516.a(cooja-radio.o)
 .text.process_thread_cooja_radio_process
                0x000000000001c694       0x9f obj_cooja/mtype516.a(cooja-radio.o)
 .text.init     0x000000000001c733       0x21 obj_cooja/mtype516.a(cooja-radio.o)
 .text.get_value
                0x000000000001c754       0xdc obj_cooja/mtype516.a(cooja-radio.o)
 .text.set_value
                0x000000000001c830      0x104 obj_cooja/mtype516.a(cooja-radio.o)
 .text.get_object
                0x000000000001c934       0x3d obj_cooja/mtype516.a(cooja-radio.o)
 .text.set_object
                0x000000000001c971        0xa obj_cooja/mtype516.a(cooja-radio.o)
 .text          0x000000000001c97b        0x0 obj_cooja/mtype516.a(eeprom.o)
 .text.eeprom_init
                0x000000000001c97b        0x5 obj_cooja/mtype516.a(eeprom.o)
                0x000000000001c97b                eeprom_init
 .text.eeprom_read
                0x000000000001c980       0x70 obj_cooja/mtype516.a(eeprom.o)
                0x000000000001c980                eeprom_read
 .text.eeprom_write
                0x000000000001c9f0       0x70 obj_cooja/mtype516.a(eeprom.o)
                0x000000000001c9f0                eeprom_write
 .text.doInterfaceActionsBeforeTick
                0x000000000001ca60        0x5 obj_cooja/mtype516.a(eeprom.o)
 .text.doInterfaceActionsAfterTick
                0x000000000001ca65        0x5 obj_cooja/mtype516.a(eeprom.o)
 .text          0x000000000001ca6a        0x0 obj_cooja/mtype516.a(random.o)
 .text.random_init
                0x000000000001ca6a       0x1b obj_cooja/mtype516.a(random.o)
                0x000000000001ca6a                random_init
 .text.random_rand
                0x000000000001ca85        0xd obj_cooja/mtype516.a(random.o)
                0x000000000001ca85                random_rand
 .text          0x000000000001ca92        0x0 obj_cooja/mtype516.a(sensors.o)
 .text.get_sensor_index
                0x000000000001ca92       0x3b obj_cooja/mtype516.a(sensors.o)
 .text.sensors_first
                0x000000000001cacd        0xa obj_cooja/mtype516.a(sensors.o)
                0x000000000001cacd                sensors_first
 .text.sensors_next
                0x000000000001cad7       0x1d obj_cooja/mtype516.a(sensors.o)
                0x000000000001cad7                sensors_next
 .text.sensors_changed
                0x000000000001caf4       0x2f obj_cooja/mtype516.a(sensors.o)
                0x000000000001caf4                sensors_changed
 .text.sensors_find
                0x000000000001cb23       0x6b obj_cooja/mtype516.a(sensors.o)
                0x000000000001cb23                sensors_find
 .text.process_thread_sensors_process
                0x000000000001cb8e      0x1a5 obj_cooja/mtype516.a(sensors.o)
 .text          0x000000000001cd33        0x0 obj_cooja/mtype516.a(autostart.o)
 .text.autostart_start
                0x000000000001cd33       0x4b obj_cooja/mtype516.a(autostart.o)
                0x000000000001cd33                autostart_start
 .text.autostart_exit
                0x000000000001cd7e       0x43 obj_cooja/mtype516.a(autostart.o)
                0x000000000001cd7e                autostart_exit
 .text          0x000000000001cdc1        0x0 obj_cooja/mtype516.a(ctimer.o)
 .text.process_thread_ctimer_process
                0x000000000001cdc1      0x117 obj_cooja/mtype516.a(ctimer.o)
 .text.ctimer_init
                0x000000000001ced8       0x30 obj_cooja/mtype516.a(ctimer.o)
                0x000000000001ced8                ctimer_init
 .text.ctimer_set
                0x000000000001cf08       0x31 obj_cooja/mtype516.a(ctimer.o)
                0x000000000001cf08                ctimer_set
 .text.ctimer_set_with_process
                0x000000000001cf39       0x7c obj_cooja/mtype516.a(ctimer.o)
                0x000000000001cf39                ctimer_set_with_process
 .text.ctimer_reset
                0x000000000001cfb5       0x4f obj_cooja/mtype516.a(ctimer.o)
                0x000000000001cfb5                ctimer_reset
 .text.ctimer_restart
                0x000000000001d004       0x4f obj_cooja/mtype516.a(ctimer.o)
                0x000000000001d004                ctimer_restart
 .text.ctimer_stop
                0x000000000001d053       0x4b obj_cooja/mtype516.a(ctimer.o)
                0x000000000001d053                ctimer_stop
 .text.ctimer_expired
                0x000000000001d09e       0x57 obj_cooja/mtype516.a(ctimer.o)
                0x000000000001d09e                ctimer_expired
 .text          0x000000000001d0f5        0x0 obj_cooja/mtype516.a(etimer.o)
 .text.update_time
                0x000000000001d0f5       0x8f obj_cooja/mtype516.a(etimer.o)
 .text.process_thread_etimer_process
                0x000000000001d184      0x184 obj_cooja/mtype516.a(etimer.o)
 .text.etimer_request_poll
                0x000000000001d308       0x14 obj_cooja/mtype516.a(etimer.o)
                0x000000000001d308                etimer_request_poll
 .text.add_timer
                0x000000000001d31c       0x70 obj_cooja/mtype516.a(etimer.o)
 .text.etimer_set
                0x000000000001d38c       0x25 obj_cooja/mtype516.a(etimer.o)
                0x000000000001d38c                etimer_set
 .text.etimer_reset_with_new_interval
                0x000000000001d3b1       0x27 obj_cooja/mtype516.a(etimer.o)
                0x000000000001d3b1                etimer_reset_with_new_interval
 .text.etimer_reset
                0x000000000001d3d8       0x1e obj_cooja/mtype516.a(etimer.o)
                0x000000000001d3d8                etimer_reset
 .text.etimer_restart
                0x000000000001d3f6       0x1e obj_cooja/mtype516.a(etimer.o)
                0x000000000001d3f6                etimer_restart
 .text.etimer_adjust
                0x000000000001d414       0x1c obj_cooja/mtype516.a(etimer.o)
                0x000000000001d414                etimer_adjust
 .text.etimer_expired
                0x000000000001d430       0x13 obj_cooja/mtype516.a(etimer.o)
                0x000000000001d430                etimer_expired
 .text.etimer_expiration_time
                0x000000000001d443       0x12 obj_cooja/mtype516.a(etimer.o)
                0x000000000001d443                etimer_expiration_time
 .text.etimer_start_time
                0x000000000001d455        0xa obj_cooja/mtype516.a(etimer.o)
                0x000000000001d455                etimer_start_time
 .text.etimer_pending
                0x000000000001d45f       0x12 obj_cooja/mtype516.a(etimer.o)
                0x000000000001d45f                etimer_pending
 .text.etimer_next_expiration_time
                0x000000000001d471       0x1a obj_cooja/mtype516.a(etimer.o)
                0x000000000001d471                etimer_next_expiration_time
 .text.etimer_stop
                0x000000000001d48b       0x75 obj_cooja/mtype516.a(etimer.o)
                0x000000000001d48b                etimer_stop
 .text          0x000000000001d500        0x0 obj_cooja/mtype516.a(process.o)
 .text.process_alloc_event
                0x000000000001d500       0x15 obj_cooja/mtype516.a(process.o)
                0x000000000001d500                process_alloc_event
 .text.process_start
                0x000000000001d515       0x6f obj_cooja/mtype516.a(process.o)
                0x000000000001d515                process_start
 .text.exit_process
                0x000000000001d584       0xea obj_cooja/mtype516.a(process.o)
 .text.call_process
                0x000000000001d66e       0x90 obj_cooja/mtype516.a(process.o)
 .text.process_exit
                0x000000000001d6fe       0x1c obj_cooja/mtype516.a(process.o)
                0x000000000001d6fe                process_exit
 .text.process_init
                0x000000000001d71a       0x33 obj_cooja/mtype516.a(process.o)
                0x000000000001d71a                process_init
 .text.do_poll  0x000000000001d74d       0x5b obj_cooja/mtype516.a(process.o)
 .text.do_event
                0x000000000001d7a8      0x114 obj_cooja/mtype516.a(process.o)
 .text.process_run
                0x000000000001d8bc       0x33 obj_cooja/mtype516.a(process.o)
                0x000000000001d8bc                process_run
 .text.process_nevents
                0x000000000001d8ef       0x1b obj_cooja/mtype516.a(process.o)
                0x000000000001d8ef                process_nevents
 .text.process_post
                0x000000000001d90a       0x95 obj_cooja/mtype516.a(process.o)
                0x000000000001d90a                process_post
 .text.process_post_synch
                0x000000000001d99f       0x38 obj_cooja/mtype516.a(process.o)
                0x000000000001d99f                process_post_synch
 .text.process_poll
                0x000000000001d9d7       0x2f obj_cooja/mtype516.a(process.o)
                0x000000000001d9d7                process_poll
 .text.process_is_running
                0x000000000001da06       0x14 obj_cooja/mtype516.a(process.o)
                0x000000000001da06                process_is_running
 .text          0x000000000001da1a        0x0 obj_cooja/mtype516.a(rtimer.o)
 .text.rtimer_init
                0x000000000001da1a        0xd obj_cooja/mtype516.a(rtimer.o)
                0x000000000001da1a                rtimer_init
 .text.rtimer_set
                0x000000000001da27       0x7c obj_cooja/mtype516.a(rtimer.o)
                0x000000000001da27                rtimer_set
 .text.rtimer_run_next
                0x000000000001daa3       0x5d obj_cooja/mtype516.a(rtimer.o)
                0x000000000001daa3                rtimer_run_next
 .text          0x000000000001db00        0x0 obj_cooja/mtype516.a(timer.o)
 .text.timer_set
                0x000000000001db00       0x1b obj_cooja/mtype516.a(timer.o)
                0x000000000001db00                timer_set
 .text.timer_reset
                0x000000000001db1b       0x17 obj_cooja/mtype516.a(timer.o)
                0x000000000001db1b                timer_reset
 .text.timer_restart
                0x000000000001db32       0x12 obj_cooja/mtype516.a(timer.o)
                0x000000000001db32                timer_restart
 .text.timer_expired
                0x000000000001db44       0x29 obj_cooja/mtype516.a(timer.o)
                0x000000000001db44                timer_expired
 .text.timer_remaining
                0x000000000001db6d       0x24 obj_cooja/mtype516.a(timer.o)
                0x000000000001db6d                timer_remaining
 .text          0x000000000001db91        0x0 obj_cooja/mtype516.a(serial-line.o)
 .text.serial_line_input_byte
                0x000000000001db91       0x7d obj_cooja/mtype516.a(serial-line.o)
                0x000000000001db91                serial_line_input_byte
 .text.process_thread_serial_line_process
                0x000000000001dc0e      0x146 obj_cooja/mtype516.a(serial-line.o)
 .text.serial_line_init
                0x000000000001dd54       0x38 obj_cooja/mtype516.a(serial-line.o)
                0x000000000001dd54                serial_line_init
 .text          0x000000000001dd8c        0x0 obj_cooja/mtype516.a(assert.o)
 .text._xassert
                0x000000000001dd8c       0x22 obj_cooja/mtype516.a(assert.o)
                0x000000000001dd8c                _xassert
 .text          0x000000000001ddae        0x0 obj_cooja/mtype516.a(list.o)
 .text.list_init
                0x000000000001ddae        0xe obj_cooja/mtype516.a(list.o)
                0x000000000001ddae                list_init
 .text.list_head
                0x000000000001ddbc        0xa obj_cooja/mtype516.a(list.o)
                0x000000000001ddbc                list_head
 .text.list_copy
                0x000000000001ddc6        0xf obj_cooja/mtype516.a(list.o)
                0x000000000001ddc6                list_copy
 .text.list_tail
                0x000000000001ddd5       0x36 obj_cooja/mtype516.a(list.o)
                0x000000000001ddd5                list_tail
 .text.list_add
                0x000000000001de0b       0x49 obj_cooja/mtype516.a(list.o)
                0x000000000001de0b                list_add
 .text.list_push
                0x000000000001de54       0x2c obj_cooja/mtype516.a(list.o)
                0x000000000001de54                list_push
 .text.list_chop
                0x000000000001de80       0x6a obj_cooja/mtype516.a(list.o)
                0x000000000001de80                list_chop
 .text.list_pop
                0x000000000001deea       0x28 obj_cooja/mtype516.a(list.o)
                0x000000000001deea                list_pop
 .text.list_remove
                0x000000000001df12       0x67 obj_cooja/mtype516.a(list.o)
                0x000000000001df12                list_remove
 .text.list_length
                0x000000000001df79       0x2e obj_cooja/mtype516.a(list.o)
                0x000000000001df79                list_length
 .text.list_insert
                0x000000000001dfa7       0x34 obj_cooja/mtype516.a(list.o)
                0x000000000001dfa7                list_insert
 .text.list_item_next
                0x000000000001dfdb       0x17 obj_cooja/mtype516.a(list.o)
                0x000000000001dfdb                list_item_next
 .text          0x000000000001dff2        0x0 obj_cooja/mtype516.a(memb.o)
 .text.memb_init
                0x000000000001dff2       0x5e obj_cooja/mtype516.a(memb.o)
                0x000000000001dff2                memb_init
 .text.memb_alloc
                0x000000000001e050       0x65 obj_cooja/mtype516.a(memb.o)
                0x000000000001e050                memb_alloc
 .text.memb_free
                0x000000000001e0b5       0x7b obj_cooja/mtype516.a(memb.o)
                0x000000000001e0b5                memb_free
 .text.memb_inmemb
                0x000000000001e130       0x3f obj_cooja/mtype516.a(memb.o)
                0x000000000001e130                memb_inmemb
 .text.memb_numfree
                0x000000000001e16f       0x44 obj_cooja/mtype516.a(memb.o)
                0x000000000001e16f                memb_numfree
 .text          0x000000000001e1b3        0x0 obj_cooja/mtype516.a(ringbuf.o)
 .text.ringbuf_init
                0x000000000001e1b3       0x31 obj_cooja/mtype516.a(ringbuf.o)
                0x000000000001e1b3                ringbuf_init
 .text.ringbuf_put
                0x000000000001e1e4       0x7e obj_cooja/mtype516.a(ringbuf.o)
                0x000000000001e1e4                ringbuf_put
 .text.ringbuf_get
                0x000000000001e262       0x6d obj_cooja/mtype516.a(ringbuf.o)
                0x000000000001e262                ringbuf_get
 .text.ringbuf_size
                0x000000000001e2cf       0x12 obj_cooja/mtype516.a(ringbuf.o)
                0x000000000001e2cf                ringbuf_size
 .text.ringbuf_elements
                0x000000000001e2e1       0x27 obj_cooja/mtype516.a(ringbuf.o)
                0x000000000001e2e1                ringbuf_elements
 .text          0x000000000001e308        0x0 obj_cooja/mtype516.a(sicslowpan.o)
 .text.packetbuf_set_attr
                0x000000000001e308       0x2a obj_cooja/mtype516.a(sicslowpan.o)
 .text.packetbuf_attr
                0x000000000001e332       0x1a obj_cooja/mtype516.a(sicslowpan.o)
 .text.packetbuf_set_addr
                0x000000000001e34c       0x32 obj_cooja/mtype516.a(sicslowpan.o)
 .text.packetbuf_addr
                0x000000000001e37e       0x1d obj_cooja/mtype516.a(sicslowpan.o)
 .text.clear_fragments
                0x000000000001e39b       0x79 obj_cooja/mtype516.a(sicslowpan.o)
 .text.timeout_fragments
                0x000000000001e414       0x75 obj_cooja/mtype516.a(sicslowpan.o)
 .text.store_fragment
                0x000000000001e489       0xe8 obj_cooja/mtype516.a(sicslowpan.o)
 .text.add_fragment
                0x000000000001e571      0x23e obj_cooja/mtype516.a(sicslowpan.o)
 .text.copy_frags2uip
                0x000000000001e7af       0xe3 obj_cooja/mtype516.a(sicslowpan.o)
 .text.rime_sniffer_add
                0x000000000001e892        0xd obj_cooja/mtype516.a(sicslowpan.o)
                0x000000000001e892                rime_sniffer_add
 .text.rime_sniffer_remove
                0x000000000001e89f        0xf obj_cooja/mtype516.a(sicslowpan.o)
                0x000000000001e89f                rime_sniffer_remove
 .text.set_packet_attrs
                0x000000000001e8ae       0xe9 obj_cooja/mtype516.a(sicslowpan.o)
 .text.addr_context_lookup_by_prefix
                0x000000000001e997       0x7a obj_cooja/mtype516.a(sicslowpan.o)
 .text.addr_context_lookup_by_number
                0x000000000001ea11       0x6a obj_cooja/mtype516.a(sicslowpan.o)
 .text.compress_addr_64
                0x000000000001ea7b      0x16c obj_cooja/mtype516.a(sicslowpan.o)
 .text.uncompress_addr
                0x000000000001ebe7      0x120 obj_cooja/mtype516.a(sicslowpan.o)
 .text.compress_hdr_iphc
                0x000000000001ed07      0x994 obj_cooja/mtype516.a(sicslowpan.o)
 .text.uncompress_hdr_iphc
                0x000000000001f69b      0x7dd obj_cooja/mtype516.a(sicslowpan.o)
 .text.compress_hdr_ipv6
                0x000000000001fe78       0x68 obj_cooja/mtype516.a(sicslowpan.o)
 .text.packet_sent
                0x000000000001fee0       0x3b obj_cooja/mtype516.a(sicslowpan.o)
 .text.send_packet
                0x000000000001ff1b       0x36 obj_cooja/mtype516.a(sicslowpan.o)
 .text.output   0x000000000001ff51      0x49d obj_cooja/mtype516.a(sicslowpan.o)
 .text.input    0x00000000000203ee      0x458 obj_cooja/mtype516.a(sicslowpan.o)
 .text.sicslowpan_init
                0x0000000000020846       0x57 obj_cooja/mtype516.a(sicslowpan.o)
                0x0000000000020846                sicslowpan_init
 .text.sicslowpan_get_last_rssi
                0x000000000002089d        0xa obj_cooja/mtype516.a(sicslowpan.o)
                0x000000000002089d                sicslowpan_get_last_rssi
 .text          0x00000000000208a7        0x0 obj_cooja/mtype516.a(uip-ds6-nbr.o)
 .text.packetbuf_addr
                0x00000000000208a7       0x1d obj_cooja/mtype516.a(uip-ds6-nbr.o)
 .text.uip_ds6_neighbors_init
                0x00000000000208c4       0x22 obj_cooja/mtype516.a(uip-ds6-nbr.o)
                0x00000000000208c4                uip_ds6_neighbors_init
 .text.uip_ds6_nbr_add
                0x00000000000208e6       0xe2 obj_cooja/mtype516.a(uip-ds6-nbr.o)
                0x00000000000208e6                uip_ds6_nbr_add
 .text.uip_ds6_nbr_rm
                0x00000000000209c8       0x42 obj_cooja/mtype516.a(uip-ds6-nbr.o)
                0x00000000000209c8                uip_ds6_nbr_rm
 .text.uip_ds6_nbr_get_ipaddr
                0x0000000000020a0a       0x15 obj_cooja/mtype516.a(uip-ds6-nbr.o)
                0x0000000000020a0a                uip_ds6_nbr_get_ipaddr
 .text.uip_ds6_nbr_get_ll
                0x0000000000020a1f       0x1c obj_cooja/mtype516.a(uip-ds6-nbr.o)
                0x0000000000020a1f                uip_ds6_nbr_get_ll
 .text.uip_ds6_nbr_num
                0x0000000000020a3b       0x45 obj_cooja/mtype516.a(uip-ds6-nbr.o)
                0x0000000000020a3b                uip_ds6_nbr_num
 .text.uip_ds6_nbr_lookup
                0x0000000000020a80       0x65 obj_cooja/mtype516.a(uip-ds6-nbr.o)
                0x0000000000020a80                uip_ds6_nbr_lookup
 .text.uip_ds6_nbr_ll_lookup
                0x0000000000020ae5       0x1c obj_cooja/mtype516.a(uip-ds6-nbr.o)
                0x0000000000020ae5                uip_ds6_nbr_ll_lookup
 .text.uip_ds6_nbr_ipaddr_from_lladdr
                0x0000000000020b01       0x26 obj_cooja/mtype516.a(uip-ds6-nbr.o)
                0x0000000000020b01                uip_ds6_nbr_ipaddr_from_lladdr
 .text.uip_ds6_nbr_lladdr_from_ipaddr
                0x0000000000020b27       0x2e obj_cooja/mtype516.a(uip-ds6-nbr.o)
                0x0000000000020b27                uip_ds6_nbr_lladdr_from_ipaddr
 .text.uip_ds6_link_neighbor_callback
                0x0000000000020b55       0x62 obj_cooja/mtype516.a(uip-ds6-nbr.o)
                0x0000000000020b55                uip_ds6_link_neighbor_callback
 .text.uip_ds6_neighbor_periodic
                0x0000000000020bb7      0x244 obj_cooja/mtype516.a(uip-ds6-nbr.o)
                0x0000000000020bb7                uip_ds6_neighbor_periodic
 .text.uip_ds6_nbr_refresh_reachable_state
                0x0000000000020dfb       0x40 obj_cooja/mtype516.a(uip-ds6-nbr.o)
                0x0000000000020dfb                uip_ds6_nbr_refresh_reachable_state
 .text.uip_ds6_get_least_lifetime_neighbor
                0x0000000000020e3b       0x7b obj_cooja/mtype516.a(uip-ds6-nbr.o)
                0x0000000000020e3b                uip_ds6_get_least_lifetime_neighbor
 .text          0x0000000000020eb6        0x0 obj_cooja/mtype516.a(uip-ds6-route.o)
 .text.call_route_callback
                0x0000000000020eb6       0x77 obj_cooja/mtype516.a(uip-ds6-route.o)
 .text.uip_ds6_notification_add
                0x0000000000020f2d       0x31 obj_cooja/mtype516.a(uip-ds6-route.o)
                0x0000000000020f2d                uip_ds6_notification_add
 .text.uip_ds6_notification_rm
                0x0000000000020f5e       0x1c obj_cooja/mtype516.a(uip-ds6-route.o)
                0x0000000000020f5e                uip_ds6_notification_rm
 .text.uip_ds6_route_init
                0x0000000000020f7a       0x5c obj_cooja/mtype516.a(uip-ds6-route.o)
                0x0000000000020f7a                uip_ds6_route_init
 .text.uip_ds6_route_nexthop_lladdr
                0x0000000000020fd6       0x2c obj_cooja/mtype516.a(uip-ds6-route.o)
 .text.uip_ds6_route_nexthop
                0x0000000000021002       0x28 obj_cooja/mtype516.a(uip-ds6-route.o)
                0x0000000000021002                uip_ds6_route_nexthop
 .text.uip_ds6_route_head
                0x000000000002102a       0x15 obj_cooja/mtype516.a(uip-ds6-route.o)
                0x000000000002102a                uip_ds6_route_head
 .text.uip_ds6_route_next
                0x000000000002103f       0x26 obj_cooja/mtype516.a(uip-ds6-route.o)
                0x000000000002103f                uip_ds6_route_next
 .text.uip_ds6_route_is_nexthop
                0x0000000000021065       0x3f obj_cooja/mtype516.a(uip-ds6-route.o)
                0x0000000000021065                uip_ds6_route_is_nexthop
 .text.uip_ds6_route_num_routes
                0x00000000000210a4        0xa obj_cooja/mtype516.a(uip-ds6-route.o)
                0x00000000000210a4                uip_ds6_route_num_routes
 .text.uip_ds6_route_lookup
                0x00000000000210ae       0xc2 obj_cooja/mtype516.a(uip-ds6-route.o)
                0x00000000000210ae                uip_ds6_route_lookup
 .text.uip_ds6_route_add
                0x0000000000021170      0x236 obj_cooja/mtype516.a(uip-ds6-route.o)
                0x0000000000021170                uip_ds6_route_add
 .text.uip_ds6_route_rm
                0x00000000000213a6      0x11d obj_cooja/mtype516.a(uip-ds6-route.o)
                0x00000000000213a6                uip_ds6_route_rm
 .text.rm_routelist
                0x00000000000214c3       0x64 obj_cooja/mtype516.a(uip-ds6-route.o)
 .text.rm_routelist_callback
                0x0000000000021527       0x13 obj_cooja/mtype516.a(uip-ds6-route.o)
 .text.uip_ds6_route_rm_by_nexthop
                0x000000000002153a       0x38 obj_cooja/mtype516.a(uip-ds6-route.o)
                0x000000000002153a                uip_ds6_route_rm_by_nexthop
 .text.uip_ds6_defrt_head
                0x0000000000021572       0x15 obj_cooja/mtype516.a(uip-ds6-route.o)
                0x0000000000021572                uip_ds6_defrt_head
 .text.uip_ds6_defrt_add
                0x0000000000021587       0xb1 obj_cooja/mtype516.a(uip-ds6-route.o)
                0x0000000000021587                uip_ds6_defrt_add
 .text.uip_ds6_defrt_rm
                0x0000000000021638       0x7f obj_cooja/mtype516.a(uip-ds6-route.o)
                0x0000000000021638                uip_ds6_defrt_rm
 .text.uip_ds6_defrt_lookup
                0x00000000000216b7       0x59 obj_cooja/mtype516.a(uip-ds6-route.o)
                0x00000000000216b7                uip_ds6_defrt_lookup
 .text.uip_ds6_defrt_choose
                0x0000000000021710       0x6b obj_cooja/mtype516.a(uip-ds6-route.o)
                0x0000000000021710                uip_ds6_defrt_choose
 .text.uip_ds6_defrt_periodic
                0x000000000002177b       0x68 obj_cooja/mtype516.a(uip-ds6-route.o)
                0x000000000002177b                uip_ds6_defrt_periodic
 .text          0x00000000000217e3        0x0 obj_cooja/mtype516.a(uip-ds6.o)
 .text.uip_ds6_init
                0x00000000000217e3      0x1d3 obj_cooja/mtype516.a(uip-ds6.o)
                0x00000000000217e3                uip_ds6_init
 .text.uip_ds6_periodic
                0x00000000000219b6       0x7e obj_cooja/mtype516.a(uip-ds6.o)
                0x00000000000219b6                uip_ds6_periodic
 .text.uip_ds6_list_loop
                0x0000000000021a34       0xa7 obj_cooja/mtype516.a(uip-ds6.o)
                0x0000000000021a34                uip_ds6_list_loop
 .text.uip_ds6_prefix_add
                0x0000000000021adb       0xbe obj_cooja/mtype516.a(uip-ds6.o)
                0x0000000000021adb                uip_ds6_prefix_add
 .text.uip_ds6_prefix_rm
                0x0000000000021b99       0x12 obj_cooja/mtype516.a(uip-ds6.o)
                0x0000000000021b99                uip_ds6_prefix_rm
 .text.uip_ds6_prefix_lookup
                0x0000000000021bab       0x51 obj_cooja/mtype516.a(uip-ds6.o)
                0x0000000000021bab                uip_ds6_prefix_lookup
 .text.uip_ds6_is_addr_onlink
                0x0000000000021bfc       0x74 obj_cooja/mtype516.a(uip-ds6.o)
                0x0000000000021bfc                uip_ds6_is_addr_onlink
 .text.uip_ds6_addr_add
                0x0000000000021c70      0x12e obj_cooja/mtype516.a(uip-ds6.o)
                0x0000000000021c70                uip_ds6_addr_add
 .text.uip_ds6_addr_rm
                0x0000000000021d9e       0xa0 obj_cooja/mtype516.a(uip-ds6.o)
                0x0000000000021d9e                uip_ds6_addr_rm
 .text.uip_ds6_addr_lookup
                0x0000000000021e3e       0x4b obj_cooja/mtype516.a(uip-ds6.o)
                0x0000000000021e3e                uip_ds6_addr_lookup
 .text.uip_ds6_get_link_local
                0x0000000000021e89       0x7f obj_cooja/mtype516.a(uip-ds6.o)
                0x0000000000021e89                uip_ds6_get_link_local
 .text.uip_ds6_get_global
                0x0000000000021f08       0x7f obj_cooja/mtype516.a(uip-ds6.o)
                0x0000000000021f08                uip_ds6_get_global
 .text.uip_ds6_maddr_add
                0x0000000000021f87       0x72 obj_cooja/mtype516.a(uip-ds6.o)
                0x0000000000021f87                uip_ds6_maddr_add
 .text.uip_ds6_maddr_rm
                0x0000000000021ff9       0x12 obj_cooja/mtype516.a(uip-ds6.o)
                0x0000000000021ff9                uip_ds6_maddr_rm
 .text.uip_ds6_maddr_lookup
                0x000000000002200b       0x4b obj_cooja/mtype516.a(uip-ds6.o)
                0x000000000002200b                uip_ds6_maddr_lookup
 .text.uip_ds6_aaddr_add
                0x0000000000022056       0x72 obj_cooja/mtype516.a(uip-ds6.o)
                0x0000000000022056                uip_ds6_aaddr_add
 .text.uip_ds6_aaddr_rm
                0x00000000000220c8       0x12 obj_cooja/mtype516.a(uip-ds6.o)
                0x00000000000220c8                uip_ds6_aaddr_rm
 .text.uip_ds6_aaddr_lookup
                0x00000000000220da       0x4b obj_cooja/mtype516.a(uip-ds6.o)
                0x00000000000220da                uip_ds6_aaddr_lookup
 .text.uip_ds6_select_src
                0x0000000000022125      0x145 obj_cooja/mtype516.a(uip-ds6.o)
                0x0000000000022125                uip_ds6_select_src
 .text.uip_ds6_set_addr_iid
                0x000000000002226a       0x37 obj_cooja/mtype516.a(uip-ds6.o)
                0x000000000002226a                uip_ds6_set_addr_iid
 .text.get_match_length
                0x00000000000222a1       0x92 obj_cooja/mtype516.a(uip-ds6.o)
                0x00000000000222a1                get_match_length
 .text.uip_ds6_compute_reachable_time
                0x0000000000022333       0x4c obj_cooja/mtype516.a(uip-ds6.o)
                0x0000000000022333                uip_ds6_compute_reachable_time
 .text          0x000000000002237f        0x0 obj_cooja/mtype516.a(uip-nd6.o)
 .text.extract_lladdr_from_llao_aligned
                0x000000000002237f       0x42 obj_cooja/mtype516.a(uip-nd6.o)
 .text.create_llao
                0x00000000000223c1       0x54 obj_cooja/mtype516.a(uip-nd6.o)
 .text.ns_input
                0x0000000000022415      0x602 obj_cooja/mtype516.a(uip-nd6.o)
 .text.uip_nd6_ns_output
                0x0000000000022a17      0x2ff obj_cooja/mtype516.a(uip-nd6.o)
                0x0000000000022a17                uip_nd6_ns_output
 .text.na_input
                0x0000000000022d16      0x430 obj_cooja/mtype516.a(uip-nd6.o)
 .text.uip_nd6_init
                0x0000000000023146       0x20 obj_cooja/mtype516.a(uip-nd6.o)
                0x0000000000023146                uip_nd6_init
 .text          0x0000000000023166        0x0 obj_cooja/mtype516.a(uip6.o)
 .text.uip_add32
                0x0000000000023166       0xea obj_cooja/mtype516.a(uip6.o)
                0x0000000000023166                uip_add32
 .text.chksum   0x0000000000023250       0xaf obj_cooja/mtype516.a(uip6.o)
 .text.uip_chksum
                0x00000000000232ff       0x35 obj_cooja/mtype516.a(uip6.o)
                0x00000000000232ff                uip_chksum
 .text.upper_layer_chksum
                0x0000000000023334       0xb9 obj_cooja/mtype516.a(uip6.o)
 .text.uip_icmp6chksum
                0x00000000000233ed       0x14 obj_cooja/mtype516.a(uip6.o)
                0x00000000000233ed                uip_icmp6chksum
 .text.uip_tcpchksum
                0x0000000000023401       0x14 obj_cooja/mtype516.a(uip6.o)
                0x0000000000023401                uip_tcpchksum
 .text.uip_udpchksum
                0x0000000000023415       0x14 obj_cooja/mtype516.a(uip6.o)
                0x0000000000023415                uip_udpchksum
 .text.uip_init
                0x0000000000023429       0x8b obj_cooja/mtype516.a(uip6.o)
                0x0000000000023429                uip_init
 .text.uip_connect
                0x00000000000234b4      0x181 obj_cooja/mtype516.a(uip6.o)
                0x00000000000234b4                uip_connect
 .text.remove_ext_hdr
                0x0000000000023635       0xd5 obj_cooja/mtype516.a(uip6.o)
                0x0000000000023635                remove_ext_hdr
 .text.uip_udp_new
                0x000000000002370a      0x127 obj_cooja/mtype516.a(uip6.o)
                0x000000000002370a                uip_udp_new
 .text.uip_unlisten
                0x0000000000023831       0x42 obj_cooja/mtype516.a(uip6.o)
                0x0000000000023831                uip_unlisten
 .text.uip_listen
                0x0000000000023873       0x43 obj_cooja/mtype516.a(uip6.o)
                0x0000000000023873                uip_listen
 .text.uip_add_rcv_nxt
                0x00000000000238b6       0x64 obj_cooja/mtype516.a(uip6.o)
 .text.ext_hdr_options_process
                0x000000000002391a      0x1fd obj_cooja/mtype516.a(uip6.o)
 .text.uip_process
                0x0000000000023b17     0x1ca1 obj_cooja/mtype516.a(uip6.o)
                0x0000000000023b17                uip_process
 .text.uip_htons
                0x00000000000257b8       0x22 obj_cooja/mtype516.a(uip6.o)
                0x00000000000257b8                uip_htons
 .text.uip_htonl
                0x00000000000257da       0x40 obj_cooja/mtype516.a(uip6.o)
                0x00000000000257da                uip_htonl
 .text.uip_send
                0x000000000002581a       0xaa obj_cooja/mtype516.a(uip6.o)
                0x000000000002581a                uip_send
 .text          0x00000000000258c4        0x0 obj_cooja/mtype516.a(resolv.o)
 .text.decode_name
                0x00000000000258c4       0xe8 obj_cooja/mtype516.a(resolv.o)
 .text.dns_name_isequal
                0x00000000000259ac      0x119 obj_cooja/mtype516.a(resolv.o)
 .text.skip_name
                0x0000000000025ac5       0x48 obj_cooja/mtype516.a(resolv.o)
 .text.encode_name
                0x0000000000025b0d       0x73 obj_cooja/mtype516.a(resolv.o)
 .text.mdns_announce_requested
                0x0000000000025b80        0xf obj_cooja/mtype516.a(resolv.o)
 .text.start_name_collision_check
                0x0000000000025b8f       0x27 obj_cooja/mtype516.a(resolv.o)
 .text.mdns_write_announce_records
                0x0000000000025bb6      0x155 obj_cooja/mtype516.a(resolv.o)
 .text.mdns_prep_host_announce_packet
                0x0000000000025d0b       0xf5 obj_cooja/mtype516.a(resolv.o)
 .text.try_next_server
                0x0000000000025e00       0x48 obj_cooja/mtype516.a(resolv.o)
 .text.check_entries
                0x0000000000025e48      0x311 obj_cooja/mtype516.a(resolv.o)
 .text.newdata  0x0000000000026159      0x545 obj_cooja/mtype516.a(resolv.o)
 .text.resolv_set_hostname
                0x000000000002669e       0xa9 obj_cooja/mtype516.a(resolv.o)
                0x000000000002669e                resolv_set_hostname
 .text.resolv_get_hostname
                0x0000000000026747        0xa obj_cooja/mtype516.a(resolv.o)
                0x0000000000026747                resolv_get_hostname
 .text.process_thread_mdns_probe_process
                0x0000000000026751      0x178 obj_cooja/mtype516.a(resolv.o)
 .text.process_thread_resolv_process
                0x00000000000268c9      0x1f6 obj_cooja/mtype516.a(resolv.o)
 .text.init     0x0000000000026abf       0x2e obj_cooja/mtype516.a(resolv.o)
 .text.remove_trailing_dots
                0x0000000000026aed       0x7b obj_cooja/mtype516.a(resolv.o)
 .text.resolv_query
                0x0000000000026b68      0x22e obj_cooja/mtype516.a(resolv.o)
                0x0000000000026b68                resolv_query
 .text.resolv_lookup
                0x0000000000026d96       0xcc obj_cooja/mtype516.a(resolv.o)
                0x0000000000026d96                resolv_lookup
 .text.resolv_found
                0x0000000000026e62      0x1da obj_cooja/mtype516.a(resolv.o)
 .text          0x000000000002703c        0x0 obj_cooja/mtype516.a(tcpip.o)
 .text.tcpip_output
                0x000000000002703c       0x2e obj_cooja/mtype516.a(tcpip.o)
                0x000000000002703c                tcpip_output
 .text.tcpip_set_outputfunc
                0x000000000002706a        0xd obj_cooja/mtype516.a(tcpip.o)
                0x000000000002706a                tcpip_set_outputfunc
 .text.start_periodic_tcp_timer
                0x0000000000027077       0x24 obj_cooja/mtype516.a(tcpip.o)
 .text.check_for_tcp_syn
                0x000000000002709b       0x2d obj_cooja/mtype516.a(tcpip.o)
 .text.packet_input
                0x00000000000270c8       0x36 obj_cooja/mtype516.a(tcpip.o)
 .text.tcp_connect
                0x00000000000270fe       0x55 obj_cooja/mtype516.a(tcpip.o)
                0x00000000000270fe                tcp_connect
 .text.tcp_unlisten
                0x0000000000027153       0x5b obj_cooja/mtype516.a(tcpip.o)
                0x0000000000027153                tcp_unlisten
 .text.tcp_listen
                0x00000000000271ae       0x59 obj_cooja/mtype516.a(tcpip.o)
                0x00000000000271ae                tcp_listen
 .text.tcp_attach
                0x0000000000027207       0x25 obj_cooja/mtype516.a(tcpip.o)
                0x0000000000027207                tcp_attach
 .text.udp_attach
                0x000000000002722c       0x25 obj_cooja/mtype516.a(tcpip.o)
                0x000000000002722c                udp_attach
 .text.udp_new  0x0000000000027251       0x52 obj_cooja/mtype516.a(tcpip.o)
                0x0000000000027251                udp_new
 .text.udp_broadcast_new
                0x00000000000272a3       0x92 obj_cooja/mtype516.a(tcpip.o)
                0x00000000000272a3                udp_broadcast_new
 .text.eventhandler
                0x0000000000027335      0x1e2 obj_cooja/mtype516.a(tcpip.o)
 .text.tcpip_input
                0x0000000000027517       0x34 obj_cooja/mtype516.a(tcpip.o)
                0x0000000000027517                tcpip_input
 .text.tcpip_ipv6_output
                0x000000000002754b      0x4b5 obj_cooja/mtype516.a(tcpip.o)
                0x000000000002754b                tcpip_ipv6_output
 .text.tcpip_poll_udp
                0x0000000000027a00       0x23 obj_cooja/mtype516.a(tcpip.o)
                0x0000000000027a00                tcpip_poll_udp
 .text.tcpip_poll_tcp
                0x0000000000027a23       0x23 obj_cooja/mtype516.a(tcpip.o)
                0x0000000000027a23                tcpip_poll_tcp
 .text.tcpip_uipcall
                0x0000000000027a46       0xbd obj_cooja/mtype516.a(tcpip.o)
                0x0000000000027a46                tcpip_uipcall
 .text.process_thread_tcpip_process
                0x0000000000027b03       0xb7 obj_cooja/mtype516.a(tcpip.o)
 .text          0x0000000000027bba        0x0 obj_cooja/mtype516.a(uip-debug.o)
 .text.uip_debug_ipaddr_print
                0x0000000000027bba      0x162 obj_cooja/mtype516.a(uip-debug.o)
                0x0000000000027bba                uip_debug_ipaddr_print
 .text          0x0000000000027d1c        0x0 obj_cooja/mtype516.a(uip-nameserver.)
 .text.uip_nameserver_update
                0x0000000000027d1c       0x32 obj_cooja/mtype516.a(uip-nameserver.)
                0x0000000000027d1c                uip_nameserver_update
 .text.uip_nameserver_get
                0x0000000000027d4e       0x20 obj_cooja/mtype516.a(uip-nameserver.)
                0x0000000000027d4e                uip_nameserver_get
 .text.uip_nameserver_next_expiration
                0x0000000000027d6e        0xa obj_cooja/mtype516.a(uip-nameserver.)
                0x0000000000027d6e                uip_nameserver_next_expiration
 .text.uip_nameserver_count
                0x0000000000027d78       0x71 obj_cooja/mtype516.a(uip-nameserver.)
                0x0000000000027d78                uip_nameserver_count
 .text          0x0000000000027de9        0x0 obj_cooja/mtype516.a(uip-packetqueue)
 .text.packet_timedout
                0x0000000000027de9       0x2c obj_cooja/mtype516.a(uip-packetqueue)
 .text.uip_packetqueue_new
                0x0000000000027e15        0xe obj_cooja/mtype516.a(uip-packetqueue)
                0x0000000000027e15                uip_packetqueue_new
 .text.uip_packetqueue_alloc
                0x0000000000027e23       0x60 obj_cooja/mtype516.a(uip-packetqueue)
                0x0000000000027e23                uip_packetqueue_alloc
 .text.uip_packetqueue_free
                0x0000000000027e83       0x41 obj_cooja/mtype516.a(uip-packetqueue)
                0x0000000000027e83                uip_packetqueue_free
 .text.uip_packetqueue_buf
                0x0000000000027ec4       0x1d obj_cooja/mtype516.a(uip-packetqueue)
                0x0000000000027ec4                uip_packetqueue_buf
 .text.uip_packetqueue_buflen
                0x0000000000027ee1       0x21 obj_cooja/mtype516.a(uip-packetqueue)
                0x0000000000027ee1                uip_packetqueue_buflen
 .text.uip_packetqueue_set_buflen
                0x0000000000027f02       0x28 obj_cooja/mtype516.a(uip-packetqueue)
                0x0000000000027f02                uip_packetqueue_set_buflen
 .text          0x0000000000027f2a        0x0 obj_cooja/mtype516.a(uip-udp-packet.)
 .text.uip_udp_packet_send
                0x0000000000027f2a       0x5c obj_cooja/mtype516.a(uip-udp-packet.)
                0x0000000000027f2a                uip_udp_packet_send
 .text.uip_udp_packet_sendto
                0x0000000000027f86       0xd1 obj_cooja/mtype516.a(uip-udp-packet.)
                0x0000000000027f86                uip_udp_packet_sendto
 .text          0x0000000000028057        0x0 obj_cooja/mtype516.a(uiplib.o)
 .text.uiplib_ip6addrconv
                0x0000000000028057      0x1c0 obj_cooja/mtype516.a(uiplib.o)
                0x0000000000028057                uiplib_ip6addrconv
 .text.uiplib_ip4addrconv
                0x0000000000028217       0xc3 obj_cooja/mtype516.a(uiplib.o)
                0x0000000000028217                uiplib_ip4addrconv
 .text          0x00000000000282da        0x0 obj_cooja/mtype516.a(rpl-dag.o)
 .text.rpl_print_neighbor_list
                0x00000000000282da      0x1e6 obj_cooja/mtype516.a(rpl-dag.o)
                0x00000000000282da                rpl_print_neighbor_list
 .text.rpl_get_nbr
                0x00000000000284c0       0x37 obj_cooja/mtype516.a(rpl-dag.o)
                0x00000000000284c0                rpl_get_nbr
 .text.nbr_callback
                0x00000000000284f7       0x13 obj_cooja/mtype516.a(rpl-dag.o)
 .text.rpl_dag_init
                0x000000000002850a       0x1d obj_cooja/mtype516.a(rpl-dag.o)
                0x000000000002850a                rpl_dag_init
 .text.rpl_get_parent
                0x0000000000028527       0x22 obj_cooja/mtype516.a(rpl-dag.o)
                0x0000000000028527                rpl_get_parent
 .text.rpl_get_parent_rank
                0x0000000000028549       0x33 obj_cooja/mtype516.a(rpl-dag.o)
                0x0000000000028549                rpl_get_parent_rank
 .text.rpl_get_parent_link_metric
                0x000000000002857c       0x57 obj_cooja/mtype516.a(rpl-dag.o)
                0x000000000002857c                rpl_get_parent_link_metric
 .text.rpl_rank_via_parent
                0x00000000000285d3       0x57 obj_cooja/mtype516.a(rpl-dag.o)
                0x00000000000285d3                rpl_rank_via_parent
 .text.rpl_get_parent_lladdr
                0x000000000002862a       0x1c obj_cooja/mtype516.a(rpl-dag.o)
                0x000000000002862a                rpl_get_parent_lladdr
 .text.rpl_get_parent_ipaddr
                0x0000000000028646       0x21 obj_cooja/mtype516.a(rpl-dag.o)
                0x0000000000028646                rpl_get_parent_ipaddr
 .text.rpl_get_parent_link_stats
                0x0000000000028667       0x21 obj_cooja/mtype516.a(rpl-dag.o)
                0x0000000000028667                rpl_get_parent_link_stats
 .text.rpl_parent_is_fresh
                0x0000000000028688       0x21 obj_cooja/mtype516.a(rpl-dag.o)
                0x0000000000028688                rpl_parent_is_fresh
 .text.rpl_parent_is_reachable
                0x00000000000286a9       0x94 obj_cooja/mtype516.a(rpl-dag.o)
                0x00000000000286a9                rpl_parent_is_reachable
 .text.rpl_set_preferred_parent
                0x000000000002873d       0x4d obj_cooja/mtype516.a(rpl-dag.o)
 .text.lollipop_greater_than
                0x000000000002878a       0x61 obj_cooja/mtype516.a(rpl-dag.o)
 .text.remove_parents
                0x00000000000287eb       0x60 obj_cooja/mtype516.a(rpl-dag.o)
 .text.nullify_parents
                0x000000000002884b       0x60 obj_cooja/mtype516.a(rpl-dag.o)
 .text.should_refresh_routes
                0x00000000000288ab       0x5b obj_cooja/mtype516.a(rpl-dag.o)
 .text.acceptable_rank
                0x0000000000028906       0x8f obj_cooja/mtype516.a(rpl-dag.o)
 .text.get_dag  0x0000000000028995       0x81 obj_cooja/mtype516.a(rpl-dag.o)
 .text.rpl_set_root
                0x0000000000028a16      0x257 obj_cooja/mtype516.a(rpl-dag.o)
                0x0000000000028a16                rpl_set_root
 .text.rpl_repair_root
                0x0000000000028c6d       0xd6 obj_cooja/mtype516.a(rpl-dag.o)
                0x0000000000028c6d                rpl_repair_root
 .text.set_ip_from_prefix
                0x0000000000028d43       0x66 obj_cooja/mtype516.a(rpl-dag.o)
 .text.check_prefix
                0x0000000000028da9      0x100 obj_cooja/mtype516.a(rpl-dag.o)
 .text.rpl_set_prefix
                0x0000000000028ea9       0xff obj_cooja/mtype516.a(rpl-dag.o)
                0x0000000000028ea9                rpl_set_prefix
 .text.rpl_set_default_route
                0x0000000000028fa8       0x6e obj_cooja/mtype516.a(rpl-dag.o)
                0x0000000000028fa8                rpl_set_default_route
 .text.rpl_alloc_instance
                0x0000000000029016       0x93 obj_cooja/mtype516.a(rpl-dag.o)
                0x0000000000029016                rpl_alloc_instance
 .text.rpl_alloc_dag
                0x00000000000290a9       0xb1 obj_cooja/mtype516.a(rpl-dag.o)
                0x00000000000290a9                rpl_alloc_dag
 .text.rpl_set_default_instance
                0x000000000002915a        0xd obj_cooja/mtype516.a(rpl-dag.o)
                0x000000000002915a                rpl_set_default_instance
 .text.rpl_get_default_instance
                0x0000000000029167        0xa obj_cooja/mtype516.a(rpl-dag.o)
                0x0000000000029167                rpl_get_default_instance
 .text.rpl_free_instance
                0x0000000000029171       0xaf obj_cooja/mtype516.a(rpl-dag.o)
                0x0000000000029171                rpl_free_instance
 .text.rpl_free_dag
                0x0000000000029220       0x81 obj_cooja/mtype516.a(rpl-dag.o)
                0x0000000000029220                rpl_free_dag
 .text.rpl_add_parent
                0x00000000000292a1       0x75 obj_cooja/mtype516.a(rpl-dag.o)
                0x00000000000292a1                rpl_add_parent
 .text.find_parent_any_dag_any_instance
                0x0000000000029316       0x38 obj_cooja/mtype516.a(rpl-dag.o)
 .text.rpl_find_parent
                0x000000000002934e       0x30 obj_cooja/mtype516.a(rpl-dag.o)
                0x000000000002934e                rpl_find_parent
 .text.find_parent_dag
                0x000000000002937e       0x28 obj_cooja/mtype516.a(rpl-dag.o)
 .text.rpl_find_parent_any_dag
                0x00000000000293a6       0x3c obj_cooja/mtype516.a(rpl-dag.o)
                0x00000000000293a6                rpl_find_parent_any_dag
 .text.rpl_select_dag
                0x00000000000293e2      0x322 obj_cooja/mtype516.a(rpl-dag.o)
                0x00000000000293e2                rpl_select_dag
 .text.best_parent
                0x0000000000029704       0xfd obj_cooja/mtype516.a(rpl-dag.o)
 .text.rpl_select_parent
                0x0000000000029801       0xda obj_cooja/mtype516.a(rpl-dag.o)
                0x0000000000029801                rpl_select_parent
 .text.rpl_remove_parent
                0x00000000000298db       0x27 obj_cooja/mtype516.a(rpl-dag.o)
                0x00000000000298db                rpl_remove_parent
 .text.rpl_nullify_parent
                0x0000000000029902       0xc1 obj_cooja/mtype516.a(rpl-dag.o)
                0x0000000000029902                rpl_nullify_parent
 .text.rpl_move_parent
                0x00000000000299c3       0xb8 obj_cooja/mtype516.a(rpl-dag.o)
                0x00000000000299c3                rpl_move_parent
 .text.rpl_has_downward_route
                0x0000000000029a7b       0x53 obj_cooja/mtype516.a(rpl-dag.o)
                0x0000000000029a7b                rpl_has_downward_route
 .text.rpl_get_dag
                0x0000000000029ace       0xec obj_cooja/mtype516.a(rpl-dag.o)
                0x0000000000029ace                rpl_get_dag
 .text.rpl_get_any_dag
                0x0000000000029bba       0x62 obj_cooja/mtype516.a(rpl-dag.o)
                0x0000000000029bba                rpl_get_any_dag
 .text.rpl_get_instance
                0x0000000000029c1c       0x63 obj_cooja/mtype516.a(rpl-dag.o)
                0x0000000000029c1c                rpl_get_instance
 .text.rpl_find_of
                0x0000000000029c7f       0x3d obj_cooja/mtype516.a(rpl-dag.o)
                0x0000000000029c7f                rpl_find_of
 .text.rpl_join_instance
                0x0000000000029cbc      0x2c0 obj_cooja/mtype516.a(rpl-dag.o)
                0x0000000000029cbc                rpl_join_instance
 .text.rpl_add_dag
                0x0000000000029f7c      0x27c obj_cooja/mtype516.a(rpl-dag.o)
                0x0000000000029f7c                rpl_add_dag
 .text.global_repair
                0x000000000002a1f8      0x154 obj_cooja/mtype516.a(rpl-dag.o)
 .text.rpl_local_repair
                0x000000000002a34c       0xd8 obj_cooja/mtype516.a(rpl-dag.o)
                0x000000000002a34c                rpl_local_repair
 .text.rpl_recalculate_ranks
                0x000000000002a424       0x86 obj_cooja/mtype516.a(rpl-dag.o)
                0x000000000002a424                rpl_recalculate_ranks
 .text.rpl_process_parent_event
                0x000000000002a4aa       0xfb obj_cooja/mtype516.a(rpl-dag.o)
                0x000000000002a4aa                rpl_process_parent_event
 .text.add_nbr_from_dio
                0x000000000002a5a5       0x32 obj_cooja/mtype516.a(rpl-dag.o)
 .text.rpl_process_dio
                0x000000000002a5d7      0x4da obj_cooja/mtype516.a(rpl-dag.o)
                0x000000000002a5d7                rpl_process_dio
 .text          0x000000000002aab1        0x0 obj_cooja/mtype516.a(rpl-ext-header.)
 .text.packetbuf_addr
                0x000000000002aab1       0x1d obj_cooja/mtype516.a(rpl-ext-header.)
 .text.rpl_verify_hbh_header
                0x000000000002aace      0x2c8 obj_cooja/mtype516.a(rpl-ext-header.)
                0x000000000002aace                rpl_verify_hbh_header
 .text.update_hbh_header
                0x000000000002ad96      0x2b8 obj_cooja/mtype516.a(rpl-ext-header.)
 .text.insert_hbh_header
                0x000000000002b04e      0x203 obj_cooja/mtype516.a(rpl-ext-header.)
 .text.rpl_remove_header
                0x000000000002b251      0x163 obj_cooja/mtype516.a(rpl-ext-header.)
                0x000000000002b251                rpl_remove_header
 .text.rpl_update_header
                0x000000000002b3b4       0xcc obj_cooja/mtype516.a(rpl-ext-header.)
                0x000000000002b3b4                rpl_update_header
 .text          0x000000000002b480        0x0 obj_cooja/mtype516.a(rpl-icmp6.o)
 .text.packetbuf_addr
                0x000000000002b480       0x1d obj_cooja/mtype516.a(rpl-icmp6.o)
 .text.prepare_for_dao_fwd
                0x000000000002b49d       0x6c obj_cooja/mtype516.a(rpl-icmp6.o)
 .text.get_global_addr
                0x000000000002b509       0xb3 obj_cooja/mtype516.a(rpl-icmp6.o)
 .text.get32    0x000000000002b5bc       0x57 obj_cooja/mtype516.a(rpl-icmp6.o)
 .text.set32    0x000000000002b613       0x62 obj_cooja/mtype516.a(rpl-icmp6.o)
 .text.get16    0x000000000002b675       0x2b obj_cooja/mtype516.a(rpl-icmp6.o)
 .text.set16    0x000000000002b6a0       0x3f obj_cooja/mtype516.a(rpl-icmp6.o)
 .text.rpl_icmp6_update_nbr_table
                0x000000000002b6df       0x5b obj_cooja/mtype516.a(rpl-icmp6.o)
                0x000000000002b6df                rpl_icmp6_update_nbr_table
 .text.dis_input
                0x000000000002b73a       0x95 obj_cooja/mtype516.a(rpl-icmp6.o)
 .text.dis_output
                0x000000000002b7cf       0xaf obj_cooja/mtype516.a(rpl-icmp6.o)
                0x000000000002b7cf                dis_output
 .text.dio_input
                0x000000000002b87e      0x58a obj_cooja/mtype516.a(rpl-icmp6.o)
 .text.dio_output
                0x000000000002be08      0x622 obj_cooja/mtype516.a(rpl-icmp6.o)
                0x000000000002be08                dio_output
 .text.dao_input_storing
                0x000000000002c42a      0x6d8 obj_cooja/mtype516.a(rpl-icmp6.o)
 .text.dao_input_nonstoring
                0x000000000002cb02        0x5 obj_cooja/mtype516.a(rpl-icmp6.o)
 .text.dao_input
                0x000000000002cb07       0x5f obj_cooja/mtype516.a(rpl-icmp6.o)
 .text.dao_output
                0x000000000002cb66       0xbb obj_cooja/mtype516.a(rpl-icmp6.o)
                0x000000000002cb66                dao_output
 .text.dao_output_target
                0x000000000002cc21       0x36 obj_cooja/mtype516.a(rpl-icmp6.o)
                0x000000000002cc21                dao_output_target
 .text.dao_output_target_seq
                0x000000000002cc57      0x2ff obj_cooja/mtype516.a(rpl-icmp6.o)
 .text.dao_ack_input
                0x000000000002cf56       0x15 obj_cooja/mtype516.a(rpl-icmp6.o)
 .text.dao_ack_output
                0x000000000002cf6b       0x14 obj_cooja/mtype516.a(rpl-icmp6.o)
                0x000000000002cf6b                dao_ack_output
 .text.rpl_icmp6_register_handlers
                0x000000000002cf7f       0x38 obj_cooja/mtype516.a(rpl-icmp6.o)
                0x000000000002cf7f                rpl_icmp6_register_handlers
 .text          0x000000000002cfb7        0x0 obj_cooja/mtype516.a(rpl-mrhof.o)
 .text.reset    0x000000000002cfb7        0x5 obj_cooja/mtype516.a(rpl-mrhof.o)
 .text.parent_link_metric
                0x000000000002cfbc       0x29 obj_cooja/mtype516.a(rpl-mrhof.o)
 .text.parent_path_cost
                0x000000000002cfe5       0x6d obj_cooja/mtype516.a(rpl-mrhof.o)
 .text.rank_via_parent
                0x000000000002d052       0x72 obj_cooja/mtype516.a(rpl-mrhof.o)
 .text.parent_is_acceptable
                0x000000000002d0c4       0x42 obj_cooja/mtype516.a(rpl-mrhof.o)
 .text.parent_has_usable_link
                0x000000000002d106       0x23 obj_cooja/mtype516.a(rpl-mrhof.o)
 .text.best_parent
                0x000000000002d129       0xf7 obj_cooja/mtype516.a(rpl-mrhof.o)
 .text.best_dag
                0x000000000002d220       0x75 obj_cooja/mtype516.a(rpl-mrhof.o)
 .text.update_metric_container
                0x000000000002d295        0xb obj_cooja/mtype516.a(rpl-mrhof.o)
 .text          0x000000000002d2a0        0x0 obj_cooja/mtype516.a(rpl-timers.o)
 .text.handle_periodic_timer
                0x000000000002d2a0       0x84 obj_cooja/mtype516.a(rpl-timers.o)
 .text.new_dio_interval
                0x000000000002d324       0xca obj_cooja/mtype516.a(rpl-timers.o)
 .text.handle_dio_timer
                0x000000000002d3ee      0x12d obj_cooja/mtype516.a(rpl-timers.o)
 .text.rpl_reset_periodic_timer
                0x000000000002d51b       0x55 obj_cooja/mtype516.a(rpl-timers.o)
                0x000000000002d51b                rpl_reset_periodic_timer
 .text.rpl_reset_dio_timer
                0x000000000002d570       0x48 obj_cooja/mtype516.a(rpl-timers.o)
                0x000000000002d570                rpl_reset_dio_timer
 .text.set_dao_lifetime_timer
                0x000000000002d5b8       0x8c obj_cooja/mtype516.a(rpl-timers.o)
 .text.handle_dao_timer
                0x000000000002d644       0xb1 obj_cooja/mtype516.a(rpl-timers.o)
 .text.schedule_dao
                0x000000000002d6f5       0xa2 obj_cooja/mtype516.a(rpl-timers.o)
 .text.rpl_schedule_dao
                0x000000000002d797       0x1b obj_cooja/mtype516.a(rpl-timers.o)
                0x000000000002d797                rpl_schedule_dao
 .text.rpl_schedule_dao_immediately
                0x000000000002d7b2       0x1b obj_cooja/mtype516.a(rpl-timers.o)
                0x000000000002d7b2                rpl_schedule_dao_immediately
 .text.rpl_cancel_dao
                0x000000000002d7cd       0x28 obj_cooja/mtype516.a(rpl-timers.o)
                0x000000000002d7cd                rpl_cancel_dao
 .text.handle_unicast_dio_timer
                0x000000000002d7f5       0x3a obj_cooja/mtype516.a(rpl-timers.o)
 .text.rpl_schedule_unicast_dio_immediately
                0x000000000002d82f       0x30 obj_cooja/mtype516.a(rpl-timers.o)
                0x000000000002d82f                rpl_schedule_unicast_dio_immediately
 .text.get_probing_delay
                0x000000000002d85f       0x7f obj_cooja/mtype516.a(rpl-timers.o)
                0x000000000002d85f                get_probing_delay
 .text.get_probing_target
                0x000000000002d8de      0x18c obj_cooja/mtype516.a(rpl-timers.o)
                0x000000000002d8de                get_probing_target
 .text.handle_probing_timer
                0x000000000002da6a       0x6b obj_cooja/mtype516.a(rpl-timers.o)
 .text.rpl_schedule_probing
                0x000000000002dad5       0x3a obj_cooja/mtype516.a(rpl-timers.o)
                0x000000000002dad5                rpl_schedule_probing
 .text          0x000000000002db0f        0x0 obj_cooja/mtype516.a(rpl.o)
 .text.rpl_get_mode
                0x000000000002db0f        0xa obj_cooja/mtype516.a(rpl.o)
                0x000000000002db0f                rpl_get_mode
 .text.rpl_set_mode
                0x000000000002db19       0x8e obj_cooja/mtype516.a(rpl.o)
                0x000000000002db19                rpl_set_mode
 .text.rpl_purge_routes
                0x000000000002dba7      0x105 obj_cooja/mtype516.a(rpl.o)
                0x000000000002dba7                rpl_purge_routes
 .text.rpl_remove_routes
                0x000000000002dcac       0x46 obj_cooja/mtype516.a(rpl.o)
                0x000000000002dcac                rpl_remove_routes
 .text.rpl_remove_routes_by_nexthop
                0x000000000002dcf2       0x61 obj_cooja/mtype516.a(rpl.o)
                0x000000000002dcf2                rpl_remove_routes_by_nexthop
 .text.rpl_add_route
                0x000000000002dd53       0x93 obj_cooja/mtype516.a(rpl.o)
                0x000000000002dd53                rpl_add_route
 .text.rpl_link_neighbor_callback
                0x000000000002dde6       0xca obj_cooja/mtype516.a(rpl.o)
                0x000000000002dde6                rpl_link_neighbor_callback
 .text.rpl_ipv6_neighbor_callback
                0x000000000002deb0       0x6f obj_cooja/mtype516.a(rpl.o)
                0x000000000002deb0                rpl_ipv6_neighbor_callback
 .text.rpl_purge_dags
                0x000000000002df1f       0xe2 obj_cooja/mtype516.a(rpl.o)
                0x000000000002df1f                rpl_purge_dags
 .text.rpl_init
                0x000000000002e001       0x78 obj_cooja/mtype516.a(rpl.o)
                0x000000000002e001                rpl_init
 .text          0x000000000002e079        0x0 obj_cooja/mtype516.a(link-stats.o)
 .text.packetbuf_attr
                0x000000000002e079       0x1a obj_cooja/mtype516.a(link-stats.o)
 .text.link_stats_from_lladdr
                0x000000000002e093       0x1c obj_cooja/mtype516.a(link-stats.o)
                0x000000000002e093                link_stats_from_lladdr
 .text.link_stats_is_fresh
                0x000000000002e0af       0x39 obj_cooja/mtype516.a(link-stats.o)
                0x000000000002e0af                link_stats_is_fresh
 .text.guess_etx_from_rssi
                0x000000000002e0e8       0x7c obj_cooja/mtype516.a(link-stats.o)
                0x000000000002e0e8                guess_etx_from_rssi
 .text.link_stats_packet_sent
                0x000000000002e164      0x10e obj_cooja/mtype516.a(link-stats.o)
                0x000000000002e164                link_stats_packet_sent
 .text.link_stats_input_callback
                0x000000000002e272       0xaf obj_cooja/mtype516.a(link-stats.o)
                0x000000000002e272                link_stats_input_callback
 .text.periodic
                0x000000000002e321       0x54 obj_cooja/mtype516.a(link-stats.o)
 .text.link_stats_init
                0x000000000002e375       0x41 obj_cooja/mtype516.a(link-stats.o)
                0x000000000002e375                link_stats_init
 .text          0x000000000002e3b6        0x0 obj_cooja/mtype516.a(linkaddr.o)
 .text.linkaddr_copy
                0x000000000002e3b6       0x22 obj_cooja/mtype516.a(linkaddr.o)
                0x000000000002e3b6                linkaddr_copy
 .text.linkaddr_cmp
                0x000000000002e3d8       0x2a obj_cooja/mtype516.a(linkaddr.o)
                0x000000000002e3d8                linkaddr_cmp
 .text.linkaddr_set_node_addr
                0x000000000002e402       0x1b obj_cooja/mtype516.a(linkaddr.o)
                0x000000000002e402                linkaddr_set_node_addr
 .text          0x000000000002e41d        0x0 obj_cooja/mtype516.a(nbr-table.o)
 .text.key_from_index
                0x000000000002e41d       0x26 obj_cooja/mtype516.a(nbr-table.o)
 .text.item_from_index
                0x000000000002e443       0x2a obj_cooja/mtype516.a(nbr-table.o)
 .text.index_from_key
                0x000000000002e46d       0x27 obj_cooja/mtype516.a(nbr-table.o)
 .text.index_from_item
                0x000000000002e494       0x32 obj_cooja/mtype516.a(nbr-table.o)
 .text.item_from_key
                0x000000000002e4c6       0x22 obj_cooja/mtype516.a(nbr-table.o)
 .text.key_from_item
                0x000000000002e4e8       0x22 obj_cooja/mtype516.a(nbr-table.o)
 .text.index_from_lladdr
                0x000000000002e50a       0x6c obj_cooja/mtype516.a(nbr-table.o)
 .text.nbr_get_bit
                0x000000000002e576       0x54 obj_cooja/mtype516.a(nbr-table.o)
 .text.nbr_set_bit
                0x000000000002e5ca       0x98 obj_cooja/mtype516.a(nbr-table.o)
 .text.remove_key
                0x000000000002e662       0xb7 obj_cooja/mtype516.a(nbr-table.o)
 .text.nbr_table_allocate
                0x000000000002e719      0x173 obj_cooja/mtype516.a(nbr-table.o)
 .text.nbr_table_register
                0x000000000002e88c       0x48 obj_cooja/mtype516.a(nbr-table.o)
                0x000000000002e88c                nbr_table_register
 .text.nbr_table_head
                0x000000000002e8d4       0x5c obj_cooja/mtype516.a(nbr-table.o)
                0x000000000002e8d4                nbr_table_head
 .text.nbr_table_next
                0x000000000002e930       0x67 obj_cooja/mtype516.a(nbr-table.o)
                0x000000000002e930                nbr_table_next
 .text.nbr_table_add_lladdr
                0x000000000002e997       0xdc obj_cooja/mtype516.a(nbr-table.o)
                0x000000000002e997                nbr_table_add_lladdr
 .text.nbr_table_get_from_lladdr
                0x000000000002ea73       0x4d obj_cooja/mtype516.a(nbr-table.o)
                0x000000000002ea73                nbr_table_get_from_lladdr
 .text.nbr_table_remove
                0x000000000002eac0       0x52 obj_cooja/mtype516.a(nbr-table.o)
                0x000000000002eac0                nbr_table_remove
 .text.nbr_table_lock
                0x000000000002eb12       0x2a obj_cooja/mtype516.a(nbr-table.o)
                0x000000000002eb12                nbr_table_lock
 .text.nbr_table_unlock
                0x000000000002eb3c       0x2a obj_cooja/mtype516.a(nbr-table.o)
                0x000000000002eb3c                nbr_table_unlock
 .text.nbr_table_get_lladdr
                0x000000000002eb66       0x30 obj_cooja/mtype516.a(nbr-table.o)
                0x000000000002eb66                nbr_table_get_lladdr
 .text.nbr_table_update_lladdr
                0x000000000002eb96       0x96 obj_cooja/mtype516.a(nbr-table.o)
                0x000000000002eb96                nbr_table_update_lladdr
 .text          0x000000000002ec2c        0x0 obj_cooja/mtype516.a(netstack.o)
 .text.netstack_init
                0x000000000002ec2c       0x2b obj_cooja/mtype516.a(netstack.o)
                0x000000000002ec2c                netstack_init
 .text          0x000000000002ec57        0x0 obj_cooja/mtype516.a(packetbuf.o)
 .text.packetbuf_clear
                0x000000000002ec57       0x2a obj_cooja/mtype516.a(packetbuf.o)
                0x000000000002ec57                packetbuf_clear
 .text.packetbuf_copyfrom
                0x000000000002ec81       0x52 obj_cooja/mtype516.a(packetbuf.o)
                0x000000000002ec81                packetbuf_copyfrom
 .text.packetbuf_compact
                0x000000000002ecd3       0x7d obj_cooja/mtype516.a(packetbuf.o)
                0x000000000002ecd3                packetbuf_compact
 .text.packetbuf_copyto
                0x000000000002ed50       0x97 obj_cooja/mtype516.a(packetbuf.o)
                0x000000000002ed50                packetbuf_copyto
 .text.packetbuf_hdralloc
                0x000000000002ede7       0x7d obj_cooja/mtype516.a(packetbuf.o)
                0x000000000002ede7                packetbuf_hdralloc
 .text.packetbuf_hdrreduce
                0x000000000002ee64       0x48 obj_cooja/mtype516.a(packetbuf.o)
                0x000000000002ee64                packetbuf_hdrreduce
 .text.packetbuf_set_datalen
                0x000000000002eeac       0x19 obj_cooja/mtype516.a(packetbuf.o)
                0x000000000002eeac                packetbuf_set_datalen
 .text.packetbuf_dataptr
                0x000000000002eec5       0x1d obj_cooja/mtype516.a(packetbuf.o)
                0x000000000002eec5                packetbuf_dataptr
 .text.packetbuf_hdrptr
                0x000000000002eee2        0xa obj_cooja/mtype516.a(packetbuf.o)
                0x000000000002eee2                packetbuf_hdrptr
 .text.packetbuf_datalen
                0x000000000002eeec        0xc obj_cooja/mtype516.a(packetbuf.o)
                0x000000000002eeec                packetbuf_datalen
 .text.packetbuf_hdrlen
                0x000000000002eef8       0x17 obj_cooja/mtype516.a(packetbuf.o)
                0x000000000002eef8                packetbuf_hdrlen
 .text.packetbuf_totlen
                0x000000000002ef0f       0x16 obj_cooja/mtype516.a(packetbuf.o)
                0x000000000002ef0f                packetbuf_totlen
 .text.packetbuf_remaininglen
                0x000000000002ef25       0x13 obj_cooja/mtype516.a(packetbuf.o)
                0x000000000002ef25                packetbuf_remaininglen
 .text.packetbuf_attr_clear
                0x000000000002ef38       0x52 obj_cooja/mtype516.a(packetbuf.o)
                0x000000000002ef38                packetbuf_attr_clear
 .text.packetbuf_attr_copyto
                0x000000000002ef8a       0x49 obj_cooja/mtype516.a(packetbuf.o)
                0x000000000002ef8a                packetbuf_attr_copyto
 .text.packetbuf_attr_copyfrom
                0x000000000002efd3       0x48 obj_cooja/mtype516.a(packetbuf.o)
                0x000000000002efd3                packetbuf_attr_copyfrom
 .text.packetbuf_holds_broadcast
                0x000000000002f01b       0x1c obj_cooja/mtype516.a(packetbuf.o)
                0x000000000002f01b                packetbuf_holds_broadcast
 .text          0x000000000002f037        0x0 obj_cooja/mtype516.a(queuebuf.o)
 .text.queuebuf_load_to_ram
                0x000000000002f037        0xa obj_cooja/mtype516.a(queuebuf.o)
 .text.queuebuf_init
                0x000000000002f041       0x20 obj_cooja/mtype516.a(queuebuf.o)
                0x000000000002f041                queuebuf_init
 .text.queuebuf_numfree
                0x000000000002f061       0x14 obj_cooja/mtype516.a(queuebuf.o)
                0x000000000002f061                queuebuf_numfree
 .text.queuebuf_new_from_packetbuf
                0x000000000002f075       0x90 obj_cooja/mtype516.a(queuebuf.o)
                0x000000000002f075                queuebuf_new_from_packetbuf
 .text.queuebuf_update_attr_from_packetbuf
                0x000000000002f105       0x33 obj_cooja/mtype516.a(queuebuf.o)
                0x000000000002f105                queuebuf_update_attr_from_packetbuf
 .text.queuebuf_update_from_packetbuf
                0x000000000002f138       0x4a obj_cooja/mtype516.a(queuebuf.o)
                0x000000000002f138                queuebuf_update_from_packetbuf
 .text.queuebuf_free
                0x000000000002f182       0x47 obj_cooja/mtype516.a(queuebuf.o)
                0x000000000002f182                queuebuf_free
 .text.queuebuf_to_packetbuf
                0x000000000002f1c9       0x66 obj_cooja/mtype516.a(queuebuf.o)
                0x000000000002f1c9                queuebuf_to_packetbuf
 .text.queuebuf_dataptr
                0x000000000002f22f       0x37 obj_cooja/mtype516.a(queuebuf.o)
                0x000000000002f22f                queuebuf_dataptr
 .text.queuebuf_datalen
                0x000000000002f266       0x23 obj_cooja/mtype516.a(queuebuf.o)
                0x000000000002f266                queuebuf_datalen
 .text.queuebuf_addr
                0x000000000002f289       0x32 obj_cooja/mtype516.a(queuebuf.o)
                0x000000000002f289                queuebuf_addr
 .text.queuebuf_attr
                0x000000000002f2bb       0x2b obj_cooja/mtype516.a(queuebuf.o)
                0x000000000002f2bb                queuebuf_attr
 .text.queuebuf_debug_print
                0x000000000002f2e6        0x5 obj_cooja/mtype516.a(queuebuf.o)
                0x000000000002f2e6                queuebuf_debug_print
 .text          0x000000000002f2eb        0x0 obj_cooja/mtype516.a(csma.o)
 .text.packetbuf_set_attr
                0x000000000002f2eb       0x2a obj_cooja/mtype516.a(csma.o)
 .text.packetbuf_attr
                0x000000000002f315       0x1a obj_cooja/mtype516.a(csma.o)
 .text.packetbuf_addr
                0x000000000002f32f       0x1d obj_cooja/mtype516.a(csma.o)
 .text.neighbor_queue_from_addr
                0x000000000002f34c       0x51 obj_cooja/mtype516.a(csma.o)
 .text.backoff_period
                0x000000000002f39d       0x25 obj_cooja/mtype516.a(csma.o)
 .text.transmit_packet_list
                0x000000000002f3c2       0x47 obj_cooja/mtype516.a(csma.o)
 .text.schedule_transmission
                0x000000000002f409       0x87 obj_cooja/mtype516.a(csma.o)
 .text.free_packet
                0x000000000002f490       0xc0 obj_cooja/mtype516.a(csma.o)
 .text.tx_done  0x000000000002f550       0x7c obj_cooja/mtype516.a(csma.o)
 .text.rexmit   0x000000000002f5cc       0x21 obj_cooja/mtype516.a(csma.o)
 .text.collision
                0x000000000002f5ed       0x85 obj_cooja/mtype516.a(csma.o)
 .text.noack    0x000000000002f672       0x6a obj_cooja/mtype516.a(csma.o)
 .text.tx_ok    0x000000000002f6dc       0x3b obj_cooja/mtype516.a(csma.o)
 .text.packet_sent
                0x000000000002f717      0x117 obj_cooja/mtype516.a(csma.o)
 .text.send_packet
                0x000000000002f82e      0x274 obj_cooja/mtype516.a(csma.o)
 .text.input_packet
                0x000000000002faa2        0xf obj_cooja/mtype516.a(csma.o)
 .text.on       0x000000000002fab1        0xf obj_cooja/mtype516.a(csma.o)
 .text.off      0x000000000002fac0       0x15 obj_cooja/mtype516.a(csma.o)
 .text.channel_check_interval
                0x000000000002fad5       0x1f obj_cooja/mtype516.a(csma.o)
 .text.init     0x000000000002faf4       0x2c obj_cooja/mtype516.a(csma.o)
 .text          0x000000000002fb20        0x0 obj_cooja/mtype516.a(framer-802154.o)
 .text.packetbuf_set_attr
                0x000000000002fb20       0x2a obj_cooja/mtype516.a(framer-802154.o)
 .text.packetbuf_attr
                0x000000000002fb4a       0x1a obj_cooja/mtype516.a(framer-802154.o)
 .text.packetbuf_set_addr
                0x000000000002fb64       0x32 obj_cooja/mtype516.a(framer-802154.o)
 .text.packetbuf_addr
                0x000000000002fb96       0x1d obj_cooja/mtype516.a(framer-802154.o)
 .text.create_frame
                0x000000000002fbb3      0x1eb obj_cooja/mtype516.a(framer-802154.o)
 .text.hdr_length
                0x000000000002fd9e       0x1c obj_cooja/mtype516.a(framer-802154.o)
 .text.create   0x000000000002fdba       0x1c obj_cooja/mtype516.a(framer-802154.o)
 .text.parse    0x000000000002fdd6      0x143 obj_cooja/mtype516.a(framer-802154.o)
 .text          0x000000000002ff19        0x0 obj_cooja/mtype516.a(mac.o)
 .text.mac_call_sent_callback
                0x000000000002ff19       0x3c obj_cooja/mtype516.a(mac.o)
                0x000000000002ff19                mac_call_sent_callback
 .text          0x000000000002ff55        0x0 obj_cooja/mtype516.a(nullrdc.o)
 .text.packetbuf_set_attr
                0x000000000002ff55       0x2a obj_cooja/mtype516.a(nullrdc.o)
 .text.packetbuf_set_addr
                0x000000000002ff7f       0x32 obj_cooja/mtype516.a(nullrdc.o)
 .text.packetbuf_addr
                0x000000000002ffb1       0x1d obj_cooja/mtype516.a(nullrdc.o)
 .text.send_one_packet
                0x000000000002ffce      0x1ec obj_cooja/mtype516.a(nullrdc.o)
 .text.send_packet
                0x00000000000301ba       0x1a obj_cooja/mtype516.a(nullrdc.o)
 .text.send_list
                0x00000000000301d4       0x49 obj_cooja/mtype516.a(nullrdc.o)
 .text.packet_input
                0x000000000003021d      0x11a obj_cooja/mtype516.a(nullrdc.o)
 .text.on       0x0000000000030337        0xf obj_cooja/mtype516.a(nullrdc.o)
 .text.off      0x0000000000030346       0x1e obj_cooja/mtype516.a(nullrdc.o)
 .text.channel_check_interval
                0x0000000000030364        0xa obj_cooja/mtype516.a(nullrdc.o)
 .text.init     0x000000000003036e        0xd obj_cooja/mtype516.a(nullrdc.o)
 .text          0x000000000003037b        0x0 obj_cooja/mtype516.a(nullsec.o)
 .text.packetbuf_set_attr
                0x000000000003037b       0x2a obj_cooja/mtype516.a(nullsec.o)
 .text.init     0x00000000000303a5        0x5 obj_cooja/mtype516.a(nullsec.o)
 .text.send     0x00000000000303aa       0x30 obj_cooja/mtype516.a(nullsec.o)
 .text.input    0x00000000000303da        0xf obj_cooja/mtype516.a(nullsec.o)
 .text          0x00000000000303e9        0x0 obj_cooja/mtype516.a(watchdog.o)
 .text.watchdog_init
                0x00000000000303e9        0x5 obj_cooja/mtype516.a(watchdog.o)
                0x00000000000303e9                watchdog_init
 .text.watchdog_start
                0x00000000000303ee        0x5 obj_cooja/mtype516.a(watchdog.o)
                0x00000000000303ee                watchdog_start
 .text.watchdog_periodic
                0x00000000000303f3        0x5 obj_cooja/mtype516.a(watchdog.o)
                0x00000000000303f3                watchdog_periodic
 .text.watchdog_stop
                0x00000000000303f8        0x5 obj_cooja/mtype516.a(watchdog.o)
                0x00000000000303f8                watchdog_stop
 .text.watchdog_reboot
                0x00000000000303fd        0x5 obj_cooja/mtype516.a(watchdog.o)
                0x00000000000303fd                watchdog_reboot
 .text          0x0000000000030402        0x0 obj_cooja/mtype516.a(rimestats.o)
 .text          0x0000000000030402        0x0 obj_cooja/mtype516.a(stimer.o)
 .text.stimer_set
                0x0000000000030402       0x1b obj_cooja/mtype516.a(stimer.o)
                0x0000000000030402                stimer_set
 .text.stimer_reset
                0x000000000003041d       0x17 obj_cooja/mtype516.a(stimer.o)
                0x000000000003041d                stimer_reset
 .text.stimer_restart
                0x0000000000030434       0x12 obj_cooja/mtype516.a(stimer.o)
                0x0000000000030434                stimer_restart
 .text.stimer_expired
                0x0000000000030446       0x27 obj_cooja/mtype516.a(stimer.o)
                0x0000000000030446                stimer_expired
 .text.stimer_remaining
                0x000000000003046d       0x24 obj_cooja/mtype516.a(stimer.o)
                0x000000000003046d                stimer_remaining
 .text.stimer_elapsed
                0x0000000000030491       0x14 obj_cooja/mtype516.a(stimer.o)
                0x0000000000030491                stimer_elapsed
 .text          0x00000000000304a5        0x0 obj_cooja/mtype516.a(uip-icmp6.o)
 .text.input_handler_lookup
                0x00000000000304a5       0x6e obj_cooja/mtype516.a(uip-icmp6.o)
 .text.uip_icmp6_input
                0x0000000000030513       0x56 obj_cooja/mtype516.a(uip-icmp6.o)
                0x0000000000030513                uip_icmp6_input
 .text.uip_icmp6_register_input_handler
                0x0000000000030569       0x1c obj_cooja/mtype516.a(uip-icmp6.o)
                0x0000000000030569                uip_icmp6_register_input_handler
 .text.echo_request_input
                0x0000000000030585      0x1c7 obj_cooja/mtype516.a(uip-icmp6.o)
 .text.uip_icmp6_error_output
                0x000000000003074c      0x340 obj_cooja/mtype516.a(uip-icmp6.o)
                0x000000000003074c                uip_icmp6_error_output
 .text.uip_icmp6_send
                0x0000000000030a8c      0x107 obj_cooja/mtype516.a(uip-icmp6.o)
                0x0000000000030a8c                uip_icmp6_send
 .text.echo_reply_input
                0x0000000000030b93      0x16d obj_cooja/mtype516.a(uip-icmp6.o)
 .text.uip_icmp6_echo_reply_callback_add
                0x0000000000030d00       0x31 obj_cooja/mtype516.a(uip-icmp6.o)
                0x0000000000030d00                uip_icmp6_echo_reply_callback_add
 .text.uip_icmp6_echo_reply_callback_rm
                0x0000000000030d31       0x1c obj_cooja/mtype516.a(uip-icmp6.o)
                0x0000000000030d31                uip_icmp6_echo_reply_callback_rm
 .text.uip_icmp6_init
                0x0000000000030d4d       0x20 obj_cooja/mtype516.a(uip-icmp6.o)
                0x0000000000030d4d                uip_icmp6_init
 .text          0x0000000000030d6d        0x0 obj_cooja/mtype516.a(rpl-nbr-policy.)
 .text.handle_periodic_timer
                0x0000000000030d6d       0x19 obj_cooja/mtype516.a(rpl-nbr-policy.)
 .text.update_nbr
                0x0000000000030d86      0x1b7 obj_cooja/mtype516.a(rpl-nbr-policy.)
 .text.find_removable_dis
                0x0000000000030f3d       0x25 obj_cooja/mtype516.a(rpl-nbr-policy.)
                0x0000000000030f3d                find_removable_dis
 .text.find_removable_dio
                0x0000000000030f62       0x81 obj_cooja/mtype516.a(rpl-nbr-policy.)
                0x0000000000030f62                find_removable_dio
 .text.find_removable_dao
                0x0000000000030fe3       0x50 obj_cooja/mtype516.a(rpl-nbr-policy.)
                0x0000000000030fe3                find_removable_dao
 .text.rpl_nbr_policy_find_removable
                0x0000000000031033       0x57 obj_cooja/mtype516.a(rpl-nbr-policy.)
                0x0000000000031033                rpl_nbr_policy_find_removable
 .text          0x000000000003108a        0x0 obj_cooja/mtype516.a(frame802154.o)
 .text.addr_len
                0x000000000003108a       0x31 obj_cooja/mtype516.a(frame802154.o)
 .text.frame802154_get_pan_id
                0x00000000000310bb        0xc obj_cooja/mtype516.a(frame802154.o)
                0x00000000000310bb                frame802154_get_pan_id
 .text.frame802154_set_pan_id
                0x00000000000310c7       0x19 obj_cooja/mtype516.a(frame802154.o)
                0x00000000000310c7                frame802154_set_pan_id
 .text.frame802154_has_panid
                0x00000000000310e0      0x1ad obj_cooja/mtype516.a(frame802154.o)
                0x00000000000310e0                frame802154_has_panid
 .text.frame802154_check_dest_panid
                0x000000000003128d       0x6f obj_cooja/mtype516.a(frame802154.o)
                0x000000000003128d                frame802154_check_dest_panid
 .text.frame802154_is_broadcast_addr
                0x00000000000312fc       0x4d obj_cooja/mtype516.a(frame802154.o)
                0x00000000000312fc                frame802154_is_broadcast_addr
 .text.frame802154_extract_linkaddr
                0x0000000000031349      0x148 obj_cooja/mtype516.a(frame802154.o)
                0x0000000000031349                frame802154_extract_linkaddr
 .text.field_len
                0x0000000000031491       0xf8 obj_cooja/mtype516.a(frame802154.o)
 .text.frame802154_hdrlen
                0x0000000000031589       0x51 obj_cooja/mtype516.a(frame802154.o)
                0x0000000000031589                frame802154_hdrlen
 .text.frame802154_create_fcf
                0x00000000000315da       0xb7 obj_cooja/mtype516.a(frame802154.o)
                0x00000000000315da                frame802154_create_fcf
 .text.frame802154_create
                0x0000000000031691      0x14d obj_cooja/mtype516.a(frame802154.o)
                0x0000000000031691                frame802154_create
 .text.frame802154_parse_fcf
                0x00000000000317de       0xb9 obj_cooja/mtype516.a(frame802154.o)
                0x00000000000317de                frame802154_parse_fcf
 .text.frame802154_parse
                0x0000000000031897      0x280 obj_cooja/mtype516.a(frame802154.o)
                0x0000000000031897                frame802154_parse
 .text          0x0000000000031b17        0x0 obj_cooja/mtype516.a(mac-sequence.o)
 .text.packetbuf_attr
                0x0000000000031b17       0x1a obj_cooja/mtype516.a(mac-sequence.o)
 .text.packetbuf_addr
                0x0000000000031b31       0x1d obj_cooja/mtype516.a(mac-sequence.o)
 .text.mac_sequence_is_duplicate
                0x0000000000031b4e       0x9e obj_cooja/mtype516.a(mac-sequence.o)
                0x0000000000031b4e                mac_sequence_is_duplicate
 .text.mac_sequence_register_seqno
                0x0000000000031bec       0xca obj_cooja/mtype516.a(mac-sequence.o)
                0x0000000000031bec                mac_sequence_register_seqno
 .text          0x0000000000031cb6        0x0 /usr/lib/gcc/i686-linux-gnu/4.8/crtendS.o
 .text          0x0000000000031cb6        0x0 /usr/lib/gcc/i686-linux-gnu/4.8/../../../i386-linux-gnu/crtn.o
 *(.gnu.warning)

.fini           0x0000000000031cb8       0x14
 *(SORT(.fini))
 .fini          0x0000000000031cb8        0xf /usr/lib/gcc/i686-linux-gnu/4.8/../../../i386-linux-gnu/crti.o
                0x0000000000031cb8                _fini
 .fini          0x0000000000031cc7        0x5 /usr/lib/gcc/i686-linux-gnu/4.8/../../../i386-linux-gnu/crtn.o
                0x0000000000031ccc                PROVIDE (__etext, .)
                0x0000000000031ccc                PROVIDE (_etext, .)
                0x0000000000031ccc                PROVIDE (etext, .)

.rodata         0x0000000000031ce0     0x3118
 *(.rodata .rodata.* .gnu.linkonce.r.*)
 .rodata        0x0000000000031ce0      0x2fb dtls-client.co
                0x0000000000031d54                autostart_processes
 *fill*         0x0000000000031fdb        0x1 
 .rodata        0x0000000000031fdc      0x133 obj_cooja/mtype516.o
 *fill*         0x000000000003210f        0x1 
 .rodata        0x0000000000032110      0xdf5 obj_cooja/mtype516.a(dtls.o)
 *fill*         0x0000000000032f05        0x3 
 .rodata        0x0000000000032f08       0x91 obj_cooja/mtype516.a(tinydtls-crypto)
 *fill*         0x0000000000032f99        0x3 
 .rodata        0x0000000000032f9c       0x21 obj_cooja/mtype516.a(hmac.o)
 *fill*         0x0000000000032fbd        0x3 
 .rodata        0x0000000000032fc0       0x38 obj_cooja/mtype516.a(netq.o)
 .rodata        0x0000000000032ff8        0xe obj_cooja/mtype516.a(peer.o)
 *fill*         0x0000000000033006        0x2 
 .rodata        0x0000000000033008       0x24 obj_cooja/mtype516.a(session.o)
 *fill*         0x000000000003302c       0x14 
 .rodata        0x0000000000033040     0x1428 obj_cooja/mtype516.a(rijndael.o)
 .rodata        0x0000000000034468       0x29 obj_cooja/mtype516.a(tinydtls-ccm.o)
 *fill*         0x0000000000034491        0xf 
 .rodata        0x00000000000344a0      0x15a obj_cooja/mtype516.a(sha2.o)
 .rodata        0x00000000000345fa       0x7e obj_cooja/mtype516.a(debug.o)
 .rodata        0x0000000000034678        0x8 obj_cooja/mtype516.a(beep.o)
                0x0000000000034678                beep_interface
 .rodata        0x0000000000034680       0x20 obj_cooja/mtype516.a(button-sensor.o)
                0x0000000000034680                button_interface
                0x0000000000034690                button_sensor
 .rodata        0x00000000000346a0        0x8 obj_cooja/mtype516.a(leds-arch.o)
                0x00000000000346a0                leds_interface
 .rodata        0x00000000000346a8        0x8 obj_cooja/mtype516.a(moteid.o)
                0x00000000000346a8                moteid_interface
 .rodata        0x00000000000346b0       0x1c obj_cooja/mtype516.a(pir-sensor.o)
                0x00000000000346b0                pir_interface
                0x00000000000346bc                pir_sensor
 .rodata        0x00000000000346cc        0xe obj_cooja/mtype516.a(rs232.o)
                0x00000000000346cc                rs232_interface
 *fill*         0x00000000000346da        0x2 
 .rodata        0x00000000000346dc       0x24 obj_cooja/mtype516.a(vib-sensor.o)
                0x00000000000346dc                vib_interface
                0x00000000000346f0                vib_sensor
 .rodata        0x0000000000034700        0x8 obj_cooja/mtype516.a(clock.o)
                0x0000000000034700                clock_interface
 .rodata        0x0000000000034708        0x8 obj_cooja/mtype516.a(log.o)
                0x0000000000034708                simlog_interface
 .rodata        0x0000000000034710       0x2f obj_cooja/mtype516.a(cfs-cooja.o)
                0x0000000000034710                cfs_interface
 *fill*         0x000000000003473f        0x1 
 .rodata        0x0000000000034740       0x58 obj_cooja/mtype516.a(cooja-radio.o)
                0x0000000000034740                radio_interface
                0x0000000000034760                cooja_radio_driver
 .rodata        0x0000000000034798        0x8 obj_cooja/mtype516.a(eeprom.o)
                0x0000000000034798                eeprom_interface
 .rodata        0x00000000000347a0        0x8 obj_cooja/mtype516.a(sensors.o)
 .rodata        0x00000000000347a8        0xf obj_cooja/mtype516.a(ctimer.o)
 .rodata        0x00000000000347b7        0xc obj_cooja/mtype516.a(etimer.o)
 .rodata        0x00000000000347c3        0xe obj_cooja/mtype516.a(serial-line.o)
 *fill*         0x00000000000347d1        0x3 
 .rodata        0x00000000000347d4       0x25 obj_cooja/mtype516.a(assert.o)
 *fill*         0x00000000000347f9        0x3 
 .rodata        0x00000000000347fc       0x2c obj_cooja/mtype516.a(sicslowpan.o)
                0x00000000000347fc                unc_llconf
                0x0000000000034800                unc_ctxconf
                0x0000000000034804                unc_mxconf
                0x0000000000034808                llprefix
                0x000000000003481c                sicslowpan_driver
 .rodata        0x0000000000034828      0x13c obj_cooja/mtype516.a(uip6.o)
 .rodata        0x0000000000034964      0x306 obj_cooja/mtype516.a(resolv.o)
 .rodata        0x0000000000034c6a       0x29 obj_cooja/mtype516.a(tcpip.o)
 .rodata        0x0000000000034c93       0x2a obj_cooja/mtype516.a(uip-debug.o)
 *fill*         0x0000000000034cbd        0x3 
 .rodata        0x0000000000034cc0       0x89 obj_cooja/mtype516.a(rpl-dag.o)
 .rodata        0x0000000000034d49        0x8 obj_cooja/mtype516.a(linkaddr.o)
                0x0000000000034d49                linkaddr_null
 *fill*         0x0000000000034d51        0x3 
 .rodata        0x0000000000034d54       0x24 obj_cooja/mtype516.a(csma.o)
                0x0000000000034d5c                csma_driver
 .rodata        0x0000000000034d78        0xc obj_cooja/mtype516.a(framer-802154.o)
                0x0000000000034d78                framer_802154
 *fill*         0x0000000000034d84       0x1c 
 .rodata        0x0000000000034da0       0x40 obj_cooja/mtype516.a(nullrdc.o)
                0x0000000000034dc0                nullrdc_driver
 .rodata        0x0000000000034de0       0x18 obj_cooja/mtype516.a(nullsec.o)
                0x0000000000034de8                nullsec_driver

.rodata1
 *(.rodata1)

.eh_frame_hdr   0x0000000000034df8     0x1a0c
 *(.eh_frame_hdr)
 .eh_frame_hdr  0x0000000000034df8     0x1a0c dtls-client.co

.eh_frame       0x0000000000036804     0x6aa4
 *(.eh_frame)
 .eh_frame      0x0000000000036804       0x3c /usr/lib/gcc/i686-linux-gnu/4.8/../../../i386-linux-gnu/crti.o
                                         0x40 (size before relaxing)
 .eh_frame      0x0000000000036840      0x1e8 dtls-client.co
                                        0x200 (size before relaxing)
 .eh_frame      0x0000000000036a28      0x148 obj_cooja/mtype516.o
                                        0x160 (size before relaxing)
 .eh_frame      0x0000000000036b70      0xbbc obj_cooja/mtype516.a(dtls.o)
                                        0xbd4 (size before relaxing)
 .eh_frame      0x000000000003772c      0x2a0 obj_cooja/mtype516.a(tinydtls-crypto)
                                        0x2b8 (size before relaxing)
 .eh_frame      0x00000000000379cc      0x160 obj_cooja/mtype516.a(hmac.o)
                                        0x178 (size before relaxing)
 .eh_frame      0x0000000000037b2c      0x160 obj_cooja/mtype516.a(netq.o)
                                        0x178 (size before relaxing)
 .eh_frame      0x0000000000037c8c       0x40 obj_cooja/mtype516.a(dtls_time.o)
                                         0x58 (size before relaxing)
 .eh_frame      0x0000000000037ccc       0x80 obj_cooja/mtype516.a(peer.o)
                                         0x98 (size before relaxing)
 .eh_frame      0x0000000000037d4c       0x40 obj_cooja/mtype516.a(session.o)
                                         0x58 (size before relaxing)
 .eh_frame      0x0000000000037d8c       0x80 obj_cooja/mtype516.a(rijndael.o)
                                         0x98 (size before relaxing)
 .eh_frame      0x0000000000037e0c      0x144 obj_cooja/mtype516.a(tinydtls-ccm.o)
                                        0x15c (size before relaxing)
 .eh_frame      0x0000000000037f50       0xec obj_cooja/mtype516.a(sha2.o)
                                        0x104 (size before relaxing)
 .eh_frame      0x000000000003803c      0x148 obj_cooja/mtype516.a(debug.o)
                                        0x160 (size before relaxing)
 .eh_frame      0x0000000000038184       0x40 obj_cooja/mtype516.a(simEnvChange.o)
                                         0x58 (size before relaxing)
 .eh_frame      0x00000000000381c4       0xc0 obj_cooja/mtype516.a(cooja_mt.o)
                                         0xd8 (size before relaxing)
 .eh_frame      0x0000000000038284      0x120 obj_cooja/mtype516.a(cooja_mtarch.o)
                                        0x138 (size before relaxing)
 .eh_frame      0x00000000000383a4       0xc8 obj_cooja/mtype516.a(rtimer-arch.o)
                                         0xe0 (size before relaxing)
 .eh_frame      0x000000000003846c      0x160 obj_cooja/mtype516.a(beep.o)
                                        0x178 (size before relaxing)
 .eh_frame      0x00000000000385cc       0xa0 obj_cooja/mtype516.a(button-sensor.o)
                                         0xb8 (size before relaxing)
 .eh_frame      0x000000000003866c       0xa0 obj_cooja/mtype516.a(leds-arch.o)
                                         0xb8 (size before relaxing)
 .eh_frame      0x000000000003870c       0x40 obj_cooja/mtype516.a(moteid.o)
                                         0x58 (size before relaxing)
 .eh_frame      0x000000000003874c       0xa0 obj_cooja/mtype516.a(pir-sensor.o)
                                         0xb8 (size before relaxing)
 .eh_frame      0x00000000000387ec      0x100 obj_cooja/mtype516.a(rs232.o)
                                        0x118 (size before relaxing)
 .eh_frame      0x00000000000388ec       0xa0 obj_cooja/mtype516.a(vib-sensor.o)
                                         0xb8 (size before relaxing)
 .eh_frame      0x000000000003898c       0xc0 obj_cooja/mtype516.a(clock.o)
                                         0xd8 (size before relaxing)
 .eh_frame      0x0000000000038a4c      0x120 obj_cooja/mtype516.a(log.o)
                                        0x138 (size before relaxing)
 .eh_frame      0x0000000000038b6c      0x160 obj_cooja/mtype516.a(cfs-cooja.o)
                                        0x178 (size before relaxing)
 .eh_frame      0x0000000000038ccc      0x360 obj_cooja/mtype516.a(cooja-radio.o)
                                        0x378 (size before relaxing)
 .eh_frame      0x000000000003902c       0xa0 obj_cooja/mtype516.a(eeprom.o)
                                         0xb8 (size before relaxing)
 .eh_frame      0x00000000000390cc       0x40 obj_cooja/mtype516.a(random.o)
                                         0x58 (size before relaxing)
 .eh_frame      0x000000000003910c       0xc0 obj_cooja/mtype516.a(sensors.o)
                                         0xd8 (size before relaxing)
 .eh_frame      0x00000000000391cc       0x40 obj_cooja/mtype516.a(autostart.o)
                                         0x58 (size before relaxing)
 .eh_frame      0x000000000003920c      0x100 obj_cooja/mtype516.a(ctimer.o)
                                        0x118 (size before relaxing)
 .eh_frame      0x000000000003930c      0x1e0 obj_cooja/mtype516.a(etimer.o)
                                        0x1f8 (size before relaxing)
 .eh_frame      0x00000000000394ec      0x1c8 obj_cooja/mtype516.a(process.o)
                                        0x1e0 (size before relaxing)
 .eh_frame      0x00000000000396b4       0x60 obj_cooja/mtype516.a(rtimer.o)
                                         0x78 (size before relaxing)
 .eh_frame      0x0000000000039714       0xa4 obj_cooja/mtype516.a(timer.o)
                                         0xbc (size before relaxing)
 .eh_frame      0x00000000000397b8       0x60 obj_cooja/mtype516.a(serial-line.o)
                                         0x78 (size before relaxing)
 .eh_frame      0x0000000000039818       0x20 obj_cooja/mtype516.a(assert.o)
                                         0x38 (size before relaxing)
 .eh_frame      0x0000000000039838      0x180 obj_cooja/mtype516.a(list.o)
                                        0x198 (size before relaxing)
 .eh_frame      0x00000000000399b8       0xa0 obj_cooja/mtype516.a(memb.o)
                                         0xb8 (size before relaxing)
 .eh_frame      0x0000000000039a58       0xa0 obj_cooja/mtype516.a(ringbuf.o)
                                         0xb8 (size before relaxing)
 .eh_frame      0x0000000000039af8      0x350 obj_cooja/mtype516.a(sicslowpan.o)
                                        0x368 (size before relaxing)
 .eh_frame      0x0000000000039e48      0x1e0 obj_cooja/mtype516.a(uip-ds6-nbr.o)
                                        0x1f8 (size before relaxing)
 .eh_frame      0x000000000003a028      0x2c0 obj_cooja/mtype516.a(uip-ds6-route.o)
                                        0x2d8 (size before relaxing)
 .eh_frame      0x000000000003a2e8      0x2c8 obj_cooja/mtype516.a(uip-ds6.o)
                                        0x2e0 (size before relaxing)
 .eh_frame      0x000000000003a5b0       0xd8 obj_cooja/mtype516.a(uip-nd6.o)
                                         0xf0 (size before relaxing)
 .eh_frame      0x000000000003a688      0x27c obj_cooja/mtype516.a(uip6.o)
                                        0x294 (size before relaxing)
 .eh_frame      0x000000000003a904      0x2ac obj_cooja/mtype516.a(resolv.o)
                                        0x2c4 (size before relaxing)
 .eh_frame      0x000000000003abb0      0x270 obj_cooja/mtype516.a(tcpip.o)
                                        0x288 (size before relaxing)
 .eh_frame      0x000000000003ae20       0x28 obj_cooja/mtype516.a(uip-debug.o)
                                         0x40 (size before relaxing)
 .eh_frame      0x000000000003ae48       0x80 obj_cooja/mtype516.a(uip-nameserver.)
                                         0x98 (size before relaxing)
 .eh_frame      0x000000000003aec8       0xe0 obj_cooja/mtype516.a(uip-packetqueue)
                                         0xf8 (size before relaxing)
 .eh_frame      0x000000000003afa8       0x40 obj_cooja/mtype516.a(uip-udp-packet.)
                                         0x58 (size before relaxing)
 .eh_frame      0x000000000003afe8       0x48 obj_cooja/mtype516.a(uiplib.o)
                                         0x60 (size before relaxing)
 .eh_frame      0x000000000003b030      0x720 obj_cooja/mtype516.a(rpl-dag.o)
                                        0x738 (size before relaxing)
 .eh_frame      0x000000000003b750       0xc0 obj_cooja/mtype516.a(rpl-ext-header.)
                                         0xd8 (size before relaxing)
 .eh_frame      0x000000000003b810      0x2b8 obj_cooja/mtype516.a(rpl-icmp6.o)
                                        0x2d0 (size before relaxing)
 .eh_frame      0x000000000003bac8      0x124 obj_cooja/mtype516.a(rpl-mrhof.o)
                                        0x13c (size before relaxing)
 .eh_frame      0x000000000003bbec      0x22c obj_cooja/mtype516.a(rpl-timers.o)
                                        0x244 (size before relaxing)
 .eh_frame      0x000000000003be18      0x140 obj_cooja/mtype516.a(rpl.o)
                                        0x158 (size before relaxing)
 .eh_frame      0x000000000003bf58      0x100 obj_cooja/mtype516.a(link-stats.o)
                                        0x118 (size before relaxing)
 .eh_frame      0x000000000003c058       0x60 obj_cooja/mtype516.a(linkaddr.o)
                                         0x78 (size before relaxing)
 .eh_frame      0x000000000003c0b8      0x2ac obj_cooja/mtype516.a(nbr-table.o)
                                        0x2c4 (size before relaxing)
 .eh_frame      0x000000000003c364       0x20 obj_cooja/mtype516.a(netstack.o)
                                         0x38 (size before relaxing)
 .eh_frame      0x000000000003c384      0x234 obj_cooja/mtype516.a(packetbuf.o)
                                        0x24c (size before relaxing)
 .eh_frame      0x000000000003c5b8      0x1a0 obj_cooja/mtype516.a(queuebuf.o)
                                        0x1b8 (size before relaxing)
 .eh_frame      0x000000000003c758      0x28c obj_cooja/mtype516.a(csma.o)
                                        0x2a4 (size before relaxing)
 .eh_frame      0x000000000003c9e4      0x108 obj_cooja/mtype516.a(framer-802154.o)
                                        0x120 (size before relaxing)
 .eh_frame      0x000000000003caec       0x20 obj_cooja/mtype516.a(mac.o)
                                         0x38 (size before relaxing)
 .eh_frame      0x000000000003cb0c      0x16c obj_cooja/mtype516.a(nullrdc.o)
                                        0x184 (size before relaxing)
 .eh_frame      0x000000000003cc78       0x80 obj_cooja/mtype516.a(nullsec.o)
                                         0x98 (size before relaxing)
 .eh_frame      0x000000000003ccf8       0xa0 obj_cooja/mtype516.a(watchdog.o)
                                         0xb8 (size before relaxing)
 .eh_frame      0x000000000003cd98       0xc4 obj_cooja/mtype516.a(stimer.o)
                                         0xdc (size before relaxing)
 .eh_frame      0x000000000003ce5c      0x15c obj_cooja/mtype516.a(uip-icmp6.o)
                                        0x174 (size before relaxing)
 .eh_frame      0x000000000003cfb8       0xc0 obj_cooja/mtype516.a(rpl-nbr-policy.)
                                         0xd8 (size before relaxing)
 .eh_frame      0x000000000003d078      0x1a4 obj_cooja/mtype516.a(frame802154.o)
                                        0x1bc (size before relaxing)
 .eh_frame      0x000000000003d21c       0x88 obj_cooja/mtype516.a(mac-sequence.o)
                                         0xa0 (size before relaxing)
 .eh_frame      0x000000000003d2a4        0x4 /usr/lib/gcc/i686-linux-gnu/4.8/crtendS.o

.gcc_except_table
 *(.gcc_except_table .gcc_except_table.*)

.exception_ranges
 *(.exception_ranges .exception_ranges*)
                0x000000000003d2a8                . = (ALIGN (0x1000) - ((0x1000 - .) & 0xfff))
                0x000000000003eef8                . = DATA_SEGMENT_ALIGN (0x1000, 0x1000)

.eh_frame
 *(.eh_frame)

.gcc_except_table
 *(.gcc_except_table .gcc_except_table.*)

.exception_ranges
 *(.exception_ranges .exception_ranges*)

.tdata
 *(.tdata .tdata.* .gnu.linkonce.td.*)

.tbss
 *(.tbss .tbss.* .gnu.linkonce.tb.*)
 *(.tcommon)

.preinit_array
 *(.preinit_array)

.init_array     0x000000000003eef8        0x4
 *(SORT(.init_array.*) SORT(.ctors.*))
 *(.init_array EXCLUDE_FILE(*crtend?.o *crtend.o *crtbegin?.o *crtbegin.o) .ctors)
 .init_array    0x000000000003eef8        0x4 /usr/lib/gcc/i686-linux-gnu/4.8/crtbeginS.o

.fini_array     0x000000000003eefc        0x4
 *(SORT(.fini_array.*) SORT(.dtors.*))
 *(.fini_array EXCLUDE_FILE(*crtend?.o *crtend.o *crtbegin?.o *crtbegin.o) .dtors)
 .fini_array    0x000000000003eefc        0x4 /usr/lib/gcc/i686-linux-gnu/4.8/crtbeginS.o

.ctors
 *crtbegin.o(.ctors)
 *crtbegin?.o(.ctors)
 *(EXCLUDE_FILE(*crtend?.o *crtend.o) .ctors)
 *(SORT(.ctors.*))
 *(.ctors)

.dtors
 *crtbegin.o(.dtors)
 *crtbegin?.o(.dtors)
 *(EXCLUDE_FILE(*crtend?.o *crtend.o) .dtors)
 *(SORT(.dtors.*))
 *(.dtors)

.jcr            0x000000000003ef00        0x4
 *(.jcr)
 .jcr           0x000000000003ef00        0x0 /usr/lib/gcc/i686-linux-gnu/4.8/crtbeginS.o
 .jcr           0x000000000003ef00        0x4 /usr/lib/gcc/i686-linux-gnu/4.8/crtendS.o

.data.rel.ro
 *(.data.rel.ro.local* .gnu.linkonce.d.rel.ro.local.*)
 *(.data.rel.ro .data.rel.ro.* .gnu.linkonce.d.rel.ro.*)

.dynamic        0x000000000003ef04       0xe8
 *(.dynamic)
 .dynamic       0x000000000003ef04       0xe8 /usr/lib/gcc/i686-linux-gnu/4.8/../../../i386-linux-gnu/crti.o
                0x000000000003ef04                _DYNAMIC

.got            0x000000000003efec       0x14
 *(.got)
 .got           0x000000000003efec       0x14 /usr/lib/gcc/i686-linux-gnu/4.8/../../../i386-linux-gnu/crti.o
 *(.igot)
                0x000000000003fff4                . = DATA_SEGMENT_RELRO_END (., (SIZEOF (.got.plt) >= 0xc)?0xc:0x0)

.got.plt        0x000000000003f000       0x14
 *(.got.plt)
 .got.plt       0x000000000003f000       0x14 /usr/lib/gcc/i686-linux-gnu/4.8/../../../i386-linux-gnu/crti.o
                0x000000000003f000                _GLOBAL_OFFSET_TABLE_
 *(.igot.plt)

.data           0x000000000003f020      0x3ae
 *(.data .data.* .gnu.linkonce.d.*)
 .data          0x000000000003f020        0x0 /usr/lib/gcc/i686-linux-gnu/4.8/../../../i386-linux-gnu/crti.o
 .data          0x000000000003f020        0x0 /usr/lib/gcc/i686-linux-gnu/4.8/crtbeginS.o
 .data.rel      0x000000000003f020        0x4 /usr/lib/gcc/i686-linux-gnu/4.8/crtbeginS.o
                0x000000000003f020                __dso_handle
 *fill*         0x000000000003f024       0x1c 
 .data          0x000000000003f040       0xb5 dtls-client.co
                0x000000000003f040                cfs_buf
                0x000000000003f050                packet_count
                0x000000000003f054                udp_client_process
 *fill*         0x000000000003f0f5        0xb 
 .data          0x000000000003f100       0x44 obj_cooja/mtype516.o
                0x000000000003f100                simInterfaces
                0x000000000003f134                sensors
 .data          0x000000000003f144       0x10 obj_cooja/mtype516.a(dtls.o)
                0x000000000003f144                dtls_retransmit_process
 .data          0x000000000003f154       0x18 obj_cooja/mtype516.a(tinydtls-crypto)
 .data          0x000000000003f16c        0xc obj_cooja/mtype516.a(hmac.o)
 .data          0x000000000003f178        0xc obj_cooja/mtype516.a(netq.o)
 .data          0x000000000003f184        0x0 obj_cooja/mtype516.a(dtls_time.o)
 .data          0x000000000003f184        0xc obj_cooja/mtype516.a(peer.o)
 .data          0x000000000003f190        0x0 obj_cooja/mtype516.a(session.o)
 .data          0x000000000003f190        0x0 obj_cooja/mtype516.a(rijndael.o)
 .data          0x000000000003f190        0x0 obj_cooja/mtype516.a(tinydtls-ccm.o)
 .data          0x000000000003f190        0x4 obj_cooja/mtype516.a(sha2.o)
 .data          0x000000000003f194       0x20 obj_cooja/mtype516.a(debug.o)
 .data          0x000000000003f1b4        0x0 obj_cooja/mtype516.a(simEnvChange.o)
 .data          0x000000000003f1b4        0x0 obj_cooja/mtype516.a(cooja_mt.o)
 .data          0x000000000003f1b4        0x0 obj_cooja/mtype516.a(cooja_mtarch.o)
 .data          0x000000000003f1b4        0x0 obj_cooja/mtype516.a(rtimer-arch.o)
 .data          0x000000000003f1b4        0x0 obj_cooja/mtype516.a(beep.o)
 .data          0x000000000003f1b4        0x0 obj_cooja/mtype516.a(button-sensor.o)
 .data          0x000000000003f1b4        0x0 obj_cooja/mtype516.a(leds-arch.o)
 .data          0x000000000003f1b4        0x0 obj_cooja/mtype516.a(moteid.o)
 .data          0x000000000003f1b4        0x0 obj_cooja/mtype516.a(pir-sensor.o)
 .data          0x000000000003f1b4        0x0 obj_cooja/mtype516.a(rs232.o)
 .data          0x000000000003f1b4        0x0 obj_cooja/mtype516.a(vib-sensor.o)
 .data          0x000000000003f1b4        0x0 obj_cooja/mtype516.a(clock.o)
 .data          0x000000000003f1b4        0x0 obj_cooja/mtype516.a(log.o)
 .data          0x000000000003f1b4        0x0 obj_cooja/mtype516.a(cfs-cooja.o)
 .data          0x000000000003f1b4       0x2c obj_cooja/mtype516.a(cooja-radio.o)
                0x000000000003f1b4                simRadioHWOn
                0x000000000003f1b8                simSignalStrength
                0x000000000003f1bc                simLastSignalStrength
                0x000000000003f1c0                simPower
                0x000000000003f1c4                simRadioChannel
                0x000000000003f1c8                simLQI
                0x000000000003f1d0                cooja_radio_process
 .data          0x000000000003f1e0        0x0 obj_cooja/mtype516.a(eeprom.o)
 .data          0x000000000003f1e0        0x0 obj_cooja/mtype516.a(random.o)
 .data          0x000000000003f1e0       0x10 obj_cooja/mtype516.a(sensors.o)
                0x000000000003f1e0                sensors_process
 .data          0x000000000003f1f0        0x0 obj_cooja/mtype516.a(autostart.o)
 .data          0x000000000003f1f0       0x14 obj_cooja/mtype516.a(ctimer.o)
                0x000000000003f1f4                ctimer_process
 .data          0x000000000003f204       0x10 obj_cooja/mtype516.a(etimer.o)
                0x000000000003f204                etimer_process
 .data          0x000000000003f214        0x0 obj_cooja/mtype516.a(process.o)
 .data          0x000000000003f214        0x0 obj_cooja/mtype516.a(rtimer.o)
 .data          0x000000000003f214        0x0 obj_cooja/mtype516.a(timer.o)
 .data          0x000000000003f214       0x10 obj_cooja/mtype516.a(serial-line.o)
                0x000000000003f214                serial_line_process
 .data          0x000000000003f224        0x0 obj_cooja/mtype516.a(assert.o)
 .data          0x000000000003f224        0x0 obj_cooja/mtype516.a(list.o)
 .data          0x000000000003f224        0x0 obj_cooja/mtype516.a(memb.o)
 .data          0x000000000003f224        0x0 obj_cooja/mtype516.a(ringbuf.o)
 .data          0x000000000003f224        0x0 obj_cooja/mtype516.a(sicslowpan.o)
 .data          0x000000000003f224       0x14 obj_cooja/mtype516.a(uip-ds6-nbr.o)
                0x000000000003f234                ds6_neighbors
 .data          0x000000000003f238       0x44 obj_cooja/mtype516.a(uip-ds6-route.o)
                0x000000000003f248                nbr_routes
 .data          0x000000000003f27c        0x0 obj_cooja/mtype516.a(uip-ds6.o)
 .data          0x000000000003f27c       0x18 obj_cooja/mtype516.a(uip-nd6.o)
 .data          0x000000000003f294        0x0 obj_cooja/mtype516.a(uip6.o)
 .data          0x000000000003f294       0x20 obj_cooja/mtype516.a(resolv.o)
                0x000000000003f294                resolv_process
                0x000000000003f2a4                mdns_probe_process
 .data          0x000000000003f2b4       0x10 obj_cooja/mtype516.a(tcpip.o)
                0x000000000003f2b4                tcpip_process
 .data          0x000000000003f2c4        0x0 obj_cooja/mtype516.a(uip-debug.o)
 .data          0x000000000003f2c4        0x0 obj_cooja/mtype516.a(uip-nameserver.)
 .data          0x000000000003f2c4        0xc obj_cooja/mtype516.a(uip-packetqueue)
 .data          0x000000000003f2d0        0x0 obj_cooja/mtype516.a(uip-udp-packet.)
 .data          0x000000000003f2d0        0x0 obj_cooja/mtype516.a(uiplib.o)
 .data          0x000000000003f2d0       0x14 obj_cooja/mtype516.a(rpl-dag.o)
                0x000000000003f2e0                rpl_parents
 .data          0x000000000003f2e4        0x0 obj_cooja/mtype516.a(rpl-ext-header.)
 .data          0x000000000003f2e4       0x34 obj_cooja/mtype516.a(rpl-icmp6.o)
 *fill*         0x000000000003f318        0x8 
 .data          0x000000000003f320       0x24 obj_cooja/mtype516.a(rpl-mrhof.o)
                0x000000000003f320                rpl_mrhof
 .data          0x000000000003f344        0x0 obj_cooja/mtype516.a(rpl-timers.o)
 .data          0x000000000003f344        0x0 obj_cooja/mtype516.a(rpl.o)
 .data          0x000000000003f344       0x14 obj_cooja/mtype516.a(link-stats.o)
 .data          0x000000000003f358        0x0 obj_cooja/mtype516.a(linkaddr.o)
 .data          0x000000000003f358       0x10 obj_cooja/mtype516.a(nbr-table.o)
 .data          0x000000000003f368        0x0 obj_cooja/mtype516.a(netstack.o)
 .data          0x000000000003f368        0x4 obj_cooja/mtype516.a(packetbuf.o)
 .data          0x000000000003f36c       0x18 obj_cooja/mtype516.a(queuebuf.o)
 .data          0x000000000003f384       0x28 obj_cooja/mtype516.a(csma.o)
 .data          0x000000000003f3ac        0x0 obj_cooja/mtype516.a(framer-802154.o)
 .data          0x000000000003f3ac        0x0 obj_cooja/mtype516.a(mac.o)
 .data          0x000000000003f3ac        0x0 obj_cooja/mtype516.a(nullrdc.o)
 .data          0x000000000003f3ac        0x0 obj_cooja/mtype516.a(nullsec.o)
 .data          0x000000000003f3ac        0x0 obj_cooja/mtype516.a(watchdog.o)
 .data          0x000000000003f3ac        0x0 obj_cooja/mtype516.a(rimestats.o)
 .data          0x000000000003f3ac        0x0 obj_cooja/mtype516.a(stimer.o)
 .data          0x000000000003f3ac       0x20 obj_cooja/mtype516.a(uip-icmp6.o)
 .data          0x000000000003f3cc        0x0 obj_cooja/mtype516.a(rpl-nbr-policy.)
 .data          0x000000000003f3cc        0x2 obj_cooja/mtype516.a(frame802154.o)
 .data          0x000000000003f3ce        0x0 obj_cooja/mtype516.a(mac-sequence.o)
 .data          0x000000000003f3ce        0x0 /usr/lib/gcc/i686-linux-gnu/4.8/crtendS.o
 .data          0x000000000003f3ce        0x0 /usr/lib/gcc/i686-linux-gnu/4.8/../../../i386-linux-gnu/crtn.o

.tm_clone_table
                0x000000000003f3d0        0x0
 .tm_clone_table
                0x000000000003f3d0        0x0 /usr/lib/gcc/i686-linux-gnu/4.8/crtbeginS.o
 .tm_clone_table
                0x000000000003f3d0        0x0 /usr/lib/gcc/i686-linux-gnu/4.8/crtendS.o

.data1
 *(.data1)
                0x000000000003f3d0                _edata = .
                0x000000000003f3d0                PROVIDE (edata, .)
                0x000000000003f3d0                . = .
                0x000000000003f3d0                __bss_start = .

.bss            0x000000000003f3e0    0x12fa8
 *(.dynbss)
 .dynbss        0x0000000000000000        0x0 /usr/lib/gcc/i686-linux-gnu/4.8/../../../i386-linux-gnu/crti.o
 *(.bss .bss.* .gnu.linkonce.b.*)
 .bss           0x000000000003f3e0        0x0 /usr/lib/gcc/i686-linux-gnu/4.8/../../../i386-linux-gnu/crti.o
 .bss           0x000000000003f3e0        0x1 /usr/lib/gcc/i686-linux-gnu/4.8/crtbeginS.o
 *fill*         0x000000000003f3e1       0x1f 
 .bss           0x000000000003f400      0x1c0 dtls-client.co
                0x000000000003f400                iv
 .bss           0x000000000003f5c0     0x2030 obj_cooja/mtype516.o
 *fill*         0x00000000000415f0       0x10 
 .bss           0x0000000000041600      0x145 obj_cooja/mtype516.a(dtls.o)
 *fill*         0x0000000000041745       0x1b 
 .bss           0x0000000000041760      0x274 obj_cooja/mtype516.a(tinydtls-crypto)
 *fill*         0x00000000000419d4        0xc 
 .bss           0x00000000000419e0      0x410 obj_cooja/mtype516.a(hmac.o)
 *fill*         0x0000000000041df0       0x10 
 .bss           0x0000000000041e00      0x470 obj_cooja/mtype516.a(netq.o)
 .bss           0x0000000000042270        0x0 obj_cooja/mtype516.a(dtls_time.o)
 *fill*         0x0000000000042270       0x10 
 .bss           0x0000000000042280       0x80 obj_cooja/mtype516.a(peer.o)
 .bss           0x0000000000042300        0x0 obj_cooja/mtype516.a(session.o)
 .bss           0x0000000000042300        0x0 obj_cooja/mtype516.a(rijndael.o)
 .bss           0x0000000000042300        0x4 obj_cooja/mtype516.a(tinydtls-ccm.o)
 .bss           0x0000000000042304        0x0 obj_cooja/mtype516.a(sha2.o)
 *fill*         0x0000000000042304       0x1c 
 .bss           0x0000000000042320       0x20 obj_cooja/mtype516.a(debug.o)
 .bss           0x0000000000042340        0x1 obj_cooja/mtype516.a(simEnvChange.o)
                0x0000000000042340                simDontFallAsleep
 *fill*         0x0000000000042341        0x3 
 .bss           0x0000000000042344        0x4 obj_cooja/mtype516.a(cooja_mt.o)
 .bss           0x0000000000042348        0x4 obj_cooja/mtype516.a(cooja_mtarch.o)
 .bss           0x000000000004234c        0x0 obj_cooja/mtype516.a(rtimer-arch.o)
 .bss           0x000000000004234c        0x0 obj_cooja/mtype516.a(beep.o)
 .bss           0x000000000004234c        0x8 obj_cooja/mtype516.a(button-sensor.o)
 .bss           0x0000000000042354        0x0 obj_cooja/mtype516.a(leds-arch.o)
 .bss           0x0000000000042354        0x0 obj_cooja/mtype516.a(moteid.o)
 .bss           0x0000000000042354        0x1 obj_cooja/mtype516.a(pir-sensor.o)
                0x0000000000042354                simPirValue
 *fill*         0x0000000000042355        0x3 
 .bss           0x0000000000042358        0x4 obj_cooja/mtype516.a(rs232.o)
 .bss           0x000000000004235c        0x1 obj_cooja/mtype516.a(vib-sensor.o)
                0x000000000004235c                simVibValue
 .bss           0x000000000004235d        0x0 obj_cooja/mtype516.a(clock.o)
 *fill*         0x000000000004235d        0x3 
 .bss           0x0000000000042360      0x420 obj_cooja/mtype516.a(log.o)
 .bss           0x0000000000042780      0xfc0 obj_cooja/mtype516.a(cfs-cooja.o)
                0x0000000000042780                simCFSData
                0x0000000000043720                simCFSSize
                0x0000000000043724                simCFSChanged
                0x0000000000043728                simCFSRead
                0x000000000004372c                simCFSWritten
 .bss           0x0000000000043740       0x24 obj_cooja/mtype516.a(cooja-radio.o)
                0x0000000000043740                simReceiving
                0x0000000000043744                simInSize
                0x0000000000043748                simLastPacketTimestamp
                0x0000000000043750                simOutSize
 .bss           0x0000000000043764        0xc obj_cooja/mtype516.a(eeprom.o)
                0x0000000000043764                simEEPROMChanged
                0x0000000000043768                simEEPROMRead
                0x000000000004376c                simEEPROMWritten
 .bss           0x0000000000043770        0x0 obj_cooja/mtype516.a(random.o)
 .bss           0x0000000000043770        0xc obj_cooja/mtype516.a(sensors.o)
 .bss           0x000000000004377c        0x0 obj_cooja/mtype516.a(autostart.o)
 .bss           0x000000000004377c        0x5 obj_cooja/mtype516.a(ctimer.o)
 *fill*         0x0000000000043781        0x3 
 .bss           0x0000000000043784        0x8 obj_cooja/mtype516.a(etimer.o)
 *fill*         0x000000000004378c       0x14 
 .bss           0x00000000000437a0      0x1a1 obj_cooja/mtype516.a(process.o)
                0x00000000000437a0                process_list
                0x00000000000437a4                process_current
 *fill*         0x0000000000043941        0x3 
 .bss           0x0000000000043944        0x4 obj_cooja/mtype516.a(rtimer.o)
 .bss           0x0000000000043948        0x0 obj_cooja/mtype516.a(timer.o)
 *fill*         0x0000000000043948       0x18 
 .bss           0x0000000000043960      0x140 obj_cooja/mtype516.a(serial-line.o)
 .bss           0x0000000000043aa0        0x0 obj_cooja/mtype516.a(assert.o)
 .bss           0x0000000000043aa0        0x0 obj_cooja/mtype516.a(list.o)
 .bss           0x0000000000043aa0        0x0 obj_cooja/mtype516.a(memb.o)
 .bss           0x0000000000043aa0        0x0 obj_cooja/mtype516.a(ringbuf.o)
 .bss           0x0000000000043aa0      0x70c obj_cooja/mtype516.a(sicslowpan.o)
 *fill*         0x00000000000441ac       0x14 
 .bss           0x00000000000441c0     0x3390 obj_cooja/mtype516.a(uip-ds6-nbr.o)
 *fill*         0x0000000000047550       0x10 
 .bss           0x0000000000047560     0x44a4 obj_cooja/mtype516.a(uip-ds6-route.o)
 .bss           0x000000000004ba04       0x20 obj_cooja/mtype516.a(uip-ds6.o)
 .bss           0x000000000004ba24       0x14 obj_cooja/mtype516.a(uip-nd6.o)
 .bss           0x000000000004ba38        0xa obj_cooja/mtype516.a(uip6.o)
                0x000000000004ba38                uip_ext_bitmap
                0x000000000004ba39                uip_ext_len
                0x000000000004ba3a                uip_ext_opt_offset
 *fill*         0x000000000004ba42       0x1e 
 .bss           0x000000000004ba60      0x1a1 obj_cooja/mtype516.a(resolv.o)
 *fill*         0x000000000004bc01       0x1f 
 .bss           0x000000000004bc20       0x6a obj_cooja/mtype516.a(tcpip.o)
 .bss           0x000000000004bc8a        0x0 obj_cooja/mtype516.a(uip-debug.o)
 *fill*         0x000000000004bc8a        0x2 
 .bss           0x000000000004bc8c       0x14 obj_cooja/mtype516.a(uip-nameserver.)
 .bss           0x000000000004bca0      0xcf8 obj_cooja/mtype516.a(uip-packetqueue)
 .bss           0x000000000004c998        0x0 obj_cooja/mtype516.a(uip-udp-packet.)
 .bss           0x000000000004c998        0x0 obj_cooja/mtype516.a(uiplib.o)
 *fill*         0x000000000004c998        0x8 
 .bss           0x000000000004c9a0      0x960 obj_cooja/mtype516.a(rpl-dag.o)
 .bss           0x000000000004d300        0x0 obj_cooja/mtype516.a(rpl-ext-header.)
 .bss           0x000000000004d300        0x0 obj_cooja/mtype516.a(rpl-icmp6.o)
 .bss           0x000000000004d300        0x0 obj_cooja/mtype516.a(rpl-mrhof.o)
 .bss           0x000000000004d300       0x23 obj_cooja/mtype516.a(rpl-timers.o)
 *fill*         0x000000000004d323        0x1 
 .bss           0x000000000004d324        0x4 obj_cooja/mtype516.a(rpl.o)
 *fill*         0x000000000004d328       0x18 
 .bss           0x000000000004d340      0xe10 obj_cooja/mtype516.a(link-stats.o)
 .bss           0x000000000004e150        0x0 obj_cooja/mtype516.a(linkaddr.o)
 *fill*         0x000000000004e150       0x10 
 .bss           0x000000000004e160     0x1214 obj_cooja/mtype516.a(nbr-table.o)
 .bss           0x000000000004f374        0x0 obj_cooja/mtype516.a(netstack.o)
 *fill*         0x000000000004f374        0xc 
 .bss           0x000000000004f380       0xa0 obj_cooja/mtype516.a(packetbuf.o)
 .bss           0x000000000004f420      0xb80 obj_cooja/mtype516.a(queuebuf.o)
 .bss           0x000000000004ffa0      0x248 obj_cooja/mtype516.a(csma.o)
 .bss           0x00000000000501e8        0x2 obj_cooja/mtype516.a(framer-802154.o)
 .bss           0x00000000000501ea        0x0 obj_cooja/mtype516.a(mac.o)
 .bss           0x00000000000501ea        0x0 obj_cooja/mtype516.a(nullrdc.o)
 .bss           0x00000000000501ea        0x0 obj_cooja/mtype516.a(nullsec.o)
 .bss           0x00000000000501ea        0x0 obj_cooja/mtype516.a(watchdog.o)
 .bss           0x00000000000501ea        0x0 obj_cooja/mtype516.a(rimestats.o)
 .bss           0x00000000000501ea        0x0 obj_cooja/mtype516.a(stimer.o)
 *fill*         0x00000000000501ea        0x2 
 .bss           0x00000000000501ec       0x18 obj_cooja/mtype516.a(uip-icmp6.o)
 *fill*         0x0000000000050204       0x1c 
 .bss           0x0000000000050220       0x44 obj_cooja/mtype516.a(rpl-nbr-policy.)
 .bss           0x0000000000050264        0x0 obj_cooja/mtype516.a(frame802154.o)
 *fill*         0x0000000000050264       0x1c 
 .bss           0x0000000000050280      0x100 obj_cooja/mtype516.a(mac-sequence.o)
 .bss           0x0000000000050380        0x0 /usr/lib/gcc/i686-linux-gnu/4.8/crtendS.o
 .bss           0x0000000000050380        0x0 /usr/lib/gcc/i686-linux-gnu/4.8/../../../i386-linux-gnu/crtn.o
 *(COMMON)
 COMMON         0x0000000000050380      0x160 dtls-client.co
                0x0000000000050380                fd_read
                0x0000000000050384                j
                0x00000000000503a0                read_buf
                0x00000000000504cc                data_len
                0x00000000000504d0                fd_write
                0x00000000000504d4                filename
                0x00000000000504d8                iterator
                0x00000000000504dc                it
 COMMON         0x00000000000504e0        0x8 obj_cooja/mtype516.o
                0x00000000000504e0                referenceVar
                0x00000000000504e4                sensors_flags
 COMMON         0x00000000000504e8        0x4 obj_cooja/mtype516.a(dtls_time.o)
                0x00000000000504e8                dtls_clock_offset
 COMMON         0x00000000000504ec        0xc obj_cooja/mtype516.a(simEnvChange.o)
                0x00000000000504ec                simEtimerPending
                0x00000000000504f0                simProcessRunValue
                0x00000000000504f4                simEtimerNextExpirationTime
 COMMON         0x00000000000504f8       0x18 obj_cooja/mtype516.a(rtimer-arch.o)
                0x00000000000504f8                simRtimerPending
                0x0000000000050500                simRtimerCurrentTicks
                0x0000000000050508                simRtimerNextExpirationTime
 COMMON         0x0000000000050510        0x1 obj_cooja/mtype516.a(beep.o)
                0x0000000000050510                simBeeped
 COMMON         0x0000000000050511        0x3 obj_cooja/mtype516.a(button-sensor.o)
                0x0000000000050511                simButtonIsActive
                0x0000000000050512                simButtonIsDown
                0x0000000000050513                simButtonChanged
 COMMON         0x0000000000050514        0x1 obj_cooja/mtype516.a(leds-arch.o)
                0x0000000000050514                simLedsValue
 *fill*         0x0000000000050515        0x3 
 COMMON         0x0000000000050518        0xc obj_cooja/mtype516.a(moteid.o)
                0x0000000000050518                simRandomSeed
                0x000000000005051c                simMoteIDChanged
                0x0000000000050520                simMoteID
 COMMON         0x0000000000050524        0x2 obj_cooja/mtype516.a(pir-sensor.o)
                0x0000000000050524                simPirIsActive
                0x0000000000050525                simPirChanged
 *fill*         0x0000000000050526       0x1a 
 COMMON         0x0000000000050540      0x820 obj_cooja/mtype516.a(rs232.o)
                0x0000000000050540                simSerialReceivingFlag
                0x0000000000050544                simSerialReceivingLength
                0x0000000000050560                simSerialReceivingData
 COMMON         0x0000000000050d60        0x2 obj_cooja/mtype516.a(vib-sensor.o)
                0x0000000000050d60                simVibChanged
                0x0000000000050d61                simVibIsActive
 *fill*         0x0000000000050d62        0x2 
 COMMON         0x0000000000050d64        0x4 obj_cooja/mtype516.a(clock.o)
                0x0000000000050d64                simCurrentTime
 *fill*         0x0000000000050d68       0x18 
 COMMON         0x0000000000050d80      0x420 obj_cooja/mtype516.a(log.o)
                0x0000000000050d80                simLoggedLength
                0x0000000000050d84                simLoggedFlag
                0x0000000000050da0                simLoggedData
 COMMON         0x00000000000511a0      0x100 obj_cooja/mtype516.a(cooja-radio.o)
                0x00000000000511a0                simOutDataBuffer
                0x0000000000051220                simInDataBuffer
 COMMON         0x00000000000512a0      0x400 obj_cooja/mtype516.a(eeprom.o)
                0x00000000000512a0                simEEPROMData
 COMMON         0x00000000000516a0        0x1 obj_cooja/mtype516.a(sensors.o)
                0x00000000000516a0                sensors_event
 COMMON         0x00000000000516a1        0x1 obj_cooja/mtype516.a(serial-line.o)
                0x00000000000516a1                serial_line_event_message
 *fill*         0x00000000000516a2       0x1e 
 COMMON         0x00000000000516c0      0x181 obj_cooja/mtype516.a(uip-ds6.o)
                0x00000000000516c0                uip_ds6_prefix_list
                0x0000000000051720                uip_ds6_timer_periodic
                0x0000000000051730                uip_ds6_netif_addr_list_offset
                0x0000000000051740                uip_ds6_if
                0x0000000000051838                uip_ds6_timer_ra
                0x0000000000051840                uip_ds6_addr_size
 *fill*         0x0000000000051841       0x1f 
 COMMON         0x0000000000051860      0x8ec obj_cooja/mtype516.a(uip6.o)
                0x0000000000051860                uip_slen
                0x0000000000051862                uip_acc32
                0x0000000000051880                uip_conns
                0x0000000000051940                uip_lladdr
                0x0000000000051948                uip_appdata
                0x000000000005194c                uip_flags
                0x0000000000051960                uip_aligned_buf
                0x0000000000051fa0                uip_listenports
                0x0000000000051fb0                uip_len
                0x0000000000051fb4                uip_sappdata
                0x0000000000051fc0                uip_udp_conns
                0x0000000000052140                uip_udp_conn
                0x0000000000052144                uip_next_hdr
                0x0000000000052148                uip_conn
 COMMON         0x000000000005214c        0x1 obj_cooja/mtype516.a(resolv.o)
                0x000000000005214c                resolv_event_found
 COMMON         0x000000000005214d        0x1 obj_cooja/mtype516.a(tcpip.o)
                0x000000000005214d                tcpip_event
 *fill*         0x000000000005214e       0x12 
 COMMON         0x0000000000052160      0x174 obj_cooja/mtype516.a(rpl-dag.o)
                0x0000000000052160                default_instance
                0x0000000000052180                instance_table
 *fill*         0x00000000000522d4        0xc 
 COMMON         0x00000000000522e0       0x20 obj_cooja/mtype516.a(link-stats.o)
                0x00000000000522e0                periodic_timer
 COMMON         0x0000000000052300        0x8 obj_cooja/mtype516.a(linkaddr.o)
                0x0000000000052300                linkaddr_node_addr
 COMMON         0x0000000000052308       0x2e obj_cooja/mtype516.a(packetbuf.o)
                0x0000000000052308                packetbuf_attrs
                0x0000000000052326                packetbuf_addrs
 *fill*         0x0000000000052336        0xa 
 COMMON         0x0000000000052340       0x48 obj_cooja/mtype516.a(rimestats.o)
                0x0000000000052340                rimestats
                0x0000000000052388                . = ALIGN ((. != 0x0)?0x4:0x1)
                0x0000000000052388                . = ALIGN (0x4)
                0x0000000000052388                . = SEGMENT_START ("ldata-segment", .)
                0x0000000000052388                . = ALIGN (0x4)
                0x0000000000052388                _end = .
                0x0000000000052388                PROVIDE (end, .)
                0x0000000000052388                . = DATA_SEGMENT_END (.)

.stab
 *(.stab)

.stabstr
 *(.stabstr)

.stab.excl
 *(.stab.excl)

.stab.exclstr
 *(.stab.exclstr)

.stab.index
 *(.stab.index)

.stab.indexstr
 *(.stab.indexstr)

.comment        0x0000000000000000       0x29
 *(.comment)
 .comment       0x0000000000000000       0x29 /usr/lib/gcc/i686-linux-gnu/4.8/crtbeginS.o
                                         0x2a (size before relaxing)
 .comment       0x0000000000000000       0x2a dtls-client.co
 .comment       0x0000000000000000       0x2a obj_cooja/mtype516.o
 .comment       0x0000000000000000       0x2a obj_cooja/mtype516.a(dtls.o)
 .comment       0x0000000000000000       0x2a obj_cooja/mtype516.a(tinydtls-crypto)
 .comment       0x0000000000000000       0x2a obj_cooja/mtype516.a(hmac.o)
 .comment       0x0000000000000000       0x2a obj_cooja/mtype516.a(netq.o)
 .comment       0x0000000000000000       0x2a obj_cooja/mtype516.a(dtls_time.o)
 .comment       0x0000000000000000       0x2a obj_cooja/mtype516.a(peer.o)
 .comment       0x0000000000000000       0x2a obj_cooja/mtype516.a(session.o)
 .comment       0x0000000000000000       0x2a obj_cooja/mtype516.a(rijndael.o)
 .comment       0x0000000000000000       0x2a obj_cooja/mtype516.a(tinydtls-ccm.o)
 .comment       0x0000000000000000       0x2a obj_cooja/mtype516.a(sha2.o)
 .comment       0x0000000000000000       0x2a obj_cooja/mtype516.a(debug.o)
 .comment       0x0000000000000000       0x2a obj_cooja/mtype516.a(simEnvChange.o)
 .comment       0x0000000000000000       0x2a obj_cooja/mtype516.a(cooja_mt.o)
 .comment       0x0000000000000000       0x2a obj_cooja/mtype516.a(cooja_mtarch.o)
 .comment       0x0000000000000000       0x2a obj_cooja/mtype516.a(rtimer-arch.o)
 .comment       0x0000000000000000       0x2a obj_cooja/mtype516.a(beep.o)
 .comment       0x0000000000000000       0x2a obj_cooja/mtype516.a(button-sensor.o)
 .comment       0x0000000000000000       0x2a obj_cooja/mtype516.a(leds-arch.o)
 .comment       0x0000000000000000       0x2a obj_cooja/mtype516.a(moteid.o)
 .comment       0x0000000000000000       0x2a obj_cooja/mtype516.a(pir-sensor.o)
 .comment       0x0000000000000000       0x2a obj_cooja/mtype516.a(rs232.o)
 .comment       0x0000000000000000       0x2a obj_cooja/mtype516.a(vib-sensor.o)
 .comment       0x0000000000000000       0x2a obj_cooja/mtype516.a(clock.o)
 .comment       0x0000000000000000       0x2a obj_cooja/mtype516.a(log.o)
 .comment       0x0000000000000000       0x2a obj_cooja/mtype516.a(cfs-cooja.o)
 .comment       0x0000000000000000       0x2a obj_cooja/mtype516.a(cooja-radio.o)
 .comment       0x0000000000000000       0x2a obj_cooja/mtype516.a(eeprom.o)
 .comment       0x0000000000000000       0x2a obj_cooja/mtype516.a(random.o)
 .comment       0x0000000000000000       0x2a obj_cooja/mtype516.a(sensors.o)
 .comment       0x0000000000000000       0x2a obj_cooja/mtype516.a(autostart.o)
 .comment       0x0000000000000000       0x2a obj_cooja/mtype516.a(ctimer.o)
 .comment       0x0000000000000000       0x2a obj_cooja/mtype516.a(etimer.o)
 .comment       0x0000000000000000       0x2a obj_cooja/mtype516.a(process.o)
 .comment       0x0000000000000000       0x2a obj_cooja/mtype516.a(rtimer.o)
 .comment       0x0000000000000000       0x2a obj_cooja/mtype516.a(timer.o)
 .comment       0x0000000000000000       0x2a obj_cooja/mtype516.a(serial-line.o)
 .comment       0x0000000000000000       0x2a obj_cooja/mtype516.a(assert.o)
 .comment       0x0000000000000000       0x2a obj_cooja/mtype516.a(list.o)
 .comment       0x0000000000000000       0x2a obj_cooja/mtype516.a(memb.o)
 .comment       0x0000000000000000       0x2a obj_cooja/mtype516.a(ringbuf.o)
 .comment       0x0000000000000000       0x2a obj_cooja/mtype516.a(sicslowpan.o)
 .comment       0x0000000000000000       0x2a obj_cooja/mtype516.a(uip-ds6-nbr.o)
 .comment       0x0000000000000000       0x2a obj_cooja/mtype516.a(uip-ds6-route.o)
 .comment       0x0000000000000000       0x2a obj_cooja/mtype516.a(uip-ds6.o)
 .comment       0x0000000000000000       0x2a obj_cooja/mtype516.a(uip-nd6.o)
 .comment       0x0000000000000000       0x2a obj_cooja/mtype516.a(uip6.o)
 .comment       0x0000000000000000       0x2a obj_cooja/mtype516.a(resolv.o)
 .comment       0x0000000000000000       0x2a obj_cooja/mtype516.a(tcpip.o)
 .comment       0x0000000000000000       0x2a obj_cooja/mtype516.a(uip-debug.o)
 .comment       0x0000000000000000       0x2a obj_cooja/mtype516.a(uip-nameserver.)
 .comment       0x0000000000000000       0x2a obj_cooja/mtype516.a(uip-packetqueue)
 .comment       0x0000000000000000       0x2a obj_cooja/mtype516.a(uip-udp-packet.)
 .comment       0x0000000000000000       0x2a obj_cooja/mtype516.a(uiplib.o)
 .comment       0x0000000000000000       0x2a obj_cooja/mtype516.a(rpl-dag.o)
 .comment       0x0000000000000000       0x2a obj_cooja/mtype516.a(rpl-ext-header.)
 .comment       0x0000000000000000       0x2a obj_cooja/mtype516.a(rpl-icmp6.o)
 .comment       0x0000000000000000       0x2a obj_cooja/mtype516.a(rpl-mrhof.o)
 .comment       0x0000000000000000       0x2a obj_cooja/mtype516.a(rpl-timers.o)
 .comment       0x0000000000000000       0x2a obj_cooja/mtype516.a(rpl.o)
 .comment       0x0000000000000000       0x2a obj_cooja/mtype516.a(link-stats.o)
 .comment       0x0000000000000000       0x2a obj_cooja/mtype516.a(linkaddr.o)
 .comment       0x0000000000000000       0x2a obj_cooja/mtype516.a(nbr-table.o)
 .comment       0x0000000000000000       0x2a obj_cooja/mtype516.a(netstack.o)
 .comment       0x0000000000000000       0x2a obj_cooja/mtype516.a(packetbuf.o)
 .comment       0x0000000000000000       0x2a obj_cooja/mtype516.a(queuebuf.o)
 .comment       0x0000000000000000       0x2a obj_cooja/mtype516.a(csma.o)
 .comment       0x0000000000000000       0x2a obj_cooja/mtype516.a(framer-802154.o)
 .comment       0x0000000000000000       0x2a obj_cooja/mtype516.a(mac.o)
 .comment       0x0000000000000000       0x2a obj_cooja/mtype516.a(nullrdc.o)
 .comment       0x0000000000000000       0x2a obj_cooja/mtype516.a(nullsec.o)
 .comment       0x0000000000000000       0x2a obj_cooja/mtype516.a(watchdog.o)
 .comment       0x0000000000000000       0x2a obj_cooja/mtype516.a(rimestats.o)
 .comment       0x0000000000000000       0x2a obj_cooja/mtype516.a(stimer.o)
 .comment       0x0000000000000000       0x2a obj_cooja/mtype516.a(uip-icmp6.o)
 .comment       0x0000000000000000       0x2a obj_cooja/mtype516.a(rpl-nbr-policy.)
 .comment       0x0000000000000000       0x2a obj_cooja/mtype516.a(frame802154.o)
 .comment       0x0000000000000000       0x2a obj_cooja/mtype516.a(mac-sequence.o)
 .comment       0x0000000000000000       0x2a /usr/lib/gcc/i686-linux-gnu/4.8/crtendS.o

.debug
 *(.debug)

.line
 *(.line)

.debug_srcinfo
 *(.debug_srcinfo)

.debug_sfnames
 *(.debug_sfnames)

.debug_aranges  0x0000000000000000     0x2160
 *(.debug_aranges)
 .debug_aranges
                0x0000000000000000       0x90 dtls-client.co
 .debug_aranges
                0x0000000000000090       0x68 obj_cooja/mtype516.o
 .debug_aranges
                0x00000000000000f8      0x2e0 obj_cooja/mtype516.a(dtls.o)
 .debug_aranges
                0x00000000000003d8       0xc0 obj_cooja/mtype516.a(tinydtls-crypto)
 .debug_aranges
                0x0000000000000498       0x70 obj_cooja/mtype516.a(hmac.o)
 .debug_aranges
                0x0000000000000508       0x70 obj_cooja/mtype516.a(netq.o)
 .debug_aranges
                0x0000000000000578       0x28 obj_cooja/mtype516.a(dtls_time.o)
 .debug_aranges
                0x00000000000005a0       0x38 obj_cooja/mtype516.a(peer.o)
 .debug_aranges
                0x00000000000005d8       0x28 obj_cooja/mtype516.a(session.o)
 .debug_aranges
                0x0000000000000600       0x38 obj_cooja/mtype516.a(rijndael.o)
 .debug_aranges
                0x0000000000000638       0x60 obj_cooja/mtype516.a(tinydtls-ccm.o)
 .debug_aranges
                0x0000000000000698       0x48 obj_cooja/mtype516.a(sha2.o)
 .debug_aranges
                0x00000000000006e0       0x68 obj_cooja/mtype516.a(debug.o)
 .debug_aranges
                0x0000000000000748       0x28 obj_cooja/mtype516.a(simEnvChange.o)
 .debug_aranges
                0x0000000000000770       0x48 obj_cooja/mtype516.a(cooja_mt.o)
 .debug_aranges
                0x00000000000007b8       0x60 obj_cooja/mtype516.a(cooja_mtarch.o)
 .debug_aranges
                0x0000000000000818       0x48 obj_cooja/mtype516.a(rtimer-arch.o)
 .debug_aranges
                0x0000000000000860       0x70 obj_cooja/mtype516.a(beep.o)
 .debug_aranges
                0x00000000000008d0       0x40 obj_cooja/mtype516.a(button-sensor.o)
 .debug_aranges
                0x0000000000000910       0x40 obj_cooja/mtype516.a(leds-arch.o)
 .debug_aranges
                0x0000000000000950       0x28 obj_cooja/mtype516.a(moteid.o)
 .debug_aranges
                0x0000000000000978       0x40 obj_cooja/mtype516.a(pir-sensor.o)
 .debug_aranges
                0x00000000000009b8       0x58 obj_cooja/mtype516.a(rs232.o)
 .debug_aranges
                0x0000000000000a10       0x40 obj_cooja/mtype516.a(vib-sensor.o)
 .debug_aranges
                0x0000000000000a50       0x48 obj_cooja/mtype516.a(clock.o)
 .debug_aranges
                0x0000000000000a98       0x60 obj_cooja/mtype516.a(log.o)
 .debug_aranges
                0x0000000000000af8       0x70 obj_cooja/mtype516.a(cfs-cooja.o)
 .debug_aranges
                0x0000000000000b68       0xf0 obj_cooja/mtype516.a(cooja-radio.o)
 .debug_aranges
                0x0000000000000c58       0x40 obj_cooja/mtype516.a(eeprom.o)
 .debug_aranges
                0x0000000000000c98       0x28 obj_cooja/mtype516.a(random.o)
 .debug_aranges
                0x0000000000000cc0       0x48 obj_cooja/mtype516.a(sensors.o)
 .debug_aranges
                0x0000000000000d08       0x28 obj_cooja/mtype516.a(autostart.o)
 .debug_aranges
                0x0000000000000d30       0x58 obj_cooja/mtype516.a(ctimer.o)
 .debug_aranges
                0x0000000000000d88       0x90 obj_cooja/mtype516.a(etimer.o)
 .debug_aranges
                0x0000000000000e18       0x88 obj_cooja/mtype516.a(process.o)
 .debug_aranges
                0x0000000000000ea0       0x30 obj_cooja/mtype516.a(rtimer.o)
 .debug_aranges
                0x0000000000000ed0       0x40 obj_cooja/mtype516.a(timer.o)
 .debug_aranges
                0x0000000000000f10       0x30 obj_cooja/mtype516.a(serial-line.o)
 .debug_aranges
                0x0000000000000f40       0x20 obj_cooja/mtype516.a(assert.o)
 .debug_aranges
                0x0000000000000f60       0x78 obj_cooja/mtype516.a(list.o)
 .debug_aranges
                0x0000000000000fd8       0x40 obj_cooja/mtype516.a(memb.o)
 .debug_aranges
                0x0000000000001018       0x40 obj_cooja/mtype516.a(ringbuf.o)
 .debug_aranges
                0x0000000000001058       0xe0 obj_cooja/mtype516.a(sicslowpan.o)
 .debug_aranges
                0x0000000000001138       0x90 obj_cooja/mtype516.a(uip-ds6-nbr.o)
 .debug_aranges
                0x00000000000011c8       0xc8 obj_cooja/mtype516.a(uip-ds6-route.o)
 .debug_aranges
                0x0000000000001290       0xc8 obj_cooja/mtype516.a(uip-ds6.o)
 .debug_aranges
                0x0000000000001358       0x48 obj_cooja/mtype516.a(uip-nd6.o)
 .debug_aranges
                0x00000000000013a0       0xb0 obj_cooja/mtype516.a(uip6.o)
 .debug_aranges
                0x0000000000001450       0xb8 obj_cooja/mtype516.a(resolv.o)
 .debug_aranges
                0x0000000000001508       0xb0 obj_cooja/mtype516.a(tcpip.o)
 .debug_aranges
                0x00000000000015b8       0x20 obj_cooja/mtype516.a(uip-debug.o)
 .debug_aranges
                0x00000000000015d8       0x38 obj_cooja/mtype516.a(uip-nameserver.)
 .debug_aranges
                0x0000000000001610       0x50 obj_cooja/mtype516.a(uip-packetqueue)
 .debug_aranges
                0x0000000000001660       0x28 obj_cooja/mtype516.a(uip-udp-packet.)
 .debug_aranges
                0x0000000000001688       0x28 obj_cooja/mtype516.a(uiplib.o)
 .debug_aranges
                0x00000000000016b0      0x1d8 obj_cooja/mtype516.a(rpl-dag.o)
 .debug_aranges
                0x0000000000001888       0x48 obj_cooja/mtype516.a(rpl-ext-header.)
 .debug_aranges
                0x00000000000018d0       0xc0 obj_cooja/mtype516.a(rpl-icmp6.o)
 .debug_aranges
                0x0000000000001990       0x60 obj_cooja/mtype516.a(rpl-mrhof.o)
 .debug_aranges
                0x00000000000019f0       0xa0 obj_cooja/mtype516.a(rpl-timers.o)
 .debug_aranges
                0x0000000000001a90       0x68 obj_cooja/mtype516.a(rpl.o)
 .debug_aranges
                0x0000000000001af8       0x58 obj_cooja/mtype516.a(link-stats.o)
 .debug_aranges
                0x0000000000001b50       0x30 obj_cooja/mtype516.a(linkaddr.o)
 .debug_aranges
                0x0000000000001b80       0xc0 obj_cooja/mtype516.a(nbr-table.o)
 .debug_aranges
                0x0000000000001c40       0x20 obj_cooja/mtype516.a(netstack.o)
 .debug_aranges
                0x0000000000001c60       0xa0 obj_cooja/mtype516.a(packetbuf.o)
 .debug_aranges
                0x0000000000001d00       0x80 obj_cooja/mtype516.a(queuebuf.o)
 .debug_aranges
                0x0000000000001d80       0xb8 obj_cooja/mtype516.a(csma.o)
 .debug_aranges
                0x0000000000001e38       0x58 obj_cooja/mtype516.a(framer-802154.o)
 .debug_aranges
                0x0000000000001e90       0x20 obj_cooja/mtype516.a(mac.o)
 .debug_aranges
                0x0000000000001eb0       0x70 obj_cooja/mtype516.a(nullrdc.o)
 .debug_aranges
                0x0000000000001f20       0x38 obj_cooja/mtype516.a(nullsec.o)
 .debug_aranges
                0x0000000000001f58       0x40 obj_cooja/mtype516.a(watchdog.o)
 .debug_aranges
                0x0000000000001f98       0x18 obj_cooja/mtype516.a(rimestats.o)
 .debug_aranges
                0x0000000000001fb0       0x48 obj_cooja/mtype516.a(stimer.o)
 .debug_aranges
                0x0000000000001ff8       0x68 obj_cooja/mtype516.a(uip-icmp6.o)
 .debug_aranges
                0x0000000000002060       0x48 obj_cooja/mtype516.a(rpl-nbr-policy.)
 .debug_aranges
                0x00000000000020a8       0x80 obj_cooja/mtype516.a(frame802154.o)
 .debug_aranges
                0x0000000000002128       0x38 obj_cooja/mtype516.a(mac-sequence.o)

.debug_pubnames
 *(.debug_pubnames)

.debug_info     0x0000000000000000    0x24840
 *(.debug_info .gnu.linkonce.wi.*)
 .debug_info    0x0000000000000000     0x106e dtls-client.co
 .debug_info    0x000000000000106e     0x36d8 obj_cooja/mtype516.o
 .debug_info    0x0000000000004746     0x3156 obj_cooja/mtype516.a(dtls.o)
 .debug_info    0x000000000000789c      0xd2b obj_cooja/mtype516.a(tinydtls-crypto)
 .debug_info    0x00000000000085c7      0x4e9 obj_cooja/mtype516.a(hmac.o)
 .debug_info    0x0000000000008ab0      0x8d5 obj_cooja/mtype516.a(netq.o)
 .debug_info    0x0000000000009385      0x17e obj_cooja/mtype516.a(dtls_time.o)
 .debug_info    0x0000000000009503      0x6d1 obj_cooja/mtype516.a(peer.o)
 .debug_info    0x0000000000009bd4      0x22c obj_cooja/mtype516.a(session.o)
 .debug_info    0x0000000000009e00      0x37f obj_cooja/mtype516.a(rijndael.o)
 .debug_info    0x000000000000a17f      0x650 obj_cooja/mtype516.a(tinydtls-ccm.o)
 .debug_info    0x000000000000a7cf      0x560 obj_cooja/mtype516.a(sha2.o)
 .debug_info    0x000000000000ad2f      0x518 obj_cooja/mtype516.a(debug.o)
 .debug_info    0x000000000000b247      0x15a obj_cooja/mtype516.a(simEnvChange.o)
 .debug_info    0x000000000000b3a1      0x1e2 obj_cooja/mtype516.a(cooja_mt.o)
 .debug_info    0x000000000000b583      0x2e7 obj_cooja/mtype516.a(cooja_mtarch.o)
 .debug_info    0x000000000000b86a      0x14a obj_cooja/mtype516.a(rtimer-arch.o)
 .debug_info    0x000000000000b9b4      0x1f3 obj_cooja/mtype516.a(beep.o)
 .debug_info    0x000000000000bba7      0x257 obj_cooja/mtype516.a(button-sensor.o)
 .debug_info    0x000000000000bdfe      0x132 obj_cooja/mtype516.a(leds-arch.o)
 .debug_info    0x000000000000bf30      0x10a obj_cooja/mtype516.a(moteid.o)
 .debug_info    0x000000000000c03a      0x216 obj_cooja/mtype516.a(pir-sensor.o)
 .debug_info    0x000000000000c250      0x21e obj_cooja/mtype516.a(rs232.o)
 .debug_info    0x000000000000c46e      0x216 obj_cooja/mtype516.a(vib-sensor.o)
 .debug_info    0x000000000000c684      0x152 obj_cooja/mtype516.a(clock.o)
 .debug_info    0x000000000000c7d6      0x2bb obj_cooja/mtype516.a(log.o)
 .debug_info    0x000000000000ca91      0x3cf obj_cooja/mtype516.a(cfs-cooja.o)
 .debug_info    0x000000000000ce60      0xd1b obj_cooja/mtype516.a(cooja-radio.o)
 .debug_info    0x000000000000db7b      0x1d5 obj_cooja/mtype516.a(eeprom.o)
 .debug_info    0x000000000000dd50       0xb3 obj_cooja/mtype516.a(random.o)
 .debug_info    0x000000000000de03      0x36d obj_cooja/mtype516.a(sensors.o)
 .debug_info    0x000000000000e170      0x1a5 obj_cooja/mtype516.a(autostart.o)
 .debug_info    0x000000000000e315      0x46c obj_cooja/mtype516.a(ctimer.o)
 .debug_info    0x000000000000e781      0x49c obj_cooja/mtype516.a(etimer.o)
 .debug_info    0x000000000000ec1d      0x4ab obj_cooja/mtype516.a(process.o)
 .debug_info    0x000000000000f0c8      0x1b6 obj_cooja/mtype516.a(rtimer.o)
 .debug_info    0x000000000000f27e      0x16c obj_cooja/mtype516.a(timer.o)
 .debug_info    0x000000000000f3ea      0x2de obj_cooja/mtype516.a(serial-line.o)
 .debug_info    0x000000000000f6c8       0xb3 obj_cooja/mtype516.a(assert.o)
 .debug_info    0x000000000000f77b      0x2ed obj_cooja/mtype516.a(list.o)
 .debug_info    0x000000000000fa68      0x1d7 obj_cooja/mtype516.a(memb.o)
 .debug_info    0x000000000000fc3f      0x1aa obj_cooja/mtype516.a(ringbuf.o)
 .debug_info    0x000000000000fde9     0x105d obj_cooja/mtype516.a(sicslowpan.o)
 .debug_info    0x0000000000010e46      0xb48 obj_cooja/mtype516.a(uip-ds6-nbr.o)
 .debug_info    0x000000000001198e      0xd6b obj_cooja/mtype516.a(uip-ds6-route.o)
 .debug_info    0x00000000000126f9      0xa4b obj_cooja/mtype516.a(uip-ds6.o)
 .debug_info    0x0000000000013144      0x97b obj_cooja/mtype516.a(uip-nd6.o)
 .debug_info    0x0000000000013abf      0xe68 obj_cooja/mtype516.a(uip6.o)
 .debug_info    0x0000000000014927     0x1075 obj_cooja/mtype516.a(resolv.o)
 .debug_info    0x000000000001599c     0x1602 obj_cooja/mtype516.a(tcpip.o)
 .debug_info    0x0000000000016f9e      0x13b obj_cooja/mtype516.a(uip-debug.o)
 .debug_info    0x00000000000170d9      0x243 obj_cooja/mtype516.a(uip-nameserver.)
 .debug_info    0x000000000001731c      0x470 obj_cooja/mtype516.a(uip-packetqueue)
 .debug_info    0x000000000001778c      0x37a obj_cooja/mtype516.a(uip-udp-packet.)
 .debug_info    0x0000000000017b06      0x231 obj_cooja/mtype516.a(uiplib.o)
 .debug_info    0x0000000000017d37     0x1b58 obj_cooja/mtype516.a(rpl-dag.o)
 .debug_info    0x000000000001988f      0xf73 obj_cooja/mtype516.a(rpl-ext-header.)
 .debug_info    0x000000000001a802     0x16db obj_cooja/mtype516.a(rpl-icmp6.o)
 .debug_info    0x000000000001bedd      0xa3d obj_cooja/mtype516.a(rpl-mrhof.o)
 .debug_info    0x000000000001c91a      0xcc0 obj_cooja/mtype516.a(rpl-timers.o)
 .debug_info    0x000000000001d5da      0xd0d obj_cooja/mtype516.a(rpl.o)
 .debug_info    0x000000000001e2e7      0x691 obj_cooja/mtype516.a(link-stats.o)
 .debug_info    0x000000000001e978      0x165 obj_cooja/mtype516.a(linkaddr.o)
 .debug_info    0x000000000001eadd      0x969 obj_cooja/mtype516.a(nbr-table.o)
 .debug_info    0x000000000001f446      0x4b9 obj_cooja/mtype516.a(netstack.o)
 .debug_info    0x000000000001f8ff      0x48d obj_cooja/mtype516.a(packetbuf.o)
 .debug_info    0x000000000001fd8c      0x57d obj_cooja/mtype516.a(queuebuf.o)
 .debug_info    0x0000000000020309      0xc0d obj_cooja/mtype516.a(csma.o)
 .debug_info    0x0000000000020f16      0x5ed obj_cooja/mtype516.a(framer-802154.o)
 .debug_info    0x0000000000021503      0x112 obj_cooja/mtype516.a(mac.o)
 .debug_info    0x0000000000021615      0xc3c obj_cooja/mtype516.a(nullrdc.o)
 .debug_info    0x0000000000022251      0x3aa obj_cooja/mtype516.a(nullsec.o)
 .debug_info    0x00000000000225fb       0x7b obj_cooja/mtype516.a(watchdog.o)
 .debug_info    0x0000000000022676      0x119 obj_cooja/mtype516.a(rimestats.o)
 .debug_info    0x000000000002278f      0x179 obj_cooja/mtype516.a(stimer.o)
 .debug_info    0x0000000000022908      0x761 obj_cooja/mtype516.a(uip-icmp6.o)
 .debug_info    0x0000000000023069      0xdee obj_cooja/mtype516.a(rpl-nbr-policy.)
 .debug_info    0x0000000000023e57      0x72d obj_cooja/mtype516.a(frame802154.o)
 .debug_info    0x0000000000024584      0x2bc obj_cooja/mtype516.a(mac-sequence.o)

.debug_abbrev   0x0000000000000000     0x82fa
 *(.debug_abbrev)
 .debug_abbrev  0x0000000000000000      0x2ef dtls-client.co
 .debug_abbrev  0x00000000000002ef      0x2b3 obj_cooja/mtype516.o
 .debug_abbrev  0x00000000000005a2      0x3a4 obj_cooja/mtype516.a(dtls.o)
 .debug_abbrev  0x0000000000000946      0x2a4 obj_cooja/mtype516.a(tinydtls-crypto)
 .debug_abbrev  0x0000000000000bea      0x19a obj_cooja/mtype516.a(hmac.o)
 .debug_abbrev  0x0000000000000d84      0x1d3 obj_cooja/mtype516.a(netq.o)
 .debug_abbrev  0x0000000000000f57      0x101 obj_cooja/mtype516.a(dtls_time.o)
 .debug_abbrev  0x0000000000001058      0x191 obj_cooja/mtype516.a(peer.o)
 .debug_abbrev  0x00000000000011e9      0x126 obj_cooja/mtype516.a(session.o)
 .debug_abbrev  0x000000000000130f      0x12c obj_cooja/mtype516.a(rijndael.o)
 .debug_abbrev  0x000000000000143b      0x1a2 obj_cooja/mtype516.a(tinydtls-ccm.o)
 .debug_abbrev  0x00000000000015dd      0x165 obj_cooja/mtype516.a(sha2.o)
 .debug_abbrev  0x0000000000001742      0x1e0 obj_cooja/mtype516.a(debug.o)
 .debug_abbrev  0x0000000000001922       0xc3 obj_cooja/mtype516.a(simEnvChange.o)
 .debug_abbrev  0x00000000000019e5       0xe6 obj_cooja/mtype516.a(cooja_mt.o)
 .debug_abbrev  0x0000000000001acb      0x147 obj_cooja/mtype516.a(cooja_mtarch.o)
 .debug_abbrev  0x0000000000001c12       0xbd obj_cooja/mtype516.a(rtimer-arch.o)
 .debug_abbrev  0x0000000000001ccf       0xe3 obj_cooja/mtype516.a(beep.o)
 .debug_abbrev  0x0000000000001db2      0x11c obj_cooja/mtype516.a(button-sensor.o)
 .debug_abbrev  0x0000000000001ece       0xe1 obj_cooja/mtype516.a(leds-arch.o)
 .debug_abbrev  0x0000000000001faf       0x9c obj_cooja/mtype516.a(moteid.o)
 .debug_abbrev  0x000000000000204b       0xe6 obj_cooja/mtype516.a(pir-sensor.o)
 .debug_abbrev  0x0000000000002131      0x14a obj_cooja/mtype516.a(rs232.o)
 .debug_abbrev  0x000000000000227b       0xe6 obj_cooja/mtype516.a(vib-sensor.o)
 .debug_abbrev  0x0000000000002361       0xee obj_cooja/mtype516.a(clock.o)
 .debug_abbrev  0x000000000000244f      0x141 obj_cooja/mtype516.a(log.o)
 .debug_abbrev  0x0000000000002590      0x139 obj_cooja/mtype516.a(cfs-cooja.o)
 .debug_abbrev  0x00000000000026c9      0x324 obj_cooja/mtype516.a(cooja-radio.o)
 .debug_abbrev  0x00000000000029ed       0xf5 obj_cooja/mtype516.a(eeprom.o)
 .debug_abbrev  0x0000000000002ae2       0x6d obj_cooja/mtype516.a(random.o)
 .debug_abbrev  0x0000000000002b4f      0x1c2 obj_cooja/mtype516.a(sensors.o)
 .debug_abbrev  0x0000000000002d11       0xfb obj_cooja/mtype516.a(autostart.o)
 .debug_abbrev  0x0000000000002e0c      0x1a1 obj_cooja/mtype516.a(ctimer.o)
 .debug_abbrev  0x0000000000002fad      0x1f1 obj_cooja/mtype516.a(etimer.o)
 .debug_abbrev  0x000000000000319e      0x244 obj_cooja/mtype516.a(process.o)
 .debug_abbrev  0x00000000000033e2      0x124 obj_cooja/mtype516.a(rtimer.o)
 .debug_abbrev  0x0000000000003506       0xf5 obj_cooja/mtype516.a(timer.o)
 .debug_abbrev  0x00000000000035fb      0x190 obj_cooja/mtype516.a(serial-line.o)
 .debug_abbrev  0x000000000000378b       0x61 obj_cooja/mtype516.a(assert.o)
 .debug_abbrev  0x00000000000037ec      0x145 obj_cooja/mtype516.a(list.o)
 .debug_abbrev  0x0000000000003931       0xe4 obj_cooja/mtype516.a(memb.o)
 .debug_abbrev  0x0000000000003a15       0xdb obj_cooja/mtype516.a(ringbuf.o)
 .debug_abbrev  0x0000000000003af0      0x290 obj_cooja/mtype516.a(sicslowpan.o)
 .debug_abbrev  0x0000000000003d80      0x2cf obj_cooja/mtype516.a(uip-ds6-nbr.o)
 .debug_abbrev  0x000000000000404f      0x317 obj_cooja/mtype516.a(uip-ds6-route.o)
 .debug_abbrev  0x0000000000004366      0x23a obj_cooja/mtype516.a(uip-ds6.o)
 .debug_abbrev  0x00000000000045a0      0x27e obj_cooja/mtype516.a(uip-nd6.o)
 .debug_abbrev  0x000000000000481e      0x2c9 obj_cooja/mtype516.a(uip6.o)
 .debug_abbrev  0x0000000000004ae7      0x2a4 obj_cooja/mtype516.a(resolv.o)
 .debug_abbrev  0x0000000000004d8b      0x349 obj_cooja/mtype516.a(tcpip.o)
 .debug_abbrev  0x00000000000050d4       0xad obj_cooja/mtype516.a(uip-debug.o)
 .debug_abbrev  0x0000000000005181      0x142 obj_cooja/mtype516.a(uip-nameserver.)
 .debug_abbrev  0x00000000000052c3      0x1d4 obj_cooja/mtype516.a(uip-packetqueue)
 .debug_abbrev  0x0000000000005497      0x195 obj_cooja/mtype516.a(uip-udp-packet.)
 .debug_abbrev  0x000000000000562c       0xda obj_cooja/mtype516.a(uiplib.o)
 .debug_abbrev  0x0000000000005706      0x373 obj_cooja/mtype516.a(rpl-dag.o)
 .debug_abbrev  0x0000000000005a79      0x25f obj_cooja/mtype516.a(rpl-ext-header.)
 .debug_abbrev  0x0000000000005cd8      0x37a obj_cooja/mtype516.a(rpl-icmp6.o)
 .debug_abbrev  0x0000000000006052      0x1c4 obj_cooja/mtype516.a(rpl-mrhof.o)
 .debug_abbrev  0x0000000000006216      0x283 obj_cooja/mtype516.a(rpl-timers.o)
 .debug_abbrev  0x0000000000006499      0x25a obj_cooja/mtype516.a(rpl.o)
 .debug_abbrev  0x00000000000066f3      0x23f obj_cooja/mtype516.a(link-stats.o)
 .debug_abbrev  0x0000000000006932       0xd8 obj_cooja/mtype516.a(linkaddr.o)
 .debug_abbrev  0x0000000000006a0a      0x1f8 obj_cooja/mtype516.a(nbr-table.o)
 .debug_abbrev  0x0000000000006c02      0x111 obj_cooja/mtype516.a(netstack.o)
 .debug_abbrev  0x0000000000006d13      0x1d8 obj_cooja/mtype516.a(packetbuf.o)
 .debug_abbrev  0x0000000000006eeb      0x1ba obj_cooja/mtype516.a(queuebuf.o)
 .debug_abbrev  0x00000000000070a5      0x2aa obj_cooja/mtype516.a(csma.o)
 .debug_abbrev  0x000000000000734f      0x195 obj_cooja/mtype516.a(framer-802154.o)
 .debug_abbrev  0x00000000000074e4       0xa3 obj_cooja/mtype516.a(mac.o)
 .debug_abbrev  0x0000000000007587      0x2a9 obj_cooja/mtype516.a(nullrdc.o)
 .debug_abbrev  0x0000000000007830      0x1ba obj_cooja/mtype516.a(nullsec.o)
 .debug_abbrev  0x00000000000079ea       0x2c obj_cooja/mtype516.a(watchdog.o)
 .debug_abbrev  0x0000000000007a16       0x59 obj_cooja/mtype516.a(rimestats.o)
 .debug_abbrev  0x0000000000007a6f       0xd9 obj_cooja/mtype516.a(stimer.o)
 .debug_abbrev  0x0000000000007b48      0x232 obj_cooja/mtype516.a(uip-icmp6.o)
 .debug_abbrev  0x0000000000007d7a      0x23c obj_cooja/mtype516.a(rpl-nbr-policy.)
 .debug_abbrev  0x0000000000007fb6      0x1fb obj_cooja/mtype516.a(frame802154.o)
 .debug_abbrev  0x00000000000081b1      0x149 obj_cooja/mtype516.a(mac-sequence.o)

.debug_line     0x0000000000000000     0xd4cb
 *(.debug_line .debug_line.* .debug_line_end)
 .debug_line    0x0000000000000000      0x456 dtls-client.co
 .debug_line    0x0000000000000456      0x4f5 obj_cooja/mtype516.o
 .debug_line    0x000000000000094b     0x15f0 obj_cooja/mtype516.a(dtls.o)
 .debug_line    0x0000000000001f3b      0x434 obj_cooja/mtype516.a(tinydtls-crypto)
 .debug_line    0x000000000000236f      0x254 obj_cooja/mtype516.a(hmac.o)
 .debug_line    0x00000000000025c3      0x2d7 obj_cooja/mtype516.a(netq.o)
 .debug_line    0x000000000000289a       0xf3 obj_cooja/mtype516.a(dtls_time.o)
 .debug_line    0x000000000000298d      0x1c5 obj_cooja/mtype516.a(peer.o)
 .debug_line    0x0000000000002b52      0x11b obj_cooja/mtype516.a(session.o)
 .debug_line    0x0000000000002c6d      0x1da obj_cooja/mtype516.a(rijndael.o)
 .debug_line    0x0000000000002e47      0x30a obj_cooja/mtype516.a(tinydtls-ccm.o)
 .debug_line    0x0000000000003151      0x2bf obj_cooja/mtype516.a(sha2.o)
 .debug_line    0x0000000000003410      0x25d obj_cooja/mtype516.a(debug.o)
 .debug_line    0x000000000000366d       0xf4 obj_cooja/mtype516.a(simEnvChange.o)
 .debug_line    0x0000000000003761      0x121 obj_cooja/mtype516.a(cooja_mt.o)
 .debug_line    0x0000000000003882      0x182 obj_cooja/mtype516.a(cooja_mtarch.o)
 .debug_line    0x0000000000003a04       0xec obj_cooja/mtype516.a(rtimer-arch.o)
 .debug_line    0x0000000000003af0      0x168 obj_cooja/mtype516.a(beep.o)
 .debug_line    0x0000000000003c58      0x188 obj_cooja/mtype516.a(button-sensor.o)
 .debug_line    0x0000000000003de0       0xd2 obj_cooja/mtype516.a(leds-arch.o)
 .debug_line    0x0000000000003eb2       0x9e obj_cooja/mtype516.a(moteid.o)
 .debug_line    0x0000000000003f50      0x10c obj_cooja/mtype516.a(pir-sensor.o)
 .debug_line    0x000000000000405c      0x133 obj_cooja/mtype516.a(rs232.o)
 .debug_line    0x000000000000418f      0x10c obj_cooja/mtype516.a(vib-sensor.o)
 .debug_line    0x000000000000429b      0x10e obj_cooja/mtype516.a(clock.o)
 .debug_line    0x00000000000043a9      0x195 obj_cooja/mtype516.a(log.o)
 .debug_line    0x000000000000453e      0x1ac obj_cooja/mtype516.a(cfs-cooja.o)
 .debug_line    0x00000000000046ea      0x4cb obj_cooja/mtype516.a(cooja-radio.o)
 .debug_line    0x0000000000004bb5      0x101 obj_cooja/mtype516.a(eeprom.o)
 .debug_line    0x0000000000004cb6       0x60 obj_cooja/mtype516.a(random.o)
 .debug_line    0x0000000000004d16      0x17c obj_cooja/mtype516.a(sensors.o)
 .debug_line    0x0000000000004e92       0xc4 obj_cooja/mtype516.a(autostart.o)
 .debug_line    0x0000000000004f56      0x1f5 obj_cooja/mtype516.a(ctimer.o)
 .debug_line    0x000000000000514b      0x26c obj_cooja/mtype516.a(etimer.o)
 .debug_line    0x00000000000053b7      0x236 obj_cooja/mtype516.a(process.o)
 .debug_line    0x00000000000055ed       0xf2 obj_cooja/mtype516.a(rtimer.o)
 .debug_line    0x00000000000056df       0xed obj_cooja/mtype516.a(timer.o)
 .debug_line    0x00000000000057cc      0x13c obj_cooja/mtype516.a(serial-line.o)
 .debug_line    0x0000000000005908       0x50 obj_cooja/mtype516.a(assert.o)
 .debug_line    0x0000000000005958      0x1a2 obj_cooja/mtype516.a(list.o)
 .debug_line    0x0000000000005afa      0x10a obj_cooja/mtype516.a(memb.o)
 .debug_line    0x0000000000005c04       0xf1 obj_cooja/mtype516.a(ringbuf.o)
 .debug_line    0x0000000000005cf5      0x8a9 obj_cooja/mtype516.a(sicslowpan.o)
 .debug_line    0x000000000000659e      0x3e2 obj_cooja/mtype516.a(uip-ds6-nbr.o)
 .debug_line    0x0000000000006980      0x49f obj_cooja/mtype516.a(uip-ds6-route.o)
 .debug_line    0x0000000000006e1f      0x473 obj_cooja/mtype516.a(uip-ds6.o)
 .debug_line    0x0000000000007292      0x3c1 obj_cooja/mtype516.a(uip-nd6.o)
 .debug_line    0x0000000000007653      0x890 obj_cooja/mtype516.a(uip6.o)
 .debug_line    0x0000000000007ee3      0x731 obj_cooja/mtype516.a(resolv.o)
 .debug_line    0x0000000000008614      0x502 obj_cooja/mtype516.a(tcpip.o)
 .debug_line    0x0000000000008b16       0xcb obj_cooja/mtype516.a(uip-debug.o)
 .debug_line    0x0000000000008be1      0x117 obj_cooja/mtype516.a(uip-nameserver.)
 .debug_line    0x0000000000008cf8      0x1eb obj_cooja/mtype516.a(uip-packetqueue)
 .debug_line    0x0000000000008ee3      0x10b obj_cooja/mtype516.a(uip-udp-packet.)
 .debug_line    0x0000000000008fee      0x141 obj_cooja/mtype516.a(uiplib.o)
 .debug_line    0x000000000000912f      0xbe7 obj_cooja/mtype516.a(rpl-dag.o)
 .debug_line    0x0000000000009d16      0x374 obj_cooja/mtype516.a(rpl-ext-header.)
 .debug_line    0x000000000000a08a      0x761 obj_cooja/mtype516.a(rpl-icmp6.o)
 .debug_line    0x000000000000a7eb      0x32f obj_cooja/mtype516.a(rpl-mrhof.o)
 .debug_line    0x000000000000ab1a      0x3d2 obj_cooja/mtype516.a(rpl-timers.o)
 .debug_line    0x000000000000aeec      0x375 obj_cooja/mtype516.a(rpl.o)
 .debug_line    0x000000000000b261      0x29a obj_cooja/mtype516.a(link-stats.o)
 .debug_line    0x000000000000b4fb       0x9e obj_cooja/mtype516.a(linkaddr.o)
 .debug_line    0x000000000000b599      0x383 obj_cooja/mtype516.a(nbr-table.o)
 .debug_line    0x000000000000b91c      0x125 obj_cooja/mtype516.a(netstack.o)
 .debug_line    0x000000000000ba41      0x225 obj_cooja/mtype516.a(packetbuf.o)
 .debug_line    0x000000000000bc66      0x1c6 obj_cooja/mtype516.a(queuebuf.o)
 .debug_line    0x000000000000be2c      0x400 obj_cooja/mtype516.a(csma.o)
 .debug_line    0x000000000000c22c      0x1cd obj_cooja/mtype516.a(framer-802154.o)
 .debug_line    0x000000000000c3f9       0x7e obj_cooja/mtype516.a(mac.o)
 .debug_line    0x000000000000c477      0x337 obj_cooja/mtype516.a(nullrdc.o)
 .debug_line    0x000000000000c7ae      0x13c obj_cooja/mtype516.a(nullsec.o)
 .debug_line    0x000000000000c8ea       0x9a obj_cooja/mtype516.a(watchdog.o)
 .debug_line    0x000000000000c984       0x71 obj_cooja/mtype516.a(rimestats.o)
 .debug_line    0x000000000000c9f5       0xd1 obj_cooja/mtype516.a(stimer.o)
 .debug_line    0x000000000000cac6      0x29a obj_cooja/mtype516.a(uip-icmp6.o)
 .debug_line    0x000000000000cd60      0x2b5 obj_cooja/mtype516.a(rpl-nbr-policy.)
 .debug_line    0x000000000000d015      0x366 obj_cooja/mtype516.a(frame802154.o)
 .debug_line    0x000000000000d37b      0x150 obj_cooja/mtype516.a(mac-sequence.o)

.debug_frame
 *(.debug_frame)

.debug_str      0x0000000000000000     0x8f20
 *(.debug_str)
 .debug_str     0x0000000000000000      0xab7 dtls-client.co
                                        0xbdf (size before relaxing)
 .debug_str     0x0000000000000ab7     0x1790 obj_cooja/mtype516.o
                                       0x1b06 (size before relaxing)
 .debug_str     0x0000000000002247      0xe58 obj_cooja/mtype516.a(dtls.o)
                                       0x169e (size before relaxing)
 .debug_str     0x000000000000309f      0x322 obj_cooja/mtype516.a(tinydtls-crypto)
                                        0x7ec (size before relaxing)
 .debug_str     0x00000000000033c1      0x112 obj_cooja/mtype516.a(hmac.o)
                                        0x373 (size before relaxing)
 .debug_str     0x00000000000034d3       0xf3 obj_cooja/mtype516.a(netq.o)
                                        0x7a5 (size before relaxing)
 .debug_str     0x00000000000035c6       0x53 obj_cooja/mtype516.a(dtls_time.o)
                                        0x1fc (size before relaxing)
 .debug_str     0x0000000000003619       0x94 obj_cooja/mtype516.a(peer.o)
                                        0x6ea (size before relaxing)
 .debug_str     0x00000000000036ad       0x4f obj_cooja/mtype516.a(session.o)
                                        0x21e (size before relaxing)
 .debug_str     0x00000000000036fc       0xae obj_cooja/mtype516.a(rijndael.o)
                                        0x1dc (size before relaxing)
 .debug_str     0x00000000000037aa       0x83 obj_cooja/mtype516.a(tinydtls-ccm.o)
                                        0x281 (size before relaxing)
 .debug_str     0x000000000000382d       0xe6 obj_cooja/mtype516.a(sha2.o)
                                        0x2d1 (size before relaxing)
 .debug_str     0x0000000000003913       0xee obj_cooja/mtype516.a(debug.o)
                                        0x356 (size before relaxing)
 .debug_str     0x0000000000003a01       0x2e obj_cooja/mtype516.a(simEnvChange.o)
                                        0x1f7 (size before relaxing)
 .debug_str     0x0000000000003a2f       0x8b obj_cooja/mtype516.a(cooja_mt.o)
                                        0x224 (size before relaxing)
 .debug_str     0x0000000000003aba       0xfb obj_cooja/mtype516.a(cooja_mtarch.o)
                                        0x2a1 (size before relaxing)
 .debug_str     0x0000000000003bb5       0xea obj_cooja/mtype516.a(rtimer-arch.o)
                                        0x21b (size before relaxing)
 .debug_str     0x0000000000003c9f       0xc4 obj_cooja/mtype516.a(beep.o)
                                        0x238 (size before relaxing)
 .debug_str     0x0000000000003d63       0x70 obj_cooja/mtype516.a(button-sensor.o)
                                        0x268 (size before relaxing)
 .debug_str     0x0000000000003dd3       0x68 obj_cooja/mtype516.a(leds-arch.o)
                                        0x203 (size before relaxing)
 .debug_str     0x0000000000003e3b       0x47 obj_cooja/mtype516.a(moteid.o)
                                        0x1ee (size before relaxing)
 .debug_str     0x0000000000003e82       0x55 obj_cooja/mtype516.a(pir-sensor.o)
                                        0x225 (size before relaxing)
 .debug_str     0x0000000000003ed7       0xc1 obj_cooja/mtype516.a(rs232.o)
                                        0x282 (size before relaxing)
 .debug_str     0x0000000000003f98       0x55 obj_cooja/mtype516.a(vib-sensor.o)
                                        0x225 (size before relaxing)
 .debug_str     0x0000000000003fed       0x66 obj_cooja/mtype516.a(clock.o)
                                        0x21a (size before relaxing)
 .debug_str     0x0000000000004053       0xd1 obj_cooja/mtype516.a(log.o)
                                        0x2a8 (size before relaxing)
 .debug_str     0x0000000000004124      0x111 obj_cooja/mtype516.a(cfs-cooja.o)
                                        0x2c4 (size before relaxing)
 .debug_str     0x0000000000004235      0x732 obj_cooja/mtype516.a(cooja-radio.o)
                                        0xafe (size before relaxing)
 .debug_str     0x0000000000004967       0x99 obj_cooja/mtype516.a(eeprom.o)
                                        0x244 (size before relaxing)
 .debug_str     0x0000000000004a00       0x36 obj_cooja/mtype516.a(random.o)
                                        0x163 (size before relaxing)
 .debug_str     0x0000000000004a36       0xa1 obj_cooja/mtype516.a(sensors.o)
                                        0x293 (size before relaxing)
 .debug_str     0x0000000000004ad7       0x40 obj_cooja/mtype516.a(autostart.o)
                                        0x1b6 (size before relaxing)
 .debug_str     0x0000000000004b17       0xd2 obj_cooja/mtype516.a(ctimer.o)
                                        0x2b7 (size before relaxing)
 .debug_str     0x0000000000004be9      0x148 obj_cooja/mtype516.a(etimer.o)
                                        0x32a (size before relaxing)
 .debug_str     0x0000000000004d31      0x15c obj_cooja/mtype516.a(process.o)
                                        0x2f5 (size before relaxing)
 .debug_str     0x0000000000004e8d       0xb3 obj_cooja/mtype516.a(rtimer.o)
                                        0x201 (size before relaxing)
 .debug_str     0x0000000000004f40       0x1d obj_cooja/mtype516.a(timer.o)
                                        0x1a0 (size before relaxing)
 .debug_str     0x0000000000004f5d       0xbf obj_cooja/mtype516.a(serial-line.o)
                                        0x27e (size before relaxing)
 .debug_str     0x000000000000501c       0x2e obj_cooja/mtype516.a(assert.o)
                                        0x15b (size before relaxing)
 .debug_str     0x000000000000504a       0xae obj_cooja/mtype516.a(list.o)
                                        0x15f (size before relaxing)
 .debug_str     0x00000000000050f8       0x62 obj_cooja/mtype516.a(memb.o)
                                        0x19a (size before relaxing)
 .debug_str     0x000000000000515a       0x62 obj_cooja/mtype516.a(ringbuf.o)
                                        0x1b3 (size before relaxing)
 .debug_str     0x00000000000051bc      0x4b9 obj_cooja/mtype516.a(sicslowpan.o)
                                        0xa9c (size before relaxing)
 .debug_str     0x0000000000005675      0x3c2 obj_cooja/mtype516.a(uip-ds6-nbr.o)
                                        0x97f (size before relaxing)
 .debug_str     0x0000000000005a37      0x450 obj_cooja/mtype516.a(uip-ds6-route.o)
                                        0x949 (size before relaxing)
 .debug_str     0x0000000000005e87      0x30f obj_cooja/mtype516.a(uip-ds6.o)
                                        0x674 (size before relaxing)
 .debug_str     0x0000000000006196      0x180 obj_cooja/mtype516.a(uip-nd6.o)
                                        0x64f (size before relaxing)
 .debug_str     0x0000000000006316      0x340 obj_cooja/mtype516.a(uip6.o)
                                        0x7fa (size before relaxing)
 .debug_str     0x0000000000006656      0x37f obj_cooja/mtype516.a(resolv.o)
                                        0x8d3 (size before relaxing)
 .debug_str     0x00000000000069d5      0x40a obj_cooja/mtype516.a(tcpip.o)
                                        0xce9 (size before relaxing)
 .debug_str     0x0000000000006ddf       0x3b obj_cooja/mtype516.a(uip-debug.o)
                                        0x194 (size before relaxing)
 .debug_str     0x0000000000006e1a       0xab obj_cooja/mtype516.a(uip-nameserver.)
                                        0x270 (size before relaxing)
 .debug_str     0x0000000000006ec5       0xfa obj_cooja/mtype516.a(uip-packetqueue)
                                        0x33d (size before relaxing)
 .debug_str     0x0000000000006fbf       0x71 obj_cooja/mtype516.a(uip-udp-packet.)
                                        0x28f (size before relaxing)
 .debug_str     0x0000000000007030       0x6c obj_cooja/mtype516.a(uiplib.o)
                                        0x1c0 (size before relaxing)
 .debug_str     0x000000000000709c      0x58f obj_cooja/mtype516.a(rpl-dag.o)
                                        0xdc9 (size before relaxing)
 .debug_str     0x000000000000762b       0xf8 obj_cooja/mtype516.a(rpl-ext-header.)
                                        0xba6 (size before relaxing)
 .debug_str     0x0000000000007723      0x239 obj_cooja/mtype516.a(rpl-icmp6.o)
                                        0xed4 (size before relaxing)
 .debug_str     0x000000000000795c       0x71 obj_cooja/mtype516.a(rpl-mrhof.o)
                                        0x63f (size before relaxing)
 .debug_str     0x00000000000079cd      0x1d6 obj_cooja/mtype516.a(rpl-timers.o)
                                        0x86e (size before relaxing)
 .debug_str     0x0000000000007ba3       0xfa obj_cooja/mtype516.a(rpl.o)
                                        0x88f (size before relaxing)
 .debug_str     0x0000000000007c9d       0xf3 obj_cooja/mtype516.a(link-stats.o)
                                        0x6d9 (size before relaxing)
 .debug_str     0x0000000000007d90       0x58 obj_cooja/mtype516.a(linkaddr.o)
                                        0x1b7 (size before relaxing)
 .debug_str     0x0000000000007de8      0x2a5 obj_cooja/mtype516.a(nbr-table.o)
                                        0x589 (size before relaxing)
 .debug_str     0x000000000000808d       0x2e obj_cooja/mtype516.a(netstack.o)
                                        0x33d (size before relaxing)
 .debug_str     0x00000000000080bb      0x188 obj_cooja/mtype516.a(packetbuf.o)
                                        0x53d (size before relaxing)
 .debug_str     0x0000000000008243      0x1a5 obj_cooja/mtype516.a(queuebuf.o)
                                        0x53c (size before relaxing)
 .debug_str     0x00000000000083e8      0x207 obj_cooja/mtype516.a(csma.o)
                                        0x793 (size before relaxing)
 .debug_str     0x00000000000085ef      0x218 obj_cooja/mtype516.a(framer-802154.o)
                                        0x61b (size before relaxing)
 .debug_str     0x0000000000008807       0x3d obj_cooja/mtype516.a(mac.o)
                                        0x1cb (size before relaxing)
 .debug_str     0x0000000000008844       0x86 obj_cooja/mtype516.a(nullrdc.o)
                                        0x97e (size before relaxing)
 .debug_str     0x00000000000088ca       0x25 obj_cooja/mtype516.a(nullsec.o)
                                        0x439 (size before relaxing)
 .debug_str     0x00000000000088ef       0x77 obj_cooja/mtype516.a(watchdog.o)
                                        0x10d (size before relaxing)
 .debug_str     0x0000000000008966       0x26 obj_cooja/mtype516.a(rimestats.o)
                                        0x161 (size before relaxing)
 .debug_str     0x000000000000898c       0x74 obj_cooja/mtype516.a(stimer.o)
                                        0x1a4 (size before relaxing)
 .debug_str     0x0000000000008a00      0x1ef obj_cooja/mtype516.a(uip-icmp6.o)
                                        0x57e (size before relaxing)
 .debug_str     0x0000000000008bef       0xd0 obj_cooja/mtype516.a(rpl-nbr-policy.)
                                        0x998 (size before relaxing)
 .debug_str     0x0000000000008cbf      0x1f3 obj_cooja/mtype516.a(frame802154.o)
                                        0x571 (size before relaxing)
 .debug_str     0x0000000000008eb2       0x6e obj_cooja/mtype516.a(mac-sequence.o)
                                        0x3ff (size before relaxing)

.debug_loc
 *(.debug_loc)

.debug_macinfo
 *(.debug_macinfo)

.debug_weaknames
 *(.debug_weaknames)

.debug_funcnames
 *(.debug_funcnames)

.debug_typenames
 *(.debug_typenames)

.debug_varnames
 *(.debug_varnames)

.debug_pubtypes
 *(.debug_pubtypes)

.debug_ranges   0x0000000000000000     0x1c68
 *(.debug_ranges)
 .debug_ranges  0x0000000000000000       0x80 dtls-client.co
 .debug_ranges  0x0000000000000080       0x58 obj_cooja/mtype516.o
 .debug_ranges  0x00000000000000d8      0x2d0 obj_cooja/mtype516.a(dtls.o)
 .debug_ranges  0x00000000000003a8       0xb0 obj_cooja/mtype516.a(tinydtls-crypto)
 .debug_ranges  0x0000000000000458       0x60 obj_cooja/mtype516.a(hmac.o)
 .debug_ranges  0x00000000000004b8       0x60 obj_cooja/mtype516.a(netq.o)
 .debug_ranges  0x0000000000000518       0x18 obj_cooja/mtype516.a(dtls_time.o)
 .debug_ranges  0x0000000000000530       0x28 obj_cooja/mtype516.a(peer.o)
 .debug_ranges  0x0000000000000558       0x18 obj_cooja/mtype516.a(session.o)
 .debug_ranges  0x0000000000000570       0x28 obj_cooja/mtype516.a(rijndael.o)
 .debug_ranges  0x0000000000000598       0x50 obj_cooja/mtype516.a(tinydtls-ccm.o)
 .debug_ranges  0x00000000000005e8       0x38 obj_cooja/mtype516.a(sha2.o)
 .debug_ranges  0x0000000000000620       0x58 obj_cooja/mtype516.a(debug.o)
 .debug_ranges  0x0000000000000678       0x18 obj_cooja/mtype516.a(simEnvChange.o)
 .debug_ranges  0x0000000000000690       0x38 obj_cooja/mtype516.a(cooja_mt.o)
 .debug_ranges  0x00000000000006c8       0x50 obj_cooja/mtype516.a(cooja_mtarch.o)
 .debug_ranges  0x0000000000000718       0x38 obj_cooja/mtype516.a(rtimer-arch.o)
 .debug_ranges  0x0000000000000750       0x60 obj_cooja/mtype516.a(beep.o)
 .debug_ranges  0x00000000000007b0       0x30 obj_cooja/mtype516.a(button-sensor.o)
 .debug_ranges  0x00000000000007e0       0x30 obj_cooja/mtype516.a(leds-arch.o)
 .debug_ranges  0x0000000000000810       0x18 obj_cooja/mtype516.a(moteid.o)
 .debug_ranges  0x0000000000000828       0x30 obj_cooja/mtype516.a(pir-sensor.o)
 .debug_ranges  0x0000000000000858       0x48 obj_cooja/mtype516.a(rs232.o)
 .debug_ranges  0x00000000000008a0       0x30 obj_cooja/mtype516.a(vib-sensor.o)
 .debug_ranges  0x00000000000008d0       0x38 obj_cooja/mtype516.a(clock.o)
 .debug_ranges  0x0000000000000908       0x50 obj_cooja/mtype516.a(log.o)
 .debug_ranges  0x0000000000000958       0x60 obj_cooja/mtype516.a(cfs-cooja.o)
 .debug_ranges  0x00000000000009b8       0xe0 obj_cooja/mtype516.a(cooja-radio.o)
 .debug_ranges  0x0000000000000a98       0x30 obj_cooja/mtype516.a(eeprom.o)
 .debug_ranges  0x0000000000000ac8       0x18 obj_cooja/mtype516.a(random.o)
 .debug_ranges  0x0000000000000ae0       0x38 obj_cooja/mtype516.a(sensors.o)
 .debug_ranges  0x0000000000000b18       0x18 obj_cooja/mtype516.a(autostart.o)
 .debug_ranges  0x0000000000000b30       0x48 obj_cooja/mtype516.a(ctimer.o)
 .debug_ranges  0x0000000000000b78       0x80 obj_cooja/mtype516.a(etimer.o)
 .debug_ranges  0x0000000000000bf8       0x78 obj_cooja/mtype516.a(process.o)
 .debug_ranges  0x0000000000000c70       0x20 obj_cooja/mtype516.a(rtimer.o)
 .debug_ranges  0x0000000000000c90       0x30 obj_cooja/mtype516.a(timer.o)
 .debug_ranges  0x0000000000000cc0       0x20 obj_cooja/mtype516.a(serial-line.o)
 .debug_ranges  0x0000000000000ce0       0x10 obj_cooja/mtype516.a(assert.o)
 .debug_ranges  0x0000000000000cf0       0x68 obj_cooja/mtype516.a(list.o)
 .debug_ranges  0x0000000000000d58       0x30 obj_cooja/mtype516.a(memb.o)
 .debug_ranges  0x0000000000000d88       0x30 obj_cooja/mtype516.a(ringbuf.o)
 .debug_ranges  0x0000000000000db8       0xd0 obj_cooja/mtype516.a(sicslowpan.o)
 .debug_ranges  0x0000000000000e88       0x80 obj_cooja/mtype516.a(uip-ds6-nbr.o)
 .debug_ranges  0x0000000000000f08       0xb8 obj_cooja/mtype516.a(uip-ds6-route.o)
 .debug_ranges  0x0000000000000fc0       0xb8 obj_cooja/mtype516.a(uip-ds6.o)
 .debug_ranges  0x0000000000001078       0x38 obj_cooja/mtype516.a(uip-nd6.o)
 .debug_ranges  0x00000000000010b0       0xa0 obj_cooja/mtype516.a(uip6.o)
 .debug_ranges  0x0000000000001150       0xa8 obj_cooja/mtype516.a(resolv.o)
 .debug_ranges  0x00000000000011f8       0xa0 obj_cooja/mtype516.a(tcpip.o)
 .debug_ranges  0x0000000000001298       0x10 obj_cooja/mtype516.a(uip-debug.o)
 .debug_ranges  0x00000000000012a8       0x28 obj_cooja/mtype516.a(uip-nameserver.)
 .debug_ranges  0x00000000000012d0       0x40 obj_cooja/mtype516.a(uip-packetqueue)
 .debug_ranges  0x0000000000001310       0x18 obj_cooja/mtype516.a(uip-udp-packet.)
 .debug_ranges  0x0000000000001328       0x18 obj_cooja/mtype516.a(uiplib.o)
 .debug_ranges  0x0000000000001340      0x1c8 obj_cooja/mtype516.a(rpl-dag.o)
 .debug_ranges  0x0000000000001508       0x38 obj_cooja/mtype516.a(rpl-ext-header.)
 .debug_ranges  0x0000000000001540       0xb0 obj_cooja/mtype516.a(rpl-icmp6.o)
 .debug_ranges  0x00000000000015f0       0x50 obj_cooja/mtype516.a(rpl-mrhof.o)
 .debug_ranges  0x0000000000001640       0x90 obj_cooja/mtype516.a(rpl-timers.o)
 .debug_ranges  0x00000000000016d0       0x58 obj_cooja/mtype516.a(rpl.o)
 .debug_ranges  0x0000000000001728       0x48 obj_cooja/mtype516.a(link-stats.o)
 .debug_ranges  0x0000000000001770       0x20 obj_cooja/mtype516.a(linkaddr.o)
 .debug_ranges  0x0000000000001790       0xb0 obj_cooja/mtype516.a(nbr-table.o)
 .debug_ranges  0x0000000000001840       0x10 obj_cooja/mtype516.a(netstack.o)
 .debug_ranges  0x0000000000001850       0x90 obj_cooja/mtype516.a(packetbuf.o)
 .debug_ranges  0x00000000000018e0       0x70 obj_cooja/mtype516.a(queuebuf.o)
 .debug_ranges  0x0000000000001950       0xa8 obj_cooja/mtype516.a(csma.o)
 .debug_ranges  0x00000000000019f8       0x48 obj_cooja/mtype516.a(framer-802154.o)
 .debug_ranges  0x0000000000001a40       0x10 obj_cooja/mtype516.a(mac.o)
 .debug_ranges  0x0000000000001a50       0x60 obj_cooja/mtype516.a(nullrdc.o)
 .debug_ranges  0x0000000000001ab0       0x28 obj_cooja/mtype516.a(nullsec.o)
 .debug_ranges  0x0000000000001ad8       0x30 obj_cooja/mtype516.a(watchdog.o)
 .debug_ranges  0x0000000000001b08       0x38 obj_cooja/mtype516.a(stimer.o)
 .debug_ranges  0x0000000000001b40       0x58 obj_cooja/mtype516.a(uip-icmp6.o)
 .debug_ranges  0x0000000000001b98       0x38 obj_cooja/mtype516.a(rpl-nbr-policy.)
 .debug_ranges  0x0000000000001bd0       0x70 obj_cooja/mtype516.a(frame802154.o)
 .debug_ranges  0x0000000000001c40       0x28 obj_cooja/mtype516.a(mac-sequence.o)

.debug_macro
 *(.debug_macro)

.gnu.attributes
 *(.gnu.attributes)

/DISCARD/
 *(.note.GNU-stack)
 *(.gnu_debuglink)
 *(.gnu.lto_*)
OUTPUT(obj_cooja/mtype516.cooja elf32-i386)
