Archive member included to satisfy reference by file (symbol)

obj_cooja/mtype296.a(dtls.o)  receiver.co (dtls_init)
obj_cooja/mtype296.a(tinydtls-crypto)
                              obj_cooja/mtype296.a(dtls.o) (dtls_crypto_init)
obj_cooja/mtype296.a(hmac.o)  obj_cooja/mtype296.a(dtls.o) (dtls_hmac_update)
obj_cooja/mtype296.a(netq.o)  obj_cooja/mtype296.a(dtls.o) (netq_init)
obj_cooja/mtype296.a(dtls_time.o)
                              obj_cooja/mtype296.a(dtls.o) (dtls_clock_init)
obj_cooja/mtype296.a(peer.o)  obj_cooja/mtype296.a(dtls.o) (peer_init)
obj_cooja/mtype296.a(session.o)
                              obj_cooja/mtype296.a(dtls.o) (dtls_session_equals)
obj_cooja/mtype296.a(rijndael.o)
                              obj_cooja/mtype296.a(tinydtls-crypto) (rijndael_set_key_enc_only)
obj_cooja/mtype296.a(tinydtls-ccm.o)
                              obj_cooja/mtype296.a(tinydtls-crypto) (dtls_ccm_encrypt_message)
obj_cooja/mtype296.a(sha2.o)  obj_cooja/mtype296.a(dtls.o) (SHA256_Init)
obj_cooja/mtype296.a(debug.o)
                              receiver.co (dtls_set_log_level)
obj_cooja/mtype296.a(simEnvChange.o)
                              obj_cooja/mtype296.o (simDontFallAsleep)
obj_cooja/mtype296.a(cooja_mt.o)
                              obj_cooja/mtype296.o (cooja_mt_start)
obj_cooja/mtype296.a(cooja_mtarch.o)
                              obj_cooja/mtype296.a(cooja_mt.o) (cooja_mtarch_init)
obj_cooja/mtype296.a(rtimer-arch.o)
                              obj_cooja/mtype296.o (rtimer_arch_check)
obj_cooja/mtype296.a(beep.o)  obj_cooja/mtype296.o (beep_interface)
obj_cooja/mtype296.a(button-sensor.o)
                              obj_cooja/mtype296.o (button_interface)
obj_cooja/mtype296.a(leds-arch.o)
                              obj_cooja/mtype296.o (leds_interface)
obj_cooja/mtype296.a(moteid.o)
                              obj_cooja/mtype296.o (moteid_interface)
obj_cooja/mtype296.a(pir-sensor.o)
                              obj_cooja/mtype296.o (pir_interface)
obj_cooja/mtype296.a(rs232.o)
                              obj_cooja/mtype296.o (rs232_interface)
obj_cooja/mtype296.a(vib-sensor.o)
                              obj_cooja/mtype296.o (vib_interface)
obj_cooja/mtype296.a(clock.o)
                              obj_cooja/mtype296.o (clock_interface)
obj_cooja/mtype296.a(log.o)   obj_cooja/mtype296.o (simlog_interface)
obj_cooja/mtype296.a(cfs-cooja.o)
                              obj_cooja/mtype296.o (cfs_interface)
obj_cooja/mtype296.a(cooja-radio.o)
                              obj_cooja/mtype296.o (radio_interface)
obj_cooja/mtype296.a(eeprom.o)
                              obj_cooja/mtype296.o (eeprom_interface)
obj_cooja/mtype296.a(random.o)
                              obj_cooja/mtype296.a(moteid.o) (random_init)
obj_cooja/mtype296.a(sensors.o)
                              obj_cooja/mtype296.o (sensors_process)
obj_cooja/mtype296.a(autostart.o)
                              obj_cooja/mtype296.o (autostart_start)
obj_cooja/mtype296.a(ctimer.o)
                              obj_cooja/mtype296.o (ctimer_init)
obj_cooja/mtype296.a(etimer.o)
                              obj_cooja/mtype296.o (etimer_process)
obj_cooja/mtype296.a(process.o)
                              obj_cooja/mtype296.a(dtls.o) (process_current)
obj_cooja/mtype296.a(rtimer.o)
                              obj_cooja/mtype296.a(rtimer-arch.o) (rtimer_run_next)
obj_cooja/mtype296.a(timer.o)
                              obj_cooja/mtype296.a(button-sensor.o) (timer_set)
obj_cooja/mtype296.a(serial-line.o)
                              obj_cooja/mtype296.a(rs232.o) (serial_line_input_byte)
obj_cooja/mtype296.a(assert.o)
                              obj_cooja/mtype296.a(dtls.o) (_xassert)
obj_cooja/mtype296.a(list.o)  obj_cooja/mtype296.a(dtls.o) (list_init)
obj_cooja/mtype296.a(memb.o)  obj_cooja/mtype296.a(tinydtls-crypto) (memb_init)
obj_cooja/mtype296.a(ringbuf.o)
                              obj_cooja/mtype296.a(serial-line.o) (ringbuf_init)
obj_cooja/mtype296.a(sicslowpan.o)
                              obj_cooja/mtype296.o (sicslowpan_driver)
obj_cooja/mtype296.a(uip-ds6-nbr.o)
                              obj_cooja/mtype296.a(sicslowpan.o) (uip_ds6_link_neighbor_callback)
obj_cooja/mtype296.a(uip-ds6-route.o)
                              obj_cooja/mtype296.a(uip-ds6-nbr.o) (uip_ds6_defrt_lookup)
obj_cooja/mtype296.a(uip-ds6.o)
                              receiver.co (uip_ds6_if)
obj_cooja/mtype296.a(uip-nd6.o)
                              obj_cooja/mtype296.a(uip-ds6-nbr.o) (uip_nd6_ns_output)
obj_cooja/mtype296.a(uip6.o)  receiver.co (uip_lladdr)
obj_cooja/mtype296.a(resolv.o)
                              receiver.co (resolv_query)
obj_cooja/mtype296.a(tcpip.o)
                              receiver.co (tcpip_event)
obj_cooja/mtype296.a(uip-debug.o)
                              receiver.co (uip_debug_ipaddr_print)
obj_cooja/mtype296.a(uip-nameserver.)
                              obj_cooja/mtype296.a(resolv.o) (uip_nameserver_get)
obj_cooja/mtype296.a(uip-packetqueue)
                              obj_cooja/mtype296.a(uip-ds6-nbr.o) (uip_packetqueue_new)
obj_cooja/mtype296.a(uip-udp-packet.)
                              receiver.co (uip_udp_packet_send)
obj_cooja/mtype296.a(uiplib.o)
                              receiver.co (uiplib_ip6addrconv)
obj_cooja/mtype296.a(rpl-dag.o)
                              obj_cooja/mtype296.a(tcpip.o) (rpl_repair_root)
obj_cooja/mtype296.a(rpl-ext-header.)
                              obj_cooja/mtype296.a(uip6.o) (rpl_verify_hbh_header)
obj_cooja/mtype296.a(rpl-icmp6.o)
                              obj_cooja/mtype296.a(rpl-dag.o) (rpl_icmp6_update_nbr_table)
obj_cooja/mtype296.a(rpl-mrhof.o)
                              obj_cooja/mtype296.a(rpl-dag.o) (rpl_mrhof)
obj_cooja/mtype296.a(rpl-timers.o)
                              obj_cooja/mtype296.a(rpl-dag.o) (rpl_reset_dio_timer)
obj_cooja/mtype296.a(rpl.o)   obj_cooja/mtype296.a(rpl-icmp6.o) (rpl_get_mode)
obj_cooja/mtype296.a(link-stats.o)
                              obj_cooja/mtype296.a(rpl-dag.o) (link_stats_from_lladdr)
obj_cooja/mtype296.a(linkaddr.o)
                              obj_cooja/mtype296.o (linkaddr_node_addr)
obj_cooja/mtype296.a(nbr-table.o)
                              obj_cooja/mtype296.a(uip-ds6-nbr.o) (nbr_table_register)
obj_cooja/mtype296.a(netstack.o)
                              obj_cooja/mtype296.o (netstack_init)
obj_cooja/mtype296.a(packetbuf.o)
                              obj_cooja/mtype296.a(cooja-radio.o) (packetbuf_attrs)
obj_cooja/mtype296.a(queuebuf.o)
                              obj_cooja/mtype296.o (queuebuf_init)
obj_cooja/mtype296.a(csma.o)  obj_cooja/mtype296.o (csma_driver)
obj_cooja/mtype296.a(framer-802154.o)
                              obj_cooja/mtype296.a(sicslowpan.o) (framer_802154)
obj_cooja/mtype296.a(mac.o)   obj_cooja/mtype296.a(csma.o) (mac_call_sent_callback)
obj_cooja/mtype296.a(nullrdc.o)
                              obj_cooja/mtype296.o (nullrdc_driver)
obj_cooja/mtype296.a(nullsec.o)
                              obj_cooja/mtype296.a(sicslowpan.o) (nullsec_driver)
obj_cooja/mtype296.a(watchdog.o)
                              obj_cooja/mtype296.a(sicslowpan.o) (watchdog_periodic)
obj_cooja/mtype296.a(rimestats.o)
                              obj_cooja/mtype296.a(cooja-radio.o) (rimestats)
obj_cooja/mtype296.a(stimer.o)
                              obj_cooja/mtype296.a(uip-ds6-nbr.o) (stimer_set)
obj_cooja/mtype296.a(uip-icmp6.o)
                              obj_cooja/mtype296.a(uip6.o) (uip_icmp6_input)
obj_cooja/mtype296.a(rpl-nbr-policy.)
                              obj_cooja/mtype296.a(nbr-table.o) (rpl_nbr_policy_find_removable)
obj_cooja/mtype296.a(frame802154.o)
                              obj_cooja/mtype296.a(framer-802154.o) (frame802154_get_pan_id)
obj_cooja/mtype296.a(mac-sequence.o)
                              obj_cooja/mtype296.a(nullrdc.o) (mac_sequence_is_duplicate)

Allocating common symbols
Common symbol       size              file

default_instance    0x4               obj_cooja/mtype296.a(rpl-dag.o)
simButtonIsActive   0x1               obj_cooja/mtype296.a(button-sensor.o)
simButtonIsDown     0x1               obj_cooja/mtype296.a(button-sensor.o)
cfs_buf             0x1e              receiver.co
simOutDataBuffer    0x80              obj_cooja/mtype296.a(cooja-radio.o)
uip_ds6_prefix_list
                    0x60              obj_cooja/mtype296.a(uip-ds6.o)
linkaddr_node_addr  0x8               obj_cooja/mtype296.a(linkaddr.o)
simSerialReceivingFlag
                    0x1               obj_cooja/mtype296.a(rs232.o)
simEEPROMData       0x400             obj_cooja/mtype296.a(eeprom.o)
periodic_timer      0x20              obj_cooja/mtype296.a(link-stats.o)
simLoggedLength     0x4               obj_cooja/mtype296.a(log.o)
simSerialReceivingLength
                    0x4               obj_cooja/mtype296.a(rs232.o)
simEtimerPending    0x4               obj_cooja/mtype296.a(simEnvChange.o)
uip_slen            0x2               obj_cooja/mtype296.a(uip6.o)
uip_ds6_timer_periodic
                    0x10              obj_cooja/mtype296.a(uip-ds6.o)
uip_acc32           0x4               obj_cooja/mtype296.a(uip6.o)
j                   0x4               receiver.co
uip_conns           0xc0              obj_cooja/mtype296.a(uip6.o)
simVibChanged       0x1               obj_cooja/mtype296.a(vib-sensor.o)
rimestats           0x48              obj_cooja/mtype296.a(rimestats.o)
simRtimerPending    0x4               obj_cooja/mtype296.a(rtimer-arch.o)
read_buf            0xc8              receiver.co
data_len            0x4               receiver.co
uip_ds6_netif_addr_list_offset
                    0x1               obj_cooja/mtype296.a(uip-ds6.o)
uip_lladdr          0x8               obj_cooja/mtype296.a(uip6.o)
instance_table      0x154             obj_cooja/mtype296.a(rpl-dag.o)
simProcessRunValue  0x4               obj_cooja/mtype296.a(simEnvChange.o)
serial_line_event_message
                    0x1               obj_cooja/mtype296.a(serial-line.o)
uip_appdata         0x4               obj_cooja/mtype296.a(uip6.o)
resolv_event_found  0x1               obj_cooja/mtype296.a(resolv.o)
referenceVar        0x4               obj_cooja/mtype296.o
simCurrentTime      0x4               obj_cooja/mtype296.a(clock.o)
simVibIsActive      0x1               obj_cooja/mtype296.a(vib-sensor.o)
uip_ds6_if          0xf8              obj_cooja/mtype296.a(uip-ds6.o)
uip_flags           0x1               obj_cooja/mtype296.a(uip6.o)
uip_ds6_timer_ra    0x8               obj_cooja/mtype296.a(uip-ds6.o)
simSerialReceivingData
                    0x800             obj_cooja/mtype296.a(rs232.o)
filename            0x4               receiver.co
simLoggedFlag       0x1               obj_cooja/mtype296.a(log.o)
packetbuf_attrs     0x1e              obj_cooja/mtype296.a(packetbuf.o)
uip_ds6_addr_size   0x1               obj_cooja/mtype296.a(uip-ds6.o)
uip_aligned_buf     0x640             obj_cooja/mtype296.a(uip6.o)
simRtimerCurrentTicks
                    0x8               obj_cooja/mtype296.a(rtimer-arch.o)
iterator            0x4               receiver.co
simRandomSeed       0x4               obj_cooja/mtype296.a(moteid.o)
simLoggedData       0x400             obj_cooja/mtype296.a(log.o)
simLedsValue        0x1               obj_cooja/mtype296.a(leds-arch.o)
simEtimerNextExpirationTime
                    0x4               obj_cooja/mtype296.a(simEnvChange.o)
uip_listenports     0x10              obj_cooja/mtype296.a(uip6.o)
uip_len             0x2               obj_cooja/mtype296.a(uip6.o)
simButtonChanged    0x1               obj_cooja/mtype296.a(button-sensor.o)
simRtimerNextExpirationTime
                    0x8               obj_cooja/mtype296.a(rtimer-arch.o)
simPirIsActive      0x1               obj_cooja/mtype296.a(pir-sensor.o)
simInDataBuffer     0x80              obj_cooja/mtype296.a(cooja-radio.o)
simPirChanged       0x1               obj_cooja/mtype296.a(pir-sensor.o)
simBeeped           0x1               obj_cooja/mtype296.a(beep.o)
tcpip_event         0x1               obj_cooja/mtype296.a(tcpip.o)
uip_sappdata        0x4               obj_cooja/mtype296.a(uip6.o)
sensors_event       0x1               obj_cooja/mtype296.a(sensors.o)
dtls_clock_offset   0x4               obj_cooja/mtype296.a(dtls_time.o)
uip_udp_conns       0x180             obj_cooja/mtype296.a(uip6.o)
packetbuf_addrs     0x10              obj_cooja/mtype296.a(packetbuf.o)
uip_udp_conn        0x4               obj_cooja/mtype296.a(uip6.o)
simMoteIDChanged    0x1               obj_cooja/mtype296.a(moteid.o)
sensors_flags       0x4               obj_cooja/mtype296.o
uip_next_hdr        0x4               obj_cooja/mtype296.a(uip6.o)
it                  0x4               receiver.co
simMoteID           0x4               obj_cooja/mtype296.a(moteid.o)
uip_conn            0x4               obj_cooja/mtype296.a(uip6.o)

Discarded input sections

 .note.GNU-stack
                0x0000000000000000        0x0 /usr/lib/gcc/i686-linux-gnu/4.8/../../../i386-linux-gnu/crti.o
 .gnu_debuglink
                0x0000000000000000        0xc /usr/lib/gcc/i686-linux-gnu/4.8/../../../i386-linux-gnu/crti.o
 .group         0x0000000000000000        0x8 /usr/lib/gcc/i686-linux-gnu/4.8/crtbeginS.o
 .text.__x86.get_pc_thunk.bx
                0x0000000000000000        0x4 /usr/lib/gcc/i686-linux-gnu/4.8/crtbeginS.o
 .note.GNU-stack
                0x0000000000000000        0x0 /usr/lib/gcc/i686-linux-gnu/4.8/crtbeginS.o
 .note.GNU-stack
                0x0000000000000000        0x0 receiver.co
 .note.GNU-stack
                0x0000000000000000        0x0 obj_cooja/mtype296.o
 .note.GNU-stack
                0x0000000000000000        0x0 obj_cooja/mtype296.a(dtls.o)
 .note.GNU-stack
                0x0000000000000000        0x0 obj_cooja/mtype296.a(tinydtls-crypto)
 .note.GNU-stack
                0x0000000000000000        0x0 obj_cooja/mtype296.a(hmac.o)
 .note.GNU-stack
                0x0000000000000000        0x0 obj_cooja/mtype296.a(netq.o)
 .note.GNU-stack
                0x0000000000000000        0x0 obj_cooja/mtype296.a(dtls_time.o)
 .note.GNU-stack
                0x0000000000000000        0x0 obj_cooja/mtype296.a(peer.o)
 .note.GNU-stack
                0x0000000000000000        0x0 obj_cooja/mtype296.a(session.o)
 .note.GNU-stack
                0x0000000000000000        0x0 obj_cooja/mtype296.a(rijndael.o)
 .note.GNU-stack
                0x0000000000000000        0x0 obj_cooja/mtype296.a(tinydtls-ccm.o)
 .note.GNU-stack
                0x0000000000000000        0x0 obj_cooja/mtype296.a(sha2.o)
 .note.GNU-stack
                0x0000000000000000        0x0 obj_cooja/mtype296.a(debug.o)
 .note.GNU-stack
                0x0000000000000000        0x0 obj_cooja/mtype296.a(simEnvChange.o)
 .note.GNU-stack
                0x0000000000000000        0x0 obj_cooja/mtype296.a(cooja_mt.o)
 .note.GNU-stack
                0x0000000000000000        0x0 obj_cooja/mtype296.a(cooja_mtarch.o)
 .note.GNU-stack
                0x0000000000000000        0x0 obj_cooja/mtype296.a(rtimer-arch.o)
 .note.GNU-stack
                0x0000000000000000        0x0 obj_cooja/mtype296.a(beep.o)
 .note.GNU-stack
                0x0000000000000000        0x0 obj_cooja/mtype296.a(button-sensor.o)
 .note.GNU-stack
                0x0000000000000000        0x0 obj_cooja/mtype296.a(leds-arch.o)
 .note.GNU-stack
                0x0000000000000000        0x0 obj_cooja/mtype296.a(moteid.o)
 .note.GNU-stack
                0x0000000000000000        0x0 obj_cooja/mtype296.a(pir-sensor.o)
 .note.GNU-stack
                0x0000000000000000        0x0 obj_cooja/mtype296.a(rs232.o)
 .note.GNU-stack
                0x0000000000000000        0x0 obj_cooja/mtype296.a(vib-sensor.o)
 .note.GNU-stack
                0x0000000000000000        0x0 obj_cooja/mtype296.a(clock.o)
 .note.GNU-stack
                0x0000000000000000        0x0 obj_cooja/mtype296.a(log.o)
 .note.GNU-stack
                0x0000000000000000        0x0 obj_cooja/mtype296.a(cfs-cooja.o)
 .note.GNU-stack
                0x0000000000000000        0x0 obj_cooja/mtype296.a(cooja-radio.o)
 .note.GNU-stack
                0x0000000000000000        0x0 obj_cooja/mtype296.a(eeprom.o)
 .note.GNU-stack
                0x0000000000000000        0x0 obj_cooja/mtype296.a(random.o)
 .note.GNU-stack
                0x0000000000000000        0x0 obj_cooja/mtype296.a(sensors.o)
 .note.GNU-stack
                0x0000000000000000        0x0 obj_cooja/mtype296.a(autostart.o)
 .note.GNU-stack
                0x0000000000000000        0x0 obj_cooja/mtype296.a(ctimer.o)
 .note.GNU-stack
                0x0000000000000000        0x0 obj_cooja/mtype296.a(etimer.o)
 .note.GNU-stack
                0x0000000000000000        0x0 obj_cooja/mtype296.a(process.o)
 .note.GNU-stack
                0x0000000000000000        0x0 obj_cooja/mtype296.a(rtimer.o)
 .note.GNU-stack
                0x0000000000000000        0x0 obj_cooja/mtype296.a(timer.o)
 .note.GNU-stack
                0x0000000000000000        0x0 obj_cooja/mtype296.a(serial-line.o)
 .note.GNU-stack
                0x0000000000000000        0x0 obj_cooja/mtype296.a(assert.o)
 .note.GNU-stack
                0x0000000000000000        0x0 obj_cooja/mtype296.a(list.o)
 .note.GNU-stack
                0x0000000000000000        0x0 obj_cooja/mtype296.a(memb.o)
 .note.GNU-stack
                0x0000000000000000        0x0 obj_cooja/mtype296.a(ringbuf.o)
 .note.GNU-stack
                0x0000000000000000        0x0 obj_cooja/mtype296.a(sicslowpan.o)
 .note.GNU-stack
                0x0000000000000000        0x0 obj_cooja/mtype296.a(uip-ds6-nbr.o)
 .note.GNU-stack
                0x0000000000000000        0x0 obj_cooja/mtype296.a(uip-ds6-route.o)
 .note.GNU-stack
                0x0000000000000000        0x0 obj_cooja/mtype296.a(uip-ds6.o)
 .note.GNU-stack
                0x0000000000000000        0x0 obj_cooja/mtype296.a(uip-nd6.o)
 .note.GNU-stack
                0x0000000000000000        0x0 obj_cooja/mtype296.a(uip6.o)
 .note.GNU-stack
                0x0000000000000000        0x0 obj_cooja/mtype296.a(resolv.o)
 .note.GNU-stack
                0x0000000000000000        0x0 obj_cooja/mtype296.a(tcpip.o)
 .note.GNU-stack
                0x0000000000000000        0x0 obj_cooja/mtype296.a(uip-debug.o)
 .note.GNU-stack
                0x0000000000000000        0x0 obj_cooja/mtype296.a(uip-nameserver.)
 .note.GNU-stack
                0x0000000000000000        0x0 obj_cooja/mtype296.a(uip-packetqueue)
 .note.GNU-stack
                0x0000000000000000        0x0 obj_cooja/mtype296.a(uip-udp-packet.)
 .note.GNU-stack
                0x0000000000000000        0x0 obj_cooja/mtype296.a(uiplib.o)
 .note.GNU-stack
                0x0000000000000000        0x0 obj_cooja/mtype296.a(rpl-dag.o)
 .note.GNU-stack
                0x0000000000000000        0x0 obj_cooja/mtype296.a(rpl-ext-header.)
 .note.GNU-stack
                0x0000000000000000        0x0 obj_cooja/mtype296.a(rpl-icmp6.o)
 .note.GNU-stack
                0x0000000000000000        0x0 obj_cooja/mtype296.a(rpl-mrhof.o)
 .note.GNU-stack
                0x0000000000000000        0x0 obj_cooja/mtype296.a(rpl-timers.o)
 .note.GNU-stack
                0x0000000000000000        0x0 obj_cooja/mtype296.a(rpl.o)
 .note.GNU-stack
                0x0000000000000000        0x0 obj_cooja/mtype296.a(link-stats.o)
 .note.GNU-stack
                0x0000000000000000        0x0 obj_cooja/mtype296.a(linkaddr.o)
 .note.GNU-stack
                0x0000000000000000        0x0 obj_cooja/mtype296.a(nbr-table.o)
 .note.GNU-stack
                0x0000000000000000        0x0 obj_cooja/mtype296.a(netstack.o)
 .note.GNU-stack
                0x0000000000000000        0x0 obj_cooja/mtype296.a(packetbuf.o)
 .note.GNU-stack
                0x0000000000000000        0x0 obj_cooja/mtype296.a(queuebuf.o)
 .note.GNU-stack
                0x0000000000000000        0x0 obj_cooja/mtype296.a(csma.o)
 .note.GNU-stack
                0x0000000000000000        0x0 obj_cooja/mtype296.a(framer-802154.o)
 .note.GNU-stack
                0x0000000000000000        0x0 obj_cooja/mtype296.a(mac.o)
 .note.GNU-stack
                0x0000000000000000        0x0 obj_cooja/mtype296.a(nullrdc.o)
 .note.GNU-stack
                0x0000000000000000        0x0 obj_cooja/mtype296.a(nullsec.o)
 .note.GNU-stack
                0x0000000000000000        0x0 obj_cooja/mtype296.a(watchdog.o)
 .note.GNU-stack
                0x0000000000000000        0x0 obj_cooja/mtype296.a(rimestats.o)
 .note.GNU-stack
                0x0000000000000000        0x0 obj_cooja/mtype296.a(stimer.o)
 .note.GNU-stack
                0x0000000000000000        0x0 obj_cooja/mtype296.a(uip-icmp6.o)
 .note.GNU-stack
                0x0000000000000000        0x0 obj_cooja/mtype296.a(rpl-nbr-policy.)
 .note.GNU-stack
                0x0000000000000000        0x0 obj_cooja/mtype296.a(frame802154.o)
 .note.GNU-stack
                0x0000000000000000        0x0 obj_cooja/mtype296.a(mac-sequence.o)
 .note.GNU-stack
                0x0000000000000000        0x0 /usr/lib/gcc/i686-linux-gnu/4.8/crtendS.o
 .note.GNU-stack
                0x0000000000000000        0x0 /usr/lib/gcc/i686-linux-gnu/4.8/../../../i386-linux-gnu/crtn.o
 .gnu_debuglink
                0x0000000000000000        0xc /usr/lib/gcc/i686-linux-gnu/4.8/../../../i386-linux-gnu/crtn.o

Memory Configuration

Name             Origin             Length             Attributes
*default*        0x0000000000000000 0xffffffffffffffff

Linker script and memory map

LOAD /usr/lib/gcc/i686-linux-gnu/4.8/../../../i386-linux-gnu/crti.o
LOAD /usr/lib/gcc/i686-linux-gnu/4.8/crtbeginS.o
LOAD receiver.co
LOAD obj_cooja/mtype296.o
LOAD obj_cooja/mtype296.a
LOAD /usr/lib/gcc/i686-linux-gnu/4.8/libgcc.a
LOAD /usr/lib/gcc/i686-linux-gnu/4.8/libgcc_s.so
LOAD /usr/lib/gcc/i686-linux-gnu/4.8/../../../i386-linux-gnu/libc.so
START GROUP
LOAD /lib/i386-linux-gnu/libc.so.6
LOAD /usr/lib/i386-linux-gnu/libc_nonshared.a
LOAD /lib/i386-linux-gnu/ld-linux.so.2
END GROUP
LOAD /usr/lib/gcc/i686-linux-gnu/4.8/libgcc.a
LOAD /usr/lib/gcc/i686-linux-gnu/4.8/libgcc_s.so
LOAD /usr/lib/gcc/i686-linux-gnu/4.8/crtendS.o
LOAD /usr/lib/gcc/i686-linux-gnu/4.8/../../../i386-linux-gnu/crtn.o
                0x0000000000000114                . = (0x0 + SIZEOF_HEADERS)

.note.gnu.build-id
                0x0000000000000114       0x24
 *(.note.gnu.build-id)
 .note.gnu.build-id
                0x0000000000000114       0x24 /usr/lib/gcc/i686-linux-gnu/4.8/../../../i386-linux-gnu/crti.o

.hash
 *(.hash)

.gnu.hash       0x0000000000000138     0x13ec
 *(.gnu.hash)
 .gnu.hash      0x0000000000000138     0x13ec /usr/lib/gcc/i686-linux-gnu/4.8/../../../i386-linux-gnu/crti.o

.dynsym         0x0000000000001524     0x2850
 *(.dynsym)
 .dynsym        0x0000000000001524     0x2850 /usr/lib/gcc/i686-linux-gnu/4.8/../../../i386-linux-gnu/crti.o

.dynstr         0x0000000000003d74     0x297d
 *(.dynstr)
 .dynstr        0x0000000000003d74     0x297d /usr/lib/gcc/i686-linux-gnu/4.8/../../../i386-linux-gnu/crti.o

.gnu.version    0x00000000000066f2      0x50a
 *(.gnu.version)
 .gnu.version   0x00000000000066f2      0x50a /usr/lib/gcc/i686-linux-gnu/4.8/../../../i386-linux-gnu/crti.o

.gnu.version_d  0x0000000000006bfc        0x0
 *(.gnu.version_d)
 .gnu.version_d
                0x0000000000000000        0x0 /usr/lib/gcc/i686-linux-gnu/4.8/../../../i386-linux-gnu/crti.o

.gnu.version_r  0x0000000000006bfc       0x40
 *(.gnu.version_r)
 .gnu.version_r
                0x0000000000006bfc       0x40 /usr/lib/gcc/i686-linux-gnu/4.8/../../../i386-linux-gnu/crti.o

.rel.dyn        0x0000000000006c3c     0xac48
 *(.rel.init)
 .rel.init      0x0000000000000000        0x0 /usr/lib/gcc/i686-linux-gnu/4.8/../../../i386-linux-gnu/crti.o
 *(.rel.text .rel.text.* .rel.gnu.linkonce.t.*)
 .rel.text      0x0000000000000000        0x0 /usr/lib/gcc/i686-linux-gnu/4.8/../../../i386-linux-gnu/crti.o
 .rel.text.try_send
                0x0000000000006c3c       0x48 /usr/lib/gcc/i686-linux-gnu/4.8/../../../i386-linux-gnu/crti.o
 .rel.text.read_from_peer
                0x0000000000006c84       0x78 /usr/lib/gcc/i686-linux-gnu/4.8/../../../i386-linux-gnu/crti.o
 .rel.text.send_to_peer
                0x0000000000006cfc       0x18 /usr/lib/gcc/i686-linux-gnu/4.8/../../../i386-linux-gnu/crti.o
 .rel.text.get_psk_info
                0x0000000000006d14       0xa8 /usr/lib/gcc/i686-linux-gnu/4.8/../../../i386-linux-gnu/crti.o
 .rel.text.dtls_handle_read
                0x0000000000006dbc       0x80 /usr/lib/gcc/i686-linux-gnu/4.8/../../../i386-linux-gnu/crti.o
 .rel.text.print_local_addresses
                0x0000000000006e3c       0x40 /usr/lib/gcc/i686-linux-gnu/4.8/../../../i386-linux-gnu/crti.o
 .rel.text.set_global_address
                0x0000000000006e7c       0x20 /usr/lib/gcc/i686-linux-gnu/4.8/../../../i386-linux-gnu/crti.o
 .rel.text.set_connection_address
                0x0000000000006e9c       0x90 /usr/lib/gcc/i686-linux-gnu/4.8/../../../i386-linux-gnu/crti.o
 .rel.text.dtls_complete
                0x0000000000006f2c        0x8 /usr/lib/gcc/i686-linux-gnu/4.8/../../../i386-linux-gnu/crti.o
 .rel.text.init_dtls
                0x0000000000006f34       0x90 /usr/lib/gcc/i686-linux-gnu/4.8/../../../i386-linux-gnu/crti.o
 .rel.text.join_mcast_group
                0x0000000000006fc4       0x58 /usr/lib/gcc/i686-linux-gnu/4.8/../../../i386-linux-gnu/crti.o
 .rel.text.dtls_reqeust
                0x000000000000701c       0x30 /usr/lib/gcc/i686-linux-gnu/4.8/../../../i386-linux-gnu/crti.o
 .rel.text.process_thread_udp_client_process
                0x000000000000704c       0xf0 /usr/lib/gcc/i686-linux-gnu/4.8/../../../i386-linux-gnu/crti.o
 .rel.text.print_processes
                0x000000000000713c       0x28 /usr/lib/gcc/i686-linux-gnu/4.8/../../../i386-linux-gnu/crti.o
 .rel.text.rtimer_thread_loop
                0x0000000000007164       0x10 /usr/lib/gcc/i686-linux-gnu/4.8/../../../i386-linux-gnu/crti.o
 .rel.text.set_rime_addr
                0x0000000000007174       0x58 /usr/lib/gcc/i686-linux-gnu/4.8/../../../i386-linux-gnu/crti.o
 .rel.text.contiki_init
                0x00000000000071cc      0x1d0 /usr/lib/gcc/i686-linux-gnu/4.8/../../../i386-linux-gnu/crti.o
 .rel.text.process_run_thread_loop
                0x000000000000739c       0x70 /usr/lib/gcc/i686-linux-gnu/4.8/../../../i386-linux-gnu/crti.o
 .rel.text.Java_org_contikios_cooja_corecomm_Lib2_init
                0x000000000000740c       0x30 /usr/lib/gcc/i686-linux-gnu/4.8/../../../i386-linux-gnu/crti.o
 .rel.text.Java_org_contikios_cooja_corecomm_Lib2_getMemory
                0x000000000000743c        0x8 /usr/lib/gcc/i686-linux-gnu/4.8/../../../i386-linux-gnu/crti.o
 .rel.text.Java_org_contikios_cooja_corecomm_Lib2_setMemory
                0x0000000000007444       0x10 /usr/lib/gcc/i686-linux-gnu/4.8/../../../i386-linux-gnu/crti.o
 .rel.text.Java_org_contikios_cooja_corecomm_Lib2_tick
                0x0000000000007454       0x70 /usr/lib/gcc/i686-linux-gnu/4.8/../../../i386-linux-gnu/crti.o
 .rel.text.Java_org_contikios_cooja_corecomm_Lib2_setReferenceAddress
                0x00000000000074c4       0x10 /usr/lib/gcc/i686-linux-gnu/4.8/../../../i386-linux-gnu/crti.o
 .rel.text.dtls_hash_init
                0x00000000000074d4       0x18 /usr/lib/gcc/i686-linux-gnu/4.8/../../../i386-linux-gnu/crti.o
 .rel.text.dtls_hash_update
                0x00000000000074ec       0x10 /usr/lib/gcc/i686-linux-gnu/4.8/../../../i386-linux-gnu/crti.o
 .rel.text.dtls_hash_finalize
                0x00000000000074fc       0x10 /usr/lib/gcc/i686-linux-gnu/4.8/../../../i386-linux-gnu/crti.o
 .rel.text.dtls_security_params_next
                0x000000000000750c       0x10 /usr/lib/gcc/i686-linux-gnu/4.8/../../../i386-linux-gnu/crti.o
 .rel.text.dtls_security_params_free_other
                0x000000000000751c        0x8 /usr/lib/gcc/i686-linux-gnu/4.8/../../../i386-linux-gnu/crti.o
 .rel.text.dtls_prng
                0x0000000000007524       0x18 /usr/lib/gcc/i686-linux-gnu/4.8/../../../i386-linux-gnu/crti.o
 .rel.text.malloc_context
                0x000000000000753c        0x8 /usr/lib/gcc/i686-linux-gnu/4.8/../../../i386-linux-gnu/crti.o
 .rel.text.dtls_init
                0x0000000000007544       0x20 /usr/lib/gcc/i686-linux-gnu/4.8/../../../i386-linux-gnu/crti.o
 .rel.text.dtls_get_peer
                0x0000000000007564       0x18 /usr/lib/gcc/i686-linux-gnu/4.8/../../../i386-linux-gnu/crti.o
 .rel.text.dtls_add_peer
                0x000000000000757c        0x8 /usr/lib/gcc/i686-linux-gnu/4.8/../../../i386-linux-gnu/crti.o
 .rel.text.dtls_write
                0x0000000000007584       0x20 /usr/lib/gcc/i686-linux-gnu/4.8/../../../i386-linux-gnu/crti.o
 .rel.text.dtls_create_cookie
                0x00000000000075a4       0x40 /usr/lib/gcc/i686-linux-gnu/4.8/../../../i386-linux-gnu/crti.o
 .rel.text.dtls_set_record_header
                0x00000000000075e4       0x10 /usr/lib/gcc/i686-linux-gnu/4.8/../../../i386-linux-gnu/crti.o
 .rel.text.dtls_set_handshake_header
                0x00000000000075f4        0x8 /usr/lib/gcc/i686-linux-gnu/4.8/../../../i386-linux-gnu/crti.o
 .rel.text.dtls_debug_keyblock
                0x00000000000075fc       0x70 /usr/lib/gcc/i686-linux-gnu/4.8/../../../i386-linux-gnu/crti.o
 .rel.text.dtls_handshake_type_to_name
                0x000000000000766c       0x68 /usr/lib/gcc/i686-linux-gnu/4.8/../../../i386-linux-gnu/crti.o
 .rel.text.calculate_key_block
                0x00000000000076d4       0xb8 /usr/lib/gcc/i686-linux-gnu/4.8/../../../i386-linux-gnu/crti.o
 .rel.text.dtls_check_tls_extension
                0x000000000000778c       0x30 /usr/lib/gcc/i686-linux-gnu/4.8/../../../i386-linux-gnu/crti.o
 .rel.text.dtls_update_parameters
                0x00000000000077bc       0x48 /usr/lib/gcc/i686-linux-gnu/4.8/../../../i386-linux-gnu/crti.o
 .rel.text.check_client_keyexchange
                0x0000000000007804       0x38 /usr/lib/gcc/i686-linux-gnu/4.8/../../../i386-linux-gnu/crti.o
 .rel.text.update_hs_hash
                0x000000000000783c       0x10 /usr/lib/gcc/i686-linux-gnu/4.8/../../../i386-linux-gnu/crti.o
 .rel.text.copy_hs_hash
                0x000000000000784c        0x8 /usr/lib/gcc/i686-linux-gnu/4.8/../../../i386-linux-gnu/crti.o
 .rel.text.clear_hs_hash
                0x0000000000007854       0x20 /usr/lib/gcc/i686-linux-gnu/4.8/../../../i386-linux-gnu/crti.o
 .rel.text.check_finished
                0x0000000000007874       0x58 /usr/lib/gcc/i686-linux-gnu/4.8/../../../i386-linux-gnu/crti.o
 .rel.text.dtls_prepare_record
                0x00000000000078cc      0x130 /usr/lib/gcc/i686-linux-gnu/4.8/../../../i386-linux-gnu/crti.o
 .rel.text.dtls_send_handshake_msg_hash
                0x00000000000079fc       0x18 /usr/lib/gcc/i686-linux-gnu/4.8/../../../i386-linux-gnu/crti.o
 .rel.text.dtls_encrypt_data
                0x0000000000007a14       0x20 /usr/lib/gcc/i686-linux-gnu/4.8/../../../i386-linux-gnu/crti.o
 .rel.text.dtls_encrypt_x
                0x0000000000007a34       0x10 /usr/lib/gcc/i686-linux-gnu/4.8/../../../i386-linux-gnu/crti.o
 .rel.text.dtls_prepare_record_x
                0x0000000000007a44       0x80 /usr/lib/gcc/i686-linux-gnu/4.8/../../../i386-linux-gnu/crti.o
 .rel.text.dtls_send_multi
                0x0000000000007ac4       0x98 /usr/lib/gcc/i686-linux-gnu/4.8/../../../i386-linux-gnu/crti.o
 .rel.text.dtls_close
                0x0000000000007b5c       0x30 /usr/lib/gcc/i686-linux-gnu/4.8/../../../i386-linux-gnu/crti.o
 .rel.text.dtls_destroy_peer
                0x0000000000007b8c       0x28 /usr/lib/gcc/i686-linux-gnu/4.8/../../../i386-linux-gnu/crti.o
 .rel.text.dtls_verify_peer
                0x0000000000007bb4       0xa0 /usr/lib/gcc/i686-linux-gnu/4.8/../../../i386-linux-gnu/crti.o
 .rel.text.dtls_send_server_hello
                0x0000000000007c54       0x30 /usr/lib/gcc/i686-linux-gnu/4.8/../../../i386-linux-gnu/crti.o
 .rel.text.dtls_send_server_key_exchange_psk
                0x0000000000007c84       0x40 /usr/lib/gcc/i686-linux-gnu/4.8/../../../i386-linux-gnu/crti.o
 .rel.text.dtls_send_server_hello_msgs
                0x0000000000007cc4       0x48 /usr/lib/gcc/i686-linux-gnu/4.8/../../../i386-linux-gnu/crti.o
 .rel.text.dtls_send_client_key_exchange
                0x0000000000007d0c       0x60 /usr/lib/gcc/i686-linux-gnu/4.8/../../../i386-linux-gnu/crti.o
 .rel.text.dtls_send_finished
                0x0000000000007d6c       0x38 /usr/lib/gcc/i686-linux-gnu/4.8/../../../i386-linux-gnu/crti.o
 .rel.text.dtls_send_client_hello
                0x0000000000007da4       0x50 /usr/lib/gcc/i686-linux-gnu/4.8/../../../i386-linux-gnu/crti.o
 .rel.text.check_server_hello
                0x0000000000007df4       0x38 /usr/lib/gcc/i686-linux-gnu/4.8/../../../i386-linux-gnu/crti.o
 .rel.text.check_server_hello_verify_request
                0x0000000000007e2c       0x10 /usr/lib/gcc/i686-linux-gnu/4.8/../../../i386-linux-gnu/crti.o
 .rel.text.check_server_key_exchange_psk
                0x0000000000007e3c       0x48 /usr/lib/gcc/i686-linux-gnu/4.8/../../../i386-linux-gnu/crti.o
 .rel.text.check_certificate_request
                0x0000000000007e84       0x60 /usr/lib/gcc/i686-linux-gnu/4.8/../../../i386-linux-gnu/crti.o
 .rel.text.check_server_hellodone
                0x0000000000007ee4       0x28 /usr/lib/gcc/i686-linux-gnu/4.8/../../../i386-linux-gnu/crti.o
 .rel.text.decrypt_verify
                0x0000000000007f0c       0xc8 /usr/lib/gcc/i686-linux-gnu/4.8/../../../i386-linux-gnu/crti.o
 .rel.text.dtls_renegotiate
                0x0000000000007fd4       0x20 /usr/lib/gcc/i686-linux-gnu/4.8/../../../i386-linux-gnu/crti.o
 .rel.text.handle_handshake_msg
                0x0000000000007ff4      0x150 /usr/lib/gcc/i686-linux-gnu/4.8/../../../i386-linux-gnu/crti.o
 .rel.text.handle_handshake
                0x0000000000008144       0xe8 /usr/lib/gcc/i686-linux-gnu/4.8/../../../i386-linux-gnu/crti.o
 .rel.text.handle_ccs
                0x000000000000822c       0x10 /usr/lib/gcc/i686-linux-gnu/4.8/../../../i386-linux-gnu/crti.o
 .rel.text.handle_alert
                0x000000000000823c       0x48 /usr/lib/gcc/i686-linux-gnu/4.8/../../../i386-linux-gnu/crti.o
 .rel.text.dtls_alert_send_from_err
                0x0000000000008284       0x10 /usr/lib/gcc/i686-linux-gnu/4.8/../../../i386-linux-gnu/crti.o
 .rel.text.dtls_handle_message
                0x0000000000008294      0x180 /usr/lib/gcc/i686-linux-gnu/4.8/../../../i386-linux-gnu/crti.o
 .rel.text.dtls_new_context
                0x0000000000008414       0x70 /usr/lib/gcc/i686-linux-gnu/4.8/../../../i386-linux-gnu/crti.o
 .rel.text.dtls_free_context
                0x0000000000008484       0x20 /usr/lib/gcc/i686-linux-gnu/4.8/../../../i386-linux-gnu/crti.o
 .rel.text.dtls_connect_peer
                0x00000000000084a4       0x50 /usr/lib/gcc/i686-linux-gnu/4.8/../../../i386-linux-gnu/crti.o
 .rel.text.dtls_connect
                0x00000000000084f4       0x38 /usr/lib/gcc/i686-linux-gnu/4.8/../../../i386-linux-gnu/crti.o
 .rel.text.dtls_retransmit
                0x000000000000852c       0x98 /usr/lib/gcc/i686-linux-gnu/4.8/../../../i386-linux-gnu/crti.o
 .rel.text.dtls_stop_retransmission
                0x00000000000085c4       0x30 /usr/lib/gcc/i686-linux-gnu/4.8/../../../i386-linux-gnu/crti.o
 .rel.text.dtls_check_retransmit
                0x00000000000085f4       0x20 /usr/lib/gcc/i686-linux-gnu/4.8/../../../i386-linux-gnu/crti.o
 .rel.text.process_thread_dtls_retransmit_process
                0x0000000000008614       0xb0 /usr/lib/gcc/i686-linux-gnu/4.8/../../../i386-linux-gnu/crti.o
 .rel.text.dtls_cipher_context_get
                0x00000000000086c4        0x8 /usr/lib/gcc/i686-linux-gnu/4.8/../../../i386-linux-gnu/crti.o
 .rel.text.dtls_crypto_init
                0x00000000000086cc       0x20 /usr/lib/gcc/i686-linux-gnu/4.8/../../../i386-linux-gnu/crti.o
 .rel.text.dtls_handshake_malloc
                0x00000000000086ec       0x10 /usr/lib/gcc/i686-linux-gnu/4.8/../../../i386-linux-gnu/crti.o
 .rel.text.dtls_handshake_dealloc
                0x00000000000086fc       0x10 /usr/lib/gcc/i686-linux-gnu/4.8/../../../i386-linux-gnu/crti.o
 .rel.text.dtls_security_malloc
                0x000000000000870c       0x10 /usr/lib/gcc/i686-linux-gnu/4.8/../../../i386-linux-gnu/crti.o
 .rel.text.dtls_security_dealloc
                0x000000000000871c       0x10 /usr/lib/gcc/i686-linux-gnu/4.8/../../../i386-linux-gnu/crti.o
 .rel.text.dtls_handshake_new
                0x000000000000872c       0x28 /usr/lib/gcc/i686-linux-gnu/4.8/../../../i386-linux-gnu/crti.o
 .rel.text.dtls_handshake_free
                0x0000000000008754        0x8 /usr/lib/gcc/i686-linux-gnu/4.8/../../../i386-linux-gnu/crti.o
 .rel.text.dtls_security_new
                0x000000000000875c       0x18 /usr/lib/gcc/i686-linux-gnu/4.8/../../../i386-linux-gnu/crti.o
 .rel.text.dtls_p_hash
                0x0000000000008774       0xd0 /usr/lib/gcc/i686-linux-gnu/4.8/../../../i386-linux-gnu/crti.o
 .rel.text.dtls_prf
                0x0000000000008844       0x10 /usr/lib/gcc/i686-linux-gnu/4.8/../../../i386-linux-gnu/crti.o
 .rel.text.dtls_prf_custom
                0x0000000000008854       0x18 /usr/lib/gcc/i686-linux-gnu/4.8/../../../i386-linux-gnu/crti.o
 .rel.text.dtls_mac
                0x000000000000886c       0x38 /usr/lib/gcc/i686-linux-gnu/4.8/../../../i386-linux-gnu/crti.o
 .rel.text.dtls_ccm_encrypt
                0x00000000000088a4       0x18 /usr/lib/gcc/i686-linux-gnu/4.8/../../../i386-linux-gnu/crti.o
 .rel.text.dtls_ccm_decrypt
                0x00000000000088bc       0x18 /usr/lib/gcc/i686-linux-gnu/4.8/../../../i386-linux-gnu/crti.o
 .rel.text.dtls_psk_pre_master_secret
                0x00000000000088d4       0x18 /usr/lib/gcc/i686-linux-gnu/4.8/../../../i386-linux-gnu/crti.o
 .rel.text.dtls_encrypt
                0x00000000000088ec       0x20 /usr/lib/gcc/i686-linux-gnu/4.8/../../../i386-linux-gnu/crti.o
 .rel.text.dtls_decrypt
                0x000000000000890c       0x20 /usr/lib/gcc/i686-linux-gnu/4.8/../../../i386-linux-gnu/crti.o
 .rel.text.dtls_hmac_context_new
                0x000000000000892c       0x10 /usr/lib/gcc/i686-linux-gnu/4.8/../../../i386-linux-gnu/crti.o
 .rel.text.dtls_hmac_context_free
                0x000000000000893c       0x10 /usr/lib/gcc/i686-linux-gnu/4.8/../../../i386-linux-gnu/crti.o
 .rel.text.dtls_hmac_storage_init
                0x000000000000894c       0x10 /usr/lib/gcc/i686-linux-gnu/4.8/../../../i386-linux-gnu/crti.o
 .rel.text.dtls_hmac_update
                0x000000000000895c       0x10 /usr/lib/gcc/i686-linux-gnu/4.8/../../../i386-linux-gnu/crti.o
 .rel.text.dtls_hmac_new
                0x000000000000896c        0x8 /usr/lib/gcc/i686-linux-gnu/4.8/../../../i386-linux-gnu/crti.o
 .rel.text.dtls_hmac_init
                0x0000000000008974       0x28 /usr/lib/gcc/i686-linux-gnu/4.8/../../../i386-linux-gnu/crti.o
 .rel.text.dtls_hmac_finalize
                0x000000000000899c       0x28 /usr/lib/gcc/i686-linux-gnu/4.8/../../../i386-linux-gnu/crti.o
 .rel.text.netq_malloc_node
                0x00000000000089c4       0x10 /usr/lib/gcc/i686-linux-gnu/4.8/../../../i386-linux-gnu/crti.o
 .rel.text.netq_free_node
                0x00000000000089d4       0x10 /usr/lib/gcc/i686-linux-gnu/4.8/../../../i386-linux-gnu/crti.o
 .rel.text.netq_init
                0x00000000000089e4       0x10 /usr/lib/gcc/i686-linux-gnu/4.8/../../../i386-linux-gnu/crti.o
 .rel.text.netq_insert_node
                0x00000000000089f4       0x48 /usr/lib/gcc/i686-linux-gnu/4.8/../../../i386-linux-gnu/crti.o
 .rel.text.netq_head
                0x0000000000008a3c        0x8 /usr/lib/gcc/i686-linux-gnu/4.8/../../../i386-linux-gnu/crti.o
 .rel.text.netq_next
                0x0000000000008a44        0x8 /usr/lib/gcc/i686-linux-gnu/4.8/../../../i386-linux-gnu/crti.o
 .rel.text.netq_remove
                0x0000000000008a4c        0x8 /usr/lib/gcc/i686-linux-gnu/4.8/../../../i386-linux-gnu/crti.o
 .rel.text.netq_pop_first
                0x0000000000008a54        0x8 /usr/lib/gcc/i686-linux-gnu/4.8/../../../i386-linux-gnu/crti.o
 .rel.text.netq_node_new
                0x0000000000008a5c       0x18 /usr/lib/gcc/i686-linux-gnu/4.8/../../../i386-linux-gnu/crti.o
 .rel.text.netq_delete_all
                0x0000000000008a74        0x8 /usr/lib/gcc/i686-linux-gnu/4.8/../../../i386-linux-gnu/crti.o
 .rel.text.dtls_clock_init
                0x0000000000008a7c       0x10 /usr/lib/gcc/i686-linux-gnu/4.8/../../../i386-linux-gnu/crti.o
 .rel.text.dtls_ticks
                0x0000000000008a8c        0x8 /usr/lib/gcc/i686-linux-gnu/4.8/../../../i386-linux-gnu/crti.o
 .rel.text.peer_init
                0x0000000000008a94       0x10 /usr/lib/gcc/i686-linux-gnu/4.8/../../../i386-linux-gnu/crti.o
 .rel.text.dtls_malloc_peer
                0x0000000000008aa4       0x10 /usr/lib/gcc/i686-linux-gnu/4.8/../../../i386-linux-gnu/crti.o
 .rel.text.dtls_free_peer
                0x0000000000008ab4       0x28 /usr/lib/gcc/i686-linux-gnu/4.8/../../../i386-linux-gnu/crti.o
 .rel.text.dtls_new_peer
                0x0000000000008adc       0x30 /usr/lib/gcc/i686-linux-gnu/4.8/../../../i386-linux-gnu/crti.o
 .rel.text.dtls_session_init
                0x0000000000008b0c       0x18 /usr/lib/gcc/i686-linux-gnu/4.8/../../../i386-linux-gnu/crti.o
 .rel.text.dtls_session_equals
                0x0000000000008b24       0x28 /usr/lib/gcc/i686-linux-gnu/4.8/../../../i386-linux-gnu/crti.o
 .rel.text.rijndaelKeySetupEnc
                0x0000000000008b4c       0x98 /usr/lib/gcc/i686-linux-gnu/4.8/../../../i386-linux-gnu/crti.o
 .rel.text.rijndaelEncrypt
                0x0000000000008be4      0x180 /usr/lib/gcc/i686-linux-gnu/4.8/../../../i386-linux-gnu/crti.o
 .rel.text.rijndael_set_key_enc_only
                0x0000000000008d64        0x8 /usr/lib/gcc/i686-linux-gnu/4.8/../../../i386-linux-gnu/crti.o
 .rel.text.rijndael_encrypt
                0x0000000000008d6c        0x8 /usr/lib/gcc/i686-linux-gnu/4.8/../../../i386-linux-gnu/crti.o
 .rel.text.block0
                0x0000000000008d74        0x8 /usr/lib/gcc/i686-linux-gnu/4.8/../../../i386-linux-gnu/crti.o
 .rel.text.add_auth_data
                0x0000000000008d7c       0x50 /usr/lib/gcc/i686-linux-gnu/4.8/../../../i386-linux-gnu/crti.o
 .rel.text.encrypt
                0x0000000000008dcc       0x38 /usr/lib/gcc/i686-linux-gnu/4.8/../../../i386-linux-gnu/crti.o
 .rel.text.mac  0x0000000000008e04        0x8 /usr/lib/gcc/i686-linux-gnu/4.8/../../../i386-linux-gnu/crti.o
 .rel.text.dtls_ccm_encrypt_message
                0x0000000000008e0c       0x28 /usr/lib/gcc/i686-linux-gnu/4.8/../../../i386-linux-gnu/crti.o
 .rel.text.dtls_ccm_decrypt_message
                0x0000000000008e34       0x28 /usr/lib/gcc/i686-linux-gnu/4.8/../../../i386-linux-gnu/crti.o
 .rel.text.SHA256_Init
                0x0000000000008e5c       0x18 /usr/lib/gcc/i686-linux-gnu/4.8/../../../i386-linux-gnu/crti.o
 .rel.text.SHA256_Transform
                0x0000000000008e74       0x10 /usr/lib/gcc/i686-linux-gnu/4.8/../../../i386-linux-gnu/crti.o
 .rel.text.SHA256_Update
                0x0000000000008e84       0x38 /usr/lib/gcc/i686-linux-gnu/4.8/../../../i386-linux-gnu/crti.o
 .rel.text.SHA256_Final
                0x0000000000008ebc       0x48 /usr/lib/gcc/i686-linux-gnu/4.8/../../../i386-linux-gnu/crti.o
 .rel.text.SHA256_End
                0x0000000000008f04       0x40 /usr/lib/gcc/i686-linux-gnu/4.8/../../../i386-linux-gnu/crti.o
 .rel.text.SHA256_Data
                0x0000000000008f44       0x20 /usr/lib/gcc/i686-linux-gnu/4.8/../../../i386-linux-gnu/crti.o
 .rel.text.dtls_package_name
                0x0000000000008f64        0x8 /usr/lib/gcc/i686-linux-gnu/4.8/../../../i386-linux-gnu/crti.o
 .rel.text.dtls_package_version
                0x0000000000008f6c        0x8 /usr/lib/gcc/i686-linux-gnu/4.8/../../../i386-linux-gnu/crti.o
 .rel.text.dtls_get_log_level
                0x0000000000008f74        0x8 /usr/lib/gcc/i686-linux-gnu/4.8/../../../i386-linux-gnu/crti.o
 .rel.text.dtls_set_log_level
                0x0000000000008f7c        0x8 /usr/lib/gcc/i686-linux-gnu/4.8/../../../i386-linux-gnu/crti.o
 .rel.text.dsrv_print_addr
                0x0000000000008f84       0x20 /usr/lib/gcc/i686-linux-gnu/4.8/../../../i386-linux-gnu/crti.o
 .rel.text.hexdump
                0x0000000000008fa4       0x40 /usr/lib/gcc/i686-linux-gnu/4.8/../../../i386-linux-gnu/crti.o
 .rel.text.dump
                0x0000000000008fe4       0x10 /usr/lib/gcc/i686-linux-gnu/4.8/../../../i386-linux-gnu/crti.o
 .rel.text.dtls_dsrv_log_addr
                0x0000000000008ff4       0x18 /usr/lib/gcc/i686-linux-gnu/4.8/../../../i386-linux-gnu/crti.o
 .rel.text.dtls_dsrv_hexdump_log
                0x000000000000900c       0xc8 /usr/lib/gcc/i686-linux-gnu/4.8/../../../i386-linux-gnu/crti.o
 .rel.text.doActionsBeforeTick
                0x00000000000090d4       0x10 /usr/lib/gcc/i686-linux-gnu/4.8/../../../i386-linux-gnu/crti.o
 .rel.text.doActionsAfterTick
                0x00000000000090e4       0x10 /usr/lib/gcc/i686-linux-gnu/4.8/../../../i386-linux-gnu/crti.o
 .rel.text.cooja_mt_init
                0x00000000000090f4        0x8 /usr/lib/gcc/i686-linux-gnu/4.8/../../../i386-linux-gnu/crti.o
 .rel.text.cooja_mt_remove
                0x00000000000090fc        0x8 /usr/lib/gcc/i686-linux-gnu/4.8/../../../i386-linux-gnu/crti.o
 .rel.text.cooja_mt_start
                0x0000000000009104        0x8 /usr/lib/gcc/i686-linux-gnu/4.8/../../../i386-linux-gnu/crti.o
 .rel.text.cooja_mt_exec
                0x000000000000910c       0x10 /usr/lib/gcc/i686-linux-gnu/4.8/../../../i386-linux-gnu/crti.o
 .rel.text.cooja_mt_exit
                0x000000000000911c       0x18 /usr/lib/gcc/i686-linux-gnu/4.8/../../../i386-linux-gnu/crti.o
 .rel.text.cooja_mt_yield
                0x0000000000009134       0x18 /usr/lib/gcc/i686-linux-gnu/4.8/../../../i386-linux-gnu/crti.o
 .rel.text.cooja_mtarch_start
                0x000000000000914c        0x8 /usr/lib/gcc/i686-linux-gnu/4.8/../../../i386-linux-gnu/crti.o
 .rel.text.cooja_sw
                0x0000000000009154        0x8 /usr/lib/gcc/i686-linux-gnu/4.8/../../../i386-linux-gnu/crti.o
 .rel.text.cooja_mtarch_exec
                0x000000000000915c       0x18 /usr/lib/gcc/i686-linux-gnu/4.8/../../../i386-linux-gnu/crti.o
 .rel.text.cooja_mtarch_yield
                0x0000000000009174        0x8 /usr/lib/gcc/i686-linux-gnu/4.8/../../../i386-linux-gnu/crti.o
 .rel.text.rtimer_arch_init
                0x000000000000917c       0x18 /usr/lib/gcc/i686-linux-gnu/4.8/../../../i386-linux-gnu/crti.o
 .rel.text.rtimer_arch_schedule
                0x0000000000009194       0x18 /usr/lib/gcc/i686-linux-gnu/4.8/../../../i386-linux-gnu/crti.o
 .rel.text.rtimer_arch_next
                0x00000000000091ac       0x10 /usr/lib/gcc/i686-linux-gnu/4.8/../../../i386-linux-gnu/crti.o
 .rel.text.rtimer_arch_pending
                0x00000000000091bc        0x8 /usr/lib/gcc/i686-linux-gnu/4.8/../../../i386-linux-gnu/crti.o
 .rel.text.rtimer_arch_check
                0x00000000000091c4       0x30 /usr/lib/gcc/i686-linux-gnu/4.8/../../../i386-linux-gnu/crti.o
 .rel.text.rtimer_arch_now
                0x00000000000091f4       0x10 /usr/lib/gcc/i686-linux-gnu/4.8/../../../i386-linux-gnu/crti.o
 .rel.text.beep_alarm
                0x0000000000009204        0x8 /usr/lib/gcc/i686-linux-gnu/4.8/../../../i386-linux-gnu/crti.o
 .rel.text.beep_beep
                0x000000000000920c        0x8 /usr/lib/gcc/i686-linux-gnu/4.8/../../../i386-linux-gnu/crti.o
 .rel.text.beep
                0x0000000000009214        0x8 /usr/lib/gcc/i686-linux-gnu/4.8/../../../i386-linux-gnu/crti.o
 .rel.text.beep_down
                0x000000000000921c        0x8 /usr/lib/gcc/i686-linux-gnu/4.8/../../../i386-linux-gnu/crti.o
 .rel.text.beep_on
                0x0000000000009224        0x8 /usr/lib/gcc/i686-linux-gnu/4.8/../../../i386-linux-gnu/crti.o
 .rel.text.beep_off
                0x000000000000922c        0x8 /usr/lib/gcc/i686-linux-gnu/4.8/../../../i386-linux-gnu/crti.o
 .rel.text.beep_spinup
                0x0000000000009234        0x8 /usr/lib/gcc/i686-linux-gnu/4.8/../../../i386-linux-gnu/crti.o
 .rel.text.beep_quick
                0x000000000000923c        0x8 /usr/lib/gcc/i686-linux-gnu/4.8/../../../i386-linux-gnu/crti.o
 .rel.text.beep_long
                0x0000000000009244        0x8 /usr/lib/gcc/i686-linux-gnu/4.8/../../../i386-linux-gnu/crti.o
 .rel.text.value
                0x000000000000924c       0x28 /usr/lib/gcc/i686-linux-gnu/4.8/../../../i386-linux-gnu/crti.o
 .rel.text.configure
                0x0000000000009274       0x40 /usr/lib/gcc/i686-linux-gnu/4.8/../../../i386-linux-gnu/crti.o
 .rel.text.status
                0x00000000000092b4       0x18 /usr/lib/gcc/i686-linux-gnu/4.8/../../../i386-linux-gnu/crti.o
 .rel.text.doInterfaceActionsBeforeTick
                0x00000000000092cc      0x188 /usr/lib/gcc/i686-linux-gnu/4.8/../../../i386-linux-gnu/crti.o
 .rel.text.leds_arch_init
                0x0000000000009454        0x8 /usr/lib/gcc/i686-linux-gnu/4.8/../../../i386-linux-gnu/crti.o
 .rel.text.leds_arch_get
                0x000000000000945c        0x8 /usr/lib/gcc/i686-linux-gnu/4.8/../../../i386-linux-gnu/crti.o
 .rel.text.leds_arch_set
                0x0000000000009464       0x10 /usr/lib/gcc/i686-linux-gnu/4.8/../../../i386-linux-gnu/crti.o
 .rel.text.rs232_set_input
                0x0000000000009474        0x8 /usr/lib/gcc/i686-linux-gnu/4.8/../../../i386-linux-gnu/crti.o
 .rel.text.rs232_send
                0x000000000000947c       0x10 /usr/lib/gcc/i686-linux-gnu/4.8/../../../i386-linux-gnu/crti.o
 .rel.text.rs232_print
                0x000000000000948c       0x10 /usr/lib/gcc/i686-linux-gnu/4.8/../../../i386-linux-gnu/crti.o
 .rel.text.slip_arch_writeb
                0x000000000000949c        0x8 /usr/lib/gcc/i686-linux-gnu/4.8/../../../i386-linux-gnu/crti.o
 .rel.text.clock_time
                0x00000000000094a4        0x8 /usr/lib/gcc/i686-linux-gnu/4.8/../../../i386-linux-gnu/crti.o
 .rel.text.clock_seconds
                0x00000000000094ac        0x8 /usr/lib/gcc/i686-linux-gnu/4.8/../../../i386-linux-gnu/crti.o
 .rel.text.simlog_char
                0x00000000000094b4       0x30 /usr/lib/gcc/i686-linux-gnu/4.8/../../../i386-linux-gnu/crti.o
 .rel.text.simlog
                0x00000000000094e4       0x50 /usr/lib/gcc/i686-linux-gnu/4.8/../../../i386-linux-gnu/crti.o
 .rel.text.log_message
                0x0000000000009534       0x10 /usr/lib/gcc/i686-linux-gnu/4.8/../../../i386-linux-gnu/crti.o
 .rel.text.log_set_putchar_with_slip
                0x0000000000009544        0x8 /usr/lib/gcc/i686-linux-gnu/4.8/../../../i386-linux-gnu/crti.o
 .rel.text.putchar
                0x000000000000954c       0x50 /usr/lib/gcc/i686-linux-gnu/4.8/../../../i386-linux-gnu/crti.o
 .rel.text.puts
                0x000000000000959c       0x10 /usr/lib/gcc/i686-linux-gnu/4.8/../../../i386-linux-gnu/crti.o
 .rel.text.printf
                0x00000000000095ac       0x20 /usr/lib/gcc/i686-linux-gnu/4.8/../../../i386-linux-gnu/crti.o
 .rel.text.cfs_open
                0x00000000000095cc       0x48 /usr/lib/gcc/i686-linux-gnu/4.8/../../../i386-linux-gnu/crti.o
 .rel.text.cfs_close
                0x0000000000009614        0x8 /usr/lib/gcc/i686-linux-gnu/4.8/../../../i386-linux-gnu/crti.o
 .rel.text.cfs_read
                0x000000000000961c       0x70 /usr/lib/gcc/i686-linux-gnu/4.8/../../../i386-linux-gnu/crti.o
 .rel.text.cfs_write
                0x000000000000968c       0xb0 /usr/lib/gcc/i686-linux-gnu/4.8/../../../i386-linux-gnu/crti.o
 .rel.text.cfs_seek
                0x000000000000973c       0x68 /usr/lib/gcc/i686-linux-gnu/4.8/../../../i386-linux-gnu/crti.o
 .rel.text.cfs_remove
                0x00000000000097a4       0x10 /usr/lib/gcc/i686-linux-gnu/4.8/../../../i386-linux-gnu/crti.o
 .rel.text.packetbuf_set_attr
                0x00000000000097b4       0x30 /usr/lib/gcc/i686-linux-gnu/4.8/../../../i386-linux-gnu/crti.o
 .rel.text.set_send_on_cca
                0x00000000000097e4        0x8 /usr/lib/gcc/i686-linux-gnu/4.8/../../../i386-linux-gnu/crti.o
 .rel.text.set_frame_filtering
                0x00000000000097ec        0x8 /usr/lib/gcc/i686-linux-gnu/4.8/../../../i386-linux-gnu/crti.o
 .rel.text.set_auto_ack
                0x00000000000097f4        0x8 /usr/lib/gcc/i686-linux-gnu/4.8/../../../i386-linux-gnu/crti.o
 .rel.text.set_poll_mode
                0x00000000000097fc        0x8 /usr/lib/gcc/i686-linux-gnu/4.8/../../../i386-linux-gnu/crti.o
 .rel.text.radio_set_channel
                0x0000000000009804        0x8 /usr/lib/gcc/i686-linux-gnu/4.8/../../../i386-linux-gnu/crti.o
 .rel.text.radio_set_txpower
                0x000000000000980c        0x8 /usr/lib/gcc/i686-linux-gnu/4.8/../../../i386-linux-gnu/crti.o
 .rel.text.radio_signal_strength_last
                0x0000000000009814        0x8 /usr/lib/gcc/i686-linux-gnu/4.8/../../../i386-linux-gnu/crti.o
 .rel.text.radio_signal_strength_current
                0x000000000000981c        0x8 /usr/lib/gcc/i686-linux-gnu/4.8/../../../i386-linux-gnu/crti.o
 .rel.text.radio_LQI
                0x0000000000009824        0x8 /usr/lib/gcc/i686-linux-gnu/4.8/../../../i386-linux-gnu/crti.o
 .rel.text.radio_on
                0x000000000000982c        0x8 /usr/lib/gcc/i686-linux-gnu/4.8/../../../i386-linux-gnu/crti.o
 .rel.text.radio_off
                0x0000000000009834        0x8 /usr/lib/gcc/i686-linux-gnu/4.8/../../../i386-linux-gnu/crti.o
 .rel.text.radio_read
                0x000000000000983c       0x68 /usr/lib/gcc/i686-linux-gnu/4.8/../../../i386-linux-gnu/crti.o
 .rel.text.channel_clear
                0x00000000000098a4        0x8 /usr/lib/gcc/i686-linux-gnu/4.8/../../../i386-linux-gnu/crti.o
 .rel.text.radio_send
                0x00000000000098ac       0x78 /usr/lib/gcc/i686-linux-gnu/4.8/../../../i386-linux-gnu/crti.o
 .rel.text.prepare_packet
                0x0000000000009924        0x8 /usr/lib/gcc/i686-linux-gnu/4.8/../../../i386-linux-gnu/crti.o
 .rel.text.transmit_packet
                0x000000000000992c       0x10 /usr/lib/gcc/i686-linux-gnu/4.8/../../../i386-linux-gnu/crti.o
 .rel.text.receiving_packet
                0x000000000000993c        0x8 /usr/lib/gcc/i686-linux-gnu/4.8/../../../i386-linux-gnu/crti.o
 .rel.text.pending_packet
                0x0000000000009944       0x10 /usr/lib/gcc/i686-linux-gnu/4.8/../../../i386-linux-gnu/crti.o
 .rel.text.process_thread_cooja_radio_process
                0x0000000000009954       0x28 /usr/lib/gcc/i686-linux-gnu/4.8/../../../i386-linux-gnu/crti.o
 .rel.text.init
                0x000000000000997c       0x60 /usr/lib/gcc/i686-linux-gnu/4.8/../../../i386-linux-gnu/crti.o
 .rel.text.get_value
                0x00000000000099dc       0x30 /usr/lib/gcc/i686-linux-gnu/4.8/../../../i386-linux-gnu/crti.o
 .rel.text.set_value
                0x0000000000009a0c        0x8 /usr/lib/gcc/i686-linux-gnu/4.8/../../../i386-linux-gnu/crti.o
 .rel.text.get_object
                0x0000000000009a14       0x10 /usr/lib/gcc/i686-linux-gnu/4.8/../../../i386-linux-gnu/crti.o
 .rel.text.eeprom_read
                0x0000000000009a24       0x28 /usr/lib/gcc/i686-linux-gnu/4.8/../../../i386-linux-gnu/crti.o
 .rel.text.eeprom_write
                0x0000000000009a4c       0x28 /usr/lib/gcc/i686-linux-gnu/4.8/../../../i386-linux-gnu/crti.o
 .rel.text.random_init
                0x0000000000009a74        0x8 /usr/lib/gcc/i686-linux-gnu/4.8/../../../i386-linux-gnu/crti.o
 .rel.text.random_rand
                0x0000000000009a7c        0x8 /usr/lib/gcc/i686-linux-gnu/4.8/../../../i386-linux-gnu/crti.o
 .rel.text.get_sensor_index
                0x0000000000009a84       0x10 /usr/lib/gcc/i686-linux-gnu/4.8/../../../i386-linux-gnu/crti.o
 .rel.text.sensors_first
                0x0000000000009a94        0x8 /usr/lib/gcc/i686-linux-gnu/4.8/../../../i386-linux-gnu/crti.o
 .rel.text.sensors_next
                0x0000000000009a9c        0x8 /usr/lib/gcc/i686-linux-gnu/4.8/../../../i386-linux-gnu/crti.o
 .rel.text.sensors_changed
                0x0000000000009aa4       0x20 /usr/lib/gcc/i686-linux-gnu/4.8/../../../i386-linux-gnu/crti.o
 .rel.text.sensors_find
                0x0000000000009ac4       0x28 /usr/lib/gcc/i686-linux-gnu/4.8/../../../i386-linux-gnu/crti.o
 .rel.text.process_thread_sensors_process
                0x0000000000009aec      0x108 /usr/lib/gcc/i686-linux-gnu/4.8/../../../i386-linux-gnu/crti.o
 .rel.text.autostart_start
                0x0000000000009bf4        0x8 /usr/lib/gcc/i686-linux-gnu/4.8/../../../i386-linux-gnu/crti.o
 .rel.text.autostart_exit
                0x0000000000009bfc        0x8 /usr/lib/gcc/i686-linux-gnu/4.8/../../../i386-linux-gnu/crti.o
 .rel.text.process_thread_ctimer_process
                0x0000000000009c04       0x58 /usr/lib/gcc/i686-linux-gnu/4.8/../../../i386-linux-gnu/crti.o
 .rel.text.ctimer_init
                0x0000000000009c5c       0x28 /usr/lib/gcc/i686-linux-gnu/4.8/../../../i386-linux-gnu/crti.o
 .rel.text.ctimer_set
                0x0000000000009c84       0x10 /usr/lib/gcc/i686-linux-gnu/4.8/../../../i386-linux-gnu/crti.o
 .rel.text.ctimer_set_with_process
                0x0000000000009c94       0x40 /usr/lib/gcc/i686-linux-gnu/4.8/../../../i386-linux-gnu/crti.o
 .rel.text.ctimer_reset
                0x0000000000009cd4       0x40 /usr/lib/gcc/i686-linux-gnu/4.8/../../../i386-linux-gnu/crti.o
 .rel.text.ctimer_restart
                0x0000000000009d14       0x40 /usr/lib/gcc/i686-linux-gnu/4.8/../../../i386-linux-gnu/crti.o
 .rel.text.ctimer_stop
                0x0000000000009d54       0x20 /usr/lib/gcc/i686-linux-gnu/4.8/../../../i386-linux-gnu/crti.o
 .rel.text.ctimer_expired
                0x0000000000009d74       0x20 /usr/lib/gcc/i686-linux-gnu/4.8/../../../i386-linux-gnu/crti.o
 .rel.text.update_time
                0x0000000000009d94       0x28 /usr/lib/gcc/i686-linux-gnu/4.8/../../../i386-linux-gnu/crti.o
 .rel.text.process_thread_etimer_process
                0x0000000000009dbc       0x60 /usr/lib/gcc/i686-linux-gnu/4.8/../../../i386-linux-gnu/crti.o
 .rel.text.etimer_request_poll
                0x0000000000009e1c       0x10 /usr/lib/gcc/i686-linux-gnu/4.8/../../../i386-linux-gnu/crti.o
 .rel.text.add_timer
                0x0000000000009e2c       0x30 /usr/lib/gcc/i686-linux-gnu/4.8/../../../i386-linux-gnu/crti.o
 .rel.text.etimer_set
                0x0000000000009e5c        0x8 /usr/lib/gcc/i686-linux-gnu/4.8/../../../i386-linux-gnu/crti.o
 .rel.text.etimer_reset_with_new_interval
                0x0000000000009e64        0x8 /usr/lib/gcc/i686-linux-gnu/4.8/../../../i386-linux-gnu/crti.o
 .rel.text.etimer_reset
                0x0000000000009e6c        0x8 /usr/lib/gcc/i686-linux-gnu/4.8/../../../i386-linux-gnu/crti.o
 .rel.text.etimer_restart
                0x0000000000009e74        0x8 /usr/lib/gcc/i686-linux-gnu/4.8/../../../i386-linux-gnu/crti.o
 .rel.text.etimer_pending
                0x0000000000009e7c        0x8 /usr/lib/gcc/i686-linux-gnu/4.8/../../../i386-linux-gnu/crti.o
 .rel.text.etimer_next_expiration_time
                0x0000000000009e84       0x10 /usr/lib/gcc/i686-linux-gnu/4.8/../../../i386-linux-gnu/crti.o
 .rel.text.etimer_stop
                0x0000000000009e94       0x20 /usr/lib/gcc/i686-linux-gnu/4.8/../../../i386-linux-gnu/crti.o
 .rel.text.process_alloc_event
                0x0000000000009eb4       0x10 /usr/lib/gcc/i686-linux-gnu/4.8/../../../i386-linux-gnu/crti.o
 .rel.text.process_start
                0x0000000000009ec4       0x20 /usr/lib/gcc/i686-linux-gnu/4.8/../../../i386-linux-gnu/crti.o
 .rel.text.exit_process
                0x0000000000009ee4       0x50 /usr/lib/gcc/i686-linux-gnu/4.8/../../../i386-linux-gnu/crti.o
 .rel.text.call_process
                0x0000000000009f34        0x8 /usr/lib/gcc/i686-linux-gnu/4.8/../../../i386-linux-gnu/crti.o
 .rel.text.process_exit
                0x0000000000009f3c        0x8 /usr/lib/gcc/i686-linux-gnu/4.8/../../../i386-linux-gnu/crti.o
 .rel.text.process_init
                0x0000000000009f44       0x38 /usr/lib/gcc/i686-linux-gnu/4.8/../../../i386-linux-gnu/crti.o
 .rel.text.do_poll
                0x0000000000009f7c       0x10 /usr/lib/gcc/i686-linux-gnu/4.8/../../../i386-linux-gnu/crti.o
 .rel.text.do_event
                0x0000000000009f8c       0x68 /usr/lib/gcc/i686-linux-gnu/4.8/../../../i386-linux-gnu/crti.o
 .rel.text.process_run
                0x0000000000009ff4       0x18 /usr/lib/gcc/i686-linux-gnu/4.8/../../../i386-linux-gnu/crti.o
 .rel.text.process_nevents
                0x000000000000a00c       0x10 /usr/lib/gcc/i686-linux-gnu/4.8/../../../i386-linux-gnu/crti.o
 .rel.text.process_post
                0x000000000000a01c       0x40 /usr/lib/gcc/i686-linux-gnu/4.8/../../../i386-linux-gnu/crti.o
 .rel.text.process_post_synch
                0x000000000000a05c       0x10 /usr/lib/gcc/i686-linux-gnu/4.8/../../../i386-linux-gnu/crti.o
 .rel.text.process_poll
                0x000000000000a06c        0x8 /usr/lib/gcc/i686-linux-gnu/4.8/../../../i386-linux-gnu/crti.o
 .rel.text.rtimer_init
                0x000000000000a074        0x8 /usr/lib/gcc/i686-linux-gnu/4.8/../../../i386-linux-gnu/crti.o
 .rel.text.rtimer_set
                0x000000000000a07c       0x18 /usr/lib/gcc/i686-linux-gnu/4.8/../../../i386-linux-gnu/crti.o
 .rel.text.rtimer_run_next
                0x000000000000a094       0x30 /usr/lib/gcc/i686-linux-gnu/4.8/../../../i386-linux-gnu/crti.o
 .rel.text.timer_set
                0x000000000000a0c4        0x8 /usr/lib/gcc/i686-linux-gnu/4.8/../../../i386-linux-gnu/crti.o
 .rel.text.timer_restart
                0x000000000000a0cc        0x8 /usr/lib/gcc/i686-linux-gnu/4.8/../../../i386-linux-gnu/crti.o
 .rel.text.timer_expired
                0x000000000000a0d4        0x8 /usr/lib/gcc/i686-linux-gnu/4.8/../../../i386-linux-gnu/crti.o
 .rel.text.timer_remaining
                0x000000000000a0dc        0x8 /usr/lib/gcc/i686-linux-gnu/4.8/../../../i386-linux-gnu/crti.o
 .rel.text.serial_line_input_byte
                0x000000000000a0e4       0x48 /usr/lib/gcc/i686-linux-gnu/4.8/../../../i386-linux-gnu/crti.o
 .rel.text.process_thread_serial_line_process
                0x000000000000a12c       0x90 /usr/lib/gcc/i686-linux-gnu/4.8/../../../i386-linux-gnu/crti.o
 .rel.text.serial_line_init
                0x000000000000a1bc       0x28 /usr/lib/gcc/i686-linux-gnu/4.8/../../../i386-linux-gnu/crti.o
 .rel.text._xassert
                0x000000000000a1e4       0x10 /usr/lib/gcc/i686-linux-gnu/4.8/../../../i386-linux-gnu/crti.o
 .rel.text.list_add
                0x000000000000a1f4       0x10 /usr/lib/gcc/i686-linux-gnu/4.8/../../../i386-linux-gnu/crti.o
 .rel.text.list_push
                0x000000000000a204        0x8 /usr/lib/gcc/i686-linux-gnu/4.8/../../../i386-linux-gnu/crti.o
 .rel.text.list_insert
                0x000000000000a20c        0x8 /usr/lib/gcc/i686-linux-gnu/4.8/../../../i386-linux-gnu/crti.o
 .rel.text.memb_init
                0x000000000000a214       0x10 /usr/lib/gcc/i686-linux-gnu/4.8/../../../i386-linux-gnu/crti.o
 .rel.text.packetbuf_attr
                0x000000000000a224       0x28 /usr/lib/gcc/i686-linux-gnu/4.8/../../../i386-linux-gnu/crti.o
 .rel.text.packetbuf_set_addr
                0x000000000000a24c       0x30 /usr/lib/gcc/i686-linux-gnu/4.8/../../../i386-linux-gnu/crti.o
 .rel.text.packetbuf_addr
                0x000000000000a27c       0x40 /usr/lib/gcc/i686-linux-gnu/4.8/../../../i386-linux-gnu/crti.o
 .rel.text.clear_fragments
                0x000000000000a2bc       0x20 /usr/lib/gcc/i686-linux-gnu/4.8/../../../i386-linux-gnu/crti.o
 .rel.text.timeout_fragments
                0x000000000000a2dc       0x18 /usr/lib/gcc/i686-linux-gnu/4.8/../../../i386-linux-gnu/crti.o
 .rel.text.store_fragment
                0x000000000000a2f4       0x68 /usr/lib/gcc/i686-linux-gnu/4.8/../../../i386-linux-gnu/crti.o
 .rel.text.add_fragment
                0x000000000000a35c       0x80 /usr/lib/gcc/i686-linux-gnu/4.8/../../../i386-linux-gnu/crti.o
 .rel.text.copy_frags2uip
                0x000000000000a3dc       0x58 /usr/lib/gcc/i686-linux-gnu/4.8/../../../i386-linux-gnu/crti.o
 .rel.text.rime_sniffer_add
                0x000000000000a434        0x8 /usr/lib/gcc/i686-linux-gnu/4.8/../../../i386-linux-gnu/crti.o
 .rel.text.rime_sniffer_remove
                0x000000000000a43c        0x8 /usr/lib/gcc/i686-linux-gnu/4.8/../../../i386-linux-gnu/crti.o
 .rel.text.set_packet_attrs
                0x000000000000a444       0x60 /usr/lib/gcc/i686-linux-gnu/4.8/../../../i386-linux-gnu/crti.o
 .rel.text.addr_context_lookup_by_prefix
                0x000000000000a4a4       0x20 /usr/lib/gcc/i686-linux-gnu/4.8/../../../i386-linux-gnu/crti.o
 .rel.text.addr_context_lookup_by_number
                0x000000000000a4c4       0x18 /usr/lib/gcc/i686-linux-gnu/4.8/../../../i386-linux-gnu/crti.o
 .rel.text.compress_addr_64
                0x000000000000a4dc       0x40 /usr/lib/gcc/i686-linux-gnu/4.8/../../../i386-linux-gnu/crti.o
 .rel.text.uncompress_addr
                0x000000000000a51c       0x38 /usr/lib/gcc/i686-linux-gnu/4.8/../../../i386-linux-gnu/crti.o
 .rel.text.compress_hdr_iphc
                0x000000000000a554      0x5f8 /usr/lib/gcc/i686-linux-gnu/4.8/../../../i386-linux-gnu/crti.o
 .rel.text.uncompress_hdr_iphc
                0x000000000000ab4c      0x2f0 /usr/lib/gcc/i686-linux-gnu/4.8/../../../i386-linux-gnu/crti.o
 .rel.text.compress_hdr_ipv6
                0x000000000000ae3c       0x58 /usr/lib/gcc/i686-linux-gnu/4.8/../../../i386-linux-gnu/crti.o
 .rel.text.packet_sent
                0x000000000000ae94       0x38 /usr/lib/gcc/i686-linux-gnu/4.8/../../../i386-linux-gnu/crti.o
 .rel.text.send_packet
                0x000000000000aecc      0x120 /usr/lib/gcc/i686-linux-gnu/4.8/../../../i386-linux-gnu/crti.o
 .rel.text.output
                0x000000000000afec      0x2c8 /usr/lib/gcc/i686-linux-gnu/4.8/../../../i386-linux-gnu/crti.o
 .rel.text.input
                0x000000000000b2b4      0x200 /usr/lib/gcc/i686-linux-gnu/4.8/../../../i386-linux-gnu/crti.o
 .rel.text.sicslowpan_init
                0x000000000000b4b4       0x38 /usr/lib/gcc/i686-linux-gnu/4.8/../../../i386-linux-gnu/crti.o
 .rel.text.sicslowpan_get_last_rssi
                0x000000000000b4ec        0x8 /usr/lib/gcc/i686-linux-gnu/4.8/../../../i386-linux-gnu/crti.o
 .rel.text.uip_ds6_neighbors_init
                0x000000000000b4f4       0x20 /usr/lib/gcc/i686-linux-gnu/4.8/../../../i386-linux-gnu/crti.o
 .rel.text.uip_ds6_nbr_add
                0x000000000000b514       0x38 /usr/lib/gcc/i686-linux-gnu/4.8/../../../i386-linux-gnu/crti.o
 .rel.text.uip_ds6_nbr_rm
                0x000000000000b54c       0x20 /usr/lib/gcc/i686-linux-gnu/4.8/../../../i386-linux-gnu/crti.o
 .rel.text.uip_ds6_nbr_get_ll
                0x000000000000b56c       0x10 /usr/lib/gcc/i686-linux-gnu/4.8/../../../i386-linux-gnu/crti.o
 .rel.text.uip_ds6_nbr_num
                0x000000000000b57c       0x20 /usr/lib/gcc/i686-linux-gnu/4.8/../../../i386-linux-gnu/crti.o
 .rel.text.uip_ds6_nbr_lookup
                0x000000000000b59c       0x28 /usr/lib/gcc/i686-linux-gnu/4.8/../../../i386-linux-gnu/crti.o
 .rel.text.uip_ds6_nbr_ll_lookup
                0x000000000000b5c4       0x10 /usr/lib/gcc/i686-linux-gnu/4.8/../../../i386-linux-gnu/crti.o
 .rel.text.uip_ds6_nbr_ipaddr_from_lladdr
                0x000000000000b5d4        0x8 /usr/lib/gcc/i686-linux-gnu/4.8/../../../i386-linux-gnu/crti.o
 .rel.text.uip_ds6_nbr_lladdr_from_ipaddr
                0x000000000000b5dc       0x10 /usr/lib/gcc/i686-linux-gnu/4.8/../../../i386-linux-gnu/crti.o
 .rel.text.uip_ds6_link_neighbor_callback
                0x000000000000b5ec       0x20 /usr/lib/gcc/i686-linux-gnu/4.8/../../../i386-linux-gnu/crti.o
 .rel.text.uip_ds6_neighbor_periodic
                0x000000000000b60c       0xb8 /usr/lib/gcc/i686-linux-gnu/4.8/../../../i386-linux-gnu/crti.o
 .rel.text.uip_ds6_nbr_refresh_reachable_state
                0x000000000000b6c4       0x10 /usr/lib/gcc/i686-linux-gnu/4.8/../../../i386-linux-gnu/crti.o
 .rel.text.uip_ds6_get_least_lifetime_neighbor
                0x000000000000b6d4       0x30 /usr/lib/gcc/i686-linux-gnu/4.8/../../../i386-linux-gnu/crti.o
 .rel.text.call_route_callback
                0x000000000000b704       0x30 /usr/lib/gcc/i686-linux-gnu/4.8/../../../i386-linux-gnu/crti.o
 .rel.text.uip_ds6_notification_add
                0x000000000000b734       0x10 /usr/lib/gcc/i686-linux-gnu/4.8/../../../i386-linux-gnu/crti.o
 .rel.text.uip_ds6_notification_rm
                0x000000000000b744       0x10 /usr/lib/gcc/i686-linux-gnu/4.8/../../../i386-linux-gnu/crti.o
 .rel.text.uip_ds6_route_init
                0x000000000000b754       0x68 /usr/lib/gcc/i686-linux-gnu/4.8/../../../i386-linux-gnu/crti.o
 .rel.text.uip_ds6_route_nexthop_lladdr
                0x000000000000b7bc       0x10 /usr/lib/gcc/i686-linux-gnu/4.8/../../../i386-linux-gnu/crti.o
 .rel.text.uip_ds6_route_nexthop
                0x000000000000b7cc        0x8 /usr/lib/gcc/i686-linux-gnu/4.8/../../../i386-linux-gnu/crti.o
 .rel.text.uip_ds6_route_head
                0x000000000000b7d4       0x10 /usr/lib/gcc/i686-linux-gnu/4.8/../../../i386-linux-gnu/crti.o
 .rel.text.uip_ds6_route_next
                0x000000000000b7e4        0x8 /usr/lib/gcc/i686-linux-gnu/4.8/../../../i386-linux-gnu/crti.o
 .rel.text.uip_ds6_route_is_nexthop
                0x000000000000b7ec       0x18 /usr/lib/gcc/i686-linux-gnu/4.8/../../../i386-linux-gnu/crti.o
 .rel.text.uip_ds6_route_num_routes
                0x000000000000b804        0x8 /usr/lib/gcc/i686-linux-gnu/4.8/../../../i386-linux-gnu/crti.o
 .rel.text.uip_ds6_route_lookup
                0x000000000000b80c       0x48 /usr/lib/gcc/i686-linux-gnu/4.8/../../../i386-linux-gnu/crti.o
 .rel.text.uip_ds6_route_add
                0x000000000000b854       0xd0 /usr/lib/gcc/i686-linux-gnu/4.8/../../../i386-linux-gnu/crti.o
 .rel.text.uip_ds6_route_rm
                0x000000000000b924       0x80 /usr/lib/gcc/i686-linux-gnu/4.8/../../../i386-linux-gnu/crti.o
 .rel.text.rm_routelist
                0x000000000000b9a4       0x28 /usr/lib/gcc/i686-linux-gnu/4.8/../../../i386-linux-gnu/crti.o
 .rel.text.uip_ds6_route_rm_by_nexthop
                0x000000000000b9cc       0x18 /usr/lib/gcc/i686-linux-gnu/4.8/../../../i386-linux-gnu/crti.o
 .rel.text.uip_ds6_defrt_head
                0x000000000000b9e4       0x10 /usr/lib/gcc/i686-linux-gnu/4.8/../../../i386-linux-gnu/crti.o
 .rel.text.uip_ds6_defrt_add
                0x000000000000b9f4       0x30 /usr/lib/gcc/i686-linux-gnu/4.8/../../../i386-linux-gnu/crti.o
 .rel.text.uip_ds6_defrt_rm
                0x000000000000ba24       0x38 /usr/lib/gcc/i686-linux-gnu/4.8/../../../i386-linux-gnu/crti.o
 .rel.text.uip_ds6_defrt_lookup
                0x000000000000ba5c       0x20 /usr/lib/gcc/i686-linux-gnu/4.8/../../../i386-linux-gnu/crti.o
 .rel.text.uip_ds6_defrt_choose
                0x000000000000ba7c       0x20 /usr/lib/gcc/i686-linux-gnu/4.8/../../../i386-linux-gnu/crti.o
 .rel.text.uip_ds6_defrt_periodic
                0x000000000000ba9c       0x38 /usr/lib/gcc/i686-linux-gnu/4.8/../../../i386-linux-gnu/crti.o
 .rel.text.uip_ds6_init
                0x000000000000bad4      0x180 /usr/lib/gcc/i686-linux-gnu/4.8/../../../i386-linux-gnu/crti.o
 .rel.text.uip_ds6_periodic
                0x000000000000bc54       0x80 /usr/lib/gcc/i686-linux-gnu/4.8/../../../i386-linux-gnu/crti.o
 .rel.text.uip_ds6_list_loop
                0x000000000000bcd4        0x8 /usr/lib/gcc/i686-linux-gnu/4.8/../../../i386-linux-gnu/crti.o
 .rel.text.uip_ds6_prefix_add
                0x000000000000bcdc       0x58 /usr/lib/gcc/i686-linux-gnu/4.8/../../../i386-linux-gnu/crti.o
 .rel.text.uip_ds6_prefix_lookup
                0x000000000000bd34       0x20 /usr/lib/gcc/i686-linux-gnu/4.8/../../../i386-linux-gnu/crti.o
 .rel.text.uip_ds6_is_addr_onlink
                0x000000000000bd54       0x50 /usr/lib/gcc/i686-linux-gnu/4.8/../../../i386-linux-gnu/crti.o
 .rel.text.uip_ds6_addr_add
                0x000000000000bda4       0xc8 /usr/lib/gcc/i686-linux-gnu/4.8/../../../i386-linux-gnu/crti.o
 .rel.text.uip_ds6_addr_rm
                0x000000000000be6c       0x88 /usr/lib/gcc/i686-linux-gnu/4.8/../../../i386-linux-gnu/crti.o
 .rel.text.uip_ds6_addr_lookup
                0x000000000000bef4       0x20 /usr/lib/gcc/i686-linux-gnu/4.8/../../../i386-linux-gnu/crti.o
 .rel.text.uip_ds6_get_link_local
                0x000000000000bf14       0x58 /usr/lib/gcc/i686-linux-gnu/4.8/../../../i386-linux-gnu/crti.o
 .rel.text.uip_ds6_get_global
                0x000000000000bf6c       0x58 /usr/lib/gcc/i686-linux-gnu/4.8/../../../i386-linux-gnu/crti.o
 .rel.text.uip_ds6_maddr_add
                0x000000000000bfc4       0x30 /usr/lib/gcc/i686-linux-gnu/4.8/../../../i386-linux-gnu/crti.o
 .rel.text.uip_ds6_maddr_lookup
                0x000000000000bff4       0x20 /usr/lib/gcc/i686-linux-gnu/4.8/../../../i386-linux-gnu/crti.o
 .rel.text.uip_ds6_aaddr_add
                0x000000000000c014       0x30 /usr/lib/gcc/i686-linux-gnu/4.8/../../../i386-linux-gnu/crti.o
 .rel.text.uip_ds6_aaddr_lookup
                0x000000000000c044       0x20 /usr/lib/gcc/i686-linux-gnu/4.8/../../../i386-linux-gnu/crti.o
 .rel.text.uip_ds6_select_src
                0x000000000000c064       0x70 /usr/lib/gcc/i686-linux-gnu/4.8/../../../i386-linux-gnu/crti.o
 .rel.text.uip_ds6_set_addr_iid
                0x000000000000c0d4        0x8 /usr/lib/gcc/i686-linux-gnu/4.8/../../../i386-linux-gnu/crti.o
 .rel.text.uip_ds6_compute_reachable_time
                0x000000000000c0dc       0x30 /usr/lib/gcc/i686-linux-gnu/4.8/../../../i386-linux-gnu/crti.o
 .rel.text.extract_lladdr_from_llao_aligned
                0x000000000000c10c       0x18 /usr/lib/gcc/i686-linux-gnu/4.8/../../../i386-linux-gnu/crti.o
 .rel.text.create_llao
                0x000000000000c124       0x18 /usr/lib/gcc/i686-linux-gnu/4.8/../../../i386-linux-gnu/crti.o
 .rel.text.ns_input
                0x000000000000c13c      0x388 /usr/lib/gcc/i686-linux-gnu/4.8/../../../i386-linux-gnu/crti.o
 .rel.text.uip_nd6_ns_output
                0x000000000000c4c4      0x1e8 /usr/lib/gcc/i686-linux-gnu/4.8/../../../i386-linux-gnu/crti.o
 .rel.text.na_input
                0x000000000000c6ac      0x280 /usr/lib/gcc/i686-linux-gnu/4.8/../../../i386-linux-gnu/crti.o
 .rel.text.uip_nd6_init
                0x000000000000c92c       0x20 /usr/lib/gcc/i686-linux-gnu/4.8/../../../i386-linux-gnu/crti.o
 .rel.text.uip_add32
                0x000000000000c94c       0x98 /usr/lib/gcc/i686-linux-gnu/4.8/../../../i386-linux-gnu/crti.o
 .rel.text.uip_chksum
                0x000000000000c9e4        0x8 /usr/lib/gcc/i686-linux-gnu/4.8/../../../i386-linux-gnu/crti.o
 .rel.text.upper_layer_chksum
                0x000000000000c9ec       0x38 /usr/lib/gcc/i686-linux-gnu/4.8/../../../i386-linux-gnu/crti.o
 .rel.text.uip_init
                0x000000000000ca24       0x38 /usr/lib/gcc/i686-linux-gnu/4.8/../../../i386-linux-gnu/crti.o
 .rel.text.uip_connect
                0x000000000000ca5c       0x70 /usr/lib/gcc/i686-linux-gnu/4.8/../../../i386-linux-gnu/crti.o
 .rel.text.remove_ext_hdr
                0x000000000000cacc       0x98 /usr/lib/gcc/i686-linux-gnu/4.8/../../../i386-linux-gnu/crti.o
 .rel.text.uip_udp_new
                0x000000000000cb64       0x68 /usr/lib/gcc/i686-linux-gnu/4.8/../../../i386-linux-gnu/crti.o
 .rel.text.uip_unlisten
                0x000000000000cbcc       0x10 /usr/lib/gcc/i686-linux-gnu/4.8/../../../i386-linux-gnu/crti.o
 .rel.text.uip_listen
                0x000000000000cbdc       0x10 /usr/lib/gcc/i686-linux-gnu/4.8/../../../i386-linux-gnu/crti.o
 .rel.text.uip_add_rcv_nxt
                0x000000000000cbec       0x50 /usr/lib/gcc/i686-linux-gnu/4.8/../../../i386-linux-gnu/crti.o
 .rel.text.ext_hdr_options_process
                0x000000000000cc3c      0x108 /usr/lib/gcc/i686-linux-gnu/4.8/../../../i386-linux-gnu/crti.o
 .rel.text.uip_process
                0x000000000000cd44      0xf70 /usr/lib/gcc/i686-linux-gnu/4.8/../../../i386-linux-gnu/crti.o
 .rel.text.uip_send
                0x000000000000dcb4       0x60 /usr/lib/gcc/i686-linux-gnu/4.8/../../../i386-linux-gnu/crti.o
 .rel.text.dns_name_isequal
                0x000000000000dd14       0x10 /usr/lib/gcc/i686-linux-gnu/4.8/../../../i386-linux-gnu/crti.o
 .rel.text.mdns_announce_requested
                0x000000000000dd24        0x8 /usr/lib/gcc/i686-linux-gnu/4.8/../../../i386-linux-gnu/crti.o
 .rel.text.start_name_collision_check
                0x000000000000dd2c       0x20 /usr/lib/gcc/i686-linux-gnu/4.8/../../../i386-linux-gnu/crti.o
 .rel.text.mdns_write_announce_records
                0x000000000000dd4c       0x28 /usr/lib/gcc/i686-linux-gnu/4.8/../../../i386-linux-gnu/crti.o
 .rel.text.mdns_prep_host_announce_packet
                0x000000000000dd74       0x50 /usr/lib/gcc/i686-linux-gnu/4.8/../../../i386-linux-gnu/crti.o
 .rel.text.try_next_server
                0x000000000000ddc4        0x8 /usr/lib/gcc/i686-linux-gnu/4.8/../../../i386-linux-gnu/crti.o
 .rel.text.check_entries
                0x000000000000ddcc       0xc0 /usr/lib/gcc/i686-linux-gnu/4.8/../../../i386-linux-gnu/crti.o
 .rel.text.newdata
                0x000000000000de8c      0x180 /usr/lib/gcc/i686-linux-gnu/4.8/../../../i386-linux-gnu/crti.o
 .rel.text.resolv_set_hostname
                0x000000000000e00c       0x88 /usr/lib/gcc/i686-linux-gnu/4.8/../../../i386-linux-gnu/crti.o
 .rel.text.resolv_get_hostname
                0x000000000000e094        0x8 /usr/lib/gcc/i686-linux-gnu/4.8/../../../i386-linux-gnu/crti.o
 .rel.text.process_thread_mdns_probe_process
                0x000000000000e09c       0x98 /usr/lib/gcc/i686-linux-gnu/4.8/../../../i386-linux-gnu/crti.o
 .rel.text.process_thread_resolv_process
                0x000000000000e134      0x130 /usr/lib/gcc/i686-linux-gnu/4.8/../../../i386-linux-gnu/crti.o
 .rel.text.remove_trailing_dots
                0x000000000000e264       0x30 /usr/lib/gcc/i686-linux-gnu/4.8/../../../i386-linux-gnu/crti.o
 .rel.text.resolv_query
                0x000000000000e294       0xb8 /usr/lib/gcc/i686-linux-gnu/4.8/../../../i386-linux-gnu/crti.o
 .rel.text.resolv_lookup
                0x000000000000e34c       0x20 /usr/lib/gcc/i686-linux-gnu/4.8/../../../i386-linux-gnu/crti.o
 .rel.text.resolv_found
                0x000000000000e36c       0xd8 /usr/lib/gcc/i686-linux-gnu/4.8/../../../i386-linux-gnu/crti.o
 .rel.text.tcpip_output
                0x000000000000e444       0x10 /usr/lib/gcc/i686-linux-gnu/4.8/../../../i386-linux-gnu/crti.o
 .rel.text.tcpip_set_outputfunc
                0x000000000000e454        0x8 /usr/lib/gcc/i686-linux-gnu/4.8/../../../i386-linux-gnu/crti.o
 .rel.text.start_periodic_tcp_timer
                0x000000000000e45c       0x20 /usr/lib/gcc/i686-linux-gnu/4.8/../../../i386-linux-gnu/crti.o
 .rel.text.check_for_tcp_syn
                0x000000000000e47c       0x10 /usr/lib/gcc/i686-linux-gnu/4.8/../../../i386-linux-gnu/crti.o
 .rel.text.packet_input
                0x000000000000e48c       0x98 /usr/lib/gcc/i686-linux-gnu/4.8/../../../i386-linux-gnu/crti.o
 .rel.text.tcp_connect
                0x000000000000e524       0x18 /usr/lib/gcc/i686-linux-gnu/4.8/../../../i386-linux-gnu/crti.o
 .rel.text.tcp_unlisten
                0x000000000000e53c       0x18 /usr/lib/gcc/i686-linux-gnu/4.8/../../../i386-linux-gnu/crti.o
 .rel.text.tcp_listen
                0x000000000000e554       0x18 /usr/lib/gcc/i686-linux-gnu/4.8/../../../i386-linux-gnu/crti.o
 .rel.text.tcp_attach
                0x000000000000e56c        0x8 /usr/lib/gcc/i686-linux-gnu/4.8/../../../i386-linux-gnu/crti.o
 .rel.text.udp_attach
                0x000000000000e574        0x8 /usr/lib/gcc/i686-linux-gnu/4.8/../../../i386-linux-gnu/crti.o
 .rel.text.udp_new
                0x000000000000e57c       0x10 /usr/lib/gcc/i686-linux-gnu/4.8/../../../i386-linux-gnu/crti.o
 .rel.text.udp_broadcast_new
                0x000000000000e58c       0x10 /usr/lib/gcc/i686-linux-gnu/4.8/../../../i386-linux-gnu/crti.o
 .rel.text.eventhandler
                0x000000000000e59c       0xd8 /usr/lib/gcc/i686-linux-gnu/4.8/../../../i386-linux-gnu/crti.o
 .rel.text.tcpip_input
                0x000000000000e674       0x20 /usr/lib/gcc/i686-linux-gnu/4.8/../../../i386-linux-gnu/crti.o
 .rel.text.tcpip_ipv6_output
                0x000000000000e694      0x290 /usr/lib/gcc/i686-linux-gnu/4.8/../../../i386-linux-gnu/crti.o
 .rel.text.tcpip_poll_udp
                0x000000000000e924       0x10 /usr/lib/gcc/i686-linux-gnu/4.8/../../../i386-linux-gnu/crti.o
 .rel.text.tcpip_poll_tcp
                0x000000000000e934       0x10 /usr/lib/gcc/i686-linux-gnu/4.8/../../../i386-linux-gnu/crti.o
 .rel.text.tcpip_uipcall
                0x000000000000e944       0x40 /usr/lib/gcc/i686-linux-gnu/4.8/../../../i386-linux-gnu/crti.o
 .rel.text.process_thread_tcpip_process
                0x000000000000e984       0x48 /usr/lib/gcc/i686-linux-gnu/4.8/../../../i386-linux-gnu/crti.o
 .rel.text.uip_debug_ipaddr_print
                0x000000000000e9cc       0x50 /usr/lib/gcc/i686-linux-gnu/4.8/../../../i386-linux-gnu/crti.o
 .rel.text.uip_nameserver_update
                0x000000000000ea1c       0x28 /usr/lib/gcc/i686-linux-gnu/4.8/../../../i386-linux-gnu/crti.o
 .rel.text.uip_nameserver_get
                0x000000000000ea44        0x8 /usr/lib/gcc/i686-linux-gnu/4.8/../../../i386-linux-gnu/crti.o
 .rel.text.uip_nameserver_next_expiration
                0x000000000000ea4c        0x8 /usr/lib/gcc/i686-linux-gnu/4.8/../../../i386-linux-gnu/crti.o
 .rel.text.uip_nameserver_count
                0x000000000000ea54       0x40 /usr/lib/gcc/i686-linux-gnu/4.8/../../../i386-linux-gnu/crti.o
 .rel.text.packet_timedout
                0x000000000000ea94       0x10 /usr/lib/gcc/i686-linux-gnu/4.8/../../../i386-linux-gnu/crti.o
 .rel.text.uip_packetqueue_alloc
                0x000000000000eaa4       0x20 /usr/lib/gcc/i686-linux-gnu/4.8/../../../i386-linux-gnu/crti.o
 .rel.text.uip_packetqueue_free
                0x000000000000eac4       0x18 /usr/lib/gcc/i686-linux-gnu/4.8/../../../i386-linux-gnu/crti.o
 .rel.text.uip_udp_packet_send
                0x000000000000eadc       0x38 /usr/lib/gcc/i686-linux-gnu/4.8/../../../i386-linux-gnu/crti.o
 .rel.text.uip_udp_packet_sendto
                0x000000000000eb14       0x10 /usr/lib/gcc/i686-linux-gnu/4.8/../../../i386-linux-gnu/crti.o
 .rel.text.uiplib_ip6addrconv
                0x000000000000eb24       0x10 /usr/lib/gcc/i686-linux-gnu/4.8/../../../i386-linux-gnu/crti.o
 .rel.text.rpl_print_neighbor_list
                0x000000000000eb34       0xc8 /usr/lib/gcc/i686-linux-gnu/4.8/../../../i386-linux-gnu/crti.o
 .rel.text.rpl_get_nbr
                0x000000000000ebfc       0x18 /usr/lib/gcc/i686-linux-gnu/4.8/../../../i386-linux-gnu/crti.o
 .rel.text.nbr_callback
                0x000000000000ec14        0x8 /usr/lib/gcc/i686-linux-gnu/4.8/../../../i386-linux-gnu/crti.o
 .rel.text.rpl_dag_init
                0x000000000000ec1c       0x18 /usr/lib/gcc/i686-linux-gnu/4.8/../../../i386-linux-gnu/crti.o
 .rel.text.rpl_get_parent
                0x000000000000ec34       0x10 /usr/lib/gcc/i686-linux-gnu/4.8/../../../i386-linux-gnu/crti.o
 .rel.text.rpl_get_parent_rank
                0x000000000000ec44       0x10 /usr/lib/gcc/i686-linux-gnu/4.8/../../../i386-linux-gnu/crti.o
 .rel.text.rpl_get_parent_lladdr
                0x000000000000ec54       0x10 /usr/lib/gcc/i686-linux-gnu/4.8/../../../i386-linux-gnu/crti.o
 .rel.text.rpl_get_parent_ipaddr
                0x000000000000ec64       0x10 /usr/lib/gcc/i686-linux-gnu/4.8/../../../i386-linux-gnu/crti.o
 .rel.text.rpl_get_parent_link_stats
                0x000000000000ec74       0x10 /usr/lib/gcc/i686-linux-gnu/4.8/../../../i386-linux-gnu/crti.o
 .rel.text.rpl_parent_is_fresh
                0x000000000000ec84       0x10 /usr/lib/gcc/i686-linux-gnu/4.8/../../../i386-linux-gnu/crti.o
 .rel.text.rpl_parent_is_reachable
                0x000000000000ec94       0x10 /usr/lib/gcc/i686-linux-gnu/4.8/../../../i386-linux-gnu/crti.o
 .rel.text.rpl_set_preferred_parent
                0x000000000000eca4       0x20 /usr/lib/gcc/i686-linux-gnu/4.8/../../../i386-linux-gnu/crti.o
 .rel.text.remove_parents
                0x000000000000ecc4       0x28 /usr/lib/gcc/i686-linux-gnu/4.8/../../../i386-linux-gnu/crti.o
 .rel.text.nullify_parents
                0x000000000000ecec       0x28 /usr/lib/gcc/i686-linux-gnu/4.8/../../../i386-linux-gnu/crti.o
 .rel.text.get_dag
                0x000000000000ed14       0x10 /usr/lib/gcc/i686-linux-gnu/4.8/../../../i386-linux-gnu/crti.o
 .rel.text.rpl_set_root
                0x000000000000ed24       0x48 /usr/lib/gcc/i686-linux-gnu/4.8/../../../i386-linux-gnu/crti.o
 .rel.text.rpl_repair_root
                0x000000000000ed6c       0x10 /usr/lib/gcc/i686-linux-gnu/4.8/../../../i386-linux-gnu/crti.o
 .rel.text.set_ip_from_prefix
                0x000000000000ed7c       0x20 /usr/lib/gcc/i686-linux-gnu/4.8/../../../i386-linux-gnu/crti.o
 .rel.text.check_prefix
                0x000000000000ed9c       0x30 /usr/lib/gcc/i686-linux-gnu/4.8/../../../i386-linux-gnu/crti.o
 .rel.text.rpl_set_prefix
                0x000000000000edcc       0x20 /usr/lib/gcc/i686-linux-gnu/4.8/../../../i386-linux-gnu/crti.o
 .rel.text.rpl_set_default_route
                0x000000000000edec       0x10 /usr/lib/gcc/i686-linux-gnu/4.8/../../../i386-linux-gnu/crti.o
 .rel.text.rpl_alloc_instance
                0x000000000000edfc       0x18 /usr/lib/gcc/i686-linux-gnu/4.8/../../../i386-linux-gnu/crti.o
 .rel.text.rpl_alloc_dag
                0x000000000000ee14       0x18 /usr/lib/gcc/i686-linux-gnu/4.8/../../../i386-linux-gnu/crti.o
 .rel.text.rpl_set_default_instance
                0x000000000000ee2c        0x8 /usr/lib/gcc/i686-linux-gnu/4.8/../../../i386-linux-gnu/crti.o
 .rel.text.rpl_get_default_instance
                0x000000000000ee34        0x8 /usr/lib/gcc/i686-linux-gnu/4.8/../../../i386-linux-gnu/crti.o
 .rel.text.rpl_free_instance
                0x000000000000ee3c       0x40 /usr/lib/gcc/i686-linux-gnu/4.8/../../../i386-linux-gnu/crti.o
 .rel.text.rpl_free_dag
                0x000000000000ee7c        0x8 /usr/lib/gcc/i686-linux-gnu/4.8/../../../i386-linux-gnu/crti.o
 .rel.text.rpl_add_parent
                0x000000000000ee84       0x18 /usr/lib/gcc/i686-linux-gnu/4.8/../../../i386-linux-gnu/crti.o
 .rel.text.find_parent_any_dag_any_instance
                0x000000000000ee9c       0x20 /usr/lib/gcc/i686-linux-gnu/4.8/../../../i386-linux-gnu/crti.o
 .rel.text.rpl_select_dag
                0x000000000000eebc       0x48 /usr/lib/gcc/i686-linux-gnu/4.8/../../../i386-linux-gnu/crti.o
 .rel.text.best_parent
                0x000000000000ef04       0x30 /usr/lib/gcc/i686-linux-gnu/4.8/../../../i386-linux-gnu/crti.o
 .rel.text.rpl_select_parent
                0x000000000000ef34       0x18 /usr/lib/gcc/i686-linux-gnu/4.8/../../../i386-linux-gnu/crti.o
 .rel.text.rpl_remove_parent
                0x000000000000ef4c       0x18 /usr/lib/gcc/i686-linux-gnu/4.8/../../../i386-linux-gnu/crti.o
 .rel.text.rpl_nullify_parent
                0x000000000000ef64       0x10 /usr/lib/gcc/i686-linux-gnu/4.8/../../../i386-linux-gnu/crti.o
 .rel.text.rpl_move_parent
                0x000000000000ef74       0x18 /usr/lib/gcc/i686-linux-gnu/4.8/../../../i386-linux-gnu/crti.o
 .rel.text.rpl_has_downward_route
                0x000000000000ef8c       0x10 /usr/lib/gcc/i686-linux-gnu/4.8/../../../i386-linux-gnu/crti.o
 .rel.text.rpl_get_dag
                0x000000000000ef9c       0x30 /usr/lib/gcc/i686-linux-gnu/4.8/../../../i386-linux-gnu/crti.o
 .rel.text.rpl_get_any_dag
                0x000000000000efcc       0x18 /usr/lib/gcc/i686-linux-gnu/4.8/../../../i386-linux-gnu/crti.o
 .rel.text.rpl_get_instance
                0x000000000000efe4       0x18 /usr/lib/gcc/i686-linux-gnu/4.8/../../../i386-linux-gnu/crti.o
 .rel.text.rpl_find_of
                0x000000000000effc       0x10 /usr/lib/gcc/i686-linux-gnu/4.8/../../../i386-linux-gnu/crti.o
 .rel.text.rpl_join_instance
                0x000000000000f00c       0x58 /usr/lib/gcc/i686-linux-gnu/4.8/../../../i386-linux-gnu/crti.o
 .rel.text.rpl_add_dag
                0x000000000000f064       0x50 /usr/lib/gcc/i686-linux-gnu/4.8/../../../i386-linux-gnu/crti.o
 .rel.text.global_repair
                0x000000000000f0b4       0x18 /usr/lib/gcc/i686-linux-gnu/4.8/../../../i386-linux-gnu/crti.o
 .rel.text.rpl_local_repair
                0x000000000000f0cc        0x8 /usr/lib/gcc/i686-linux-gnu/4.8/../../../i386-linux-gnu/crti.o
 .rel.text.rpl_recalculate_ranks
                0x000000000000f0d4       0x28 /usr/lib/gcc/i686-linux-gnu/4.8/../../../i386-linux-gnu/crti.o
 .rel.text.rpl_process_parent_event
                0x000000000000f0fc       0x40 /usr/lib/gcc/i686-linux-gnu/4.8/../../../i386-linux-gnu/crti.o
 .rel.text.add_nbr_from_dio
                0x000000000000f13c        0x8 /usr/lib/gcc/i686-linux-gnu/4.8/../../../i386-linux-gnu/crti.o
 .rel.text.rpl_process_dio
                0x000000000000f144       0x78 /usr/lib/gcc/i686-linux-gnu/4.8/../../../i386-linux-gnu/crti.o
 .rel.text.rpl_verify_hbh_header
                0x000000000000f1bc      0x108 /usr/lib/gcc/i686-linux-gnu/4.8/../../../i386-linux-gnu/crti.o
 .rel.text.update_hbh_header
                0x000000000000f2c4      0x138 /usr/lib/gcc/i686-linux-gnu/4.8/../../../i386-linux-gnu/crti.o
 .rel.text.insert_hbh_header
                0x000000000000f3fc      0x128 /usr/lib/gcc/i686-linux-gnu/4.8/../../../i386-linux-gnu/crti.o
 .rel.text.rpl_remove_header
                0x000000000000f524       0xc8 /usr/lib/gcc/i686-linux-gnu/4.8/../../../i386-linux-gnu/crti.o
 .rel.text.rpl_update_header
                0x000000000000f5ec       0x80 /usr/lib/gcc/i686-linux-gnu/4.8/../../../i386-linux-gnu/crti.o
 .rel.text.prepare_for_dao_fwd
                0x000000000000f66c       0x38 /usr/lib/gcc/i686-linux-gnu/4.8/../../../i386-linux-gnu/crti.o
 .rel.text.get_global_addr
                0x000000000000f6a4       0x30 /usr/lib/gcc/i686-linux-gnu/4.8/../../../i386-linux-gnu/crti.o
 .rel.text.rpl_icmp6_update_nbr_table
                0x000000000000f6d4       0x10 /usr/lib/gcc/i686-linux-gnu/4.8/../../../i386-linux-gnu/crti.o
 .rel.text.dis_input
                0x000000000000f6e4       0x48 /usr/lib/gcc/i686-linux-gnu/4.8/../../../i386-linux-gnu/crti.o
 .rel.text.dis_output
                0x000000000000f72c       0x20 /usr/lib/gcc/i686-linux-gnu/4.8/../../../i386-linux-gnu/crti.o
 .rel.text.dio_input
                0x000000000000f74c       0x58 /usr/lib/gcc/i686-linux-gnu/4.8/../../../i386-linux-gnu/crti.o
 .rel.text.dio_output
                0x000000000000f7a4       0x40 /usr/lib/gcc/i686-linux-gnu/4.8/../../../i386-linux-gnu/crti.o
 .rel.text.dao_input_storing
                0x000000000000f7e4      0x120 /usr/lib/gcc/i686-linux-gnu/4.8/../../../i386-linux-gnu/crti.o
 .rel.text.dao_input
                0x000000000000f904       0x28 /usr/lib/gcc/i686-linux-gnu/4.8/../../../i386-linux-gnu/crti.o
 .rel.text.dao_output
                0x000000000000f92c       0x38 /usr/lib/gcc/i686-linux-gnu/4.8/../../../i386-linux-gnu/crti.o
 .rel.text.dao_output_target
                0x000000000000f964        0x8 /usr/lib/gcc/i686-linux-gnu/4.8/../../../i386-linux-gnu/crti.o
 .rel.text.dao_output_target_seq
                0x000000000000f96c       0x48 /usr/lib/gcc/i686-linux-gnu/4.8/../../../i386-linux-gnu/crti.o
 .rel.text.dao_ack_input
                0x000000000000f9b4       0x10 /usr/lib/gcc/i686-linux-gnu/4.8/../../../i386-linux-gnu/crti.o
 .rel.text.rpl_icmp6_register_handlers
                0x000000000000f9c4       0x40 /usr/lib/gcc/i686-linux-gnu/4.8/../../../i386-linux-gnu/crti.o
 .rel.text.parent_link_metric
                0x000000000000fa04        0x8 /usr/lib/gcc/i686-linux-gnu/4.8/../../../i386-linux-gnu/crti.o
 .rel.text.handle_periodic_timer
                0x000000000000fa0c       0x68 /usr/lib/gcc/i686-linux-gnu/4.8/../../../i386-linux-gnu/crti.o
 .rel.text.new_dio_interval
                0x000000000000fa74       0x18 /usr/lib/gcc/i686-linux-gnu/4.8/../../../i386-linux-gnu/crti.o
 .rel.text.handle_dio_timer
                0x000000000000fa8c       0x40 /usr/lib/gcc/i686-linux-gnu/4.8/../../../i386-linux-gnu/crti.o
 .rel.text.rpl_reset_periodic_timer
                0x000000000000facc       0x28 /usr/lib/gcc/i686-linux-gnu/4.8/../../../i386-linux-gnu/crti.o
 .rel.text.set_dao_lifetime_timer
                0x000000000000faf4       0x20 /usr/lib/gcc/i686-linux-gnu/4.8/../../../i386-linux-gnu/crti.o
 .rel.text.handle_dao_timer
                0x000000000000fb14       0x38 /usr/lib/gcc/i686-linux-gnu/4.8/../../../i386-linux-gnu/crti.o
 .rel.text.schedule_dao
                0x000000000000fb4c       0x30 /usr/lib/gcc/i686-linux-gnu/4.8/../../../i386-linux-gnu/crti.o
 .rel.text.rpl_cancel_dao
                0x000000000000fb7c       0x10 /usr/lib/gcc/i686-linux-gnu/4.8/../../../i386-linux-gnu/crti.o
 .rel.text.handle_unicast_dio_timer
                0x000000000000fb8c       0x10 /usr/lib/gcc/i686-linux-gnu/4.8/../../../i386-linux-gnu/crti.o
 .rel.text.rpl_schedule_unicast_dio_immediately
                0x000000000000fb9c       0x10 /usr/lib/gcc/i686-linux-gnu/4.8/../../../i386-linux-gnu/crti.o
 .rel.text.get_probing_delay
                0x000000000000fbac       0x10 /usr/lib/gcc/i686-linux-gnu/4.8/../../../i386-linux-gnu/crti.o
 .rel.text.get_probing_target
                0x000000000000fbbc       0x70 /usr/lib/gcc/i686-linux-gnu/4.8/../../../i386-linux-gnu/crti.o
 .rel.text.handle_probing_timer
                0x000000000000fc2c       0x28 /usr/lib/gcc/i686-linux-gnu/4.8/../../../i386-linux-gnu/crti.o
 .rel.text.rpl_schedule_probing
                0x000000000000fc54       0x18 /usr/lib/gcc/i686-linux-gnu/4.8/../../../i386-linux-gnu/crti.o
 .rel.text.rpl_get_mode
                0x000000000000fc6c        0x8 /usr/lib/gcc/i686-linux-gnu/4.8/../../../i386-linux-gnu/crti.o
 .rel.text.rpl_set_mode
                0x000000000000fc74       0x68 /usr/lib/gcc/i686-linux-gnu/4.8/../../../i386-linux-gnu/crti.o
 .rel.text.rpl_purge_routes
                0x000000000000fcdc       0x50 /usr/lib/gcc/i686-linux-gnu/4.8/../../../i386-linux-gnu/crti.o
 .rel.text.rpl_remove_routes
                0x000000000000fd2c       0x20 /usr/lib/gcc/i686-linux-gnu/4.8/../../../i386-linux-gnu/crti.o
 .rel.text.rpl_remove_routes_by_nexthop
                0x000000000000fd4c       0x20 /usr/lib/gcc/i686-linux-gnu/4.8/../../../i386-linux-gnu/crti.o
 .rel.text.rpl_add_route
                0x000000000000fd6c        0x8 /usr/lib/gcc/i686-linux-gnu/4.8/../../../i386-linux-gnu/crti.o
 .rel.text.rpl_link_neighbor_callback
                0x000000000000fd74       0x20 /usr/lib/gcc/i686-linux-gnu/4.8/../../../i386-linux-gnu/crti.o
 .rel.text.rpl_ipv6_neighbor_callback
                0x000000000000fd94       0x10 /usr/lib/gcc/i686-linux-gnu/4.8/../../../i386-linux-gnu/crti.o
 .rel.text.rpl_purge_dags
                0x000000000000fda4       0x10 /usr/lib/gcc/i686-linux-gnu/4.8/../../../i386-linux-gnu/crti.o
 .rel.text.rpl_init
                0x000000000000fdb4       0x30 /usr/lib/gcc/i686-linux-gnu/4.8/../../../i386-linux-gnu/crti.o
 .rel.text.link_stats_from_lladdr
                0x000000000000fde4       0x10 /usr/lib/gcc/i686-linux-gnu/4.8/../../../i386-linux-gnu/crti.o
 .rel.text.link_stats_is_fresh
                0x000000000000fdf4        0x8 /usr/lib/gcc/i686-linux-gnu/4.8/../../../i386-linux-gnu/crti.o
 .rel.text.link_stats_packet_sent
                0x000000000000fdfc       0x30 /usr/lib/gcc/i686-linux-gnu/4.8/../../../i386-linux-gnu/crti.o
 .rel.text.link_stats_input_callback
                0x000000000000fe2c       0x20 /usr/lib/gcc/i686-linux-gnu/4.8/../../../i386-linux-gnu/crti.o
 .rel.text.periodic
                0x000000000000fe4c       0x30 /usr/lib/gcc/i686-linux-gnu/4.8/../../../i386-linux-gnu/crti.o
 .rel.text.link_stats_init
                0x000000000000fe7c       0x28 /usr/lib/gcc/i686-linux-gnu/4.8/../../../i386-linux-gnu/crti.o
 .rel.text.linkaddr_copy
                0x000000000000fea4        0x8 /usr/lib/gcc/i686-linux-gnu/4.8/../../../i386-linux-gnu/crti.o
 .rel.text.linkaddr_cmp
                0x000000000000feac        0x8 /usr/lib/gcc/i686-linux-gnu/4.8/../../../i386-linux-gnu/crti.o
 .rel.text.linkaddr_set_node_addr
                0x000000000000feb4       0x10 /usr/lib/gcc/i686-linux-gnu/4.8/../../../i386-linux-gnu/crti.o
 .rel.text.key_from_index
                0x000000000000fec4        0x8 /usr/lib/gcc/i686-linux-gnu/4.8/../../../i386-linux-gnu/crti.o
 .rel.text.index_from_key
                0x000000000000fecc        0x8 /usr/lib/gcc/i686-linux-gnu/4.8/../../../i386-linux-gnu/crti.o
 .rel.text.index_from_lladdr
                0x000000000000fed4       0x28 /usr/lib/gcc/i686-linux-gnu/4.8/../../../i386-linux-gnu/crti.o
 .rel.text.remove_key
                0x000000000000fefc       0x48 /usr/lib/gcc/i686-linux-gnu/4.8/../../../i386-linux-gnu/crti.o
 .rel.text.nbr_table_allocate
                0x000000000000ff44       0x50 /usr/lib/gcc/i686-linux-gnu/4.8/../../../i386-linux-gnu/crti.o
 .rel.text.nbr_table_register
                0x000000000000ff94       0x20 /usr/lib/gcc/i686-linux-gnu/4.8/../../../i386-linux-gnu/crti.o
 .rel.text.nbr_table_head
                0x000000000000ffb4       0x20 /usr/lib/gcc/i686-linux-gnu/4.8/../../../i386-linux-gnu/crti.o
 .rel.text.nbr_table_next
                0x000000000000ffd4       0x10 /usr/lib/gcc/i686-linux-gnu/4.8/../../../i386-linux-gnu/crti.o
 .rel.text.nbr_table_add_lladdr
                0x000000000000ffe4       0x30 /usr/lib/gcc/i686-linux-gnu/4.8/../../../i386-linux-gnu/crti.o
 .rel.text.nbr_table_get_from_lladdr
                0x0000000000010014        0x8 /usr/lib/gcc/i686-linux-gnu/4.8/../../../i386-linux-gnu/crti.o
 .rel.text.nbr_table_remove
                0x000000000001001c       0x10 /usr/lib/gcc/i686-linux-gnu/4.8/../../../i386-linux-gnu/crti.o
 .rel.text.nbr_table_lock
                0x000000000001002c        0x8 /usr/lib/gcc/i686-linux-gnu/4.8/../../../i386-linux-gnu/crti.o
 .rel.text.nbr_table_unlock
                0x0000000000010034        0x8 /usr/lib/gcc/i686-linux-gnu/4.8/../../../i386-linux-gnu/crti.o
 .rel.text.nbr_table_update_lladdr
                0x000000000001003c        0x8 /usr/lib/gcc/i686-linux-gnu/4.8/../../../i386-linux-gnu/crti.o
 .rel.text.netstack_init
                0x0000000000010044       0x28 /usr/lib/gcc/i686-linux-gnu/4.8/../../../i386-linux-gnu/crti.o
 .rel.text.packetbuf_clear
                0x000000000001006c       0x28 /usr/lib/gcc/i686-linux-gnu/4.8/../../../i386-linux-gnu/crti.o
 .rel.text.packetbuf_copyfrom
                0x0000000000010094       0x20 /usr/lib/gcc/i686-linux-gnu/4.8/../../../i386-linux-gnu/crti.o
 .rel.text.packetbuf_compact
                0x00000000000100b4       0x38 /usr/lib/gcc/i686-linux-gnu/4.8/../../../i386-linux-gnu/crti.o
 .rel.text.packetbuf_copyto
                0x00000000000100ec       0x58 /usr/lib/gcc/i686-linux-gnu/4.8/../../../i386-linux-gnu/crti.o
 .rel.text.packetbuf_hdralloc
                0x0000000000010144       0x30 /usr/lib/gcc/i686-linux-gnu/4.8/../../../i386-linux-gnu/crti.o
 .rel.text.packetbuf_hdrreduce
                0x0000000000010174       0x28 /usr/lib/gcc/i686-linux-gnu/4.8/../../../i386-linux-gnu/crti.o
 .rel.text.packetbuf_set_datalen
                0x000000000001019c        0x8 /usr/lib/gcc/i686-linux-gnu/4.8/../../../i386-linux-gnu/crti.o
 .rel.text.packetbuf_dataptr
                0x00000000000101a4       0x10 /usr/lib/gcc/i686-linux-gnu/4.8/../../../i386-linux-gnu/crti.o
 .rel.text.packetbuf_hdrptr
                0x00000000000101b4        0x8 /usr/lib/gcc/i686-linux-gnu/4.8/../../../i386-linux-gnu/crti.o
 .rel.text.packetbuf_datalen
                0x00000000000101bc        0x8 /usr/lib/gcc/i686-linux-gnu/4.8/../../../i386-linux-gnu/crti.o
 .rel.text.packetbuf_hdrlen
                0x00000000000101c4       0x10 /usr/lib/gcc/i686-linux-gnu/4.8/../../../i386-linux-gnu/crti.o
 .rel.text.packetbuf_totlen
                0x00000000000101d4       0x10 /usr/lib/gcc/i686-linux-gnu/4.8/../../../i386-linux-gnu/crti.o
 .rel.text.packetbuf_remaininglen
                0x00000000000101e4        0x8 /usr/lib/gcc/i686-linux-gnu/4.8/../../../i386-linux-gnu/crti.o
 .rel.text.packetbuf_attr_clear
                0x00000000000101ec       0x28 /usr/lib/gcc/i686-linux-gnu/4.8/../../../i386-linux-gnu/crti.o
 .rel.text.packetbuf_attr_copyto
                0x0000000000010214       0x30 /usr/lib/gcc/i686-linux-gnu/4.8/../../../i386-linux-gnu/crti.o
 .rel.text.packetbuf_attr_copyfrom
                0x0000000000010244       0x30 /usr/lib/gcc/i686-linux-gnu/4.8/../../../i386-linux-gnu/crti.o
 .rel.text.packetbuf_holds_broadcast
                0x0000000000010274       0x18 /usr/lib/gcc/i686-linux-gnu/4.8/../../../i386-linux-gnu/crti.o
 .rel.text.queuebuf_init
                0x000000000001028c       0x20 /usr/lib/gcc/i686-linux-gnu/4.8/../../../i386-linux-gnu/crti.o
 .rel.text.queuebuf_numfree
                0x00000000000102ac       0x10 /usr/lib/gcc/i686-linux-gnu/4.8/../../../i386-linux-gnu/crti.o
 .rel.text.queuebuf_new_from_packetbuf
                0x00000000000102bc       0x40 /usr/lib/gcc/i686-linux-gnu/4.8/../../../i386-linux-gnu/crti.o
 .rel.text.queuebuf_update_attr_from_packetbuf
                0x00000000000102fc        0x8 /usr/lib/gcc/i686-linux-gnu/4.8/../../../i386-linux-gnu/crti.o
 .rel.text.queuebuf_update_from_packetbuf
                0x0000000000010304       0x10 /usr/lib/gcc/i686-linux-gnu/4.8/../../../i386-linux-gnu/crti.o
 .rel.text.queuebuf_free
                0x0000000000010314       0x30 /usr/lib/gcc/i686-linux-gnu/4.8/../../../i386-linux-gnu/crti.o
 .rel.text.queuebuf_to_packetbuf
                0x0000000000010344       0x20 /usr/lib/gcc/i686-linux-gnu/4.8/../../../i386-linux-gnu/crti.o
 .rel.text.queuebuf_dataptr
                0x0000000000010364       0x10 /usr/lib/gcc/i686-linux-gnu/4.8/../../../i386-linux-gnu/crti.o
 .rel.text.neighbor_queue_from_addr
                0x0000000000010374       0x20 /usr/lib/gcc/i686-linux-gnu/4.8/../../../i386-linux-gnu/crti.o
 .rel.text.backoff_period
                0x0000000000010394        0x8 /usr/lib/gcc/i686-linux-gnu/4.8/../../../i386-linux-gnu/crti.o
 .rel.text.transmit_packet_list
                0x000000000001039c       0x18 /usr/lib/gcc/i686-linux-gnu/4.8/../../../i386-linux-gnu/crti.o
 .rel.text.schedule_transmission
                0x00000000000103b4       0x18 /usr/lib/gcc/i686-linux-gnu/4.8/../../../i386-linux-gnu/crti.o
 .rel.text.free_packet
                0x00000000000103cc       0x60 /usr/lib/gcc/i686-linux-gnu/4.8/../../../i386-linux-gnu/crti.o
 .rel.text.tx_done
                0x000000000001042c        0x8 /usr/lib/gcc/i686-linux-gnu/4.8/../../../i386-linux-gnu/crti.o
 .rel.text.rexmit
                0x0000000000010434        0x8 /usr/lib/gcc/i686-linux-gnu/4.8/../../../i386-linux-gnu/crti.o
 .rel.text.input_packet
                0x000000000001043c        0x8 /usr/lib/gcc/i686-linux-gnu/4.8/../../../i386-linux-gnu/crti.o
 .rel.text.on   0x0000000000010444       0x10 /usr/lib/gcc/i686-linux-gnu/4.8/../../../i386-linux-gnu/crti.o
 .rel.text.off  0x0000000000010454       0x18 /usr/lib/gcc/i686-linux-gnu/4.8/../../../i386-linux-gnu/crti.o
 .rel.text.channel_check_interval
                0x000000000001046c       0x10 /usr/lib/gcc/i686-linux-gnu/4.8/../../../i386-linux-gnu/crti.o
 .rel.text.create_frame
                0x000000000001047c       0xc0 /usr/lib/gcc/i686-linux-gnu/4.8/../../../i386-linux-gnu/crti.o
 .rel.text.parse
                0x000000000001053c       0x38 /usr/lib/gcc/i686-linux-gnu/4.8/../../../i386-linux-gnu/crti.o
 .rel.text.send_one_packet
                0x0000000000010574       0xd0 /usr/lib/gcc/i686-linux-gnu/4.8/../../../i386-linux-gnu/crti.o
 .rel.text.send_list
                0x0000000000010644        0x8 /usr/lib/gcc/i686-linux-gnu/4.8/../../../i386-linux-gnu/crti.o
 .rel.text.send
                0x000000000001064c        0x8 /usr/lib/gcc/i686-linux-gnu/4.8/../../../i386-linux-gnu/crti.o
 .rel.text.stimer_set
                0x0000000000010654        0x8 /usr/lib/gcc/i686-linux-gnu/4.8/../../../i386-linux-gnu/crti.o
 .rel.text.stimer_restart
                0x000000000001065c        0x8 /usr/lib/gcc/i686-linux-gnu/4.8/../../../i386-linux-gnu/crti.o
 .rel.text.stimer_expired
                0x0000000000010664        0x8 /usr/lib/gcc/i686-linux-gnu/4.8/../../../i386-linux-gnu/crti.o
 .rel.text.stimer_remaining
                0x000000000001066c        0x8 /usr/lib/gcc/i686-linux-gnu/4.8/../../../i386-linux-gnu/crti.o
 .rel.text.stimer_elapsed
                0x0000000000010674        0x8 /usr/lib/gcc/i686-linux-gnu/4.8/../../../i386-linux-gnu/crti.o
 .rel.text.input_handler_lookup
                0x000000000001067c       0x18 /usr/lib/gcc/i686-linux-gnu/4.8/../../../i386-linux-gnu/crti.o
 .rel.text.uip_icmp6_register_input_handler
                0x0000000000010694       0x10 /usr/lib/gcc/i686-linux-gnu/4.8/../../../i386-linux-gnu/crti.o
 .rel.text.echo_request_input
                0x00000000000106a4      0x160 /usr/lib/gcc/i686-linux-gnu/4.8/../../../i386-linux-gnu/crti.o
 .rel.text.uip_icmp6_error_output
                0x0000000000010804      0x250 /usr/lib/gcc/i686-linux-gnu/4.8/../../../i386-linux-gnu/crti.o
 .rel.text.uip_icmp6_send
                0x0000000000010a54       0xc0 /usr/lib/gcc/i686-linux-gnu/4.8/../../../i386-linux-gnu/crti.o
 .rel.text.echo_reply_input
                0x0000000000010b14       0xd0 /usr/lib/gcc/i686-linux-gnu/4.8/../../../i386-linux-gnu/crti.o
 .rel.text.uip_icmp6_echo_reply_callback_add
                0x0000000000010be4       0x10 /usr/lib/gcc/i686-linux-gnu/4.8/../../../i386-linux-gnu/crti.o
 .rel.text.uip_icmp6_echo_reply_callback_rm
                0x0000000000010bf4       0x10 /usr/lib/gcc/i686-linux-gnu/4.8/../../../i386-linux-gnu/crti.o
 .rel.text.uip_icmp6_init
                0x0000000000010c04       0x20 /usr/lib/gcc/i686-linux-gnu/4.8/../../../i386-linux-gnu/crti.o
 .rel.text.update_nbr
                0x0000000000010c24       0xe0 /usr/lib/gcc/i686-linux-gnu/4.8/../../../i386-linux-gnu/crti.o
 .rel.text.find_removable_dis
                0x0000000000010d04       0x10 /usr/lib/gcc/i686-linux-gnu/4.8/../../../i386-linux-gnu/crti.o
 .rel.text.find_removable_dio
                0x0000000000010d14       0x18 /usr/lib/gcc/i686-linux-gnu/4.8/../../../i386-linux-gnu/crti.o
 .rel.text.find_removable_dao
                0x0000000000010d2c       0x10 /usr/lib/gcc/i686-linux-gnu/4.8/../../../i386-linux-gnu/crti.o
 .rel.text.rpl_nbr_policy_find_removable
                0x0000000000010d3c       0x30 /usr/lib/gcc/i686-linux-gnu/4.8/../../../i386-linux-gnu/crti.o
 .rel.text.frame802154_get_pan_id
                0x0000000000010d6c        0x8 /usr/lib/gcc/i686-linux-gnu/4.8/../../../i386-linux-gnu/crti.o
 .rel.text.frame802154_set_pan_id
                0x0000000000010d74        0x8 /usr/lib/gcc/i686-linux-gnu/4.8/../../../i386-linux-gnu/crti.o
 .rel.text.frame802154_check_dest_panid
                0x0000000000010d7c       0x10 /usr/lib/gcc/i686-linux-gnu/4.8/../../../i386-linux-gnu/crti.o
 .rel.text.frame802154_extract_linkaddr
                0x0000000000010d8c       0x40 /usr/lib/gcc/i686-linux-gnu/4.8/../../../i386-linux-gnu/crti.o
 .rel.text.field_len
                0x0000000000010dcc       0x10 /usr/lib/gcc/i686-linux-gnu/4.8/../../../i386-linux-gnu/crti.o
 .rel.text.frame802154_create
                0x0000000000010ddc        0x8 /usr/lib/gcc/i686-linux-gnu/4.8/../../../i386-linux-gnu/crti.o
 .rel.text.frame802154_parse
                0x0000000000010de4       0x50 /usr/lib/gcc/i686-linux-gnu/4.8/../../../i386-linux-gnu/crti.o
 .rel.text.mac_sequence_is_duplicate
                0x0000000000010e34       0x28 /usr/lib/gcc/i686-linux-gnu/4.8/../../../i386-linux-gnu/crti.o
 .rel.text.mac_sequence_register_seqno
                0x0000000000010e5c       0x48 /usr/lib/gcc/i686-linux-gnu/4.8/../../../i386-linux-gnu/crti.o
 *(.rel.fini)
 .rel.fini      0x0000000000000000        0x0 /usr/lib/gcc/i686-linux-gnu/4.8/../../../i386-linux-gnu/crti.o
 *(.rel.rodata .rel.rodata.* .rel.gnu.linkonce.r.*)
 .rel.rodata    0x0000000000010ea4      0x630 /usr/lib/gcc/i686-linux-gnu/4.8/../../../i386-linux-gnu/crti.o
 *(.rel.data.rel.ro .rel.data.rel.ro.* .rel.gnu.linkonce.d.rel.ro.*)
 *(.rel.data .rel.data.* .rel.gnu.linkonce.d.*)
 .rel.data.rel  0x00000000000114d4        0x8 /usr/lib/gcc/i686-linux-gnu/4.8/../../../i386-linux-gnu/crti.o
 .rel.data      0x00000000000114dc      0x370 /usr/lib/gcc/i686-linux-gnu/4.8/../../../i386-linux-gnu/crti.o
 *(.rel.tdata .rel.tdata.* .rel.gnu.linkonce.td.*)
 *(.rel.tbss .rel.tbss.* .rel.gnu.linkonce.tb.*)
 *(.rel.ctors)
 *(.rel.dtors)
 *(.rel.got)
 .rel.got       0x000000000001184c       0x28 /usr/lib/gcc/i686-linux-gnu/4.8/../../../i386-linux-gnu/crti.o
 *(.rel.bss .rel.bss.* .rel.gnu.linkonce.b.*)
 *(.rel.ifunc)
 .rel.ifunc     0x0000000000000000        0x0 /usr/lib/gcc/i686-linux-gnu/4.8/../../../i386-linux-gnu/crti.o
 .rel.fini_array
                0x0000000000011874        0x8 /usr/lib/gcc/i686-linux-gnu/4.8/../../../i386-linux-gnu/crti.o
 .rel.init_array
                0x000000000001187c        0x8 /usr/lib/gcc/i686-linux-gnu/4.8/../../../i386-linux-gnu/crti.o

.rel.plt        0x0000000000011884       0x10
 *(.rel.plt)
 .rel.plt       0x0000000000011884       0x10 /usr/lib/gcc/i686-linux-gnu/4.8/../../../i386-linux-gnu/crti.o
 *(.rel.iplt)

.init           0x0000000000011894       0x23
 *(SORT(.init))
 .init          0x0000000000011894       0x1e /usr/lib/gcc/i686-linux-gnu/4.8/../../../i386-linux-gnu/crti.o
                0x0000000000011894                _init
 .init          0x00000000000118b2        0x5 /usr/lib/gcc/i686-linux-gnu/4.8/../../../i386-linux-gnu/crtn.o

.plt            0x00000000000118c0       0x30
 *(.plt)
 .plt           0x00000000000118c0       0x30 /usr/lib/gcc/i686-linux-gnu/4.8/../../../i386-linux-gnu/crti.o
 *(.iplt)

.text           0x00000000000118f0    0x212d1
 *(.text.unlikely .text.*_unlikely .text.unlikely.*)
 *(.text.exit .text.exit.*)
 *(.text.startup .text.startup.*)
 *(.text.hot .text.hot.*)
 *(.text .stub .text.* .gnu.linkonce.t.*)
 .text          0x00000000000118f0        0x0 /usr/lib/gcc/i686-linux-gnu/4.8/../../../i386-linux-gnu/crti.o
 .gnu.linkonce.t.__x86.get_pc_thunk.bx
                0x00000000000118f0        0x4 /usr/lib/gcc/i686-linux-gnu/4.8/../../../i386-linux-gnu/crti.o
                0x00000000000118f0                __x86.get_pc_thunk.bx
 *fill*         0x00000000000118f4        0xc 
 .text          0x0000000000011900      0x11b /usr/lib/gcc/i686-linux-gnu/4.8/crtbeginS.o
 .text          0x0000000000011a1b        0x0 receiver.co
 .text.dtls_alert_create
                0x0000000000011a1b       0x10 receiver.co
 .text.dtls_alert_fatal_create
                0x0000000000011a2b       0x1b receiver.co
 .text.dtls_set_handler
                0x0000000000011a46        0xe receiver.co
 .text.try_send
                0x0000000000011a54       0x6d receiver.co
 .text.read_from_peer
                0x0000000000011ac1      0x14e receiver.co
 .text.send_to_peer
                0x0000000000011c0f       0x8c receiver.co
 .text.get_psk_info
                0x0000000000011c9b      0x10f receiver.co
 .text.dtls_handle_read
                0x0000000000011daa      0x100 receiver.co
 .text.print_local_addresses
                0x0000000000011eaa       0x80 receiver.co
 .text.set_global_address
                0x0000000000011f2a       0x82 receiver.co
 .text.set_connection_address
                0x0000000000011fac      0x100 receiver.co
 .text.dtls_complete
                0x00000000000120ac       0x21 receiver.co
 .text.init_dtls
                0x00000000000120cd       0xd7 receiver.co
                0x00000000000120cd                init_dtls
 .text.join_mcast_group
                0x00000000000121a4       0xf7 receiver.co
 .text.dtls_reqeust
                0x000000000001229b       0x51 receiver.co
                0x000000000001229b                dtls_reqeust
 .text.process_thread_udp_client_process
                0x00000000000122ec      0x1b5 receiver.co
 .text          0x00000000000124a1        0x0 obj_cooja/mtype296.o
 .text.print_processes
                0x00000000000124a1       0x47 obj_cooja/mtype296.o
 .text.rtimer_thread_loop
                0x00000000000124e8       0x12 obj_cooja/mtype296.o
 .text.set_rime_addr
                0x00000000000124fa       0xdd obj_cooja/mtype296.o
 .text.contiki_init
                0x00000000000125d7      0x385 obj_cooja/mtype296.o
                0x00000000000125d7                contiki_init
 .text.process_run_thread_loop
                0x000000000001295c       0x6a obj_cooja/mtype296.o
 .text.Java_org_contikios_cooja_corecomm_Lib2_init
                0x00000000000129c6       0x40 obj_cooja/mtype296.o
                0x00000000000129c6                Java_org_contikios_cooja_corecomm_Lib2_init
 .text.Java_org_contikios_cooja_corecomm_Lib2_getMemory
                0x0000000000012a06       0x40 obj_cooja/mtype296.o
                0x0000000000012a06                Java_org_contikios_cooja_corecomm_Lib2_getMemory
 .text.Java_org_contikios_cooja_corecomm_Lib2_setMemory
                0x0000000000012a46       0x77 obj_cooja/mtype296.o
                0x0000000000012a46                Java_org_contikios_cooja_corecomm_Lib2_setMemory
 .text.Java_org_contikios_cooja_corecomm_Lib2_tick
                0x0000000000012abd       0x5f obj_cooja/mtype296.o
                0x0000000000012abd                Java_org_contikios_cooja_corecomm_Lib2_tick
 .text.Java_org_contikios_cooja_corecomm_Lib2_setReferenceAddress
                0x0000000000012b1c       0x12 obj_cooja/mtype296.o
                0x0000000000012b1c                Java_org_contikios_cooja_corecomm_Lib2_setReferenceAddress
 .text          0x0000000000012b2e        0x0 obj_cooja/mtype296.a(dtls.o)
 .text.equals   0x0000000000012b2e       0x44 obj_cooja/mtype296.a(dtls.o)
 .text.check_stack
                0x0000000000012b72        0x5 obj_cooja/mtype296.a(dtls.o)
 .text.dtls_int_to_uint8
                0x0000000000012b77       0x1c obj_cooja/mtype296.a(dtls.o)
 .text.dtls_int_to_uint16
                0x0000000000012b93       0x2f obj_cooja/mtype296.a(dtls.o)
 .text.dtls_int_to_uint24
                0x0000000000012bc2       0x30 obj_cooja/mtype296.a(dtls.o)
 .text.dtls_int_to_uint32
                0x0000000000012bf2       0x3e obj_cooja/mtype296.a(dtls.o)
 .text.dtls_int_to_uint48
                0x0000000000012c30       0x89 obj_cooja/mtype296.a(dtls.o)
 .text.dtls_uint8_to_int
                0x0000000000012cb9        0xb obj_cooja/mtype296.a(dtls.o)
 .text.dtls_uint16_to_int
                0x0000000000012cc4       0x21 obj_cooja/mtype296.a(dtls.o)
 .text.dtls_uint24_to_int
                0x0000000000012ce5       0x32 obj_cooja/mtype296.a(dtls.o)
 .text.dtls_hash_init
                0x0000000000012d17       0x13 obj_cooja/mtype296.a(dtls.o)
 .text.dtls_hash_update
                0x0000000000012d2a       0x21 obj_cooja/mtype296.a(dtls.o)
 .text.dtls_hash_finalize
                0x0000000000012d4b       0x1f obj_cooja/mtype296.a(dtls.o)
 .text.dtls_security_params_epoch
                0x0000000000012d6a       0x58 obj_cooja/mtype296.a(dtls.o)
 .text.dtls_security_params
                0x0000000000012dc2        0xb obj_cooja/mtype296.a(dtls.o)
 .text.dtls_security_params_next
                0x0000000000012dcd       0x59 obj_cooja/mtype296.a(dtls.o)
 .text.dtls_security_params_free_other
                0x0000000000012e26       0x50 obj_cooja/mtype296.a(dtls.o)
 .text.dtls_security_params_switch
                0x0000000000012e76       0x26 obj_cooja/mtype296.a(dtls.o)
 .text.dtls_alert_create
                0x0000000000012e9c       0x10 obj_cooja/mtype296.a(dtls.o)
 .text.dtls_alert_fatal_create
                0x0000000000012eac       0x1b obj_cooja/mtype296.a(dtls.o)
 .text.dtls_prng
                0x0000000000012ec7       0x52 obj_cooja/mtype296.a(dtls.o)
 .text.dtls_prng_init
                0x0000000000012f19        0xf obj_cooja/mtype296.a(dtls.o)
 .text.malloc_context
                0x0000000000012f28        0xa obj_cooja/mtype296.a(dtls.o)
 .text.free_context
                0x0000000000012f32        0x5 obj_cooja/mtype296.a(dtls.o)
 .text.dtls_init
                0x0000000000012f37       0x1c obj_cooja/mtype296.a(dtls.o)
                0x0000000000012f37                dtls_init
 .text.dtls_send
                0x0000000000012f53       0x5e obj_cooja/mtype296.a(dtls.o)
 .text.dtls_get_peer
                0x0000000000012fb1       0x57 obj_cooja/mtype296.a(dtls.o)
                0x0000000000012fb1                dtls_get_peer
 .text.dtls_add_peer
                0x0000000000013008       0x1d obj_cooja/mtype296.a(dtls.o)
 .text.dtls_write
                0x0000000000013025       0x94 obj_cooja/mtype296.a(dtls.o)
                0x0000000000013025                dtls_write
 .text.dtls_get_cookie
                0x00000000000130b9       0xd8 obj_cooja/mtype296.a(dtls.o)
 .text.dtls_create_cookie
                0x0000000000013191      0x233 obj_cooja/mtype296.a(dtls.o)
 .text.is_record
                0x00000000000133c4       0x58 obj_cooja/mtype296.a(dtls.o)
 .text.dtls_set_record_header
                0x000000000001341c       0xd9 obj_cooja/mtype296.a(dtls.o)
 .text.dtls_set_handshake_header
                0x00000000000134f5       0xc8 obj_cooja/mtype296.a(dtls.o)
 .text.is_tls_ecdhe_ecdsa_with_aes_128_ccm_8
                0x00000000000135bd        0xa obj_cooja/mtype296.a(dtls.o)
 .text.is_tls_psk_with_aes_128_ccm_8
                0x00000000000135c7       0x12 obj_cooja/mtype296.a(dtls.o)
 .text.is_psk_supported
                0x00000000000135d9       0x2e obj_cooja/mtype296.a(dtls.o)
 .text.is_rpk_supported
                0x0000000000013607        0xa obj_cooja/mtype296.a(dtls.o)
 .text.is_cert_supported
                0x0000000000013611        0xa obj_cooja/mtype296.a(dtls.o)
 .text.known_cipher
                0x000000000001361b       0x7c obj_cooja/mtype296.a(dtls.o)
 .text.dtls_debug_keyblock
                0x0000000000013697      0x130 obj_cooja/mtype296.a(dtls.o)
 .text.dtls_handshake_type_to_name
                0x00000000000137c7       0x6c obj_cooja/mtype296.a(dtls.o)
 .text.calculate_key_block
                0x0000000000013833      0x39e obj_cooja/mtype296.a(dtls.o)
 .text.dtls_check_tls_extension
                0x0000000000013bd1      0x1a0 obj_cooja/mtype296.a(dtls.o)
 .text.dtls_update_parameters
                0x0000000000013d71      0x376 obj_cooja/mtype296.a(dtls.o)
 .text.check_client_keyexchange
                0x00000000000140e7       0xd5 obj_cooja/mtype296.a(dtls.o)
 .text.update_hs_hash
                0x00000000000141bc       0x51 obj_cooja/mtype296.a(dtls.o)
 .text.copy_hs_hash
                0x000000000001420d       0x28 obj_cooja/mtype296.a(dtls.o)
 .text.finalize_hs_hash
                0x0000000000014235       0x20 obj_cooja/mtype296.a(dtls.o)
 .text.clear_hs_hash
                0x0000000000014255       0x3f obj_cooja/mtype296.a(dtls.o)
 .text.check_finished
                0x0000000000014294      0x1ef obj_cooja/mtype296.a(dtls.o)
 .text.dtls_prepare_record
                0x0000000000014483      0x550 obj_cooja/mtype296.a(dtls.o)
 .text.dtls_send_handshake_msg_hash
                0x00000000000149d3      0x172 obj_cooja/mtype296.a(dtls.o)
 .text.dtls_send_handshake_msg
                0x0000000000014b45       0x48 obj_cooja/mtype296.a(dtls.o)
 .text.dtls_encrypt_data
                0x0000000000014b8d       0xc1 obj_cooja/mtype296.a(dtls.o)
                0x0000000000014b8d                dtls_encrypt_data
 .text.dtls_encrypt_x
                0x0000000000014c4e       0x8c obj_cooja/mtype296.a(dtls.o)
 .text.dtls_prepare_record_x
                0x0000000000014cda      0x3c4 obj_cooja/mtype296.a(dtls.o)
 .text.dtls_send_multi
                0x000000000001509e      0x42f obj_cooja/mtype296.a(dtls.o)
 .text.dtls_send_alert
                0x00000000000154cd       0x42 obj_cooja/mtype296.a(dtls.o)
 .text.dtls_close
                0x000000000001550f       0x8c obj_cooja/mtype296.a(dtls.o)
                0x000000000001550f                dtls_close
 .text.dtls_destroy_peer
                0x000000000001559b       0x77 obj_cooja/mtype296.a(dtls.o)
 .text.dtls_verify_peer
                0x0000000000015612      0x26d obj_cooja/mtype296.a(dtls.o)
 .text.dtls_send_server_hello
                0x000000000001587f      0x1ab obj_cooja/mtype296.a(dtls.o)
 .text.dtls_send_server_key_exchange_psk
                0x0000000000015a2a      0x103 obj_cooja/mtype296.a(dtls.o)
 .text.dtls_send_server_hello_done
                0x0000000000015b2d       0x32 obj_cooja/mtype296.a(dtls.o)
 .text.dtls_send_server_hello_msgs
                0x0000000000015b5f      0x16b obj_cooja/mtype296.a(dtls.o)
 .text.dtls_send_ccs
                0x0000000000015cca       0x35 obj_cooja/mtype296.a(dtls.o)
 .text.dtls_send_client_key_exchange
                0x0000000000015cff      0x231 obj_cooja/mtype296.a(dtls.o)
 .text.dtls_send_finished
                0x0000000000015f30      0x182 obj_cooja/mtype296.a(dtls.o)
 .text.dtls_send_client_hello
                0x00000000000160b2      0x631 obj_cooja/mtype296.a(dtls.o)
 .text.check_server_hello
                0x00000000000166e3      0x1db obj_cooja/mtype296.a(dtls.o)
 .text.check_server_hello_verify_request
                0x00000000000168be       0x67 obj_cooja/mtype296.a(dtls.o)
 .text.check_server_key_exchange_psk
                0x0000000000016925      0x109 obj_cooja/mtype296.a(dtls.o)
 .text.check_certificate_request
                0x0000000000016a2e      0x1f7 obj_cooja/mtype296.a(dtls.o)
 .text.check_server_hellodone
                0x0000000000016c25       0xf3 obj_cooja/mtype296.a(dtls.o)
 .text.decrypt_verify
                0x0000000000016d18      0x35a obj_cooja/mtype296.a(dtls.o)
 .text.dtls_send_hello_request
                0x0000000000017072       0x44 obj_cooja/mtype296.a(dtls.o)
 .text.dtls_renegotiate
                0x00000000000170b6       0xf6 obj_cooja/mtype296.a(dtls.o)
                0x00000000000170b6                dtls_renegotiate
 .text.handle_handshake_msg
                0x00000000000171ac      0x7b9 obj_cooja/mtype296.a(dtls.o)
 .text.handle_handshake
                0x0000000000017965      0x424 obj_cooja/mtype296.a(dtls.o)
 .text.handle_ccs
                0x0000000000017d89       0xa8 obj_cooja/mtype296.a(dtls.o)
 .text.handle_alert
                0x0000000000017e31      0x194 obj_cooja/mtype296.a(dtls.o)
 .text.dtls_alert_send_from_err
                0x0000000000017fc5       0xe0 obj_cooja/mtype296.a(dtls.o)
 .text.dtls_handle_message
                0x00000000000180a5      0x665 obj_cooja/mtype296.a(dtls.o)
                0x00000000000180a5                dtls_handle_message
 .text.dtls_new_context
                0x000000000001870a      0x12b obj_cooja/mtype296.a(dtls.o)
                0x000000000001870a                dtls_new_context
 .text.dtls_free_context
                0x0000000000018835       0x68 obj_cooja/mtype296.a(dtls.o)
                0x0000000000018835                dtls_free_context
 .text.dtls_connect_peer
                0x000000000001889d      0x13b obj_cooja/mtype296.a(dtls.o)
                0x000000000001889d                dtls_connect_peer
 .text.dtls_connect
                0x00000000000189d8      0x114 obj_cooja/mtype296.a(dtls.o)
                0x00000000000189d8                dtls_connect
 .text.dtls_retransmit
                0x0000000000018aec      0x32f obj_cooja/mtype296.a(dtls.o)
 .text.dtls_stop_retransmission
                0x0000000000018e1b       0x84 obj_cooja/mtype296.a(dtls.o)
 .text.dtls_check_retransmit
                0x0000000000018e9f       0x81 obj_cooja/mtype296.a(dtls.o)
                0x0000000000018e9f                dtls_check_retransmit
 .text.process_thread_dtls_retransmit_process
                0x0000000000018f20      0x1aa obj_cooja/mtype296.a(dtls.o)
 .text.change_sequence
                0x00000000000190ca       0x43 obj_cooja/mtype296.a(dtls.o)
                0x00000000000190ca                change_sequence
 .text          0x000000000001910d        0x0 obj_cooja/mtype296.a(tinydtls-crypto)
 .text.dtls_int_to_uint16
                0x000000000001910d       0x2f obj_cooja/mtype296.a(tinydtls-crypto)
 .text.dtls_hash_init
                0x000000000001913c       0x13 obj_cooja/mtype296.a(tinydtls-crypto)
 .text.dtls_cipher_context_get
                0x000000000001914f        0xa obj_cooja/mtype296.a(tinydtls-crypto)
 .text.dtls_cipher_context_release
                0x0000000000019159        0x5 obj_cooja/mtype296.a(tinydtls-crypto)
 .text.dtls_crypto_init
                0x000000000001915e       0x20 obj_cooja/mtype296.a(tinydtls-crypto)
                0x000000000001915e                dtls_crypto_init
 .text.dtls_handshake_malloc
                0x000000000001917e       0x14 obj_cooja/mtype296.a(tinydtls-crypto)
 .text.dtls_handshake_dealloc
                0x0000000000019192       0x1b obj_cooja/mtype296.a(tinydtls-crypto)
 .text.dtls_security_malloc
                0x00000000000191ad       0x14 obj_cooja/mtype296.a(tinydtls-crypto)
 .text.dtls_security_dealloc
                0x00000000000191c1       0x1b obj_cooja/mtype296.a(tinydtls-crypto)
 .text.dtls_handshake_new
                0x00000000000191dc       0x67 obj_cooja/mtype296.a(tinydtls-crypto)
                0x00000000000191dc                dtls_handshake_new
 .text.dtls_handshake_free
                0x0000000000019243       0x29 obj_cooja/mtype296.a(tinydtls-crypto)
                0x0000000000019243                dtls_handshake_free
 .text.dtls_security_new
                0x000000000001926c       0x60 obj_cooja/mtype296.a(tinydtls-crypto)
                0x000000000001926c                dtls_security_new
 .text.dtls_security_free
                0x00000000000192cc       0x1b obj_cooja/mtype296.a(tinydtls-crypto)
                0x00000000000192cc                dtls_security_free
 .text.dtls_p_hash
                0x00000000000192e7      0x2fa obj_cooja/mtype296.a(tinydtls-crypto)
                0x00000000000192e7                dtls_p_hash
 .text.dtls_prf
                0x00000000000195e1       0x74 obj_cooja/mtype296.a(tinydtls-crypto)
                0x00000000000195e1                dtls_prf
 .text.dtls_prf_custom
                0x0000000000019655       0xd4 obj_cooja/mtype296.a(tinydtls-crypto)
                0x0000000000019655                dtls_prf_custom
 .text.dtls_mac
                0x0000000000019729       0xb3 obj_cooja/mtype296.a(tinydtls-crypto)
                0x0000000000019729                dtls_mac
 .text.dtls_ccm_encrypt
                0x00000000000197dc       0x66 obj_cooja/mtype296.a(tinydtls-crypto)
 .text.dtls_ccm_decrypt
                0x0000000000019842       0x66 obj_cooja/mtype296.a(tinydtls-crypto)
 .text.dtls_psk_pre_master_secret
                0x00000000000198a8       0x9a obj_cooja/mtype296.a(tinydtls-crypto)
                0x00000000000198a8                dtls_psk_pre_master_secret
 .text.dtls_encrypt
                0x0000000000019942       0xa6 obj_cooja/mtype296.a(tinydtls-crypto)
                0x0000000000019942                dtls_encrypt
 .text.dtls_decrypt
                0x00000000000199e8       0xa6 obj_cooja/mtype296.a(tinydtls-crypto)
                0x00000000000199e8                dtls_decrypt
 .text          0x0000000000019a8e        0x0 obj_cooja/mtype296.a(hmac.o)
 .text.dtls_hash_init
                0x0000000000019a8e       0x13 obj_cooja/mtype296.a(hmac.o)
 .text.dtls_hash_update
                0x0000000000019aa1       0x21 obj_cooja/mtype296.a(hmac.o)
 .text.dtls_hash_finalize
                0x0000000000019ac2       0x1f obj_cooja/mtype296.a(hmac.o)
 .text.dtls_hmac_context_new
                0x0000000000019ae1       0x14 obj_cooja/mtype296.a(hmac.o)
 .text.dtls_hmac_context_free
                0x0000000000019af5       0x1b obj_cooja/mtype296.a(hmac.o)
 .text.dtls_hmac_storage_init
                0x0000000000019b10       0x14 obj_cooja/mtype296.a(hmac.o)
                0x0000000000019b10                dtls_hmac_storage_init
 .text.dtls_hmac_update
                0x0000000000019b24       0x3e obj_cooja/mtype296.a(hmac.o)
                0x0000000000019b24                dtls_hmac_update
 .text.dtls_hmac_new
                0x0000000000019b62       0x32 obj_cooja/mtype296.a(hmac.o)
                0x0000000000019b62                dtls_hmac_new
 .text.dtls_hmac_init
                0x0000000000019b94      0x11b obj_cooja/mtype296.a(hmac.o)
                0x0000000000019b94                dtls_hmac_init
 .text.dtls_hmac_free
                0x0000000000019caf       0x19 obj_cooja/mtype296.a(hmac.o)
                0x0000000000019caf                dtls_hmac_free
 .text.dtls_hmac_finalize
                0x0000000000019cc8       0xde obj_cooja/mtype296.a(hmac.o)
                0x0000000000019cc8                dtls_hmac_finalize
 .text          0x0000000000019da6        0x0 obj_cooja/mtype296.a(netq.o)
 .text.netq_malloc_node
                0x0000000000019da6       0x14 obj_cooja/mtype296.a(netq.o)
 .text.netq_free_node
                0x0000000000019dba       0x1b obj_cooja/mtype296.a(netq.o)
 .text.netq_init
                0x0000000000019dd5       0x14 obj_cooja/mtype296.a(netq.o)
                0x0000000000019dd5                netq_init
 .text.netq_insert_node
                0x0000000000019de9       0xb7 obj_cooja/mtype296.a(netq.o)
                0x0000000000019de9                netq_insert_node
 .text.netq_head
                0x0000000000019ea0       0x20 obj_cooja/mtype296.a(netq.o)
                0x0000000000019ea0                netq_head
 .text.netq_next
                0x0000000000019ec0       0x20 obj_cooja/mtype296.a(netq.o)
                0x0000000000019ec0                netq_next
 .text.netq_remove
                0x0000000000019ee0       0x28 obj_cooja/mtype296.a(netq.o)
                0x0000000000019ee0                netq_remove
 .text.netq_pop_first
                0x0000000000019f08       0x20 obj_cooja/mtype296.a(netq.o)
                0x0000000000019f08                netq_pop_first
 .text.netq_node_new
                0x0000000000019f28       0x4c obj_cooja/mtype296.a(netq.o)
                0x0000000000019f28                netq_node_new
 .text.netq_node_free
                0x0000000000019f74       0x19 obj_cooja/mtype296.a(netq.o)
                0x0000000000019f74                netq_node_free
 .text.netq_delete_all
                0x0000000000019f8d       0x2f obj_cooja/mtype296.a(netq.o)
                0x0000000000019f8d                netq_delete_all
 .text          0x0000000000019fbc        0x0 obj_cooja/mtype296.a(dtls_time.o)
 .text.dtls_clock_init
                0x0000000000019fbc       0x12 obj_cooja/mtype296.a(dtls_time.o)
                0x0000000000019fbc                dtls_clock_init
 .text.dtls_ticks
                0x0000000000019fce       0x12 obj_cooja/mtype296.a(dtls_time.o)
                0x0000000000019fce                dtls_ticks
 .text          0x0000000000019fe0        0x0 obj_cooja/mtype296.a(peer.o)
 .text.peer_init
                0x0000000000019fe0       0x14 obj_cooja/mtype296.a(peer.o)
                0x0000000000019fe0                peer_init
 .text.dtls_malloc_peer
                0x0000000000019ff4       0x14 obj_cooja/mtype296.a(peer.o)
 .text.dtls_free_peer
                0x000000000001a008       0x45 obj_cooja/mtype296.a(peer.o)
                0x000000000001a008                dtls_free_peer
 .text.dtls_new_peer
                0x000000000001a04d       0x93 obj_cooja/mtype296.a(peer.o)
                0x000000000001a04d                dtls_new_peer
 .text          0x000000000001a0e0        0x0 obj_cooja/mtype296.a(session.o)
 .text.dtls_session_init
                0x000000000001a0e0       0x43 obj_cooja/mtype296.a(session.o)
                0x000000000001a0e0                dtls_session_init
 .text.dtls_session_equals
                0x000000000001a123       0x9f obj_cooja/mtype296.a(session.o)
                0x000000000001a123                dtls_session_equals
 .text          0x000000000001a1c2        0x0 obj_cooja/mtype296.a(rijndael.o)
 .text.rijndaelKeySetupEnc
                0x000000000001a1c2      0x610 obj_cooja/mtype296.a(rijndael.o)
                0x000000000001a1c2                rijndaelKeySetupEnc
 .text.rijndaelEncrypt
                0x000000000001a7d2      0x613 obj_cooja/mtype296.a(rijndael.o)
                0x000000000001a7d2                rijndaelEncrypt
 .text.rijndael_set_key_enc_only
                0x000000000001ade5       0x41 obj_cooja/mtype296.a(rijndael.o)
                0x000000000001ade5                rijndael_set_key_enc_only
 .text.rijndael_encrypt
                0x000000000001ae26       0x2d obj_cooja/mtype296.a(rijndael.o)
                0x000000000001ae26                rijndael_encrypt
 .text          0x000000000001ae53        0x0 obj_cooja/mtype296.a(tinydtls-ccm.o)
 .text.memxor   0x000000000001ae53       0x2f obj_cooja/mtype296.a(tinydtls-ccm.o)
 .text.equals   0x000000000001ae82       0x44 obj_cooja/mtype296.a(tinydtls-ccm.o)
 .text.dtls_int_to_uint16
                0x000000000001aec6       0x2f obj_cooja/mtype296.a(tinydtls-ccm.o)
 .text.block0   0x000000000001aef5       0x82 obj_cooja/mtype296.a(tinydtls-ccm.o)
 .text.add_auth_data
                0x000000000001af77      0x1c0 obj_cooja/mtype296.a(tinydtls-ccm.o)
 .text.encrypt  0x000000000001b137       0xc3 obj_cooja/mtype296.a(tinydtls-ccm.o)
 .text.mac      0x000000000001b1fa       0x5d obj_cooja/mtype296.a(tinydtls-ccm.o)
 .text.dtls_ccm_encrypt_message
                0x000000000001b257      0x298 obj_cooja/mtype296.a(tinydtls-ccm.o)
                0x000000000001b257                dtls_ccm_encrypt_message
 .text.dtls_ccm_decrypt_message
                0x000000000001b4ef      0x2b2 obj_cooja/mtype296.a(tinydtls-ccm.o)
                0x000000000001b4ef                dtls_ccm_decrypt_message
 .text          0x000000000001b7a1        0x0 obj_cooja/mtype296.a(sha2.o)
 .text.SHA256_Init
                0x000000000001b7a1       0x5a obj_cooja/mtype296.a(sha2.o)
                0x000000000001b7a1                SHA256_Init
 .text.SHA256_Transform
                0x000000000001b7fb      0x3c3 obj_cooja/mtype296.a(sha2.o)
                0x000000000001b7fb                SHA256_Transform
 .text.SHA256_Update
                0x000000000001bbbe      0x1b6 obj_cooja/mtype296.a(sha2.o)
                0x000000000001bbbe                SHA256_Update
 .text.SHA256_Final
                0x000000000001bd74      0x2a4 obj_cooja/mtype296.a(sha2.o)
                0x000000000001bd74                SHA256_Final
 .text.SHA256_End
                0x000000000001c018      0x109 obj_cooja/mtype296.a(sha2.o)
                0x000000000001c018                SHA256_End
 .text.SHA256_Data
                0x000000000001c121       0x69 obj_cooja/mtype296.a(sha2.o)
                0x000000000001c121                SHA256_Data
 .text          0x000000000001c18a        0x0 obj_cooja/mtype296.a(debug.o)
 .text.dtls_package_name
                0x000000000001c18a        0xa obj_cooja/mtype296.a(debug.o)
                0x000000000001c18a                dtls_package_name
 .text.dtls_package_version
                0x000000000001c194        0xa obj_cooja/mtype296.a(debug.o)
                0x000000000001c194                dtls_package_version
 .text.dtls_get_log_level
                0x000000000001c19e        0xa obj_cooja/mtype296.a(debug.o)
                0x000000000001c19e                dtls_get_log_level
 .text.dtls_set_log_level
                0x000000000001c1a8        0xd obj_cooja/mtype296.a(debug.o)
                0x000000000001c1a8                dtls_set_log_level
 .text.print_timestamp
                0x000000000001c1b5        0xa obj_cooja/mtype296.a(debug.o)
 .text.dsrv_print_addr
                0x000000000001c1bf      0x190 obj_cooja/mtype296.a(debug.o)
 .text.hexdump  0x000000000001c34f       0x8c obj_cooja/mtype296.a(debug.o)
                0x000000000001c34f                hexdump
 .text.dump     0x000000000001c3db       0x36 obj_cooja/mtype296.a(debug.o)
                0x000000000001c3db                dump
 .text.dtls_dsrv_log_addr
                0x000000000001c411       0x76 obj_cooja/mtype296.a(debug.o)
                0x000000000001c411                dtls_dsrv_log_addr
 .text.dtls_dsrv_hexdump_log
                0x000000000001c487      0x16a obj_cooja/mtype296.a(debug.o)
                0x000000000001c487                dtls_dsrv_hexdump_log
 .text          0x000000000001c5f1        0x0 obj_cooja/mtype296.a(simEnvChange.o)
 .text.doActionsBeforeTick
                0x000000000001c5f1       0x31 obj_cooja/mtype296.a(simEnvChange.o)
                0x000000000001c5f1                doActionsBeforeTick
 .text.doActionsAfterTick
                0x000000000001c622       0x32 obj_cooja/mtype296.a(simEnvChange.o)
                0x000000000001c622                doActionsAfterTick
 .text          0x000000000001c654        0x0 obj_cooja/mtype296.a(cooja_mt.o)
 .text.cooja_mt_init
                0x000000000001c654        0xd obj_cooja/mtype296.a(cooja_mt.o)
                0x000000000001c654                cooja_mt_init
 .text.cooja_mt_remove
                0x000000000001c661        0xd obj_cooja/mtype296.a(cooja_mt.o)
                0x000000000001c661                cooja_mt_remove
 .text.cooja_mt_start
                0x000000000001c66e       0x2d obj_cooja/mtype296.a(cooja_mt.o)
                0x000000000001c66e                cooja_mt_start
 .text.cooja_mt_exec
                0x000000000001c69b       0x31 obj_cooja/mtype296.a(cooja_mt.o)
                0x000000000001c69b                cooja_mt_exec
 .text.cooja_mt_exit
                0x000000000001c6cc       0x22 obj_cooja/mtype296.a(cooja_mt.o)
                0x000000000001c6cc                cooja_mt_exit
 .text.cooja_mt_yield
                0x000000000001c6ee       0x22 obj_cooja/mtype296.a(cooja_mt.o)
                0x000000000001c6ee                cooja_mt_yield
 .text          0x000000000001c710        0x0 obj_cooja/mtype296.a(cooja_mtarch.o)
 .text.cooja_mtarch_init
                0x000000000001c710        0x5 obj_cooja/mtype296.a(cooja_mtarch.o)
                0x000000000001c710                cooja_mtarch_init
 .text.cooja_mtarch_start
                0x000000000001c715       0x7b obj_cooja/mtype296.a(cooja_mtarch.o)
                0x000000000001c715                cooja_mtarch_start
 .text.cooja_sw
                0x000000000001c790       0x22 obj_cooja/mtype296.a(cooja_mtarch.o)
                0x000000000001c790                cooja_sw
 .text.cooja_mtarch_exec
                0x000000000001c7b2       0x1c obj_cooja/mtype296.a(cooja_mtarch.o)
                0x000000000001c7b2                cooja_mtarch_exec
 .text.cooja_mtarch_remove
                0x000000000001c7ce        0x5 obj_cooja/mtype296.a(cooja_mtarch.o)
                0x000000000001c7ce                cooja_mtarch_remove
 .text.cooja_mtarch_yield
                0x000000000001c7d3        0xa obj_cooja/mtype296.a(cooja_mtarch.o)
                0x000000000001c7d3                cooja_mtarch_yield
 .text.cooja_mtarch_pstop
                0x000000000001c7dd        0x5 obj_cooja/mtype296.a(cooja_mtarch.o)
                0x000000000001c7dd                cooja_mtarch_pstop
 .text.cooja_mtarch_pstart
                0x000000000001c7e2        0x5 obj_cooja/mtype296.a(cooja_mtarch.o)
                0x000000000001c7e2                cooja_mtarch_pstart
 .text.cooja_mtarch_stack_usage
                0x000000000001c7e7       0x3e obj_cooja/mtype296.a(cooja_mtarch.o)
                0x000000000001c7e7                cooja_mtarch_stack_usage
 .text          0x000000000001c825        0x0 obj_cooja/mtype296.a(rtimer-arch.o)
 .text.rtimer_arch_init
                0x000000000001c825       0x23 obj_cooja/mtype296.a(rtimer-arch.o)
                0x000000000001c825                rtimer_arch_init
 .text.rtimer_arch_schedule
                0x000000000001c848       0x2f obj_cooja/mtype296.a(rtimer-arch.o)
                0x000000000001c848                rtimer_arch_schedule
 .text.rtimer_arch_next
                0x000000000001c877       0x10 obj_cooja/mtype296.a(rtimer-arch.o)
                0x000000000001c877                rtimer_arch_next
 .text.rtimer_arch_pending
                0x000000000001c887        0xa obj_cooja/mtype296.a(rtimer-arch.o)
                0x000000000001c887                rtimer_arch_pending
 .text.rtimer_arch_check
                0x000000000001c891       0x47 obj_cooja/mtype296.a(rtimer-arch.o)
                0x000000000001c891                rtimer_arch_check
 .text.rtimer_arch_now
                0x000000000001c8d8       0x10 obj_cooja/mtype296.a(rtimer-arch.o)
                0x000000000001c8d8                rtimer_arch_now
 .text          0x000000000001c8e8        0x0 obj_cooja/mtype296.a(beep.o)
 .text.beep_alarm
                0x000000000001c8e8        0xc obj_cooja/mtype296.a(beep.o)
                0x000000000001c8e8                beep_alarm
 .text.beep_beep
                0x000000000001c8f4        0xc obj_cooja/mtype296.a(beep.o)
                0x000000000001c8f4                beep_beep
 .text.beep     0x000000000001c900        0xc obj_cooja/mtype296.a(beep.o)
                0x000000000001c900                beep
 .text.beep_down
                0x000000000001c90c        0xc obj_cooja/mtype296.a(beep.o)
                0x000000000001c90c                beep_down
 .text.beep_on  0x000000000001c918        0xc obj_cooja/mtype296.a(beep.o)
                0x000000000001c918                beep_on
 .text.beep_off
                0x000000000001c924        0xc obj_cooja/mtype296.a(beep.o)
                0x000000000001c924                beep_off
 .text.beep_spinup
                0x000000000001c930        0xc obj_cooja/mtype296.a(beep.o)
                0x000000000001c930                beep_spinup
 .text.beep_quick
                0x000000000001c93c        0xc obj_cooja/mtype296.a(beep.o)
                0x000000000001c93c                beep_quick
 .text.beep_long
                0x000000000001c948        0xc obj_cooja/mtype296.a(beep.o)
                0x000000000001c948                beep_long
 .text.doInterfaceActionsBeforeTick
                0x000000000001c954        0x5 obj_cooja/mtype296.a(beep.o)
 .text.doInterfaceActionsAfterTick
                0x000000000001c959        0x5 obj_cooja/mtype296.a(beep.o)
 .text          0x000000000001c95e        0x0 obj_cooja/mtype296.a(button-sensor.o)
 .text.value    0x000000000001c95e       0x2f obj_cooja/mtype296.a(button-sensor.o)
 .text.configure
                0x000000000001c98d       0x50 obj_cooja/mtype296.a(button-sensor.o)
 .text.status   0x000000000001c9dd       0x1f obj_cooja/mtype296.a(button-sensor.o)
 .text.doInterfaceActionsBeforeTick
                0x000000000001c9fc       0x60 obj_cooja/mtype296.a(button-sensor.o)
 .text.doInterfaceActionsAfterTick
                0x000000000001ca5c        0x5 obj_cooja/mtype296.a(button-sensor.o)
 .text          0x000000000001ca61        0x0 obj_cooja/mtype296.a(leds-arch.o)
 .text.leds_arch_init
                0x000000000001ca61        0xc obj_cooja/mtype296.a(leds-arch.o)
                0x000000000001ca61                leds_arch_init
 .text.leds_arch_get
                0x000000000001ca6d        0xc obj_cooja/mtype296.a(leds-arch.o)
                0x000000000001ca6d                leds_arch_get
 .text.leds_arch_set
                0x000000000001ca79       0x23 obj_cooja/mtype296.a(leds-arch.o)
                0x000000000001ca79                leds_arch_set
 .text.doInterfaceActionsBeforeTick
                0x000000000001ca9c        0x5 obj_cooja/mtype296.a(leds-arch.o)
 .text.doInterfaceActionsAfterTick
                0x000000000001caa1        0x5 obj_cooja/mtype296.a(leds-arch.o)
 .text          0x000000000001caa6        0x0 obj_cooja/mtype296.a(moteid.o)
 .text.doInterfaceActionsBeforeTick
                0x000000000001caa6       0x2a obj_cooja/mtype296.a(moteid.o)
 .text.doInterfaceActionsAfterTick
                0x000000000001cad0        0x5 obj_cooja/mtype296.a(moteid.o)
 .text          0x000000000001cad5        0x0 obj_cooja/mtype296.a(pir-sensor.o)
 .text.value    0x000000000001cad5        0xf obj_cooja/mtype296.a(pir-sensor.o)
 .text.configure
                0x000000000001cae4       0x3a obj_cooja/mtype296.a(pir-sensor.o)
 .text.status   0x000000000001cb1e       0x23 obj_cooja/mtype296.a(pir-sensor.o)
 .text.doInterfaceActionsBeforeTick
                0x000000000001cb41       0x40 obj_cooja/mtype296.a(pir-sensor.o)
 .text.doInterfaceActionsAfterTick
                0x000000000001cb81        0x5 obj_cooja/mtype296.a(pir-sensor.o)
 .text          0x000000000001cb86        0x0 obj_cooja/mtype296.a(rs232.o)
 .text.rs232_init
                0x000000000001cb86        0x5 obj_cooja/mtype296.a(rs232.o)
                0x000000000001cb86                rs232_init
 .text.rs232_set_speed
                0x000000000001cb8b        0xe obj_cooja/mtype296.a(rs232.o)
                0x000000000001cb8b                rs232_set_speed
 .text.rs232_set_input
                0x000000000001cb99        0xd obj_cooja/mtype296.a(rs232.o)
                0x000000000001cb99                rs232_set_input
 .text.rs232_send
                0x000000000001cba6       0x22 obj_cooja/mtype296.a(rs232.o)
                0x000000000001cba6                rs232_send
 .text.rs232_print
                0x000000000001cbc8       0x1b obj_cooja/mtype296.a(rs232.o)
                0x000000000001cbc8                rs232_print
 .text.slip_arch_writeb
                0x000000000001cbe3       0x1d obj_cooja/mtype296.a(rs232.o)
                0x000000000001cbe3                slip_arch_writeb
 .text.doInterfaceActionsBeforeTick
                0x000000000001cc00       0xb2 obj_cooja/mtype296.a(rs232.o)
 .text.doInterfaceActionsAfterTick
                0x000000000001ccb2        0x5 obj_cooja/mtype296.a(rs232.o)
 .text          0x000000000001ccb7        0x0 obj_cooja/mtype296.a(vib-sensor.o)
 .text.value    0x000000000001ccb7        0xf obj_cooja/mtype296.a(vib-sensor.o)
 .text.configure
                0x000000000001ccc6       0x3a obj_cooja/mtype296.a(vib-sensor.o)
 .text.status   0x000000000001cd00       0x23 obj_cooja/mtype296.a(vib-sensor.o)
 .text.doInterfaceActionsBeforeTick
                0x000000000001cd23       0x40 obj_cooja/mtype296.a(vib-sensor.o)
 .text.doInterfaceActionsAfterTick
                0x000000000001cd63        0x5 obj_cooja/mtype296.a(vib-sensor.o)
 .text          0x000000000001cd68        0x0 obj_cooja/mtype296.a(clock.o)
 .text.clock_init
                0x000000000001cd68        0x5 obj_cooja/mtype296.a(clock.o)
                0x000000000001cd68                clock_init
 .text.clock_time
                0x000000000001cd6d        0xa obj_cooja/mtype296.a(clock.o)
                0x000000000001cd6d                clock_time
 .text.clock_seconds
                0x000000000001cd77       0x16 obj_cooja/mtype296.a(clock.o)
                0x000000000001cd77                clock_seconds
 .text.clock_delay
                0x000000000001cd8d        0x5 obj_cooja/mtype296.a(clock.o)
                0x000000000001cd8d                clock_delay
 .text.doInterfaceActionsBeforeTick
                0x000000000001cd92        0x5 obj_cooja/mtype296.a(clock.o)
 .text.doInterfaceActionsAfterTick
                0x000000000001cd97        0x5 obj_cooja/mtype296.a(clock.o)
 .text          0x000000000001cd9c        0x0 obj_cooja/mtype296.a(log.o)
 .text.simlog_char
                0x000000000001cd9c       0x42 obj_cooja/mtype296.a(log.o)
                0x000000000001cd9c                simlog_char
 .text.simlog   0x000000000001cdde       0x6d obj_cooja/mtype296.a(log.o)
                0x000000000001cdde                simlog
 .text.log_message
                0x000000000001ce4b       0x1e obj_cooja/mtype296.a(log.o)
                0x000000000001ce4b                log_message
 .text.doInterfaceActionsBeforeTick
                0x000000000001ce69        0x5 obj_cooja/mtype296.a(log.o)
 .text.doInterfaceActionsAfterTick
                0x000000000001ce6e        0x5 obj_cooja/mtype296.a(log.o)
 .text.log_set_putchar_with_slip
                0x000000000001ce73        0xd obj_cooja/mtype296.a(log.o)
                0x000000000001ce73                log_set_putchar_with_slip
 .text.putchar  0x000000000001ce80       0x84 obj_cooja/mtype296.a(log.o)
                0x000000000001ce80                log_putchar
 .text.puts     0x000000000001cf04       0x24 obj_cooja/mtype296.a(log.o)
                0x000000000001cf04                log_puts
 .text.printf   0x000000000001cf28       0x61 obj_cooja/mtype296.a(log.o)
                0x000000000001cf28                log_printf
 .text          0x000000000001cf89        0x0 obj_cooja/mtype296.a(cfs-cooja.o)
 .text.cfs_open
                0x000000000001cf89       0x69 obj_cooja/mtype296.a(cfs-cooja.o)
                0x000000000001cf89                cfs_open
 .text.cfs_close
                0x000000000001cff2        0xc obj_cooja/mtype296.a(cfs-cooja.o)
                0x000000000001cff2                cfs_close
 .text.cfs_read
                0x000000000001cffe       0x9e obj_cooja/mtype296.a(cfs-cooja.o)
                0x000000000001cffe                cfs_read
 .text.cfs_write
                0x000000000001d09c       0xdd obj_cooja/mtype296.a(cfs-cooja.o)
                0x000000000001d09c                cfs_write
 .text.cfs_seek
                0x000000000001d179       0x88 obj_cooja/mtype296.a(cfs-cooja.o)
                0x000000000001d179                cfs_seek
 .text.cfs_remove
                0x000000000001d201       0x29 obj_cooja/mtype296.a(cfs-cooja.o)
                0x000000000001d201                cfs_remove
 .text.cfs_opendir
                0x000000000001d22a        0xa obj_cooja/mtype296.a(cfs-cooja.o)
                0x000000000001d22a                cfs_opendir
 .text.cfs_readdir
                0x000000000001d234        0xa obj_cooja/mtype296.a(cfs-cooja.o)
                0x000000000001d234                cfs_readdir
 .text.cfs_closedir
                0x000000000001d23e        0x5 obj_cooja/mtype296.a(cfs-cooja.o)
                0x000000000001d23e                cfs_closedir
 .text.doInterfaceActionsBeforeTick
                0x000000000001d243        0x5 obj_cooja/mtype296.a(cfs-cooja.o)
 .text.doInterfaceActionsAfterTick
                0x000000000001d248        0x5 obj_cooja/mtype296.a(cfs-cooja.o)
 .text          0x000000000001d24d        0x0 obj_cooja/mtype296.a(cooja-radio.o)
 .text.packetbuf_set_attr
                0x000000000001d24d       0x2a obj_cooja/mtype296.a(cooja-radio.o)
 .text.set_send_on_cca
                0x000000000001d277       0x17 obj_cooja/mtype296.a(cooja-radio.o)
 .text.set_frame_filtering
                0x000000000001d28e        0xd obj_cooja/mtype296.a(cooja-radio.o)
 .text.set_auto_ack
                0x000000000001d29b        0xd obj_cooja/mtype296.a(cooja-radio.o)
 .text.set_poll_mode
                0x000000000001d2a8        0xd obj_cooja/mtype296.a(cooja-radio.o)
 .text.radio_set_channel
                0x000000000001d2b5        0xd obj_cooja/mtype296.a(cooja-radio.o)
                0x000000000001d2b5                radio_set_channel
 .text.radio_set_txpower
                0x000000000001d2c2       0x17 obj_cooja/mtype296.a(cooja-radio.o)
                0x000000000001d2c2                radio_set_txpower
 .text.radio_signal_strength_last
                0x000000000001d2d9        0xa obj_cooja/mtype296.a(cooja-radio.o)
                0x000000000001d2d9                radio_signal_strength_last
 .text.radio_signal_strength_current
                0x000000000001d2e3        0xa obj_cooja/mtype296.a(cooja-radio.o)
                0x000000000001d2e3                radio_signal_strength_current
 .text.radio_LQI
                0x000000000001d2ed        0xa obj_cooja/mtype296.a(cooja-radio.o)
                0x000000000001d2ed                radio_LQI
 .text.radio_on
                0x000000000001d2f7       0x11 obj_cooja/mtype296.a(cooja-radio.o)
 .text.radio_off
                0x000000000001d308       0x11 obj_cooja/mtype296.a(cooja-radio.o)
 .text.doInterfaceActionsBeforeTick
                0x000000000001d319       0x4b obj_cooja/mtype296.a(cooja-radio.o)
 .text.doInterfaceActionsAfterTick
                0x000000000001d364        0x5 obj_cooja/mtype296.a(cooja-radio.o)
 .text.radio_read
                0x000000000001d369       0xb7 obj_cooja/mtype296.a(cooja-radio.o)
 .text.channel_clear
                0x000000000001d420       0x1b obj_cooja/mtype296.a(cooja-radio.o)
 .text.radio_send
                0x000000000001d43b       0xda obj_cooja/mtype296.a(cooja-radio.o)
 .text.prepare_packet
                0x000000000001d515       0x1c obj_cooja/mtype296.a(cooja-radio.o)
 .text.transmit_packet
                0x000000000001d531       0x3a obj_cooja/mtype296.a(cooja-radio.o)
 .text.receiving_packet
                0x000000000001d56b        0xf obj_cooja/mtype296.a(cooja-radio.o)
 .text.pending_packet
                0x000000000001d57a       0x25 obj_cooja/mtype296.a(cooja-radio.o)
 .text.process_thread_cooja_radio_process
                0x000000000001d59f       0x9f obj_cooja/mtype296.a(cooja-radio.o)
 .text.init     0x000000000001d63e       0x21 obj_cooja/mtype296.a(cooja-radio.o)
 .text.get_value
                0x000000000001d65f       0xdc obj_cooja/mtype296.a(cooja-radio.o)
 .text.set_value
                0x000000000001d73b      0x104 obj_cooja/mtype296.a(cooja-radio.o)
 .text.get_object
                0x000000000001d83f       0x3d obj_cooja/mtype296.a(cooja-radio.o)
 .text.set_object
                0x000000000001d87c        0xa obj_cooja/mtype296.a(cooja-radio.o)
 .text          0x000000000001d886        0x0 obj_cooja/mtype296.a(eeprom.o)
 .text.eeprom_init
                0x000000000001d886        0x5 obj_cooja/mtype296.a(eeprom.o)
                0x000000000001d886                eeprom_init
 .text.eeprom_read
                0x000000000001d88b       0x70 obj_cooja/mtype296.a(eeprom.o)
                0x000000000001d88b                eeprom_read
 .text.eeprom_write
                0x000000000001d8fb       0x70 obj_cooja/mtype296.a(eeprom.o)
                0x000000000001d8fb                eeprom_write
 .text.doInterfaceActionsBeforeTick
                0x000000000001d96b        0x5 obj_cooja/mtype296.a(eeprom.o)
 .text.doInterfaceActionsAfterTick
                0x000000000001d970        0x5 obj_cooja/mtype296.a(eeprom.o)
 .text          0x000000000001d975        0x0 obj_cooja/mtype296.a(random.o)
 .text.random_init
                0x000000000001d975       0x1b obj_cooja/mtype296.a(random.o)
                0x000000000001d975                random_init
 .text.random_rand
                0x000000000001d990        0xd obj_cooja/mtype296.a(random.o)
                0x000000000001d990                random_rand
 .text          0x000000000001d99d        0x0 obj_cooja/mtype296.a(sensors.o)
 .text.get_sensor_index
                0x000000000001d99d       0x3b obj_cooja/mtype296.a(sensors.o)
 .text.sensors_first
                0x000000000001d9d8        0xa obj_cooja/mtype296.a(sensors.o)
                0x000000000001d9d8                sensors_first
 .text.sensors_next
                0x000000000001d9e2       0x1d obj_cooja/mtype296.a(sensors.o)
                0x000000000001d9e2                sensors_next
 .text.sensors_changed
                0x000000000001d9ff       0x2f obj_cooja/mtype296.a(sensors.o)
                0x000000000001d9ff                sensors_changed
 .text.sensors_find
                0x000000000001da2e       0x6b obj_cooja/mtype296.a(sensors.o)
                0x000000000001da2e                sensors_find
 .text.process_thread_sensors_process
                0x000000000001da99      0x1a5 obj_cooja/mtype296.a(sensors.o)
 .text          0x000000000001dc3e        0x0 obj_cooja/mtype296.a(autostart.o)
 .text.autostart_start
                0x000000000001dc3e       0x4b obj_cooja/mtype296.a(autostart.o)
                0x000000000001dc3e                autostart_start
 .text.autostart_exit
                0x000000000001dc89       0x43 obj_cooja/mtype296.a(autostart.o)
                0x000000000001dc89                autostart_exit
 .text          0x000000000001dccc        0x0 obj_cooja/mtype296.a(ctimer.o)
 .text.process_thread_ctimer_process
                0x000000000001dccc      0x117 obj_cooja/mtype296.a(ctimer.o)
 .text.ctimer_init
                0x000000000001dde3       0x30 obj_cooja/mtype296.a(ctimer.o)
                0x000000000001dde3                ctimer_init
 .text.ctimer_set
                0x000000000001de13       0x31 obj_cooja/mtype296.a(ctimer.o)
                0x000000000001de13                ctimer_set
 .text.ctimer_set_with_process
                0x000000000001de44       0x7c obj_cooja/mtype296.a(ctimer.o)
                0x000000000001de44                ctimer_set_with_process
 .text.ctimer_reset
                0x000000000001dec0       0x4f obj_cooja/mtype296.a(ctimer.o)
                0x000000000001dec0                ctimer_reset
 .text.ctimer_restart
                0x000000000001df0f       0x4f obj_cooja/mtype296.a(ctimer.o)
                0x000000000001df0f                ctimer_restart
 .text.ctimer_stop
                0x000000000001df5e       0x4b obj_cooja/mtype296.a(ctimer.o)
                0x000000000001df5e                ctimer_stop
 .text.ctimer_expired
                0x000000000001dfa9       0x57 obj_cooja/mtype296.a(ctimer.o)
                0x000000000001dfa9                ctimer_expired
 .text          0x000000000001e000        0x0 obj_cooja/mtype296.a(etimer.o)
 .text.update_time
                0x000000000001e000       0x8f obj_cooja/mtype296.a(etimer.o)
 .text.process_thread_etimer_process
                0x000000000001e08f      0x184 obj_cooja/mtype296.a(etimer.o)
 .text.etimer_request_poll
                0x000000000001e213       0x14 obj_cooja/mtype296.a(etimer.o)
                0x000000000001e213                etimer_request_poll
 .text.add_timer
                0x000000000001e227       0x70 obj_cooja/mtype296.a(etimer.o)
 .text.etimer_set
                0x000000000001e297       0x25 obj_cooja/mtype296.a(etimer.o)
                0x000000000001e297                etimer_set
 .text.etimer_reset_with_new_interval
                0x000000000001e2bc       0x27 obj_cooja/mtype296.a(etimer.o)
                0x000000000001e2bc                etimer_reset_with_new_interval
 .text.etimer_reset
                0x000000000001e2e3       0x1e obj_cooja/mtype296.a(etimer.o)
                0x000000000001e2e3                etimer_reset
 .text.etimer_restart
                0x000000000001e301       0x1e obj_cooja/mtype296.a(etimer.o)
                0x000000000001e301                etimer_restart
 .text.etimer_adjust
                0x000000000001e31f       0x1c obj_cooja/mtype296.a(etimer.o)
                0x000000000001e31f                etimer_adjust
 .text.etimer_expired
                0x000000000001e33b       0x13 obj_cooja/mtype296.a(etimer.o)
                0x000000000001e33b                etimer_expired
 .text.etimer_expiration_time
                0x000000000001e34e       0x12 obj_cooja/mtype296.a(etimer.o)
                0x000000000001e34e                etimer_expiration_time
 .text.etimer_start_time
                0x000000000001e360        0xa obj_cooja/mtype296.a(etimer.o)
                0x000000000001e360                etimer_start_time
 .text.etimer_pending
                0x000000000001e36a       0x12 obj_cooja/mtype296.a(etimer.o)
                0x000000000001e36a                etimer_pending
 .text.etimer_next_expiration_time
                0x000000000001e37c       0x1a obj_cooja/mtype296.a(etimer.o)
                0x000000000001e37c                etimer_next_expiration_time
 .text.etimer_stop
                0x000000000001e396       0x75 obj_cooja/mtype296.a(etimer.o)
                0x000000000001e396                etimer_stop
 .text          0x000000000001e40b        0x0 obj_cooja/mtype296.a(process.o)
 .text.process_alloc_event
                0x000000000001e40b       0x15 obj_cooja/mtype296.a(process.o)
                0x000000000001e40b                process_alloc_event
 .text.process_start
                0x000000000001e420       0x6f obj_cooja/mtype296.a(process.o)
                0x000000000001e420                process_start
 .text.exit_process
                0x000000000001e48f       0xea obj_cooja/mtype296.a(process.o)
 .text.call_process
                0x000000000001e579       0x90 obj_cooja/mtype296.a(process.o)
 .text.process_exit
                0x000000000001e609       0x1c obj_cooja/mtype296.a(process.o)
                0x000000000001e609                process_exit
 .text.process_init
                0x000000000001e625       0x33 obj_cooja/mtype296.a(process.o)
                0x000000000001e625                process_init
 .text.do_poll  0x000000000001e658       0x5b obj_cooja/mtype296.a(process.o)
 .text.do_event
                0x000000000001e6b3      0x114 obj_cooja/mtype296.a(process.o)
 .text.process_run
                0x000000000001e7c7       0x33 obj_cooja/mtype296.a(process.o)
                0x000000000001e7c7                process_run
 .text.process_nevents
                0x000000000001e7fa       0x1b obj_cooja/mtype296.a(process.o)
                0x000000000001e7fa                process_nevents
 .text.process_post
                0x000000000001e815       0x95 obj_cooja/mtype296.a(process.o)
                0x000000000001e815                process_post
 .text.process_post_synch
                0x000000000001e8aa       0x38 obj_cooja/mtype296.a(process.o)
                0x000000000001e8aa                process_post_synch
 .text.process_poll
                0x000000000001e8e2       0x2f obj_cooja/mtype296.a(process.o)
                0x000000000001e8e2                process_poll
 .text.process_is_running
                0x000000000001e911       0x14 obj_cooja/mtype296.a(process.o)
                0x000000000001e911                process_is_running
 .text          0x000000000001e925        0x0 obj_cooja/mtype296.a(rtimer.o)
 .text.rtimer_init
                0x000000000001e925        0xd obj_cooja/mtype296.a(rtimer.o)
                0x000000000001e925                rtimer_init
 .text.rtimer_set
                0x000000000001e932       0x7c obj_cooja/mtype296.a(rtimer.o)
                0x000000000001e932                rtimer_set
 .text.rtimer_run_next
                0x000000000001e9ae       0x5d obj_cooja/mtype296.a(rtimer.o)
                0x000000000001e9ae                rtimer_run_next
 .text          0x000000000001ea0b        0x0 obj_cooja/mtype296.a(timer.o)
 .text.timer_set
                0x000000000001ea0b       0x1b obj_cooja/mtype296.a(timer.o)
                0x000000000001ea0b                timer_set
 .text.timer_reset
                0x000000000001ea26       0x17 obj_cooja/mtype296.a(timer.o)
                0x000000000001ea26                timer_reset
 .text.timer_restart
                0x000000000001ea3d       0x12 obj_cooja/mtype296.a(timer.o)
                0x000000000001ea3d                timer_restart
 .text.timer_expired
                0x000000000001ea4f       0x29 obj_cooja/mtype296.a(timer.o)
                0x000000000001ea4f                timer_expired
 .text.timer_remaining
                0x000000000001ea78       0x24 obj_cooja/mtype296.a(timer.o)
                0x000000000001ea78                timer_remaining
 .text          0x000000000001ea9c        0x0 obj_cooja/mtype296.a(serial-line.o)
 .text.serial_line_input_byte
                0x000000000001ea9c       0x7d obj_cooja/mtype296.a(serial-line.o)
                0x000000000001ea9c                serial_line_input_byte
 .text.process_thread_serial_line_process
                0x000000000001eb19      0x146 obj_cooja/mtype296.a(serial-line.o)
 .text.serial_line_init
                0x000000000001ec5f       0x38 obj_cooja/mtype296.a(serial-line.o)
                0x000000000001ec5f                serial_line_init
 .text          0x000000000001ec97        0x0 obj_cooja/mtype296.a(assert.o)
 .text._xassert
                0x000000000001ec97       0x22 obj_cooja/mtype296.a(assert.o)
                0x000000000001ec97                _xassert
 .text          0x000000000001ecb9        0x0 obj_cooja/mtype296.a(list.o)
 .text.list_init
                0x000000000001ecb9        0xe obj_cooja/mtype296.a(list.o)
                0x000000000001ecb9                list_init
 .text.list_head
                0x000000000001ecc7        0xa obj_cooja/mtype296.a(list.o)
                0x000000000001ecc7                list_head
 .text.list_copy
                0x000000000001ecd1        0xf obj_cooja/mtype296.a(list.o)
                0x000000000001ecd1                list_copy
 .text.list_tail
                0x000000000001ece0       0x36 obj_cooja/mtype296.a(list.o)
                0x000000000001ece0                list_tail
 .text.list_add
                0x000000000001ed16       0x49 obj_cooja/mtype296.a(list.o)
                0x000000000001ed16                list_add
 .text.list_push
                0x000000000001ed5f       0x2c obj_cooja/mtype296.a(list.o)
                0x000000000001ed5f                list_push
 .text.list_chop
                0x000000000001ed8b       0x6a obj_cooja/mtype296.a(list.o)
                0x000000000001ed8b                list_chop
 .text.list_pop
                0x000000000001edf5       0x28 obj_cooja/mtype296.a(list.o)
                0x000000000001edf5                list_pop
 .text.list_remove
                0x000000000001ee1d       0x67 obj_cooja/mtype296.a(list.o)
                0x000000000001ee1d                list_remove
 .text.list_length
                0x000000000001ee84       0x2e obj_cooja/mtype296.a(list.o)
                0x000000000001ee84                list_length
 .text.list_insert
                0x000000000001eeb2       0x34 obj_cooja/mtype296.a(list.o)
                0x000000000001eeb2                list_insert
 .text.list_item_next
                0x000000000001eee6       0x17 obj_cooja/mtype296.a(list.o)
                0x000000000001eee6                list_item_next
 .text          0x000000000001eefd        0x0 obj_cooja/mtype296.a(memb.o)
 .text.memb_init
                0x000000000001eefd       0x5e obj_cooja/mtype296.a(memb.o)
                0x000000000001eefd                memb_init
 .text.memb_alloc
                0x000000000001ef5b       0x65 obj_cooja/mtype296.a(memb.o)
                0x000000000001ef5b                memb_alloc
 .text.memb_free
                0x000000000001efc0       0x7b obj_cooja/mtype296.a(memb.o)
                0x000000000001efc0                memb_free
 .text.memb_inmemb
                0x000000000001f03b       0x3f obj_cooja/mtype296.a(memb.o)
                0x000000000001f03b                memb_inmemb
 .text.memb_numfree
                0x000000000001f07a       0x44 obj_cooja/mtype296.a(memb.o)
                0x000000000001f07a                memb_numfree
 .text          0x000000000001f0be        0x0 obj_cooja/mtype296.a(ringbuf.o)
 .text.ringbuf_init
                0x000000000001f0be       0x31 obj_cooja/mtype296.a(ringbuf.o)
                0x000000000001f0be                ringbuf_init
 .text.ringbuf_put
                0x000000000001f0ef       0x7e obj_cooja/mtype296.a(ringbuf.o)
                0x000000000001f0ef                ringbuf_put
 .text.ringbuf_get
                0x000000000001f16d       0x6d obj_cooja/mtype296.a(ringbuf.o)
                0x000000000001f16d                ringbuf_get
 .text.ringbuf_size
                0x000000000001f1da       0x12 obj_cooja/mtype296.a(ringbuf.o)
                0x000000000001f1da                ringbuf_size
 .text.ringbuf_elements
                0x000000000001f1ec       0x27 obj_cooja/mtype296.a(ringbuf.o)
                0x000000000001f1ec                ringbuf_elements
 .text          0x000000000001f213        0x0 obj_cooja/mtype296.a(sicslowpan.o)
 .text.packetbuf_set_attr
                0x000000000001f213       0x2a obj_cooja/mtype296.a(sicslowpan.o)
 .text.packetbuf_attr
                0x000000000001f23d       0x1a obj_cooja/mtype296.a(sicslowpan.o)
 .text.packetbuf_set_addr
                0x000000000001f257       0x32 obj_cooja/mtype296.a(sicslowpan.o)
 .text.packetbuf_addr
                0x000000000001f289       0x1d obj_cooja/mtype296.a(sicslowpan.o)
 .text.clear_fragments
                0x000000000001f2a6       0x79 obj_cooja/mtype296.a(sicslowpan.o)
 .text.timeout_fragments
                0x000000000001f31f       0x75 obj_cooja/mtype296.a(sicslowpan.o)
 .text.store_fragment
                0x000000000001f394       0xe8 obj_cooja/mtype296.a(sicslowpan.o)
 .text.add_fragment
                0x000000000001f47c      0x23e obj_cooja/mtype296.a(sicslowpan.o)
 .text.copy_frags2uip
                0x000000000001f6ba       0xe3 obj_cooja/mtype296.a(sicslowpan.o)
 .text.rime_sniffer_add
                0x000000000001f79d        0xd obj_cooja/mtype296.a(sicslowpan.o)
                0x000000000001f79d                rime_sniffer_add
 .text.rime_sniffer_remove
                0x000000000001f7aa        0xf obj_cooja/mtype296.a(sicslowpan.o)
                0x000000000001f7aa                rime_sniffer_remove
 .text.set_packet_attrs
                0x000000000001f7b9       0xe9 obj_cooja/mtype296.a(sicslowpan.o)
 .text.addr_context_lookup_by_prefix
                0x000000000001f8a2       0x7a obj_cooja/mtype296.a(sicslowpan.o)
 .text.addr_context_lookup_by_number
                0x000000000001f91c       0x6a obj_cooja/mtype296.a(sicslowpan.o)
 .text.compress_addr_64
                0x000000000001f986      0x16c obj_cooja/mtype296.a(sicslowpan.o)
 .text.uncompress_addr
                0x000000000001faf2      0x120 obj_cooja/mtype296.a(sicslowpan.o)
 .text.compress_hdr_iphc
                0x000000000001fc12      0x994 obj_cooja/mtype296.a(sicslowpan.o)
 .text.uncompress_hdr_iphc
                0x00000000000205a6      0x7dd obj_cooja/mtype296.a(sicslowpan.o)
 .text.compress_hdr_ipv6
                0x0000000000020d83       0x68 obj_cooja/mtype296.a(sicslowpan.o)
 .text.packet_sent
                0x0000000000020deb       0x3b obj_cooja/mtype296.a(sicslowpan.o)
 .text.send_packet
                0x0000000000020e26       0x36 obj_cooja/mtype296.a(sicslowpan.o)
 .text.output   0x0000000000020e5c      0x49d obj_cooja/mtype296.a(sicslowpan.o)
 .text.input    0x00000000000212f9      0x458 obj_cooja/mtype296.a(sicslowpan.o)
 .text.sicslowpan_init
                0x0000000000021751       0x57 obj_cooja/mtype296.a(sicslowpan.o)
                0x0000000000021751                sicslowpan_init
 .text.sicslowpan_get_last_rssi
                0x00000000000217a8        0xa obj_cooja/mtype296.a(sicslowpan.o)
                0x00000000000217a8                sicslowpan_get_last_rssi
 .text          0x00000000000217b2        0x0 obj_cooja/mtype296.a(uip-ds6-nbr.o)
 .text.packetbuf_addr
                0x00000000000217b2       0x1d obj_cooja/mtype296.a(uip-ds6-nbr.o)
 .text.uip_ds6_neighbors_init
                0x00000000000217cf       0x22 obj_cooja/mtype296.a(uip-ds6-nbr.o)
                0x00000000000217cf                uip_ds6_neighbors_init
 .text.uip_ds6_nbr_add
                0x00000000000217f1       0xe2 obj_cooja/mtype296.a(uip-ds6-nbr.o)
                0x00000000000217f1                uip_ds6_nbr_add
 .text.uip_ds6_nbr_rm
                0x00000000000218d3       0x42 obj_cooja/mtype296.a(uip-ds6-nbr.o)
                0x00000000000218d3                uip_ds6_nbr_rm
 .text.uip_ds6_nbr_get_ipaddr
                0x0000000000021915       0x15 obj_cooja/mtype296.a(uip-ds6-nbr.o)
                0x0000000000021915                uip_ds6_nbr_get_ipaddr
 .text.uip_ds6_nbr_get_ll
                0x000000000002192a       0x1c obj_cooja/mtype296.a(uip-ds6-nbr.o)
                0x000000000002192a                uip_ds6_nbr_get_ll
 .text.uip_ds6_nbr_num
                0x0000000000021946       0x45 obj_cooja/mtype296.a(uip-ds6-nbr.o)
                0x0000000000021946                uip_ds6_nbr_num
 .text.uip_ds6_nbr_lookup
                0x000000000002198b       0x65 obj_cooja/mtype296.a(uip-ds6-nbr.o)
                0x000000000002198b                uip_ds6_nbr_lookup
 .text.uip_ds6_nbr_ll_lookup
                0x00000000000219f0       0x1c obj_cooja/mtype296.a(uip-ds6-nbr.o)
                0x00000000000219f0                uip_ds6_nbr_ll_lookup
 .text.uip_ds6_nbr_ipaddr_from_lladdr
                0x0000000000021a0c       0x26 obj_cooja/mtype296.a(uip-ds6-nbr.o)
                0x0000000000021a0c                uip_ds6_nbr_ipaddr_from_lladdr
 .text.uip_ds6_nbr_lladdr_from_ipaddr
                0x0000000000021a32       0x2e obj_cooja/mtype296.a(uip-ds6-nbr.o)
                0x0000000000021a32                uip_ds6_nbr_lladdr_from_ipaddr
 .text.uip_ds6_link_neighbor_callback
                0x0000000000021a60       0x62 obj_cooja/mtype296.a(uip-ds6-nbr.o)
                0x0000000000021a60                uip_ds6_link_neighbor_callback
 .text.uip_ds6_neighbor_periodic
                0x0000000000021ac2      0x244 obj_cooja/mtype296.a(uip-ds6-nbr.o)
                0x0000000000021ac2                uip_ds6_neighbor_periodic
 .text.uip_ds6_nbr_refresh_reachable_state
                0x0000000000021d06       0x40 obj_cooja/mtype296.a(uip-ds6-nbr.o)
                0x0000000000021d06                uip_ds6_nbr_refresh_reachable_state
 .text.uip_ds6_get_least_lifetime_neighbor
                0x0000000000021d46       0x7b obj_cooja/mtype296.a(uip-ds6-nbr.o)
                0x0000000000021d46                uip_ds6_get_least_lifetime_neighbor
 .text          0x0000000000021dc1        0x0 obj_cooja/mtype296.a(uip-ds6-route.o)
 .text.call_route_callback
                0x0000000000021dc1       0x77 obj_cooja/mtype296.a(uip-ds6-route.o)
 .text.uip_ds6_notification_add
                0x0000000000021e38       0x31 obj_cooja/mtype296.a(uip-ds6-route.o)
                0x0000000000021e38                uip_ds6_notification_add
 .text.uip_ds6_notification_rm
                0x0000000000021e69       0x1c obj_cooja/mtype296.a(uip-ds6-route.o)
                0x0000000000021e69                uip_ds6_notification_rm
 .text.uip_ds6_route_init
                0x0000000000021e85       0x5c obj_cooja/mtype296.a(uip-ds6-route.o)
                0x0000000000021e85                uip_ds6_route_init
 .text.uip_ds6_route_nexthop_lladdr
                0x0000000000021ee1       0x2c obj_cooja/mtype296.a(uip-ds6-route.o)
 .text.uip_ds6_route_nexthop
                0x0000000000021f0d       0x28 obj_cooja/mtype296.a(uip-ds6-route.o)
                0x0000000000021f0d                uip_ds6_route_nexthop
 .text.uip_ds6_route_head
                0x0000000000021f35       0x15 obj_cooja/mtype296.a(uip-ds6-route.o)
                0x0000000000021f35                uip_ds6_route_head
 .text.uip_ds6_route_next
                0x0000000000021f4a       0x26 obj_cooja/mtype296.a(uip-ds6-route.o)
                0x0000000000021f4a                uip_ds6_route_next
 .text.uip_ds6_route_is_nexthop
                0x0000000000021f70       0x3f obj_cooja/mtype296.a(uip-ds6-route.o)
                0x0000000000021f70                uip_ds6_route_is_nexthop
 .text.uip_ds6_route_num_routes
                0x0000000000021faf        0xa obj_cooja/mtype296.a(uip-ds6-route.o)
                0x0000000000021faf                uip_ds6_route_num_routes
 .text.uip_ds6_route_lookup
                0x0000000000021fb9       0xc2 obj_cooja/mtype296.a(uip-ds6-route.o)
                0x0000000000021fb9                uip_ds6_route_lookup
 .text.uip_ds6_route_add
                0x000000000002207b      0x236 obj_cooja/mtype296.a(uip-ds6-route.o)
                0x000000000002207b                uip_ds6_route_add
 .text.uip_ds6_route_rm
                0x00000000000222b1      0x11d obj_cooja/mtype296.a(uip-ds6-route.o)
                0x00000000000222b1                uip_ds6_route_rm
 .text.rm_routelist
                0x00000000000223ce       0x64 obj_cooja/mtype296.a(uip-ds6-route.o)
 .text.rm_routelist_callback
                0x0000000000022432       0x13 obj_cooja/mtype296.a(uip-ds6-route.o)
 .text.uip_ds6_route_rm_by_nexthop
                0x0000000000022445       0x38 obj_cooja/mtype296.a(uip-ds6-route.o)
                0x0000000000022445                uip_ds6_route_rm_by_nexthop
 .text.uip_ds6_defrt_head
                0x000000000002247d       0x15 obj_cooja/mtype296.a(uip-ds6-route.o)
                0x000000000002247d                uip_ds6_defrt_head
 .text.uip_ds6_defrt_add
                0x0000000000022492       0xb1 obj_cooja/mtype296.a(uip-ds6-route.o)
                0x0000000000022492                uip_ds6_defrt_add
 .text.uip_ds6_defrt_rm
                0x0000000000022543       0x7f obj_cooja/mtype296.a(uip-ds6-route.o)
                0x0000000000022543                uip_ds6_defrt_rm
 .text.uip_ds6_defrt_lookup
                0x00000000000225c2       0x59 obj_cooja/mtype296.a(uip-ds6-route.o)
                0x00000000000225c2                uip_ds6_defrt_lookup
 .text.uip_ds6_defrt_choose
                0x000000000002261b       0x6b obj_cooja/mtype296.a(uip-ds6-route.o)
                0x000000000002261b                uip_ds6_defrt_choose
 .text.uip_ds6_defrt_periodic
                0x0000000000022686       0x68 obj_cooja/mtype296.a(uip-ds6-route.o)
                0x0000000000022686                uip_ds6_defrt_periodic
 .text          0x00000000000226ee        0x0 obj_cooja/mtype296.a(uip-ds6.o)
 .text.uip_ds6_init
                0x00000000000226ee      0x1d3 obj_cooja/mtype296.a(uip-ds6.o)
                0x00000000000226ee                uip_ds6_init
 .text.uip_ds6_periodic
                0x00000000000228c1       0x7e obj_cooja/mtype296.a(uip-ds6.o)
                0x00000000000228c1                uip_ds6_periodic
 .text.uip_ds6_list_loop
                0x000000000002293f       0xa7 obj_cooja/mtype296.a(uip-ds6.o)
                0x000000000002293f                uip_ds6_list_loop
 .text.uip_ds6_prefix_add
                0x00000000000229e6       0xbe obj_cooja/mtype296.a(uip-ds6.o)
                0x00000000000229e6                uip_ds6_prefix_add
 .text.uip_ds6_prefix_rm
                0x0000000000022aa4       0x12 obj_cooja/mtype296.a(uip-ds6.o)
                0x0000000000022aa4                uip_ds6_prefix_rm
 .text.uip_ds6_prefix_lookup
                0x0000000000022ab6       0x51 obj_cooja/mtype296.a(uip-ds6.o)
                0x0000000000022ab6                uip_ds6_prefix_lookup
 .text.uip_ds6_is_addr_onlink
                0x0000000000022b07       0x74 obj_cooja/mtype296.a(uip-ds6.o)
                0x0000000000022b07                uip_ds6_is_addr_onlink
 .text.uip_ds6_addr_add
                0x0000000000022b7b      0x12e obj_cooja/mtype296.a(uip-ds6.o)
                0x0000000000022b7b                uip_ds6_addr_add
 .text.uip_ds6_addr_rm
                0x0000000000022ca9       0xa0 obj_cooja/mtype296.a(uip-ds6.o)
                0x0000000000022ca9                uip_ds6_addr_rm
 .text.uip_ds6_addr_lookup
                0x0000000000022d49       0x4b obj_cooja/mtype296.a(uip-ds6.o)
                0x0000000000022d49                uip_ds6_addr_lookup
 .text.uip_ds6_get_link_local
                0x0000000000022d94       0x7f obj_cooja/mtype296.a(uip-ds6.o)
                0x0000000000022d94                uip_ds6_get_link_local
 .text.uip_ds6_get_global
                0x0000000000022e13       0x7f obj_cooja/mtype296.a(uip-ds6.o)
                0x0000000000022e13                uip_ds6_get_global
 .text.uip_ds6_maddr_add
                0x0000000000022e92       0x72 obj_cooja/mtype296.a(uip-ds6.o)
                0x0000000000022e92                uip_ds6_maddr_add
 .text.uip_ds6_maddr_rm
                0x0000000000022f04       0x12 obj_cooja/mtype296.a(uip-ds6.o)
                0x0000000000022f04                uip_ds6_maddr_rm
 .text.uip_ds6_maddr_lookup
                0x0000000000022f16       0x4b obj_cooja/mtype296.a(uip-ds6.o)
                0x0000000000022f16                uip_ds6_maddr_lookup
 .text.uip_ds6_aaddr_add
                0x0000000000022f61       0x72 obj_cooja/mtype296.a(uip-ds6.o)
                0x0000000000022f61                uip_ds6_aaddr_add
 .text.uip_ds6_aaddr_rm
                0x0000000000022fd3       0x12 obj_cooja/mtype296.a(uip-ds6.o)
                0x0000000000022fd3                uip_ds6_aaddr_rm
 .text.uip_ds6_aaddr_lookup
                0x0000000000022fe5       0x4b obj_cooja/mtype296.a(uip-ds6.o)
                0x0000000000022fe5                uip_ds6_aaddr_lookup
 .text.uip_ds6_select_src
                0x0000000000023030      0x145 obj_cooja/mtype296.a(uip-ds6.o)
                0x0000000000023030                uip_ds6_select_src
 .text.uip_ds6_set_addr_iid
                0x0000000000023175       0x37 obj_cooja/mtype296.a(uip-ds6.o)
                0x0000000000023175                uip_ds6_set_addr_iid
 .text.get_match_length
                0x00000000000231ac       0x92 obj_cooja/mtype296.a(uip-ds6.o)
                0x00000000000231ac                get_match_length
 .text.uip_ds6_compute_reachable_time
                0x000000000002323e       0x4c obj_cooja/mtype296.a(uip-ds6.o)
                0x000000000002323e                uip_ds6_compute_reachable_time
 .text          0x000000000002328a        0x0 obj_cooja/mtype296.a(uip-nd6.o)
 .text.extract_lladdr_from_llao_aligned
                0x000000000002328a       0x42 obj_cooja/mtype296.a(uip-nd6.o)
 .text.create_llao
                0x00000000000232cc       0x54 obj_cooja/mtype296.a(uip-nd6.o)
 .text.ns_input
                0x0000000000023320      0x602 obj_cooja/mtype296.a(uip-nd6.o)
 .text.uip_nd6_ns_output
                0x0000000000023922      0x2ff obj_cooja/mtype296.a(uip-nd6.o)
                0x0000000000023922                uip_nd6_ns_output
 .text.na_input
                0x0000000000023c21      0x430 obj_cooja/mtype296.a(uip-nd6.o)
 .text.uip_nd6_init
                0x0000000000024051       0x20 obj_cooja/mtype296.a(uip-nd6.o)
                0x0000000000024051                uip_nd6_init
 .text          0x0000000000024071        0x0 obj_cooja/mtype296.a(uip6.o)
 .text.uip_add32
                0x0000000000024071       0xea obj_cooja/mtype296.a(uip6.o)
                0x0000000000024071                uip_add32
 .text.chksum   0x000000000002415b       0xaf obj_cooja/mtype296.a(uip6.o)
 .text.uip_chksum
                0x000000000002420a       0x35 obj_cooja/mtype296.a(uip6.o)
                0x000000000002420a                uip_chksum
 .text.upper_layer_chksum
                0x000000000002423f       0xb9 obj_cooja/mtype296.a(uip6.o)
 .text.uip_icmp6chksum
                0x00000000000242f8       0x14 obj_cooja/mtype296.a(uip6.o)
                0x00000000000242f8                uip_icmp6chksum
 .text.uip_tcpchksum
                0x000000000002430c       0x14 obj_cooja/mtype296.a(uip6.o)
                0x000000000002430c                uip_tcpchksum
 .text.uip_udpchksum
                0x0000000000024320       0x14 obj_cooja/mtype296.a(uip6.o)
                0x0000000000024320                uip_udpchksum
 .text.uip_init
                0x0000000000024334       0x8b obj_cooja/mtype296.a(uip6.o)
                0x0000000000024334                uip_init
 .text.uip_connect
                0x00000000000243bf      0x181 obj_cooja/mtype296.a(uip6.o)
                0x00000000000243bf                uip_connect
 .text.remove_ext_hdr
                0x0000000000024540       0xd5 obj_cooja/mtype296.a(uip6.o)
                0x0000000000024540                remove_ext_hdr
 .text.uip_udp_new
                0x0000000000024615      0x127 obj_cooja/mtype296.a(uip6.o)
                0x0000000000024615                uip_udp_new
 .text.uip_unlisten
                0x000000000002473c       0x42 obj_cooja/mtype296.a(uip6.o)
                0x000000000002473c                uip_unlisten
 .text.uip_listen
                0x000000000002477e       0x43 obj_cooja/mtype296.a(uip6.o)
                0x000000000002477e                uip_listen
 .text.uip_add_rcv_nxt
                0x00000000000247c1       0x64 obj_cooja/mtype296.a(uip6.o)
 .text.ext_hdr_options_process
                0x0000000000024825      0x1fd obj_cooja/mtype296.a(uip6.o)
 .text.uip_process
                0x0000000000024a22     0x1ca1 obj_cooja/mtype296.a(uip6.o)
                0x0000000000024a22                uip_process
 .text.uip_htons
                0x00000000000266c3       0x22 obj_cooja/mtype296.a(uip6.o)
                0x00000000000266c3                uip_htons
 .text.uip_htonl
                0x00000000000266e5       0x40 obj_cooja/mtype296.a(uip6.o)
                0x00000000000266e5                uip_htonl
 .text.uip_send
                0x0000000000026725       0xaa obj_cooja/mtype296.a(uip6.o)
                0x0000000000026725                uip_send
 .text          0x00000000000267cf        0x0 obj_cooja/mtype296.a(resolv.o)
 .text.decode_name
                0x00000000000267cf       0xe8 obj_cooja/mtype296.a(resolv.o)
 .text.dns_name_isequal
                0x00000000000268b7      0x119 obj_cooja/mtype296.a(resolv.o)
 .text.skip_name
                0x00000000000269d0       0x48 obj_cooja/mtype296.a(resolv.o)
 .text.encode_name
                0x0000000000026a18       0x73 obj_cooja/mtype296.a(resolv.o)
 .text.mdns_announce_requested
                0x0000000000026a8b        0xf obj_cooja/mtype296.a(resolv.o)
 .text.start_name_collision_check
                0x0000000000026a9a       0x27 obj_cooja/mtype296.a(resolv.o)
 .text.mdns_write_announce_records
                0x0000000000026ac1      0x155 obj_cooja/mtype296.a(resolv.o)
 .text.mdns_prep_host_announce_packet
                0x0000000000026c16       0xf5 obj_cooja/mtype296.a(resolv.o)
 .text.try_next_server
                0x0000000000026d0b       0x48 obj_cooja/mtype296.a(resolv.o)
 .text.check_entries
                0x0000000000026d53      0x311 obj_cooja/mtype296.a(resolv.o)
 .text.newdata  0x0000000000027064      0x545 obj_cooja/mtype296.a(resolv.o)
 .text.resolv_set_hostname
                0x00000000000275a9       0xa9 obj_cooja/mtype296.a(resolv.o)
                0x00000000000275a9                resolv_set_hostname
 .text.resolv_get_hostname
                0x0000000000027652        0xa obj_cooja/mtype296.a(resolv.o)
                0x0000000000027652                resolv_get_hostname
 .text.process_thread_mdns_probe_process
                0x000000000002765c      0x178 obj_cooja/mtype296.a(resolv.o)
 .text.process_thread_resolv_process
                0x00000000000277d4      0x1f6 obj_cooja/mtype296.a(resolv.o)
 .text.init     0x00000000000279ca       0x2e obj_cooja/mtype296.a(resolv.o)
 .text.remove_trailing_dots
                0x00000000000279f8       0x7b obj_cooja/mtype296.a(resolv.o)
 .text.resolv_query
                0x0000000000027a73      0x22e obj_cooja/mtype296.a(resolv.o)
                0x0000000000027a73                resolv_query
 .text.resolv_lookup
                0x0000000000027ca1       0xcc obj_cooja/mtype296.a(resolv.o)
                0x0000000000027ca1                resolv_lookup
 .text.resolv_found
                0x0000000000027d6d      0x1da obj_cooja/mtype296.a(resolv.o)
 .text          0x0000000000027f47        0x0 obj_cooja/mtype296.a(tcpip.o)
 .text.tcpip_output
                0x0000000000027f47       0x2e obj_cooja/mtype296.a(tcpip.o)
                0x0000000000027f47                tcpip_output
 .text.tcpip_set_outputfunc
                0x0000000000027f75        0xd obj_cooja/mtype296.a(tcpip.o)
                0x0000000000027f75                tcpip_set_outputfunc
 .text.start_periodic_tcp_timer
                0x0000000000027f82       0x24 obj_cooja/mtype296.a(tcpip.o)
 .text.check_for_tcp_syn
                0x0000000000027fa6       0x2d obj_cooja/mtype296.a(tcpip.o)
 .text.packet_input
                0x0000000000027fd3       0x36 obj_cooja/mtype296.a(tcpip.o)
 .text.tcp_connect
                0x0000000000028009       0x55 obj_cooja/mtype296.a(tcpip.o)
                0x0000000000028009                tcp_connect
 .text.tcp_unlisten
                0x000000000002805e       0x5b obj_cooja/mtype296.a(tcpip.o)
                0x000000000002805e                tcp_unlisten
 .text.tcp_listen
                0x00000000000280b9       0x59 obj_cooja/mtype296.a(tcpip.o)
                0x00000000000280b9                tcp_listen
 .text.tcp_attach
                0x0000000000028112       0x25 obj_cooja/mtype296.a(tcpip.o)
                0x0000000000028112                tcp_attach
 .text.udp_attach
                0x0000000000028137       0x25 obj_cooja/mtype296.a(tcpip.o)
                0x0000000000028137                udp_attach
 .text.udp_new  0x000000000002815c       0x52 obj_cooja/mtype296.a(tcpip.o)
                0x000000000002815c                udp_new
 .text.udp_broadcast_new
                0x00000000000281ae       0x92 obj_cooja/mtype296.a(tcpip.o)
                0x00000000000281ae                udp_broadcast_new
 .text.eventhandler
                0x0000000000028240      0x1e2 obj_cooja/mtype296.a(tcpip.o)
 .text.tcpip_input
                0x0000000000028422       0x34 obj_cooja/mtype296.a(tcpip.o)
                0x0000000000028422                tcpip_input
 .text.tcpip_ipv6_output
                0x0000000000028456      0x4b5 obj_cooja/mtype296.a(tcpip.o)
                0x0000000000028456                tcpip_ipv6_output
 .text.tcpip_poll_udp
                0x000000000002890b       0x23 obj_cooja/mtype296.a(tcpip.o)
                0x000000000002890b                tcpip_poll_udp
 .text.tcpip_poll_tcp
                0x000000000002892e       0x23 obj_cooja/mtype296.a(tcpip.o)
                0x000000000002892e                tcpip_poll_tcp
 .text.tcpip_uipcall
                0x0000000000028951       0xbd obj_cooja/mtype296.a(tcpip.o)
                0x0000000000028951                tcpip_uipcall
 .text.process_thread_tcpip_process
                0x0000000000028a0e       0xb7 obj_cooja/mtype296.a(tcpip.o)
 .text          0x0000000000028ac5        0x0 obj_cooja/mtype296.a(uip-debug.o)
 .text.uip_debug_ipaddr_print
                0x0000000000028ac5      0x162 obj_cooja/mtype296.a(uip-debug.o)
                0x0000000000028ac5                uip_debug_ipaddr_print
 .text          0x0000000000028c27        0x0 obj_cooja/mtype296.a(uip-nameserver.)
 .text.uip_nameserver_update
                0x0000000000028c27       0x32 obj_cooja/mtype296.a(uip-nameserver.)
                0x0000000000028c27                uip_nameserver_update
 .text.uip_nameserver_get
                0x0000000000028c59       0x20 obj_cooja/mtype296.a(uip-nameserver.)
                0x0000000000028c59                uip_nameserver_get
 .text.uip_nameserver_next_expiration
                0x0000000000028c79        0xa obj_cooja/mtype296.a(uip-nameserver.)
                0x0000000000028c79                uip_nameserver_next_expiration
 .text.uip_nameserver_count
                0x0000000000028c83       0x71 obj_cooja/mtype296.a(uip-nameserver.)
                0x0000000000028c83                uip_nameserver_count
 .text          0x0000000000028cf4        0x0 obj_cooja/mtype296.a(uip-packetqueue)
 .text.packet_timedout
                0x0000000000028cf4       0x2c obj_cooja/mtype296.a(uip-packetqueue)
 .text.uip_packetqueue_new
                0x0000000000028d20        0xe obj_cooja/mtype296.a(uip-packetqueue)
                0x0000000000028d20                uip_packetqueue_new
 .text.uip_packetqueue_alloc
                0x0000000000028d2e       0x60 obj_cooja/mtype296.a(uip-packetqueue)
                0x0000000000028d2e                uip_packetqueue_alloc
 .text.uip_packetqueue_free
                0x0000000000028d8e       0x41 obj_cooja/mtype296.a(uip-packetqueue)
                0x0000000000028d8e                uip_packetqueue_free
 .text.uip_packetqueue_buf
                0x0000000000028dcf       0x1d obj_cooja/mtype296.a(uip-packetqueue)
                0x0000000000028dcf                uip_packetqueue_buf
 .text.uip_packetqueue_buflen
                0x0000000000028dec       0x21 obj_cooja/mtype296.a(uip-packetqueue)
                0x0000000000028dec                uip_packetqueue_buflen
 .text.uip_packetqueue_set_buflen
                0x0000000000028e0d       0x28 obj_cooja/mtype296.a(uip-packetqueue)
                0x0000000000028e0d                uip_packetqueue_set_buflen
 .text          0x0000000000028e35        0x0 obj_cooja/mtype296.a(uip-udp-packet.)
 .text.uip_udp_packet_send
                0x0000000000028e35       0x5c obj_cooja/mtype296.a(uip-udp-packet.)
                0x0000000000028e35                uip_udp_packet_send
 .text.uip_udp_packet_sendto
                0x0000000000028e91       0xd1 obj_cooja/mtype296.a(uip-udp-packet.)
                0x0000000000028e91                uip_udp_packet_sendto
 .text          0x0000000000028f62        0x0 obj_cooja/mtype296.a(uiplib.o)
 .text.uiplib_ip6addrconv
                0x0000000000028f62      0x1c0 obj_cooja/mtype296.a(uiplib.o)
                0x0000000000028f62                uiplib_ip6addrconv
 .text.uiplib_ip4addrconv
                0x0000000000029122       0xc3 obj_cooja/mtype296.a(uiplib.o)
                0x0000000000029122                uiplib_ip4addrconv
 .text          0x00000000000291e5        0x0 obj_cooja/mtype296.a(rpl-dag.o)
 .text.rpl_print_neighbor_list
                0x00000000000291e5      0x1e6 obj_cooja/mtype296.a(rpl-dag.o)
                0x00000000000291e5                rpl_print_neighbor_list
 .text.rpl_get_nbr
                0x00000000000293cb       0x37 obj_cooja/mtype296.a(rpl-dag.o)
                0x00000000000293cb                rpl_get_nbr
 .text.nbr_callback
                0x0000000000029402       0x13 obj_cooja/mtype296.a(rpl-dag.o)
 .text.rpl_dag_init
                0x0000000000029415       0x1d obj_cooja/mtype296.a(rpl-dag.o)
                0x0000000000029415                rpl_dag_init
 .text.rpl_get_parent
                0x0000000000029432       0x22 obj_cooja/mtype296.a(rpl-dag.o)
                0x0000000000029432                rpl_get_parent
 .text.rpl_get_parent_rank
                0x0000000000029454       0x33 obj_cooja/mtype296.a(rpl-dag.o)
                0x0000000000029454                rpl_get_parent_rank
 .text.rpl_get_parent_link_metric
                0x0000000000029487       0x57 obj_cooja/mtype296.a(rpl-dag.o)
                0x0000000000029487                rpl_get_parent_link_metric
 .text.rpl_rank_via_parent
                0x00000000000294de       0x57 obj_cooja/mtype296.a(rpl-dag.o)
                0x00000000000294de                rpl_rank_via_parent
 .text.rpl_get_parent_lladdr
                0x0000000000029535       0x1c obj_cooja/mtype296.a(rpl-dag.o)
                0x0000000000029535                rpl_get_parent_lladdr
 .text.rpl_get_parent_ipaddr
                0x0000000000029551       0x21 obj_cooja/mtype296.a(rpl-dag.o)
                0x0000000000029551                rpl_get_parent_ipaddr
 .text.rpl_get_parent_link_stats
                0x0000000000029572       0x21 obj_cooja/mtype296.a(rpl-dag.o)
                0x0000000000029572                rpl_get_parent_link_stats
 .text.rpl_parent_is_fresh
                0x0000000000029593       0x21 obj_cooja/mtype296.a(rpl-dag.o)
                0x0000000000029593                rpl_parent_is_fresh
 .text.rpl_parent_is_reachable
                0x00000000000295b4       0x94 obj_cooja/mtype296.a(rpl-dag.o)
                0x00000000000295b4                rpl_parent_is_reachable
 .text.rpl_set_preferred_parent
                0x0000000000029648       0x4d obj_cooja/mtype296.a(rpl-dag.o)
 .text.lollipop_greater_than
                0x0000000000029695       0x61 obj_cooja/mtype296.a(rpl-dag.o)
 .text.remove_parents
                0x00000000000296f6       0x60 obj_cooja/mtype296.a(rpl-dag.o)
 .text.nullify_parents
                0x0000000000029756       0x60 obj_cooja/mtype296.a(rpl-dag.o)
 .text.should_refresh_routes
                0x00000000000297b6       0x5b obj_cooja/mtype296.a(rpl-dag.o)
 .text.acceptable_rank
                0x0000000000029811       0x8f obj_cooja/mtype296.a(rpl-dag.o)
 .text.get_dag  0x00000000000298a0       0x81 obj_cooja/mtype296.a(rpl-dag.o)
 .text.rpl_set_root
                0x0000000000029921      0x257 obj_cooja/mtype296.a(rpl-dag.o)
                0x0000000000029921                rpl_set_root
 .text.rpl_repair_root
                0x0000000000029b78       0xd6 obj_cooja/mtype296.a(rpl-dag.o)
                0x0000000000029b78                rpl_repair_root
 .text.set_ip_from_prefix
                0x0000000000029c4e       0x66 obj_cooja/mtype296.a(rpl-dag.o)
 .text.check_prefix
                0x0000000000029cb4      0x100 obj_cooja/mtype296.a(rpl-dag.o)
 .text.rpl_set_prefix
                0x0000000000029db4       0xff obj_cooja/mtype296.a(rpl-dag.o)
                0x0000000000029db4                rpl_set_prefix
 .text.rpl_set_default_route
                0x0000000000029eb3       0x6e obj_cooja/mtype296.a(rpl-dag.o)
                0x0000000000029eb3                rpl_set_default_route
 .text.rpl_alloc_instance
                0x0000000000029f21       0x93 obj_cooja/mtype296.a(rpl-dag.o)
                0x0000000000029f21                rpl_alloc_instance
 .text.rpl_alloc_dag
                0x0000000000029fb4       0xb1 obj_cooja/mtype296.a(rpl-dag.o)
                0x0000000000029fb4                rpl_alloc_dag
 .text.rpl_set_default_instance
                0x000000000002a065        0xd obj_cooja/mtype296.a(rpl-dag.o)
                0x000000000002a065                rpl_set_default_instance
 .text.rpl_get_default_instance
                0x000000000002a072        0xa obj_cooja/mtype296.a(rpl-dag.o)
                0x000000000002a072                rpl_get_default_instance
 .text.rpl_free_instance
                0x000000000002a07c       0xaf obj_cooja/mtype296.a(rpl-dag.o)
                0x000000000002a07c                rpl_free_instance
 .text.rpl_free_dag
                0x000000000002a12b       0x81 obj_cooja/mtype296.a(rpl-dag.o)
                0x000000000002a12b                rpl_free_dag
 .text.rpl_add_parent
                0x000000000002a1ac       0x75 obj_cooja/mtype296.a(rpl-dag.o)
                0x000000000002a1ac                rpl_add_parent
 .text.find_parent_any_dag_any_instance
                0x000000000002a221       0x38 obj_cooja/mtype296.a(rpl-dag.o)
 .text.rpl_find_parent
                0x000000000002a259       0x30 obj_cooja/mtype296.a(rpl-dag.o)
                0x000000000002a259                rpl_find_parent
 .text.find_parent_dag
                0x000000000002a289       0x28 obj_cooja/mtype296.a(rpl-dag.o)
 .text.rpl_find_parent_any_dag
                0x000000000002a2b1       0x3c obj_cooja/mtype296.a(rpl-dag.o)
                0x000000000002a2b1                rpl_find_parent_any_dag
 .text.rpl_select_dag
                0x000000000002a2ed      0x322 obj_cooja/mtype296.a(rpl-dag.o)
                0x000000000002a2ed                rpl_select_dag
 .text.best_parent
                0x000000000002a60f       0xfd obj_cooja/mtype296.a(rpl-dag.o)
 .text.rpl_select_parent
                0x000000000002a70c       0xda obj_cooja/mtype296.a(rpl-dag.o)
                0x000000000002a70c                rpl_select_parent
 .text.rpl_remove_parent
                0x000000000002a7e6       0x27 obj_cooja/mtype296.a(rpl-dag.o)
                0x000000000002a7e6                rpl_remove_parent
 .text.rpl_nullify_parent
                0x000000000002a80d       0xc1 obj_cooja/mtype296.a(rpl-dag.o)
                0x000000000002a80d                rpl_nullify_parent
 .text.rpl_move_parent
                0x000000000002a8ce       0xb8 obj_cooja/mtype296.a(rpl-dag.o)
                0x000000000002a8ce                rpl_move_parent
 .text.rpl_has_downward_route
                0x000000000002a986       0x53 obj_cooja/mtype296.a(rpl-dag.o)
                0x000000000002a986                rpl_has_downward_route
 .text.rpl_get_dag
                0x000000000002a9d9       0xec obj_cooja/mtype296.a(rpl-dag.o)
                0x000000000002a9d9                rpl_get_dag
 .text.rpl_get_any_dag
                0x000000000002aac5       0x62 obj_cooja/mtype296.a(rpl-dag.o)
                0x000000000002aac5                rpl_get_any_dag
 .text.rpl_get_instance
                0x000000000002ab27       0x63 obj_cooja/mtype296.a(rpl-dag.o)
                0x000000000002ab27                rpl_get_instance
 .text.rpl_find_of
                0x000000000002ab8a       0x3d obj_cooja/mtype296.a(rpl-dag.o)
                0x000000000002ab8a                rpl_find_of
 .text.rpl_join_instance
                0x000000000002abc7      0x2c0 obj_cooja/mtype296.a(rpl-dag.o)
                0x000000000002abc7                rpl_join_instance
 .text.rpl_add_dag
                0x000000000002ae87      0x27c obj_cooja/mtype296.a(rpl-dag.o)
                0x000000000002ae87                rpl_add_dag
 .text.global_repair
                0x000000000002b103      0x154 obj_cooja/mtype296.a(rpl-dag.o)
 .text.rpl_local_repair
                0x000000000002b257       0xd8 obj_cooja/mtype296.a(rpl-dag.o)
                0x000000000002b257                rpl_local_repair
 .text.rpl_recalculate_ranks
                0x000000000002b32f       0x86 obj_cooja/mtype296.a(rpl-dag.o)
                0x000000000002b32f                rpl_recalculate_ranks
 .text.rpl_process_parent_event
                0x000000000002b3b5       0xfb obj_cooja/mtype296.a(rpl-dag.o)
                0x000000000002b3b5                rpl_process_parent_event
 .text.add_nbr_from_dio
                0x000000000002b4b0       0x32 obj_cooja/mtype296.a(rpl-dag.o)
 .text.rpl_process_dio
                0x000000000002b4e2      0x4da obj_cooja/mtype296.a(rpl-dag.o)
                0x000000000002b4e2                rpl_process_dio
 .text          0x000000000002b9bc        0x0 obj_cooja/mtype296.a(rpl-ext-header.)
 .text.packetbuf_addr
                0x000000000002b9bc       0x1d obj_cooja/mtype296.a(rpl-ext-header.)
 .text.rpl_verify_hbh_header
                0x000000000002b9d9      0x2c8 obj_cooja/mtype296.a(rpl-ext-header.)
                0x000000000002b9d9                rpl_verify_hbh_header
 .text.update_hbh_header
                0x000000000002bca1      0x2b8 obj_cooja/mtype296.a(rpl-ext-header.)
 .text.insert_hbh_header
                0x000000000002bf59      0x203 obj_cooja/mtype296.a(rpl-ext-header.)
 .text.rpl_remove_header
                0x000000000002c15c      0x163 obj_cooja/mtype296.a(rpl-ext-header.)
                0x000000000002c15c                rpl_remove_header
 .text.rpl_update_header
                0x000000000002c2bf       0xcc obj_cooja/mtype296.a(rpl-ext-header.)
                0x000000000002c2bf                rpl_update_header
 .text          0x000000000002c38b        0x0 obj_cooja/mtype296.a(rpl-icmp6.o)
 .text.packetbuf_addr
                0x000000000002c38b       0x1d obj_cooja/mtype296.a(rpl-icmp6.o)
 .text.prepare_for_dao_fwd
                0x000000000002c3a8       0x6c obj_cooja/mtype296.a(rpl-icmp6.o)
 .text.get_global_addr
                0x000000000002c414       0xb3 obj_cooja/mtype296.a(rpl-icmp6.o)
 .text.get32    0x000000000002c4c7       0x57 obj_cooja/mtype296.a(rpl-icmp6.o)
 .text.set32    0x000000000002c51e       0x62 obj_cooja/mtype296.a(rpl-icmp6.o)
 .text.get16    0x000000000002c580       0x2b obj_cooja/mtype296.a(rpl-icmp6.o)
 .text.set16    0x000000000002c5ab       0x3f obj_cooja/mtype296.a(rpl-icmp6.o)
 .text.rpl_icmp6_update_nbr_table
                0x000000000002c5ea       0x5b obj_cooja/mtype296.a(rpl-icmp6.o)
                0x000000000002c5ea                rpl_icmp6_update_nbr_table
 .text.dis_input
                0x000000000002c645       0x95 obj_cooja/mtype296.a(rpl-icmp6.o)
 .text.dis_output
                0x000000000002c6da       0xaf obj_cooja/mtype296.a(rpl-icmp6.o)
                0x000000000002c6da                dis_output
 .text.dio_input
                0x000000000002c789      0x58a obj_cooja/mtype296.a(rpl-icmp6.o)
 .text.dio_output
                0x000000000002cd13      0x622 obj_cooja/mtype296.a(rpl-icmp6.o)
                0x000000000002cd13                dio_output
 .text.dao_input_storing
                0x000000000002d335      0x6d8 obj_cooja/mtype296.a(rpl-icmp6.o)
 .text.dao_input_nonstoring
                0x000000000002da0d        0x5 obj_cooja/mtype296.a(rpl-icmp6.o)
 .text.dao_input
                0x000000000002da12       0x5f obj_cooja/mtype296.a(rpl-icmp6.o)
 .text.dao_output
                0x000000000002da71       0xbb obj_cooja/mtype296.a(rpl-icmp6.o)
                0x000000000002da71                dao_output
 .text.dao_output_target
                0x000000000002db2c       0x36 obj_cooja/mtype296.a(rpl-icmp6.o)
                0x000000000002db2c                dao_output_target
 .text.dao_output_target_seq
                0x000000000002db62      0x2ff obj_cooja/mtype296.a(rpl-icmp6.o)
 .text.dao_ack_input
                0x000000000002de61       0x15 obj_cooja/mtype296.a(rpl-icmp6.o)
 .text.dao_ack_output
                0x000000000002de76       0x14 obj_cooja/mtype296.a(rpl-icmp6.o)
                0x000000000002de76                dao_ack_output
 .text.rpl_icmp6_register_handlers
                0x000000000002de8a       0x38 obj_cooja/mtype296.a(rpl-icmp6.o)
                0x000000000002de8a                rpl_icmp6_register_handlers
 .text          0x000000000002dec2        0x0 obj_cooja/mtype296.a(rpl-mrhof.o)
 .text.reset    0x000000000002dec2        0x5 obj_cooja/mtype296.a(rpl-mrhof.o)
 .text.parent_link_metric
                0x000000000002dec7       0x29 obj_cooja/mtype296.a(rpl-mrhof.o)
 .text.parent_path_cost
                0x000000000002def0       0x6d obj_cooja/mtype296.a(rpl-mrhof.o)
 .text.rank_via_parent
                0x000000000002df5d       0x72 obj_cooja/mtype296.a(rpl-mrhof.o)
 .text.parent_is_acceptable
                0x000000000002dfcf       0x42 obj_cooja/mtype296.a(rpl-mrhof.o)
 .text.parent_has_usable_link
                0x000000000002e011       0x23 obj_cooja/mtype296.a(rpl-mrhof.o)
 .text.best_parent
                0x000000000002e034       0xf7 obj_cooja/mtype296.a(rpl-mrhof.o)
 .text.best_dag
                0x000000000002e12b       0x75 obj_cooja/mtype296.a(rpl-mrhof.o)
 .text.update_metric_container
                0x000000000002e1a0        0xb obj_cooja/mtype296.a(rpl-mrhof.o)
 .text          0x000000000002e1ab        0x0 obj_cooja/mtype296.a(rpl-timers.o)
 .text.handle_periodic_timer
                0x000000000002e1ab       0x84 obj_cooja/mtype296.a(rpl-timers.o)
 .text.new_dio_interval
                0x000000000002e22f       0xca obj_cooja/mtype296.a(rpl-timers.o)
 .text.handle_dio_timer
                0x000000000002e2f9      0x12d obj_cooja/mtype296.a(rpl-timers.o)
 .text.rpl_reset_periodic_timer
                0x000000000002e426       0x55 obj_cooja/mtype296.a(rpl-timers.o)
                0x000000000002e426                rpl_reset_periodic_timer
 .text.rpl_reset_dio_timer
                0x000000000002e47b       0x48 obj_cooja/mtype296.a(rpl-timers.o)
                0x000000000002e47b                rpl_reset_dio_timer
 .text.set_dao_lifetime_timer
                0x000000000002e4c3       0x8c obj_cooja/mtype296.a(rpl-timers.o)
 .text.handle_dao_timer
                0x000000000002e54f       0xb1 obj_cooja/mtype296.a(rpl-timers.o)
 .text.schedule_dao
                0x000000000002e600       0xa2 obj_cooja/mtype296.a(rpl-timers.o)
 .text.rpl_schedule_dao
                0x000000000002e6a2       0x1b obj_cooja/mtype296.a(rpl-timers.o)
                0x000000000002e6a2                rpl_schedule_dao
 .text.rpl_schedule_dao_immediately
                0x000000000002e6bd       0x1b obj_cooja/mtype296.a(rpl-timers.o)
                0x000000000002e6bd                rpl_schedule_dao_immediately
 .text.rpl_cancel_dao
                0x000000000002e6d8       0x28 obj_cooja/mtype296.a(rpl-timers.o)
                0x000000000002e6d8                rpl_cancel_dao
 .text.handle_unicast_dio_timer
                0x000000000002e700       0x3a obj_cooja/mtype296.a(rpl-timers.o)
 .text.rpl_schedule_unicast_dio_immediately
                0x000000000002e73a       0x30 obj_cooja/mtype296.a(rpl-timers.o)
                0x000000000002e73a                rpl_schedule_unicast_dio_immediately
 .text.get_probing_delay
                0x000000000002e76a       0x7f obj_cooja/mtype296.a(rpl-timers.o)
                0x000000000002e76a                get_probing_delay
 .text.get_probing_target
                0x000000000002e7e9      0x18c obj_cooja/mtype296.a(rpl-timers.o)
                0x000000000002e7e9                get_probing_target
 .text.handle_probing_timer
                0x000000000002e975       0x6b obj_cooja/mtype296.a(rpl-timers.o)
 .text.rpl_schedule_probing
                0x000000000002e9e0       0x3a obj_cooja/mtype296.a(rpl-timers.o)
                0x000000000002e9e0                rpl_schedule_probing
 .text          0x000000000002ea1a        0x0 obj_cooja/mtype296.a(rpl.o)
 .text.rpl_get_mode
                0x000000000002ea1a        0xa obj_cooja/mtype296.a(rpl.o)
                0x000000000002ea1a                rpl_get_mode
 .text.rpl_set_mode
                0x000000000002ea24       0x8e obj_cooja/mtype296.a(rpl.o)
                0x000000000002ea24                rpl_set_mode
 .text.rpl_purge_routes
                0x000000000002eab2      0x105 obj_cooja/mtype296.a(rpl.o)
                0x000000000002eab2                rpl_purge_routes
 .text.rpl_remove_routes
                0x000000000002ebb7       0x46 obj_cooja/mtype296.a(rpl.o)
                0x000000000002ebb7                rpl_remove_routes
 .text.rpl_remove_routes_by_nexthop
                0x000000000002ebfd       0x61 obj_cooja/mtype296.a(rpl.o)
                0x000000000002ebfd                rpl_remove_routes_by_nexthop
 .text.rpl_add_route
                0x000000000002ec5e       0x93 obj_cooja/mtype296.a(rpl.o)
                0x000000000002ec5e                rpl_add_route
 .text.rpl_link_neighbor_callback
                0x000000000002ecf1       0xca obj_cooja/mtype296.a(rpl.o)
                0x000000000002ecf1                rpl_link_neighbor_callback
 .text.rpl_ipv6_neighbor_callback
                0x000000000002edbb       0x6f obj_cooja/mtype296.a(rpl.o)
                0x000000000002edbb                rpl_ipv6_neighbor_callback
 .text.rpl_purge_dags
                0x000000000002ee2a       0xe2 obj_cooja/mtype296.a(rpl.o)
                0x000000000002ee2a                rpl_purge_dags
 .text.rpl_init
                0x000000000002ef0c       0x78 obj_cooja/mtype296.a(rpl.o)
                0x000000000002ef0c                rpl_init
 .text          0x000000000002ef84        0x0 obj_cooja/mtype296.a(link-stats.o)
 .text.packetbuf_attr
                0x000000000002ef84       0x1a obj_cooja/mtype296.a(link-stats.o)
 .text.link_stats_from_lladdr
                0x000000000002ef9e       0x1c obj_cooja/mtype296.a(link-stats.o)
                0x000000000002ef9e                link_stats_from_lladdr
 .text.link_stats_is_fresh
                0x000000000002efba       0x39 obj_cooja/mtype296.a(link-stats.o)
                0x000000000002efba                link_stats_is_fresh
 .text.guess_etx_from_rssi
                0x000000000002eff3       0x7c obj_cooja/mtype296.a(link-stats.o)
                0x000000000002eff3                guess_etx_from_rssi
 .text.link_stats_packet_sent
                0x000000000002f06f      0x10e obj_cooja/mtype296.a(link-stats.o)
                0x000000000002f06f                link_stats_packet_sent
 .text.link_stats_input_callback
                0x000000000002f17d       0xaf obj_cooja/mtype296.a(link-stats.o)
                0x000000000002f17d                link_stats_input_callback
 .text.periodic
                0x000000000002f22c       0x54 obj_cooja/mtype296.a(link-stats.o)
 .text.link_stats_init
                0x000000000002f280       0x41 obj_cooja/mtype296.a(link-stats.o)
                0x000000000002f280                link_stats_init
 .text          0x000000000002f2c1        0x0 obj_cooja/mtype296.a(linkaddr.o)
 .text.linkaddr_copy
                0x000000000002f2c1       0x22 obj_cooja/mtype296.a(linkaddr.o)
                0x000000000002f2c1                linkaddr_copy
 .text.linkaddr_cmp
                0x000000000002f2e3       0x2a obj_cooja/mtype296.a(linkaddr.o)
                0x000000000002f2e3                linkaddr_cmp
 .text.linkaddr_set_node_addr
                0x000000000002f30d       0x1b obj_cooja/mtype296.a(linkaddr.o)
                0x000000000002f30d                linkaddr_set_node_addr
 .text          0x000000000002f328        0x0 obj_cooja/mtype296.a(nbr-table.o)
 .text.key_from_index
                0x000000000002f328       0x26 obj_cooja/mtype296.a(nbr-table.o)
 .text.item_from_index
                0x000000000002f34e       0x2a obj_cooja/mtype296.a(nbr-table.o)
 .text.index_from_key
                0x000000000002f378       0x27 obj_cooja/mtype296.a(nbr-table.o)
 .text.index_from_item
                0x000000000002f39f       0x32 obj_cooja/mtype296.a(nbr-table.o)
 .text.item_from_key
                0x000000000002f3d1       0x22 obj_cooja/mtype296.a(nbr-table.o)
 .text.key_from_item
                0x000000000002f3f3       0x22 obj_cooja/mtype296.a(nbr-table.o)
 .text.index_from_lladdr
                0x000000000002f415       0x6c obj_cooja/mtype296.a(nbr-table.o)
 .text.nbr_get_bit
                0x000000000002f481       0x54 obj_cooja/mtype296.a(nbr-table.o)
 .text.nbr_set_bit
                0x000000000002f4d5       0x98 obj_cooja/mtype296.a(nbr-table.o)
 .text.remove_key
                0x000000000002f56d       0xb7 obj_cooja/mtype296.a(nbr-table.o)
 .text.nbr_table_allocate
                0x000000000002f624      0x173 obj_cooja/mtype296.a(nbr-table.o)
 .text.nbr_table_register
                0x000000000002f797       0x48 obj_cooja/mtype296.a(nbr-table.o)
                0x000000000002f797                nbr_table_register
 .text.nbr_table_head
                0x000000000002f7df       0x5c obj_cooja/mtype296.a(nbr-table.o)
                0x000000000002f7df                nbr_table_head
 .text.nbr_table_next
                0x000000000002f83b       0x67 obj_cooja/mtype296.a(nbr-table.o)
                0x000000000002f83b                nbr_table_next
 .text.nbr_table_add_lladdr
                0x000000000002f8a2       0xdc obj_cooja/mtype296.a(nbr-table.o)
                0x000000000002f8a2                nbr_table_add_lladdr
 .text.nbr_table_get_from_lladdr
                0x000000000002f97e       0x4d obj_cooja/mtype296.a(nbr-table.o)
                0x000000000002f97e                nbr_table_get_from_lladdr
 .text.nbr_table_remove
                0x000000000002f9cb       0x52 obj_cooja/mtype296.a(nbr-table.o)
                0x000000000002f9cb                nbr_table_remove
 .text.nbr_table_lock
                0x000000000002fa1d       0x2a obj_cooja/mtype296.a(nbr-table.o)
                0x000000000002fa1d                nbr_table_lock
 .text.nbr_table_unlock
                0x000000000002fa47       0x2a obj_cooja/mtype296.a(nbr-table.o)
                0x000000000002fa47                nbr_table_unlock
 .text.nbr_table_get_lladdr
                0x000000000002fa71       0x30 obj_cooja/mtype296.a(nbr-table.o)
                0x000000000002fa71                nbr_table_get_lladdr
 .text.nbr_table_update_lladdr
                0x000000000002faa1       0x96 obj_cooja/mtype296.a(nbr-table.o)
                0x000000000002faa1                nbr_table_update_lladdr
 .text          0x000000000002fb37        0x0 obj_cooja/mtype296.a(netstack.o)
 .text.netstack_init
                0x000000000002fb37       0x2b obj_cooja/mtype296.a(netstack.o)
                0x000000000002fb37                netstack_init
 .text          0x000000000002fb62        0x0 obj_cooja/mtype296.a(packetbuf.o)
 .text.packetbuf_clear
                0x000000000002fb62       0x2a obj_cooja/mtype296.a(packetbuf.o)
                0x000000000002fb62                packetbuf_clear
 .text.packetbuf_copyfrom
                0x000000000002fb8c       0x52 obj_cooja/mtype296.a(packetbuf.o)
                0x000000000002fb8c                packetbuf_copyfrom
 .text.packetbuf_compact
                0x000000000002fbde       0x7d obj_cooja/mtype296.a(packetbuf.o)
                0x000000000002fbde                packetbuf_compact
 .text.packetbuf_copyto
                0x000000000002fc5b       0x97 obj_cooja/mtype296.a(packetbuf.o)
                0x000000000002fc5b                packetbuf_copyto
 .text.packetbuf_hdralloc
                0x000000000002fcf2       0x7d obj_cooja/mtype296.a(packetbuf.o)
                0x000000000002fcf2                packetbuf_hdralloc
 .text.packetbuf_hdrreduce
                0x000000000002fd6f       0x48 obj_cooja/mtype296.a(packetbuf.o)
                0x000000000002fd6f                packetbuf_hdrreduce
 .text.packetbuf_set_datalen
                0x000000000002fdb7       0x19 obj_cooja/mtype296.a(packetbuf.o)
                0x000000000002fdb7                packetbuf_set_datalen
 .text.packetbuf_dataptr
                0x000000000002fdd0       0x1d obj_cooja/mtype296.a(packetbuf.o)
                0x000000000002fdd0                packetbuf_dataptr
 .text.packetbuf_hdrptr
                0x000000000002fded        0xa obj_cooja/mtype296.a(packetbuf.o)
                0x000000000002fded                packetbuf_hdrptr
 .text.packetbuf_datalen
                0x000000000002fdf7        0xc obj_cooja/mtype296.a(packetbuf.o)
                0x000000000002fdf7                packetbuf_datalen
 .text.packetbuf_hdrlen
                0x000000000002fe03       0x17 obj_cooja/mtype296.a(packetbuf.o)
                0x000000000002fe03                packetbuf_hdrlen
 .text.packetbuf_totlen
                0x000000000002fe1a       0x16 obj_cooja/mtype296.a(packetbuf.o)
                0x000000000002fe1a                packetbuf_totlen
 .text.packetbuf_remaininglen
                0x000000000002fe30       0x13 obj_cooja/mtype296.a(packetbuf.o)
                0x000000000002fe30                packetbuf_remaininglen
 .text.packetbuf_attr_clear
                0x000000000002fe43       0x52 obj_cooja/mtype296.a(packetbuf.o)
                0x000000000002fe43                packetbuf_attr_clear
 .text.packetbuf_attr_copyto
                0x000000000002fe95       0x49 obj_cooja/mtype296.a(packetbuf.o)
                0x000000000002fe95                packetbuf_attr_copyto
 .text.packetbuf_attr_copyfrom
                0x000000000002fede       0x48 obj_cooja/mtype296.a(packetbuf.o)
                0x000000000002fede                packetbuf_attr_copyfrom
 .text.packetbuf_holds_broadcast
                0x000000000002ff26       0x1c obj_cooja/mtype296.a(packetbuf.o)
                0x000000000002ff26                packetbuf_holds_broadcast
 .text          0x000000000002ff42        0x0 obj_cooja/mtype296.a(queuebuf.o)
 .text.queuebuf_load_to_ram
                0x000000000002ff42        0xa obj_cooja/mtype296.a(queuebuf.o)
 .text.queuebuf_init
                0x000000000002ff4c       0x20 obj_cooja/mtype296.a(queuebuf.o)
                0x000000000002ff4c                queuebuf_init
 .text.queuebuf_numfree
                0x000000000002ff6c       0x14 obj_cooja/mtype296.a(queuebuf.o)
                0x000000000002ff6c                queuebuf_numfree
 .text.queuebuf_new_from_packetbuf
                0x000000000002ff80       0x90 obj_cooja/mtype296.a(queuebuf.o)
                0x000000000002ff80                queuebuf_new_from_packetbuf
 .text.queuebuf_update_attr_from_packetbuf
                0x0000000000030010       0x33 obj_cooja/mtype296.a(queuebuf.o)
                0x0000000000030010                queuebuf_update_attr_from_packetbuf
 .text.queuebuf_update_from_packetbuf
                0x0000000000030043       0x4a obj_cooja/mtype296.a(queuebuf.o)
                0x0000000000030043                queuebuf_update_from_packetbuf
 .text.queuebuf_free
                0x000000000003008d       0x47 obj_cooja/mtype296.a(queuebuf.o)
                0x000000000003008d                queuebuf_free
 .text.queuebuf_to_packetbuf
                0x00000000000300d4       0x66 obj_cooja/mtype296.a(queuebuf.o)
                0x00000000000300d4                queuebuf_to_packetbuf
 .text.queuebuf_dataptr
                0x000000000003013a       0x37 obj_cooja/mtype296.a(queuebuf.o)
                0x000000000003013a                queuebuf_dataptr
 .text.queuebuf_datalen
                0x0000000000030171       0x23 obj_cooja/mtype296.a(queuebuf.o)
                0x0000000000030171                queuebuf_datalen
 .text.queuebuf_addr
                0x0000000000030194       0x32 obj_cooja/mtype296.a(queuebuf.o)
                0x0000000000030194                queuebuf_addr
 .text.queuebuf_attr
                0x00000000000301c6       0x2b obj_cooja/mtype296.a(queuebuf.o)
                0x00000000000301c6                queuebuf_attr
 .text.queuebuf_debug_print
                0x00000000000301f1        0x5 obj_cooja/mtype296.a(queuebuf.o)
                0x00000000000301f1                queuebuf_debug_print
 .text          0x00000000000301f6        0x0 obj_cooja/mtype296.a(csma.o)
 .text.packetbuf_set_attr
                0x00000000000301f6       0x2a obj_cooja/mtype296.a(csma.o)
 .text.packetbuf_attr
                0x0000000000030220       0x1a obj_cooja/mtype296.a(csma.o)
 .text.packetbuf_addr
                0x000000000003023a       0x1d obj_cooja/mtype296.a(csma.o)
 .text.neighbor_queue_from_addr
                0x0000000000030257       0x51 obj_cooja/mtype296.a(csma.o)
 .text.backoff_period
                0x00000000000302a8       0x25 obj_cooja/mtype296.a(csma.o)
 .text.transmit_packet_list
                0x00000000000302cd       0x47 obj_cooja/mtype296.a(csma.o)
 .text.schedule_transmission
                0x0000000000030314       0x87 obj_cooja/mtype296.a(csma.o)
 .text.free_packet
                0x000000000003039b       0xc0 obj_cooja/mtype296.a(csma.o)
 .text.tx_done  0x000000000003045b       0x7c obj_cooja/mtype296.a(csma.o)
 .text.rexmit   0x00000000000304d7       0x21 obj_cooja/mtype296.a(csma.o)
 .text.collision
                0x00000000000304f8       0x85 obj_cooja/mtype296.a(csma.o)
 .text.noack    0x000000000003057d       0x6a obj_cooja/mtype296.a(csma.o)
 .text.tx_ok    0x00000000000305e7       0x3b obj_cooja/mtype296.a(csma.o)
 .text.packet_sent
                0x0000000000030622      0x117 obj_cooja/mtype296.a(csma.o)
 .text.send_packet
                0x0000000000030739      0x274 obj_cooja/mtype296.a(csma.o)
 .text.input_packet
                0x00000000000309ad        0xf obj_cooja/mtype296.a(csma.o)
 .text.on       0x00000000000309bc        0xf obj_cooja/mtype296.a(csma.o)
 .text.off      0x00000000000309cb       0x15 obj_cooja/mtype296.a(csma.o)
 .text.channel_check_interval
                0x00000000000309e0       0x1f obj_cooja/mtype296.a(csma.o)
 .text.init     0x00000000000309ff       0x2c obj_cooja/mtype296.a(csma.o)
 .text          0x0000000000030a2b        0x0 obj_cooja/mtype296.a(framer-802154.o)
 .text.packetbuf_set_attr
                0x0000000000030a2b       0x2a obj_cooja/mtype296.a(framer-802154.o)
 .text.packetbuf_attr
                0x0000000000030a55       0x1a obj_cooja/mtype296.a(framer-802154.o)
 .text.packetbuf_set_addr
                0x0000000000030a6f       0x32 obj_cooja/mtype296.a(framer-802154.o)
 .text.packetbuf_addr
                0x0000000000030aa1       0x1d obj_cooja/mtype296.a(framer-802154.o)
 .text.create_frame
                0x0000000000030abe      0x1eb obj_cooja/mtype296.a(framer-802154.o)
 .text.hdr_length
                0x0000000000030ca9       0x1c obj_cooja/mtype296.a(framer-802154.o)
 .text.create   0x0000000000030cc5       0x1c obj_cooja/mtype296.a(framer-802154.o)
 .text.parse    0x0000000000030ce1      0x143 obj_cooja/mtype296.a(framer-802154.o)
 .text          0x0000000000030e24        0x0 obj_cooja/mtype296.a(mac.o)
 .text.mac_call_sent_callback
                0x0000000000030e24       0x3c obj_cooja/mtype296.a(mac.o)
                0x0000000000030e24                mac_call_sent_callback
 .text          0x0000000000030e60        0x0 obj_cooja/mtype296.a(nullrdc.o)
 .text.packetbuf_set_attr
                0x0000000000030e60       0x2a obj_cooja/mtype296.a(nullrdc.o)
 .text.packetbuf_set_addr
                0x0000000000030e8a       0x32 obj_cooja/mtype296.a(nullrdc.o)
 .text.packetbuf_addr
                0x0000000000030ebc       0x1d obj_cooja/mtype296.a(nullrdc.o)
 .text.send_one_packet
                0x0000000000030ed9      0x1ec obj_cooja/mtype296.a(nullrdc.o)
 .text.send_packet
                0x00000000000310c5       0x1a obj_cooja/mtype296.a(nullrdc.o)
 .text.send_list
                0x00000000000310df       0x49 obj_cooja/mtype296.a(nullrdc.o)
 .text.packet_input
                0x0000000000031128      0x11a obj_cooja/mtype296.a(nullrdc.o)
 .text.on       0x0000000000031242        0xf obj_cooja/mtype296.a(nullrdc.o)
 .text.off      0x0000000000031251       0x1e obj_cooja/mtype296.a(nullrdc.o)
 .text.channel_check_interval
                0x000000000003126f        0xa obj_cooja/mtype296.a(nullrdc.o)
 .text.init     0x0000000000031279        0xd obj_cooja/mtype296.a(nullrdc.o)
 .text          0x0000000000031286        0x0 obj_cooja/mtype296.a(nullsec.o)
 .text.packetbuf_set_attr
                0x0000000000031286       0x2a obj_cooja/mtype296.a(nullsec.o)
 .text.init     0x00000000000312b0        0x5 obj_cooja/mtype296.a(nullsec.o)
 .text.send     0x00000000000312b5       0x30 obj_cooja/mtype296.a(nullsec.o)
 .text.input    0x00000000000312e5        0xf obj_cooja/mtype296.a(nullsec.o)
 .text          0x00000000000312f4        0x0 obj_cooja/mtype296.a(watchdog.o)
 .text.watchdog_init
                0x00000000000312f4        0x5 obj_cooja/mtype296.a(watchdog.o)
                0x00000000000312f4                watchdog_init
 .text.watchdog_start
                0x00000000000312f9        0x5 obj_cooja/mtype296.a(watchdog.o)
                0x00000000000312f9                watchdog_start
 .text.watchdog_periodic
                0x00000000000312fe        0x5 obj_cooja/mtype296.a(watchdog.o)
                0x00000000000312fe                watchdog_periodic
 .text.watchdog_stop
                0x0000000000031303        0x5 obj_cooja/mtype296.a(watchdog.o)
                0x0000000000031303                watchdog_stop
 .text.watchdog_reboot
                0x0000000000031308        0x5 obj_cooja/mtype296.a(watchdog.o)
                0x0000000000031308                watchdog_reboot
 .text          0x000000000003130d        0x0 obj_cooja/mtype296.a(rimestats.o)
 .text          0x000000000003130d        0x0 obj_cooja/mtype296.a(stimer.o)
 .text.stimer_set
                0x000000000003130d       0x1b obj_cooja/mtype296.a(stimer.o)
                0x000000000003130d                stimer_set
 .text.stimer_reset
                0x0000000000031328       0x17 obj_cooja/mtype296.a(stimer.o)
                0x0000000000031328                stimer_reset
 .text.stimer_restart
                0x000000000003133f       0x12 obj_cooja/mtype296.a(stimer.o)
                0x000000000003133f                stimer_restart
 .text.stimer_expired
                0x0000000000031351       0x27 obj_cooja/mtype296.a(stimer.o)
                0x0000000000031351                stimer_expired
 .text.stimer_remaining
                0x0000000000031378       0x24 obj_cooja/mtype296.a(stimer.o)
                0x0000000000031378                stimer_remaining
 .text.stimer_elapsed
                0x000000000003139c       0x14 obj_cooja/mtype296.a(stimer.o)
                0x000000000003139c                stimer_elapsed
 .text          0x00000000000313b0        0x0 obj_cooja/mtype296.a(uip-icmp6.o)
 .text.input_handler_lookup
                0x00000000000313b0       0x6e obj_cooja/mtype296.a(uip-icmp6.o)
 .text.uip_icmp6_input
                0x000000000003141e       0x56 obj_cooja/mtype296.a(uip-icmp6.o)
                0x000000000003141e                uip_icmp6_input
 .text.uip_icmp6_register_input_handler
                0x0000000000031474       0x1c obj_cooja/mtype296.a(uip-icmp6.o)
                0x0000000000031474                uip_icmp6_register_input_handler
 .text.echo_request_input
                0x0000000000031490      0x1c7 obj_cooja/mtype296.a(uip-icmp6.o)
 .text.uip_icmp6_error_output
                0x0000000000031657      0x340 obj_cooja/mtype296.a(uip-icmp6.o)
                0x0000000000031657                uip_icmp6_error_output
 .text.uip_icmp6_send
                0x0000000000031997      0x107 obj_cooja/mtype296.a(uip-icmp6.o)
                0x0000000000031997                uip_icmp6_send
 .text.echo_reply_input
                0x0000000000031a9e      0x16d obj_cooja/mtype296.a(uip-icmp6.o)
 .text.uip_icmp6_echo_reply_callback_add
                0x0000000000031c0b       0x31 obj_cooja/mtype296.a(uip-icmp6.o)
                0x0000000000031c0b                uip_icmp6_echo_reply_callback_add
 .text.uip_icmp6_echo_reply_callback_rm
                0x0000000000031c3c       0x1c obj_cooja/mtype296.a(uip-icmp6.o)
                0x0000000000031c3c                uip_icmp6_echo_reply_callback_rm
 .text.uip_icmp6_init
                0x0000000000031c58       0x20 obj_cooja/mtype296.a(uip-icmp6.o)
                0x0000000000031c58                uip_icmp6_init
 .text          0x0000000000031c78        0x0 obj_cooja/mtype296.a(rpl-nbr-policy.)
 .text.handle_periodic_timer
                0x0000000000031c78       0x19 obj_cooja/mtype296.a(rpl-nbr-policy.)
 .text.update_nbr
                0x0000000000031c91      0x1b7 obj_cooja/mtype296.a(rpl-nbr-policy.)
 .text.find_removable_dis
                0x0000000000031e48       0x25 obj_cooja/mtype296.a(rpl-nbr-policy.)
                0x0000000000031e48                find_removable_dis
 .text.find_removable_dio
                0x0000000000031e6d       0x81 obj_cooja/mtype296.a(rpl-nbr-policy.)
                0x0000000000031e6d                find_removable_dio
 .text.find_removable_dao
                0x0000000000031eee       0x50 obj_cooja/mtype296.a(rpl-nbr-policy.)
                0x0000000000031eee                find_removable_dao
 .text.rpl_nbr_policy_find_removable
                0x0000000000031f3e       0x57 obj_cooja/mtype296.a(rpl-nbr-policy.)
                0x0000000000031f3e                rpl_nbr_policy_find_removable
 .text          0x0000000000031f95        0x0 obj_cooja/mtype296.a(frame802154.o)
 .text.addr_len
                0x0000000000031f95       0x31 obj_cooja/mtype296.a(frame802154.o)
 .text.frame802154_get_pan_id
                0x0000000000031fc6        0xc obj_cooja/mtype296.a(frame802154.o)
                0x0000000000031fc6                frame802154_get_pan_id
 .text.frame802154_set_pan_id
                0x0000000000031fd2       0x19 obj_cooja/mtype296.a(frame802154.o)
                0x0000000000031fd2                frame802154_set_pan_id
 .text.frame802154_has_panid
                0x0000000000031feb      0x1ad obj_cooja/mtype296.a(frame802154.o)
                0x0000000000031feb                frame802154_has_panid
 .text.frame802154_check_dest_panid
                0x0000000000032198       0x6f obj_cooja/mtype296.a(frame802154.o)
                0x0000000000032198                frame802154_check_dest_panid
 .text.frame802154_is_broadcast_addr
                0x0000000000032207       0x4d obj_cooja/mtype296.a(frame802154.o)
                0x0000000000032207                frame802154_is_broadcast_addr
 .text.frame802154_extract_linkaddr
                0x0000000000032254      0x148 obj_cooja/mtype296.a(frame802154.o)
                0x0000000000032254                frame802154_extract_linkaddr
 .text.field_len
                0x000000000003239c       0xf8 obj_cooja/mtype296.a(frame802154.o)
 .text.frame802154_hdrlen
                0x0000000000032494       0x51 obj_cooja/mtype296.a(frame802154.o)
                0x0000000000032494                frame802154_hdrlen
 .text.frame802154_create_fcf
                0x00000000000324e5       0xb7 obj_cooja/mtype296.a(frame802154.o)
                0x00000000000324e5                frame802154_create_fcf
 .text.frame802154_create
                0x000000000003259c      0x14d obj_cooja/mtype296.a(frame802154.o)
                0x000000000003259c                frame802154_create
 .text.frame802154_parse_fcf
                0x00000000000326e9       0xb9 obj_cooja/mtype296.a(frame802154.o)
                0x00000000000326e9                frame802154_parse_fcf
 .text.frame802154_parse
                0x00000000000327a2      0x280 obj_cooja/mtype296.a(frame802154.o)
                0x00000000000327a2                frame802154_parse
 .text          0x0000000000032a22        0x0 obj_cooja/mtype296.a(mac-sequence.o)
 .text.packetbuf_attr
                0x0000000000032a22       0x1a obj_cooja/mtype296.a(mac-sequence.o)
 .text.packetbuf_addr
                0x0000000000032a3c       0x1d obj_cooja/mtype296.a(mac-sequence.o)
 .text.mac_sequence_is_duplicate
                0x0000000000032a59       0x9e obj_cooja/mtype296.a(mac-sequence.o)
                0x0000000000032a59                mac_sequence_is_duplicate
 .text.mac_sequence_register_seqno
                0x0000000000032af7       0xca obj_cooja/mtype296.a(mac-sequence.o)
                0x0000000000032af7                mac_sequence_register_seqno
 .text          0x0000000000032bc1        0x0 /usr/lib/gcc/i686-linux-gnu/4.8/crtendS.o
 .text          0x0000000000032bc1        0x0 /usr/lib/gcc/i686-linux-gnu/4.8/../../../i386-linux-gnu/crtn.o
 *(.gnu.warning)

.fini           0x0000000000032bc4       0x14
 *(SORT(.fini))
 .fini          0x0000000000032bc4        0xf /usr/lib/gcc/i686-linux-gnu/4.8/../../../i386-linux-gnu/crti.o
                0x0000000000032bc4                _fini
 .fini          0x0000000000032bd3        0x5 /usr/lib/gcc/i686-linux-gnu/4.8/../../../i386-linux-gnu/crtn.o
                0x0000000000032bd8                PROVIDE (__etext, .)
                0x0000000000032bd8                PROVIDE (_etext, .)
                0x0000000000032bd8                PROVIDE (etext, .)

.rodata         0x0000000000032be0     0x3638
 *(.rodata .rodata.* .gnu.linkonce.r.*)
 .rodata        0x0000000000032be0      0x2d6 receiver.co
                0x0000000000032c54                autostart_processes
 *fill*         0x0000000000032eb6        0x2 
 .rodata        0x0000000000032eb8      0x133 obj_cooja/mtype296.o
 *fill*         0x0000000000032feb        0x1 
 .rodata        0x0000000000032fec     0x131a obj_cooja/mtype296.a(dtls.o)
 *fill*         0x0000000000034306        0x2 
 .rodata        0x0000000000034308       0xb5 obj_cooja/mtype296.a(tinydtls-crypto)
 *fill*         0x00000000000343bd        0x3 
 .rodata        0x00000000000343c0       0x21 obj_cooja/mtype296.a(hmac.o)
 *fill*         0x00000000000343e1        0x3 
 .rodata        0x00000000000343e4       0x38 obj_cooja/mtype296.a(netq.o)
 .rodata        0x000000000003441c        0xe obj_cooja/mtype296.a(peer.o)
 *fill*         0x000000000003442a        0x2 
 .rodata        0x000000000003442c       0x24 obj_cooja/mtype296.a(session.o)
 *fill*         0x0000000000034450       0x10 
 .rodata        0x0000000000034460     0x1428 obj_cooja/mtype296.a(rijndael.o)
 .rodata        0x0000000000035888       0x29 obj_cooja/mtype296.a(tinydtls-ccm.o)
 *fill*         0x00000000000358b1        0xf 
 .rodata        0x00000000000358c0      0x15a obj_cooja/mtype296.a(sha2.o)
 .rodata        0x0000000000035a1a       0x7e obj_cooja/mtype296.a(debug.o)
 .rodata        0x0000000000035a98        0x8 obj_cooja/mtype296.a(beep.o)
                0x0000000000035a98                beep_interface
 .rodata        0x0000000000035aa0       0x20 obj_cooja/mtype296.a(button-sensor.o)
                0x0000000000035aa0                button_interface
                0x0000000000035ab0                button_sensor
 .rodata        0x0000000000035ac0        0x8 obj_cooja/mtype296.a(leds-arch.o)
                0x0000000000035ac0                leds_interface
 .rodata        0x0000000000035ac8        0x8 obj_cooja/mtype296.a(moteid.o)
                0x0000000000035ac8                moteid_interface
 .rodata        0x0000000000035ad0       0x1c obj_cooja/mtype296.a(pir-sensor.o)
                0x0000000000035ad0                pir_interface
                0x0000000000035adc                pir_sensor
 .rodata        0x0000000000035aec        0xe obj_cooja/mtype296.a(rs232.o)
                0x0000000000035aec                rs232_interface
 *fill*         0x0000000000035afa        0x2 
 .rodata        0x0000000000035afc       0x24 obj_cooja/mtype296.a(vib-sensor.o)
                0x0000000000035afc                vib_interface
                0x0000000000035b10                vib_sensor
 .rodata        0x0000000000035b20        0x8 obj_cooja/mtype296.a(clock.o)
                0x0000000000035b20                clock_interface
 .rodata        0x0000000000035b28        0x8 obj_cooja/mtype296.a(log.o)
                0x0000000000035b28                simlog_interface
 .rodata        0x0000000000035b30       0x2f obj_cooja/mtype296.a(cfs-cooja.o)
                0x0000000000035b30                cfs_interface
 *fill*         0x0000000000035b5f        0x1 
 .rodata        0x0000000000035b60       0x58 obj_cooja/mtype296.a(cooja-radio.o)
                0x0000000000035b60                radio_interface
                0x0000000000035b80                cooja_radio_driver
 .rodata        0x0000000000035bb8        0x8 obj_cooja/mtype296.a(eeprom.o)
                0x0000000000035bb8                eeprom_interface
 .rodata        0x0000000000035bc0        0x8 obj_cooja/mtype296.a(sensors.o)
 .rodata        0x0000000000035bc8        0xf obj_cooja/mtype296.a(ctimer.o)
 .rodata        0x0000000000035bd7        0xc obj_cooja/mtype296.a(etimer.o)
 .rodata        0x0000000000035be3        0xe obj_cooja/mtype296.a(serial-line.o)
 *fill*         0x0000000000035bf1        0x3 
 .rodata        0x0000000000035bf4       0x25 obj_cooja/mtype296.a(assert.o)
 *fill*         0x0000000000035c19        0x3 
 .rodata        0x0000000000035c1c       0x2c obj_cooja/mtype296.a(sicslowpan.o)
                0x0000000000035c1c                unc_llconf
                0x0000000000035c20                unc_ctxconf
                0x0000000000035c24                unc_mxconf
                0x0000000000035c28                llprefix
                0x0000000000035c3c                sicslowpan_driver
 .rodata        0x0000000000035c48      0x13c obj_cooja/mtype296.a(uip6.o)
 .rodata        0x0000000000035d84      0x306 obj_cooja/mtype296.a(resolv.o)
 .rodata        0x000000000003608a       0x29 obj_cooja/mtype296.a(tcpip.o)
 .rodata        0x00000000000360b3       0x2a obj_cooja/mtype296.a(uip-debug.o)
 *fill*         0x00000000000360dd        0x3 
 .rodata        0x00000000000360e0       0x89 obj_cooja/mtype296.a(rpl-dag.o)
 .rodata        0x0000000000036169        0x8 obj_cooja/mtype296.a(linkaddr.o)
                0x0000000000036169                linkaddr_null
 *fill*         0x0000000000036171        0x3 
 .rodata        0x0000000000036174       0x24 obj_cooja/mtype296.a(csma.o)
                0x000000000003617c                csma_driver
 .rodata        0x0000000000036198        0xc obj_cooja/mtype296.a(framer-802154.o)
                0x0000000000036198                framer_802154
 *fill*         0x00000000000361a4       0x1c 
 .rodata        0x00000000000361c0       0x40 obj_cooja/mtype296.a(nullrdc.o)
                0x00000000000361e0                nullrdc_driver
 .rodata        0x0000000000036200       0x18 obj_cooja/mtype296.a(nullsec.o)
                0x0000000000036208                nullsec_driver

.rodata1
 *(.rodata1)

.eh_frame_hdr   0x0000000000036218     0x1a3c
 *(.eh_frame_hdr)
 .eh_frame_hdr  0x0000000000036218     0x1a3c receiver.co

.eh_frame       0x0000000000037c54     0x6b88
 *(.eh_frame)
 .eh_frame      0x0000000000037c54       0x3c /usr/lib/gcc/i686-linux-gnu/4.8/../../../i386-linux-gnu/crti.o
                                         0x40 (size before relaxing)
 .eh_frame      0x0000000000037c90      0x210 receiver.co
                                        0x228 (size before relaxing)
 .eh_frame      0x0000000000037ea0      0x148 obj_cooja/mtype296.o
                                        0x160 (size before relaxing)
 .eh_frame      0x0000000000037fe8      0xc58 obj_cooja/mtype296.a(dtls.o)
                                        0xc70 (size before relaxing)
 .eh_frame      0x0000000000038c40      0x2c0 obj_cooja/mtype296.a(tinydtls-crypto)
                                        0x2d8 (size before relaxing)
 .eh_frame      0x0000000000038f00      0x160 obj_cooja/mtype296.a(hmac.o)
                                        0x178 (size before relaxing)
 .eh_frame      0x0000000000039060      0x160 obj_cooja/mtype296.a(netq.o)
                                        0x178 (size before relaxing)
 .eh_frame      0x00000000000391c0       0x40 obj_cooja/mtype296.a(dtls_time.o)
                                         0x58 (size before relaxing)
 .eh_frame      0x0000000000039200       0x80 obj_cooja/mtype296.a(peer.o)
                                         0x98 (size before relaxing)
 .eh_frame      0x0000000000039280       0x40 obj_cooja/mtype296.a(session.o)
                                         0x58 (size before relaxing)
 .eh_frame      0x00000000000392c0       0x80 obj_cooja/mtype296.a(rijndael.o)
                                         0x98 (size before relaxing)
 .eh_frame      0x0000000000039340      0x144 obj_cooja/mtype296.a(tinydtls-ccm.o)
                                        0x15c (size before relaxing)
 .eh_frame      0x0000000000039484       0xec obj_cooja/mtype296.a(sha2.o)
                                        0x104 (size before relaxing)
 .eh_frame      0x0000000000039570      0x148 obj_cooja/mtype296.a(debug.o)
                                        0x160 (size before relaxing)
 .eh_frame      0x00000000000396b8       0x40 obj_cooja/mtype296.a(simEnvChange.o)
                                         0x58 (size before relaxing)
 .eh_frame      0x00000000000396f8       0xc0 obj_cooja/mtype296.a(cooja_mt.o)
                                         0xd8 (size before relaxing)
 .eh_frame      0x00000000000397b8      0x120 obj_cooja/mtype296.a(cooja_mtarch.o)
                                        0x138 (size before relaxing)
 .eh_frame      0x00000000000398d8       0xc8 obj_cooja/mtype296.a(rtimer-arch.o)
                                         0xe0 (size before relaxing)
 .eh_frame      0x00000000000399a0      0x160 obj_cooja/mtype296.a(beep.o)
                                        0x178 (size before relaxing)
 .eh_frame      0x0000000000039b00       0xa0 obj_cooja/mtype296.a(button-sensor.o)
                                         0xb8 (size before relaxing)
 .eh_frame      0x0000000000039ba0       0xa0 obj_cooja/mtype296.a(leds-arch.o)
                                         0xb8 (size before relaxing)
 .eh_frame      0x0000000000039c40       0x40 obj_cooja/mtype296.a(moteid.o)
                                         0x58 (size before relaxing)
 .eh_frame      0x0000000000039c80       0xa0 obj_cooja/mtype296.a(pir-sensor.o)
                                         0xb8 (size before relaxing)
 .eh_frame      0x0000000000039d20      0x100 obj_cooja/mtype296.a(rs232.o)
                                        0x118 (size before relaxing)
 .eh_frame      0x0000000000039e20       0xa0 obj_cooja/mtype296.a(vib-sensor.o)
                                         0xb8 (size before relaxing)
 .eh_frame      0x0000000000039ec0       0xc0 obj_cooja/mtype296.a(clock.o)
                                         0xd8 (size before relaxing)
 .eh_frame      0x0000000000039f80      0x120 obj_cooja/mtype296.a(log.o)
                                        0x138 (size before relaxing)
 .eh_frame      0x000000000003a0a0      0x160 obj_cooja/mtype296.a(cfs-cooja.o)
                                        0x178 (size before relaxing)
 .eh_frame      0x000000000003a200      0x360 obj_cooja/mtype296.a(cooja-radio.o)
                                        0x378 (size before relaxing)
 .eh_frame      0x000000000003a560       0xa0 obj_cooja/mtype296.a(eeprom.o)
                                         0xb8 (size before relaxing)
 .eh_frame      0x000000000003a600       0x40 obj_cooja/mtype296.a(random.o)
                                         0x58 (size before relaxing)
 .eh_frame      0x000000000003a640       0xc0 obj_cooja/mtype296.a(sensors.o)
                                         0xd8 (size before relaxing)
 .eh_frame      0x000000000003a700       0x40 obj_cooja/mtype296.a(autostart.o)
                                         0x58 (size before relaxing)
 .eh_frame      0x000000000003a740      0x100 obj_cooja/mtype296.a(ctimer.o)
                                        0x118 (size before relaxing)
 .eh_frame      0x000000000003a840      0x1e0 obj_cooja/mtype296.a(etimer.o)
                                        0x1f8 (size before relaxing)
 .eh_frame      0x000000000003aa20      0x1c8 obj_cooja/mtype296.a(process.o)
                                        0x1e0 (size before relaxing)
 .eh_frame      0x000000000003abe8       0x60 obj_cooja/mtype296.a(rtimer.o)
                                         0x78 (size before relaxing)
 .eh_frame      0x000000000003ac48       0xa4 obj_cooja/mtype296.a(timer.o)
                                         0xbc (size before relaxing)
 .eh_frame      0x000000000003acec       0x60 obj_cooja/mtype296.a(serial-line.o)
                                         0x78 (size before relaxing)
 .eh_frame      0x000000000003ad4c       0x20 obj_cooja/mtype296.a(assert.o)
                                         0x38 (size before relaxing)
 .eh_frame      0x000000000003ad6c      0x180 obj_cooja/mtype296.a(list.o)
                                        0x198 (size before relaxing)
 .eh_frame      0x000000000003aeec       0xa0 obj_cooja/mtype296.a(memb.o)
                                         0xb8 (size before relaxing)
 .eh_frame      0x000000000003af8c       0xa0 obj_cooja/mtype296.a(ringbuf.o)
                                         0xb8 (size before relaxing)
 .eh_frame      0x000000000003b02c      0x350 obj_cooja/mtype296.a(sicslowpan.o)
                                        0x368 (size before relaxing)
 .eh_frame      0x000000000003b37c      0x1e0 obj_cooja/mtype296.a(uip-ds6-nbr.o)
                                        0x1f8 (size before relaxing)
 .eh_frame      0x000000000003b55c      0x2c0 obj_cooja/mtype296.a(uip-ds6-route.o)
                                        0x2d8 (size before relaxing)
 .eh_frame      0x000000000003b81c      0x2c8 obj_cooja/mtype296.a(uip-ds6.o)
                                        0x2e0 (size before relaxing)
 .eh_frame      0x000000000003bae4       0xd8 obj_cooja/mtype296.a(uip-nd6.o)
                                         0xf0 (size before relaxing)
 .eh_frame      0x000000000003bbbc      0x27c obj_cooja/mtype296.a(uip6.o)
                                        0x294 (size before relaxing)
 .eh_frame      0x000000000003be38      0x2ac obj_cooja/mtype296.a(resolv.o)
                                        0x2c4 (size before relaxing)
 .eh_frame      0x000000000003c0e4      0x270 obj_cooja/mtype296.a(tcpip.o)
                                        0x288 (size before relaxing)
 .eh_frame      0x000000000003c354       0x28 obj_cooja/mtype296.a(uip-debug.o)
                                         0x40 (size before relaxing)
 .eh_frame      0x000000000003c37c       0x80 obj_cooja/mtype296.a(uip-nameserver.)
                                         0x98 (size before relaxing)
 .eh_frame      0x000000000003c3fc       0xe0 obj_cooja/mtype296.a(uip-packetqueue)
                                         0xf8 (size before relaxing)
 .eh_frame      0x000000000003c4dc       0x40 obj_cooja/mtype296.a(uip-udp-packet.)
                                         0x58 (size before relaxing)
 .eh_frame      0x000000000003c51c       0x48 obj_cooja/mtype296.a(uiplib.o)
                                         0x60 (size before relaxing)
 .eh_frame      0x000000000003c564      0x720 obj_cooja/mtype296.a(rpl-dag.o)
                                        0x738 (size before relaxing)
 .eh_frame      0x000000000003cc84       0xc0 obj_cooja/mtype296.a(rpl-ext-header.)
                                         0xd8 (size before relaxing)
 .eh_frame      0x000000000003cd44      0x2b8 obj_cooja/mtype296.a(rpl-icmp6.o)
                                        0x2d0 (size before relaxing)
 .eh_frame      0x000000000003cffc      0x124 obj_cooja/mtype296.a(rpl-mrhof.o)
                                        0x13c (size before relaxing)
 .eh_frame      0x000000000003d120      0x22c obj_cooja/mtype296.a(rpl-timers.o)
                                        0x244 (size before relaxing)
 .eh_frame      0x000000000003d34c      0x140 obj_cooja/mtype296.a(rpl.o)
                                        0x158 (size before relaxing)
 .eh_frame      0x000000000003d48c      0x100 obj_cooja/mtype296.a(link-stats.o)
                                        0x118 (size before relaxing)
 .eh_frame      0x000000000003d58c       0x60 obj_cooja/mtype296.a(linkaddr.o)
                                         0x78 (size before relaxing)
 .eh_frame      0x000000000003d5ec      0x2ac obj_cooja/mtype296.a(nbr-table.o)
                                        0x2c4 (size before relaxing)
 .eh_frame      0x000000000003d898       0x20 obj_cooja/mtype296.a(netstack.o)
                                         0x38 (size before relaxing)
 .eh_frame      0x000000000003d8b8      0x234 obj_cooja/mtype296.a(packetbuf.o)
                                        0x24c (size before relaxing)
 .eh_frame      0x000000000003daec      0x1a0 obj_cooja/mtype296.a(queuebuf.o)
                                        0x1b8 (size before relaxing)
 .eh_frame      0x000000000003dc8c      0x28c obj_cooja/mtype296.a(csma.o)
                                        0x2a4 (size before relaxing)
 .eh_frame      0x000000000003df18      0x108 obj_cooja/mtype296.a(framer-802154.o)
                                        0x120 (size before relaxing)
 .eh_frame      0x000000000003e020       0x20 obj_cooja/mtype296.a(mac.o)
                                         0x38 (size before relaxing)
 .eh_frame      0x000000000003e040      0x16c obj_cooja/mtype296.a(nullrdc.o)
                                        0x184 (size before relaxing)
 .eh_frame      0x000000000003e1ac       0x80 obj_cooja/mtype296.a(nullsec.o)
                                         0x98 (size before relaxing)
 .eh_frame      0x000000000003e22c       0xa0 obj_cooja/mtype296.a(watchdog.o)
                                         0xb8 (size before relaxing)
 .eh_frame      0x000000000003e2cc       0xc4 obj_cooja/mtype296.a(stimer.o)
                                         0xdc (size before relaxing)
 .eh_frame      0x000000000003e390      0x15c obj_cooja/mtype296.a(uip-icmp6.o)
                                        0x174 (size before relaxing)
 .eh_frame      0x000000000003e4ec       0xc0 obj_cooja/mtype296.a(rpl-nbr-policy.)
                                         0xd8 (size before relaxing)
 .eh_frame      0x000000000003e5ac      0x1a4 obj_cooja/mtype296.a(frame802154.o)
                                        0x1bc (size before relaxing)
 .eh_frame      0x000000000003e750       0x88 obj_cooja/mtype296.a(mac-sequence.o)
                                         0xa0 (size before relaxing)
 .eh_frame      0x000000000003e7d8        0x4 /usr/lib/gcc/i686-linux-gnu/4.8/crtendS.o

.gcc_except_table
 *(.gcc_except_table .gcc_except_table.*)

.exception_ranges
 *(.exception_ranges .exception_ranges*)
                0x000000000003e7dc                . = (ALIGN (0x1000) - ((0x1000 - .) & 0xfff))
                0x000000000003fef8                . = DATA_SEGMENT_ALIGN (0x1000, 0x1000)

.eh_frame
 *(.eh_frame)

.gcc_except_table
 *(.gcc_except_table .gcc_except_table.*)

.exception_ranges
 *(.exception_ranges .exception_ranges*)

.tdata
 *(.tdata .tdata.* .gnu.linkonce.td.*)

.tbss
 *(.tbss .tbss.* .gnu.linkonce.tb.*)
 *(.tcommon)

.preinit_array
 *(.preinit_array)

.init_array     0x000000000003fef8        0x4
 *(SORT(.init_array.*) SORT(.ctors.*))
 *(.init_array EXCLUDE_FILE(*crtend?.o *crtend.o *crtbegin?.o *crtbegin.o) .ctors)
 .init_array    0x000000000003fef8        0x4 /usr/lib/gcc/i686-linux-gnu/4.8/crtbeginS.o

.fini_array     0x000000000003fefc        0x4
 *(SORT(.fini_array.*) SORT(.dtors.*))
 *(.fini_array EXCLUDE_FILE(*crtend?.o *crtend.o *crtbegin?.o *crtbegin.o) .dtors)
 .fini_array    0x000000000003fefc        0x4 /usr/lib/gcc/i686-linux-gnu/4.8/crtbeginS.o

.ctors
 *crtbegin.o(.ctors)
 *crtbegin?.o(.ctors)
 *(EXCLUDE_FILE(*crtend?.o *crtend.o) .ctors)
 *(SORT(.ctors.*))
 *(.ctors)

.dtors
 *crtbegin.o(.dtors)
 *crtbegin?.o(.dtors)
 *(EXCLUDE_FILE(*crtend?.o *crtend.o) .dtors)
 *(SORT(.dtors.*))
 *(.dtors)

.jcr            0x000000000003ff00        0x4
 *(.jcr)
 .jcr           0x000000000003ff00        0x0 /usr/lib/gcc/i686-linux-gnu/4.8/crtbeginS.o
 .jcr           0x000000000003ff00        0x4 /usr/lib/gcc/i686-linux-gnu/4.8/crtendS.o

.data.rel.ro
 *(.data.rel.ro.local* .gnu.linkonce.d.rel.ro.local.*)
 *(.data.rel.ro .data.rel.ro.* .gnu.linkonce.d.rel.ro.*)

.dynamic        0x000000000003ff04       0xe8
 *(.dynamic)
 .dynamic       0x000000000003ff04       0xe8 /usr/lib/gcc/i686-linux-gnu/4.8/../../../i386-linux-gnu/crti.o
                0x000000000003ff04                _DYNAMIC

.got            0x000000000003ffec       0x14
 *(.got)
 .got           0x000000000003ffec       0x14 /usr/lib/gcc/i686-linux-gnu/4.8/../../../i386-linux-gnu/crti.o
 *(.igot)
                0x0000000000040ff4                . = DATA_SEGMENT_RELRO_END (., (SIZEOF (.got.plt) >= 0xc)?0xc:0x0)

.got.plt        0x0000000000040000       0x14
 *(.got.plt)
 .got.plt       0x0000000000040000       0x14 /usr/lib/gcc/i686-linux-gnu/4.8/../../../i386-linux-gnu/crti.o
                0x0000000000040000                _GLOBAL_OFFSET_TABLE_
 *(.igot.plt)

.data           0x0000000000040020      0x38e
 *(.data .data.* .gnu.linkonce.d.*)
 .data          0x0000000000040020        0x0 /usr/lib/gcc/i686-linux-gnu/4.8/../../../i386-linux-gnu/crti.o
 .data          0x0000000000040020        0x0 /usr/lib/gcc/i686-linux-gnu/4.8/crtbeginS.o
 .data.rel      0x0000000000040020        0x4 /usr/lib/gcc/i686-linux-gnu/4.8/crtbeginS.o
                0x0000000000040020                __dso_handle
 *fill*         0x0000000000040024       0x1c 
 .data          0x0000000000040040       0x94 receiver.co
                0x0000000000040040                packet_count
                0x0000000000040048                udp_client_process
 *fill*         0x00000000000400d4        0xc 
 .data          0x00000000000400e0       0x44 obj_cooja/mtype296.o
                0x00000000000400e0                simInterfaces
                0x0000000000040114                sensors
 .data          0x0000000000040124       0x10 obj_cooja/mtype296.a(dtls.o)
                0x0000000000040124                dtls_retransmit_process
 .data          0x0000000000040134       0x18 obj_cooja/mtype296.a(tinydtls-crypto)
 .data          0x000000000004014c        0xc obj_cooja/mtype296.a(hmac.o)
 .data          0x0000000000040158        0xc obj_cooja/mtype296.a(netq.o)
 .data          0x0000000000040164        0x0 obj_cooja/mtype296.a(dtls_time.o)
 .data          0x0000000000040164        0xc obj_cooja/mtype296.a(peer.o)
 .data          0x0000000000040170        0x0 obj_cooja/mtype296.a(session.o)
 .data          0x0000000000040170        0x0 obj_cooja/mtype296.a(rijndael.o)
 .data          0x0000000000040170        0x0 obj_cooja/mtype296.a(tinydtls-ccm.o)
 .data          0x0000000000040170        0x4 obj_cooja/mtype296.a(sha2.o)
 .data          0x0000000000040174       0x20 obj_cooja/mtype296.a(debug.o)
 .data          0x0000000000040194        0x0 obj_cooja/mtype296.a(simEnvChange.o)
 .data          0x0000000000040194        0x0 obj_cooja/mtype296.a(cooja_mt.o)
 .data          0x0000000000040194        0x0 obj_cooja/mtype296.a(cooja_mtarch.o)
 .data          0x0000000000040194        0x0 obj_cooja/mtype296.a(rtimer-arch.o)
 .data          0x0000000000040194        0x0 obj_cooja/mtype296.a(beep.o)
 .data          0x0000000000040194        0x0 obj_cooja/mtype296.a(button-sensor.o)
 .data          0x0000000000040194        0x0 obj_cooja/mtype296.a(leds-arch.o)
 .data          0x0000000000040194        0x0 obj_cooja/mtype296.a(moteid.o)
 .data          0x0000000000040194        0x0 obj_cooja/mtype296.a(pir-sensor.o)
 .data          0x0000000000040194        0x0 obj_cooja/mtype296.a(rs232.o)
 .data          0x0000000000040194        0x0 obj_cooja/mtype296.a(vib-sensor.o)
 .data          0x0000000000040194        0x0 obj_cooja/mtype296.a(clock.o)
 .data          0x0000000000040194        0x0 obj_cooja/mtype296.a(log.o)
 .data          0x0000000000040194        0x0 obj_cooja/mtype296.a(cfs-cooja.o)
 .data          0x0000000000040194       0x2c obj_cooja/mtype296.a(cooja-radio.o)
                0x0000000000040194                simRadioHWOn
                0x0000000000040198                simSignalStrength
                0x000000000004019c                simLastSignalStrength
                0x00000000000401a0                simPower
                0x00000000000401a4                simRadioChannel
                0x00000000000401a8                simLQI
                0x00000000000401b0                cooja_radio_process
 .data          0x00000000000401c0        0x0 obj_cooja/mtype296.a(eeprom.o)
 .data          0x00000000000401c0        0x0 obj_cooja/mtype296.a(random.o)
 .data          0x00000000000401c0       0x10 obj_cooja/mtype296.a(sensors.o)
                0x00000000000401c0                sensors_process
 .data          0x00000000000401d0        0x0 obj_cooja/mtype296.a(autostart.o)
 .data          0x00000000000401d0       0x14 obj_cooja/mtype296.a(ctimer.o)
                0x00000000000401d4                ctimer_process
 .data          0x00000000000401e4       0x10 obj_cooja/mtype296.a(etimer.o)
                0x00000000000401e4                etimer_process
 .data          0x00000000000401f4        0x0 obj_cooja/mtype296.a(process.o)
 .data          0x00000000000401f4        0x0 obj_cooja/mtype296.a(rtimer.o)
 .data          0x00000000000401f4        0x0 obj_cooja/mtype296.a(timer.o)
 .data          0x00000000000401f4       0x10 obj_cooja/mtype296.a(serial-line.o)
                0x00000000000401f4                serial_line_process
 .data          0x0000000000040204        0x0 obj_cooja/mtype296.a(assert.o)
 .data          0x0000000000040204        0x0 obj_cooja/mtype296.a(list.o)
 .data          0x0000000000040204        0x0 obj_cooja/mtype296.a(memb.o)
 .data          0x0000000000040204        0x0 obj_cooja/mtype296.a(ringbuf.o)
 .data          0x0000000000040204        0x0 obj_cooja/mtype296.a(sicslowpan.o)
 .data          0x0000000000040204       0x14 obj_cooja/mtype296.a(uip-ds6-nbr.o)
                0x0000000000040214                ds6_neighbors
 .data          0x0000000000040218       0x44 obj_cooja/mtype296.a(uip-ds6-route.o)
                0x0000000000040228                nbr_routes
 .data          0x000000000004025c        0x0 obj_cooja/mtype296.a(uip-ds6.o)
 .data          0x000000000004025c       0x18 obj_cooja/mtype296.a(uip-nd6.o)
 .data          0x0000000000040274        0x0 obj_cooja/mtype296.a(uip6.o)
 .data          0x0000000000040274       0x20 obj_cooja/mtype296.a(resolv.o)
                0x0000000000040274                resolv_process
                0x0000000000040284                mdns_probe_process
 .data          0x0000000000040294       0x10 obj_cooja/mtype296.a(tcpip.o)
                0x0000000000040294                tcpip_process
 .data          0x00000000000402a4        0x0 obj_cooja/mtype296.a(uip-debug.o)
 .data          0x00000000000402a4        0x0 obj_cooja/mtype296.a(uip-nameserver.)
 .data          0x00000000000402a4        0xc obj_cooja/mtype296.a(uip-packetqueue)
 .data          0x00000000000402b0        0x0 obj_cooja/mtype296.a(uip-udp-packet.)
 .data          0x00000000000402b0        0x0 obj_cooja/mtype296.a(uiplib.o)
 .data          0x00000000000402b0       0x14 obj_cooja/mtype296.a(rpl-dag.o)
                0x00000000000402c0                rpl_parents
 .data          0x00000000000402c4        0x0 obj_cooja/mtype296.a(rpl-ext-header.)
 .data          0x00000000000402c4       0x34 obj_cooja/mtype296.a(rpl-icmp6.o)
 *fill*         0x00000000000402f8        0x8 
 .data          0x0000000000040300       0x24 obj_cooja/mtype296.a(rpl-mrhof.o)
                0x0000000000040300                rpl_mrhof
 .data          0x0000000000040324        0x0 obj_cooja/mtype296.a(rpl-timers.o)
 .data          0x0000000000040324        0x0 obj_cooja/mtype296.a(rpl.o)
 .data          0x0000000000040324       0x14 obj_cooja/mtype296.a(link-stats.o)
 .data          0x0000000000040338        0x0 obj_cooja/mtype296.a(linkaddr.o)
 .data          0x0000000000040338       0x10 obj_cooja/mtype296.a(nbr-table.o)
 .data          0x0000000000040348        0x0 obj_cooja/mtype296.a(netstack.o)
 .data          0x0000000000040348        0x4 obj_cooja/mtype296.a(packetbuf.o)
 .data          0x000000000004034c       0x18 obj_cooja/mtype296.a(queuebuf.o)
 .data          0x0000000000040364       0x28 obj_cooja/mtype296.a(csma.o)
 .data          0x000000000004038c        0x0 obj_cooja/mtype296.a(framer-802154.o)
 .data          0x000000000004038c        0x0 obj_cooja/mtype296.a(mac.o)
 .data          0x000000000004038c        0x0 obj_cooja/mtype296.a(nullrdc.o)
 .data          0x000000000004038c        0x0 obj_cooja/mtype296.a(nullsec.o)
 .data          0x000000000004038c        0x0 obj_cooja/mtype296.a(watchdog.o)
 .data          0x000000000004038c        0x0 obj_cooja/mtype296.a(rimestats.o)
 .data          0x000000000004038c        0x0 obj_cooja/mtype296.a(stimer.o)
 .data          0x000000000004038c       0x20 obj_cooja/mtype296.a(uip-icmp6.o)
 .data          0x00000000000403ac        0x0 obj_cooja/mtype296.a(rpl-nbr-policy.)
 .data          0x00000000000403ac        0x2 obj_cooja/mtype296.a(frame802154.o)
 .data          0x00000000000403ae        0x0 obj_cooja/mtype296.a(mac-sequence.o)
 .data          0x00000000000403ae        0x0 /usr/lib/gcc/i686-linux-gnu/4.8/crtendS.o
 .data          0x00000000000403ae        0x0 /usr/lib/gcc/i686-linux-gnu/4.8/../../../i386-linux-gnu/crtn.o

.tm_clone_table
                0x00000000000403b0        0x0
 .tm_clone_table
                0x00000000000403b0        0x0 /usr/lib/gcc/i686-linux-gnu/4.8/crtbeginS.o
 .tm_clone_table
                0x00000000000403b0        0x0 /usr/lib/gcc/i686-linux-gnu/4.8/crtendS.o

.data1
 *(.data1)
                0x00000000000403b0                _edata = .
                0x00000000000403b0                PROVIDE (edata, .)
                0x00000000000403b0                . = .
                0x00000000000403b0                __bss_start = .

.bss            0x00000000000403c0    0x13948
 *(.dynbss)
 .dynbss        0x0000000000000000        0x0 /usr/lib/gcc/i686-linux-gnu/4.8/../../../i386-linux-gnu/crti.o
 *(.bss .bss.* .gnu.linkonce.b.*)
 .bss           0x00000000000403c0        0x0 /usr/lib/gcc/i686-linux-gnu/4.8/../../../i386-linux-gnu/crti.o
 .bss           0x00000000000403c0        0x1 /usr/lib/gcc/i686-linux-gnu/4.8/crtbeginS.o
 *fill*         0x00000000000403c1       0x1f 
 .bss           0x00000000000403e0      0x190 receiver.co
                0x00000000000403e0                iv
 *fill*         0x0000000000040570       0x10 
 .bss           0x0000000000040580     0x2030 obj_cooja/mtype296.o
 *fill*         0x00000000000425b0       0x10 
 .bss           0x00000000000425c0      0x165 obj_cooja/mtype296.a(dtls.o)
 *fill*         0x0000000000042725       0x1b 
 .bss           0x0000000000042740      0xc70 obj_cooja/mtype296.a(tinydtls-crypto)
 *fill*         0x00000000000433b0       0x10 
 .bss           0x00000000000433c0      0x410 obj_cooja/mtype296.a(hmac.o)
 *fill*         0x00000000000437d0       0x10 
 .bss           0x00000000000437e0      0x470 obj_cooja/mtype296.a(netq.o)
 .bss           0x0000000000043c50        0x0 obj_cooja/mtype296.a(dtls_time.o)
 *fill*         0x0000000000043c50       0x10 
 .bss           0x0000000000043c60       0x80 obj_cooja/mtype296.a(peer.o)
 .bss           0x0000000000043ce0        0x0 obj_cooja/mtype296.a(session.o)
 .bss           0x0000000000043ce0        0x0 obj_cooja/mtype296.a(rijndael.o)
 .bss           0x0000000000043ce0        0x4 obj_cooja/mtype296.a(tinydtls-ccm.o)
 .bss           0x0000000000043ce4        0x0 obj_cooja/mtype296.a(sha2.o)
 *fill*         0x0000000000043ce4       0x1c 
 .bss           0x0000000000043d00       0x20 obj_cooja/mtype296.a(debug.o)
 .bss           0x0000000000043d20        0x1 obj_cooja/mtype296.a(simEnvChange.o)
                0x0000000000043d20                simDontFallAsleep
 *fill*         0x0000000000043d21        0x3 
 .bss           0x0000000000043d24        0x4 obj_cooja/mtype296.a(cooja_mt.o)
 .bss           0x0000000000043d28        0x4 obj_cooja/mtype296.a(cooja_mtarch.o)
 .bss           0x0000000000043d2c        0x0 obj_cooja/mtype296.a(rtimer-arch.o)
 .bss           0x0000000000043d2c        0x0 obj_cooja/mtype296.a(beep.o)
 .bss           0x0000000000043d2c        0x8 obj_cooja/mtype296.a(button-sensor.o)
 .bss           0x0000000000043d34        0x0 obj_cooja/mtype296.a(leds-arch.o)
 .bss           0x0000000000043d34        0x0 obj_cooja/mtype296.a(moteid.o)
 .bss           0x0000000000043d34        0x1 obj_cooja/mtype296.a(pir-sensor.o)
                0x0000000000043d34                simPirValue
 *fill*         0x0000000000043d35        0x3 
 .bss           0x0000000000043d38        0x4 obj_cooja/mtype296.a(rs232.o)
 .bss           0x0000000000043d3c        0x1 obj_cooja/mtype296.a(vib-sensor.o)
                0x0000000000043d3c                simVibValue
 .bss           0x0000000000043d3d        0x0 obj_cooja/mtype296.a(clock.o)
 *fill*         0x0000000000043d3d        0x3 
 .bss           0x0000000000043d40      0x420 obj_cooja/mtype296.a(log.o)
 .bss           0x0000000000044160      0xfc0 obj_cooja/mtype296.a(cfs-cooja.o)
                0x0000000000044160                simCFSData
                0x0000000000045100                simCFSSize
                0x0000000000045104                simCFSChanged
                0x0000000000045108                simCFSRead
                0x000000000004510c                simCFSWritten
 .bss           0x0000000000045120       0x24 obj_cooja/mtype296.a(cooja-radio.o)
                0x0000000000045120                simReceiving
                0x0000000000045124                simInSize
                0x0000000000045128                simLastPacketTimestamp
                0x0000000000045130                simOutSize
 .bss           0x0000000000045144        0xc obj_cooja/mtype296.a(eeprom.o)
                0x0000000000045144                simEEPROMChanged
                0x0000000000045148                simEEPROMRead
                0x000000000004514c                simEEPROMWritten
 .bss           0x0000000000045150        0x0 obj_cooja/mtype296.a(random.o)
 .bss           0x0000000000045150        0xc obj_cooja/mtype296.a(sensors.o)
 .bss           0x000000000004515c        0x0 obj_cooja/mtype296.a(autostart.o)
 .bss           0x000000000004515c        0x5 obj_cooja/mtype296.a(ctimer.o)
 *fill*         0x0000000000045161        0x3 
 .bss           0x0000000000045164        0x8 obj_cooja/mtype296.a(etimer.o)
 *fill*         0x000000000004516c       0x14 
 .bss           0x0000000000045180      0x1a1 obj_cooja/mtype296.a(process.o)
                0x0000000000045180                process_list
                0x0000000000045184                process_current
 *fill*         0x0000000000045321        0x3 
 .bss           0x0000000000045324        0x4 obj_cooja/mtype296.a(rtimer.o)
 .bss           0x0000000000045328        0x0 obj_cooja/mtype296.a(timer.o)
 *fill*         0x0000000000045328       0x18 
 .bss           0x0000000000045340      0x140 obj_cooja/mtype296.a(serial-line.o)
 .bss           0x0000000000045480        0x0 obj_cooja/mtype296.a(assert.o)
 .bss           0x0000000000045480        0x0 obj_cooja/mtype296.a(list.o)
 .bss           0x0000000000045480        0x0 obj_cooja/mtype296.a(memb.o)
 .bss           0x0000000000045480        0x0 obj_cooja/mtype296.a(ringbuf.o)
 .bss           0x0000000000045480      0x70c obj_cooja/mtype296.a(sicslowpan.o)
 *fill*         0x0000000000045b8c       0x14 
 .bss           0x0000000000045ba0     0x3390 obj_cooja/mtype296.a(uip-ds6-nbr.o)
 *fill*         0x0000000000048f30       0x10 
 .bss           0x0000000000048f40     0x44a4 obj_cooja/mtype296.a(uip-ds6-route.o)
 .bss           0x000000000004d3e4       0x20 obj_cooja/mtype296.a(uip-ds6.o)
 .bss           0x000000000004d404       0x14 obj_cooja/mtype296.a(uip-nd6.o)
 .bss           0x000000000004d418        0xa obj_cooja/mtype296.a(uip6.o)
                0x000000000004d418                uip_ext_bitmap
                0x000000000004d419                uip_ext_len
                0x000000000004d41a                uip_ext_opt_offset
 *fill*         0x000000000004d422       0x1e 
 .bss           0x000000000004d440      0x1a1 obj_cooja/mtype296.a(resolv.o)
 *fill*         0x000000000004d5e1       0x1f 
 .bss           0x000000000004d600       0x6a obj_cooja/mtype296.a(tcpip.o)
 .bss           0x000000000004d66a        0x0 obj_cooja/mtype296.a(uip-debug.o)
 *fill*         0x000000000004d66a        0x2 
 .bss           0x000000000004d66c       0x14 obj_cooja/mtype296.a(uip-nameserver.)
 .bss           0x000000000004d680      0xcf8 obj_cooja/mtype296.a(uip-packetqueue)
 .bss           0x000000000004e378        0x0 obj_cooja/mtype296.a(uip-udp-packet.)
 .bss           0x000000000004e378        0x0 obj_cooja/mtype296.a(uiplib.o)
 *fill*         0x000000000004e378        0x8 
 .bss           0x000000000004e380      0x960 obj_cooja/mtype296.a(rpl-dag.o)
 .bss           0x000000000004ece0        0x0 obj_cooja/mtype296.a(rpl-ext-header.)
 .bss           0x000000000004ece0        0x0 obj_cooja/mtype296.a(rpl-icmp6.o)
 .bss           0x000000000004ece0        0x0 obj_cooja/mtype296.a(rpl-mrhof.o)
 .bss           0x000000000004ece0       0x23 obj_cooja/mtype296.a(rpl-timers.o)
 *fill*         0x000000000004ed03        0x1 
 .bss           0x000000000004ed04        0x4 obj_cooja/mtype296.a(rpl.o)
 *fill*         0x000000000004ed08       0x18 
 .bss           0x000000000004ed20      0xe10 obj_cooja/mtype296.a(link-stats.o)
 .bss           0x000000000004fb30        0x0 obj_cooja/mtype296.a(linkaddr.o)
 *fill*         0x000000000004fb30       0x10 
 .bss           0x000000000004fb40     0x1214 obj_cooja/mtype296.a(nbr-table.o)
 .bss           0x0000000000050d54        0x0 obj_cooja/mtype296.a(netstack.o)
 *fill*         0x0000000000050d54        0xc 
 .bss           0x0000000000050d60       0xa0 obj_cooja/mtype296.a(packetbuf.o)
 .bss           0x0000000000050e00      0xb80 obj_cooja/mtype296.a(queuebuf.o)
 .bss           0x0000000000051980      0x248 obj_cooja/mtype296.a(csma.o)
 .bss           0x0000000000051bc8        0x2 obj_cooja/mtype296.a(framer-802154.o)
 .bss           0x0000000000051bca        0x0 obj_cooja/mtype296.a(mac.o)
 .bss           0x0000000000051bca        0x0 obj_cooja/mtype296.a(nullrdc.o)
 .bss           0x0000000000051bca        0x0 obj_cooja/mtype296.a(nullsec.o)
 .bss           0x0000000000051bca        0x0 obj_cooja/mtype296.a(watchdog.o)
 .bss           0x0000000000051bca        0x0 obj_cooja/mtype296.a(rimestats.o)
 .bss           0x0000000000051bca        0x0 obj_cooja/mtype296.a(stimer.o)
 *fill*         0x0000000000051bca        0x2 
 .bss           0x0000000000051bcc       0x18 obj_cooja/mtype296.a(uip-icmp6.o)
 *fill*         0x0000000000051be4       0x1c 
 .bss           0x0000000000051c00       0x44 obj_cooja/mtype296.a(rpl-nbr-policy.)
 .bss           0x0000000000051c44        0x0 obj_cooja/mtype296.a(frame802154.o)
 *fill*         0x0000000000051c44       0x1c 
 .bss           0x0000000000051c60      0x100 obj_cooja/mtype296.a(mac-sequence.o)
 .bss           0x0000000000051d60        0x0 /usr/lib/gcc/i686-linux-gnu/4.8/crtendS.o
 .bss           0x0000000000051d60        0x0 /usr/lib/gcc/i686-linux-gnu/4.8/../../../i386-linux-gnu/crtn.o
 *(COMMON)
 COMMON         0x0000000000051d60      0x118 receiver.co
                0x0000000000051d60                cfs_buf
                0x0000000000051d80                j
                0x0000000000051da0                read_buf
                0x0000000000051e68                data_len
                0x0000000000051e6c                filename
                0x0000000000051e70                iterator
                0x0000000000051e74                it
 COMMON         0x0000000000051e78        0x8 obj_cooja/mtype296.o
                0x0000000000051e78                referenceVar
                0x0000000000051e7c                sensors_flags
 COMMON         0x0000000000051e80        0x4 obj_cooja/mtype296.a(dtls_time.o)
                0x0000000000051e80                dtls_clock_offset
 COMMON         0x0000000000051e84        0xc obj_cooja/mtype296.a(simEnvChange.o)
                0x0000000000051e84                simEtimerPending
                0x0000000000051e88                simProcessRunValue
                0x0000000000051e8c                simEtimerNextExpirationTime
 COMMON         0x0000000000051e90       0x18 obj_cooja/mtype296.a(rtimer-arch.o)
                0x0000000000051e90                simRtimerPending
                0x0000000000051e98                simRtimerCurrentTicks
                0x0000000000051ea0                simRtimerNextExpirationTime
 COMMON         0x0000000000051ea8        0x1 obj_cooja/mtype296.a(beep.o)
                0x0000000000051ea8                simBeeped
 COMMON         0x0000000000051ea9        0x3 obj_cooja/mtype296.a(button-sensor.o)
                0x0000000000051ea9                simButtonIsActive
                0x0000000000051eaa                simButtonIsDown
                0x0000000000051eab                simButtonChanged
 COMMON         0x0000000000051eac        0x1 obj_cooja/mtype296.a(leds-arch.o)
                0x0000000000051eac                simLedsValue
 *fill*         0x0000000000051ead        0x3 
 COMMON         0x0000000000051eb0        0xc obj_cooja/mtype296.a(moteid.o)
                0x0000000000051eb0                simRandomSeed
                0x0000000000051eb4                simMoteIDChanged
                0x0000000000051eb8                simMoteID
 COMMON         0x0000000000051ebc        0x2 obj_cooja/mtype296.a(pir-sensor.o)
                0x0000000000051ebc                simPirIsActive
                0x0000000000051ebd                simPirChanged
 *fill*         0x0000000000051ebe        0x2 
 COMMON         0x0000000000051ec0      0x820 obj_cooja/mtype296.a(rs232.o)
                0x0000000000051ec0                simSerialReceivingFlag
                0x0000000000051ec4                simSerialReceivingLength
                0x0000000000051ee0                simSerialReceivingData
 COMMON         0x00000000000526e0        0x2 obj_cooja/mtype296.a(vib-sensor.o)
                0x00000000000526e0                simVibChanged
                0x00000000000526e1                simVibIsActive
 *fill*         0x00000000000526e2        0x2 
 COMMON         0x00000000000526e4        0x4 obj_cooja/mtype296.a(clock.o)
                0x00000000000526e4                simCurrentTime
 *fill*         0x00000000000526e8       0x18 
 COMMON         0x0000000000052700      0x420 obj_cooja/mtype296.a(log.o)
                0x0000000000052700                simLoggedLength
                0x0000000000052704                simLoggedFlag
                0x0000000000052720                simLoggedData
 COMMON         0x0000000000052b20      0x100 obj_cooja/mtype296.a(cooja-radio.o)
                0x0000000000052b20                simOutDataBuffer
                0x0000000000052ba0                simInDataBuffer
 COMMON         0x0000000000052c20      0x400 obj_cooja/mtype296.a(eeprom.o)
                0x0000000000052c20                simEEPROMData
 COMMON         0x0000000000053020        0x1 obj_cooja/mtype296.a(sensors.o)
                0x0000000000053020                sensors_event
 COMMON         0x0000000000053021        0x1 obj_cooja/mtype296.a(serial-line.o)
                0x0000000000053021                serial_line_event_message
 *fill*         0x0000000000053022       0x1e 
 COMMON         0x0000000000053040      0x181 obj_cooja/mtype296.a(uip-ds6.o)
                0x0000000000053040                uip_ds6_prefix_list
                0x00000000000530a0                uip_ds6_timer_periodic
                0x00000000000530b0                uip_ds6_netif_addr_list_offset
                0x00000000000530c0                uip_ds6_if
                0x00000000000531b8                uip_ds6_timer_ra
                0x00000000000531c0                uip_ds6_addr_size
 *fill*         0x00000000000531c1       0x1f 
 COMMON         0x00000000000531e0      0x8ec obj_cooja/mtype296.a(uip6.o)
                0x00000000000531e0                uip_slen
                0x00000000000531e2                uip_acc32
                0x0000000000053200                uip_conns
                0x00000000000532c0                uip_lladdr
                0x00000000000532c8                uip_appdata
                0x00000000000532cc                uip_flags
                0x00000000000532e0                uip_aligned_buf
                0x0000000000053920                uip_listenports
                0x0000000000053930                uip_len
                0x0000000000053934                uip_sappdata
                0x0000000000053940                uip_udp_conns
                0x0000000000053ac0                uip_udp_conn
                0x0000000000053ac4                uip_next_hdr
                0x0000000000053ac8                uip_conn
 COMMON         0x0000000000053acc        0x1 obj_cooja/mtype296.a(resolv.o)
                0x0000000000053acc                resolv_event_found
 COMMON         0x0000000000053acd        0x1 obj_cooja/mtype296.a(tcpip.o)
                0x0000000000053acd                tcpip_event
 *fill*         0x0000000000053ace       0x12 
 COMMON         0x0000000000053ae0      0x174 obj_cooja/mtype296.a(rpl-dag.o)
                0x0000000000053ae0                default_instance
                0x0000000000053b00                instance_table
 *fill*         0x0000000000053c54        0xc 
 COMMON         0x0000000000053c60       0x20 obj_cooja/mtype296.a(link-stats.o)
                0x0000000000053c60                periodic_timer
 COMMON         0x0000000000053c80        0x8 obj_cooja/mtype296.a(linkaddr.o)
                0x0000000000053c80                linkaddr_node_addr
 COMMON         0x0000000000053c88       0x2e obj_cooja/mtype296.a(packetbuf.o)
                0x0000000000053c88                packetbuf_attrs
                0x0000000000053ca6                packetbuf_addrs
 *fill*         0x0000000000053cb6        0xa 
 COMMON         0x0000000000053cc0       0x48 obj_cooja/mtype296.a(rimestats.o)
                0x0000000000053cc0                rimestats
                0x0000000000053d08                . = ALIGN ((. != 0x0)?0x4:0x1)
                0x0000000000053d08                . = ALIGN (0x4)
                0x0000000000053d08                . = SEGMENT_START ("ldata-segment", .)
                0x0000000000053d08                . = ALIGN (0x4)
                0x0000000000053d08                _end = .
                0x0000000000053d08                PROVIDE (end, .)
                0x0000000000053d08                . = DATA_SEGMENT_END (.)

.stab
 *(.stab)

.stabstr
 *(.stabstr)

.stab.excl
 *(.stab.excl)

.stab.exclstr
 *(.stab.exclstr)

.stab.index
 *(.stab.index)

.stab.indexstr
 *(.stab.indexstr)

.comment        0x0000000000000000       0x29
 *(.comment)
 .comment       0x0000000000000000       0x29 /usr/lib/gcc/i686-linux-gnu/4.8/crtbeginS.o
                                         0x2a (size before relaxing)
 .comment       0x0000000000000000       0x2a receiver.co
 .comment       0x0000000000000000       0x2a obj_cooja/mtype296.o
 .comment       0x0000000000000000       0x2a obj_cooja/mtype296.a(dtls.o)
 .comment       0x0000000000000000       0x2a obj_cooja/mtype296.a(tinydtls-crypto)
 .comment       0x0000000000000000       0x2a obj_cooja/mtype296.a(hmac.o)
 .comment       0x0000000000000000       0x2a obj_cooja/mtype296.a(netq.o)
 .comment       0x0000000000000000       0x2a obj_cooja/mtype296.a(dtls_time.o)
 .comment       0x0000000000000000       0x2a obj_cooja/mtype296.a(peer.o)
 .comment       0x0000000000000000       0x2a obj_cooja/mtype296.a(session.o)
 .comment       0x0000000000000000       0x2a obj_cooja/mtype296.a(rijndael.o)
 .comment       0x0000000000000000       0x2a obj_cooja/mtype296.a(tinydtls-ccm.o)
 .comment       0x0000000000000000       0x2a obj_cooja/mtype296.a(sha2.o)
 .comment       0x0000000000000000       0x2a obj_cooja/mtype296.a(debug.o)
 .comment       0x0000000000000000       0x2a obj_cooja/mtype296.a(simEnvChange.o)
 .comment       0x0000000000000000       0x2a obj_cooja/mtype296.a(cooja_mt.o)
 .comment       0x0000000000000000       0x2a obj_cooja/mtype296.a(cooja_mtarch.o)
 .comment       0x0000000000000000       0x2a obj_cooja/mtype296.a(rtimer-arch.o)
 .comment       0x0000000000000000       0x2a obj_cooja/mtype296.a(beep.o)
 .comment       0x0000000000000000       0x2a obj_cooja/mtype296.a(button-sensor.o)
 .comment       0x0000000000000000       0x2a obj_cooja/mtype296.a(leds-arch.o)
 .comment       0x0000000000000000       0x2a obj_cooja/mtype296.a(moteid.o)
 .comment       0x0000000000000000       0x2a obj_cooja/mtype296.a(pir-sensor.o)
 .comment       0x0000000000000000       0x2a obj_cooja/mtype296.a(rs232.o)
 .comment       0x0000000000000000       0x2a obj_cooja/mtype296.a(vib-sensor.o)
 .comment       0x0000000000000000       0x2a obj_cooja/mtype296.a(clock.o)
 .comment       0x0000000000000000       0x2a obj_cooja/mtype296.a(log.o)
 .comment       0x0000000000000000       0x2a obj_cooja/mtype296.a(cfs-cooja.o)
 .comment       0x0000000000000000       0x2a obj_cooja/mtype296.a(cooja-radio.o)
 .comment       0x0000000000000000       0x2a obj_cooja/mtype296.a(eeprom.o)
 .comment       0x0000000000000000       0x2a obj_cooja/mtype296.a(random.o)
 .comment       0x0000000000000000       0x2a obj_cooja/mtype296.a(sensors.o)
 .comment       0x0000000000000000       0x2a obj_cooja/mtype296.a(autostart.o)
 .comment       0x0000000000000000       0x2a obj_cooja/mtype296.a(ctimer.o)
 .comment       0x0000000000000000       0x2a obj_cooja/mtype296.a(etimer.o)
 .comment       0x0000000000000000       0x2a obj_cooja/mtype296.a(process.o)
 .comment       0x0000000000000000       0x2a obj_cooja/mtype296.a(rtimer.o)
 .comment       0x0000000000000000       0x2a obj_cooja/mtype296.a(timer.o)
 .comment       0x0000000000000000       0x2a obj_cooja/mtype296.a(serial-line.o)
 .comment       0x0000000000000000       0x2a obj_cooja/mtype296.a(assert.o)
 .comment       0x0000000000000000       0x2a obj_cooja/mtype296.a(list.o)
 .comment       0x0000000000000000       0x2a obj_cooja/mtype296.a(memb.o)
 .comment       0x0000000000000000       0x2a obj_cooja/mtype296.a(ringbuf.o)
 .comment       0x0000000000000000       0x2a obj_cooja/mtype296.a(sicslowpan.o)
 .comment       0x0000000000000000       0x2a obj_cooja/mtype296.a(uip-ds6-nbr.o)
 .comment       0x0000000000000000       0x2a obj_cooja/mtype296.a(uip-ds6-route.o)
 .comment       0x0000000000000000       0x2a obj_cooja/mtype296.a(uip-ds6.o)
 .comment       0x0000000000000000       0x2a obj_cooja/mtype296.a(uip-nd6.o)
 .comment       0x0000000000000000       0x2a obj_cooja/mtype296.a(uip6.o)
 .comment       0x0000000000000000       0x2a obj_cooja/mtype296.a(resolv.o)
 .comment       0x0000000000000000       0x2a obj_cooja/mtype296.a(tcpip.o)
 .comment       0x0000000000000000       0x2a obj_cooja/mtype296.a(uip-debug.o)
 .comment       0x0000000000000000       0x2a obj_cooja/mtype296.a(uip-nameserver.)
 .comment       0x0000000000000000       0x2a obj_cooja/mtype296.a(uip-packetqueue)
 .comment       0x0000000000000000       0x2a obj_cooja/mtype296.a(uip-udp-packet.)
 .comment       0x0000000000000000       0x2a obj_cooja/mtype296.a(uiplib.o)
 .comment       0x0000000000000000       0x2a obj_cooja/mtype296.a(rpl-dag.o)
 .comment       0x0000000000000000       0x2a obj_cooja/mtype296.a(rpl-ext-header.)
 .comment       0x0000000000000000       0x2a obj_cooja/mtype296.a(rpl-icmp6.o)
 .comment       0x0000000000000000       0x2a obj_cooja/mtype296.a(rpl-mrhof.o)
 .comment       0x0000000000000000       0x2a obj_cooja/mtype296.a(rpl-timers.o)
 .comment       0x0000000000000000       0x2a obj_cooja/mtype296.a(rpl.o)
 .comment       0x0000000000000000       0x2a obj_cooja/mtype296.a(link-stats.o)
 .comment       0x0000000000000000       0x2a obj_cooja/mtype296.a(linkaddr.o)
 .comment       0x0000000000000000       0x2a obj_cooja/mtype296.a(nbr-table.o)
 .comment       0x0000000000000000       0x2a obj_cooja/mtype296.a(netstack.o)
 .comment       0x0000000000000000       0x2a obj_cooja/mtype296.a(packetbuf.o)
 .comment       0x0000000000000000       0x2a obj_cooja/mtype296.a(queuebuf.o)
 .comment       0x0000000000000000       0x2a obj_cooja/mtype296.a(csma.o)
 .comment       0x0000000000000000       0x2a obj_cooja/mtype296.a(framer-802154.o)
 .comment       0x0000000000000000       0x2a obj_cooja/mtype296.a(mac.o)
 .comment       0x0000000000000000       0x2a obj_cooja/mtype296.a(nullrdc.o)
 .comment       0x0000000000000000       0x2a obj_cooja/mtype296.a(nullsec.o)
 .comment       0x0000000000000000       0x2a obj_cooja/mtype296.a(watchdog.o)
 .comment       0x0000000000000000       0x2a obj_cooja/mtype296.a(rimestats.o)
 .comment       0x0000000000000000       0x2a obj_cooja/mtype296.a(stimer.o)
 .comment       0x0000000000000000       0x2a obj_cooja/mtype296.a(uip-icmp6.o)
 .comment       0x0000000000000000       0x2a obj_cooja/mtype296.a(rpl-nbr-policy.)
 .comment       0x0000000000000000       0x2a obj_cooja/mtype296.a(frame802154.o)
 .comment       0x0000000000000000       0x2a obj_cooja/mtype296.a(mac-sequence.o)
 .comment       0x0000000000000000       0x2a /usr/lib/gcc/i686-linux-gnu/4.8/crtendS.o

.debug
 *(.debug)

.line
 *(.line)

.debug_srcinfo
 *(.debug_srcinfo)

.debug_sfnames
 *(.debug_sfnames)

.debug_aranges  0x0000000000000000     0x2190
 *(.debug_aranges)
 .debug_aranges
                0x0000000000000000       0x98 receiver.co
 .debug_aranges
                0x0000000000000098       0x68 obj_cooja/mtype296.o
 .debug_aranges
                0x0000000000000100      0x300 obj_cooja/mtype296.a(dtls.o)
 .debug_aranges
                0x0000000000000400       0xc8 obj_cooja/mtype296.a(tinydtls-crypto)
 .debug_aranges
                0x00000000000004c8       0x70 obj_cooja/mtype296.a(hmac.o)
 .debug_aranges
                0x0000000000000538       0x70 obj_cooja/mtype296.a(netq.o)
 .debug_aranges
                0x00000000000005a8       0x28 obj_cooja/mtype296.a(dtls_time.o)
 .debug_aranges
                0x00000000000005d0       0x38 obj_cooja/mtype296.a(peer.o)
 .debug_aranges
                0x0000000000000608       0x28 obj_cooja/mtype296.a(session.o)
 .debug_aranges
                0x0000000000000630       0x38 obj_cooja/mtype296.a(rijndael.o)
 .debug_aranges
                0x0000000000000668       0x60 obj_cooja/mtype296.a(tinydtls-ccm.o)
 .debug_aranges
                0x00000000000006c8       0x48 obj_cooja/mtype296.a(sha2.o)
 .debug_aranges
                0x0000000000000710       0x68 obj_cooja/mtype296.a(debug.o)
 .debug_aranges
                0x0000000000000778       0x28 obj_cooja/mtype296.a(simEnvChange.o)
 .debug_aranges
                0x00000000000007a0       0x48 obj_cooja/mtype296.a(cooja_mt.o)
 .debug_aranges
                0x00000000000007e8       0x60 obj_cooja/mtype296.a(cooja_mtarch.o)
 .debug_aranges
                0x0000000000000848       0x48 obj_cooja/mtype296.a(rtimer-arch.o)
 .debug_aranges
                0x0000000000000890       0x70 obj_cooja/mtype296.a(beep.o)
 .debug_aranges
                0x0000000000000900       0x40 obj_cooja/mtype296.a(button-sensor.o)
 .debug_aranges
                0x0000000000000940       0x40 obj_cooja/mtype296.a(leds-arch.o)
 .debug_aranges
                0x0000000000000980       0x28 obj_cooja/mtype296.a(moteid.o)
 .debug_aranges
                0x00000000000009a8       0x40 obj_cooja/mtype296.a(pir-sensor.o)
 .debug_aranges
                0x00000000000009e8       0x58 obj_cooja/mtype296.a(rs232.o)
 .debug_aranges
                0x0000000000000a40       0x40 obj_cooja/mtype296.a(vib-sensor.o)
 .debug_aranges
                0x0000000000000a80       0x48 obj_cooja/mtype296.a(clock.o)
 .debug_aranges
                0x0000000000000ac8       0x60 obj_cooja/mtype296.a(log.o)
 .debug_aranges
                0x0000000000000b28       0x70 obj_cooja/mtype296.a(cfs-cooja.o)
 .debug_aranges
                0x0000000000000b98       0xf0 obj_cooja/mtype296.a(cooja-radio.o)
 .debug_aranges
                0x0000000000000c88       0x40 obj_cooja/mtype296.a(eeprom.o)
 .debug_aranges
                0x0000000000000cc8       0x28 obj_cooja/mtype296.a(random.o)
 .debug_aranges
                0x0000000000000cf0       0x48 obj_cooja/mtype296.a(sensors.o)
 .debug_aranges
                0x0000000000000d38       0x28 obj_cooja/mtype296.a(autostart.o)
 .debug_aranges
                0x0000000000000d60       0x58 obj_cooja/mtype296.a(ctimer.o)
 .debug_aranges
                0x0000000000000db8       0x90 obj_cooja/mtype296.a(etimer.o)
 .debug_aranges
                0x0000000000000e48       0x88 obj_cooja/mtype296.a(process.o)
 .debug_aranges
                0x0000000000000ed0       0x30 obj_cooja/mtype296.a(rtimer.o)
 .debug_aranges
                0x0000000000000f00       0x40 obj_cooja/mtype296.a(timer.o)
 .debug_aranges
                0x0000000000000f40       0x30 obj_cooja/mtype296.a(serial-line.o)
 .debug_aranges
                0x0000000000000f70       0x20 obj_cooja/mtype296.a(assert.o)
 .debug_aranges
                0x0000000000000f90       0x78 obj_cooja/mtype296.a(list.o)
 .debug_aranges
                0x0000000000001008       0x40 obj_cooja/mtype296.a(memb.o)
 .debug_aranges
                0x0000000000001048       0x40 obj_cooja/mtype296.a(ringbuf.o)
 .debug_aranges
                0x0000000000001088       0xe0 obj_cooja/mtype296.a(sicslowpan.o)
 .debug_aranges
                0x0000000000001168       0x90 obj_cooja/mtype296.a(uip-ds6-nbr.o)
 .debug_aranges
                0x00000000000011f8       0xc8 obj_cooja/mtype296.a(uip-ds6-route.o)
 .debug_aranges
                0x00000000000012c0       0xc8 obj_cooja/mtype296.a(uip-ds6.o)
 .debug_aranges
                0x0000000000001388       0x48 obj_cooja/mtype296.a(uip-nd6.o)
 .debug_aranges
                0x00000000000013d0       0xb0 obj_cooja/mtype296.a(uip6.o)
 .debug_aranges
                0x0000000000001480       0xb8 obj_cooja/mtype296.a(resolv.o)
 .debug_aranges
                0x0000000000001538       0xb0 obj_cooja/mtype296.a(tcpip.o)
 .debug_aranges
                0x00000000000015e8       0x20 obj_cooja/mtype296.a(uip-debug.o)
 .debug_aranges
                0x0000000000001608       0x38 obj_cooja/mtype296.a(uip-nameserver.)
 .debug_aranges
                0x0000000000001640       0x50 obj_cooja/mtype296.a(uip-packetqueue)
 .debug_aranges
                0x0000000000001690       0x28 obj_cooja/mtype296.a(uip-udp-packet.)
 .debug_aranges
                0x00000000000016b8       0x28 obj_cooja/mtype296.a(uiplib.o)
 .debug_aranges
                0x00000000000016e0      0x1d8 obj_cooja/mtype296.a(rpl-dag.o)
 .debug_aranges
                0x00000000000018b8       0x48 obj_cooja/mtype296.a(rpl-ext-header.)
 .debug_aranges
                0x0000000000001900       0xc0 obj_cooja/mtype296.a(rpl-icmp6.o)
 .debug_aranges
                0x00000000000019c0       0x60 obj_cooja/mtype296.a(rpl-mrhof.o)
 .debug_aranges
                0x0000000000001a20       0xa0 obj_cooja/mtype296.a(rpl-timers.o)
 .debug_aranges
                0x0000000000001ac0       0x68 obj_cooja/mtype296.a(rpl.o)
 .debug_aranges
                0x0000000000001b28       0x58 obj_cooja/mtype296.a(link-stats.o)
 .debug_aranges
                0x0000000000001b80       0x30 obj_cooja/mtype296.a(linkaddr.o)
 .debug_aranges
                0x0000000000001bb0       0xc0 obj_cooja/mtype296.a(nbr-table.o)
 .debug_aranges
                0x0000000000001c70       0x20 obj_cooja/mtype296.a(netstack.o)
 .debug_aranges
                0x0000000000001c90       0xa0 obj_cooja/mtype296.a(packetbuf.o)
 .debug_aranges
                0x0000000000001d30       0x80 obj_cooja/mtype296.a(queuebuf.o)
 .debug_aranges
                0x0000000000001db0       0xb8 obj_cooja/mtype296.a(csma.o)
 .debug_aranges
                0x0000000000001e68       0x58 obj_cooja/mtype296.a(framer-802154.o)
 .debug_aranges
                0x0000000000001ec0       0x20 obj_cooja/mtype296.a(mac.o)
 .debug_aranges
                0x0000000000001ee0       0x70 obj_cooja/mtype296.a(nullrdc.o)
 .debug_aranges
                0x0000000000001f50       0x38 obj_cooja/mtype296.a(nullsec.o)
 .debug_aranges
                0x0000000000001f88       0x40 obj_cooja/mtype296.a(watchdog.o)
 .debug_aranges
                0x0000000000001fc8       0x18 obj_cooja/mtype296.a(rimestats.o)
 .debug_aranges
                0x0000000000001fe0       0x48 obj_cooja/mtype296.a(stimer.o)
 .debug_aranges
                0x0000000000002028       0x68 obj_cooja/mtype296.a(uip-icmp6.o)
 .debug_aranges
                0x0000000000002090       0x48 obj_cooja/mtype296.a(rpl-nbr-policy.)
 .debug_aranges
                0x00000000000020d8       0x80 obj_cooja/mtype296.a(frame802154.o)
 .debug_aranges
                0x0000000000002158       0x38 obj_cooja/mtype296.a(mac-sequence.o)

.debug_pubnames
 *(.debug_pubnames)

.debug_info     0x0000000000000000    0x24ccb
 *(.debug_info .gnu.linkonce.wi.*)
 .debug_info    0x0000000000000000     0x10d6 receiver.co
 .debug_info    0x00000000000010d6     0x36d8 obj_cooja/mtype296.o
 .debug_info    0x00000000000047ae     0x3461 obj_cooja/mtype296.a(dtls.o)
 .debug_info    0x0000000000007c0f      0xe43 obj_cooja/mtype296.a(tinydtls-crypto)
 .debug_info    0x0000000000008a52      0x4e9 obj_cooja/mtype296.a(hmac.o)
 .debug_info    0x0000000000008f3b      0x8d5 obj_cooja/mtype296.a(netq.o)
 .debug_info    0x0000000000009810      0x17e obj_cooja/mtype296.a(dtls_time.o)
 .debug_info    0x000000000000998e      0x6d1 obj_cooja/mtype296.a(peer.o)
 .debug_info    0x000000000000a05f      0x22c obj_cooja/mtype296.a(session.o)
 .debug_info    0x000000000000a28b      0x37f obj_cooja/mtype296.a(rijndael.o)
 .debug_info    0x000000000000a60a      0x650 obj_cooja/mtype296.a(tinydtls-ccm.o)
 .debug_info    0x000000000000ac5a      0x560 obj_cooja/mtype296.a(sha2.o)
 .debug_info    0x000000000000b1ba      0x518 obj_cooja/mtype296.a(debug.o)
 .debug_info    0x000000000000b6d2      0x15a obj_cooja/mtype296.a(simEnvChange.o)
 .debug_info    0x000000000000b82c      0x1e2 obj_cooja/mtype296.a(cooja_mt.o)
 .debug_info    0x000000000000ba0e      0x2e7 obj_cooja/mtype296.a(cooja_mtarch.o)
 .debug_info    0x000000000000bcf5      0x14a obj_cooja/mtype296.a(rtimer-arch.o)
 .debug_info    0x000000000000be3f      0x1f3 obj_cooja/mtype296.a(beep.o)
 .debug_info    0x000000000000c032      0x257 obj_cooja/mtype296.a(button-sensor.o)
 .debug_info    0x000000000000c289      0x132 obj_cooja/mtype296.a(leds-arch.o)
 .debug_info    0x000000000000c3bb      0x10a obj_cooja/mtype296.a(moteid.o)
 .debug_info    0x000000000000c4c5      0x216 obj_cooja/mtype296.a(pir-sensor.o)
 .debug_info    0x000000000000c6db      0x21e obj_cooja/mtype296.a(rs232.o)
 .debug_info    0x000000000000c8f9      0x216 obj_cooja/mtype296.a(vib-sensor.o)
 .debug_info    0x000000000000cb0f      0x152 obj_cooja/mtype296.a(clock.o)
 .debug_info    0x000000000000cc61      0x2bb obj_cooja/mtype296.a(log.o)
 .debug_info    0x000000000000cf1c      0x3cf obj_cooja/mtype296.a(cfs-cooja.o)
 .debug_info    0x000000000000d2eb      0xd1b obj_cooja/mtype296.a(cooja-radio.o)
 .debug_info    0x000000000000e006      0x1d5 obj_cooja/mtype296.a(eeprom.o)
 .debug_info    0x000000000000e1db       0xb3 obj_cooja/mtype296.a(random.o)
 .debug_info    0x000000000000e28e      0x36d obj_cooja/mtype296.a(sensors.o)
 .debug_info    0x000000000000e5fb      0x1a5 obj_cooja/mtype296.a(autostart.o)
 .debug_info    0x000000000000e7a0      0x46c obj_cooja/mtype296.a(ctimer.o)
 .debug_info    0x000000000000ec0c      0x49c obj_cooja/mtype296.a(etimer.o)
 .debug_info    0x000000000000f0a8      0x4ab obj_cooja/mtype296.a(process.o)
 .debug_info    0x000000000000f553      0x1b6 obj_cooja/mtype296.a(rtimer.o)
 .debug_info    0x000000000000f709      0x16c obj_cooja/mtype296.a(timer.o)
 .debug_info    0x000000000000f875      0x2de obj_cooja/mtype296.a(serial-line.o)
 .debug_info    0x000000000000fb53       0xb3 obj_cooja/mtype296.a(assert.o)
 .debug_info    0x000000000000fc06      0x2ed obj_cooja/mtype296.a(list.o)
 .debug_info    0x000000000000fef3      0x1d7 obj_cooja/mtype296.a(memb.o)
 .debug_info    0x00000000000100ca      0x1aa obj_cooja/mtype296.a(ringbuf.o)
 .debug_info    0x0000000000010274     0x105d obj_cooja/mtype296.a(sicslowpan.o)
 .debug_info    0x00000000000112d1      0xb48 obj_cooja/mtype296.a(uip-ds6-nbr.o)
 .debug_info    0x0000000000011e19      0xd6b obj_cooja/mtype296.a(uip-ds6-route.o)
 .debug_info    0x0000000000012b84      0xa4b obj_cooja/mtype296.a(uip-ds6.o)
 .debug_info    0x00000000000135cf      0x97b obj_cooja/mtype296.a(uip-nd6.o)
 .debug_info    0x0000000000013f4a      0xe68 obj_cooja/mtype296.a(uip6.o)
 .debug_info    0x0000000000014db2     0x1075 obj_cooja/mtype296.a(resolv.o)
 .debug_info    0x0000000000015e27     0x1602 obj_cooja/mtype296.a(tcpip.o)
 .debug_info    0x0000000000017429      0x13b obj_cooja/mtype296.a(uip-debug.o)
 .debug_info    0x0000000000017564      0x243 obj_cooja/mtype296.a(uip-nameserver.)
 .debug_info    0x00000000000177a7      0x470 obj_cooja/mtype296.a(uip-packetqueue)
 .debug_info    0x0000000000017c17      0x37a obj_cooja/mtype296.a(uip-udp-packet.)
 .debug_info    0x0000000000017f91      0x231 obj_cooja/mtype296.a(uiplib.o)
 .debug_info    0x00000000000181c2     0x1b58 obj_cooja/mtype296.a(rpl-dag.o)
 .debug_info    0x0000000000019d1a      0xf73 obj_cooja/mtype296.a(rpl-ext-header.)
 .debug_info    0x000000000001ac8d     0x16db obj_cooja/mtype296.a(rpl-icmp6.o)
 .debug_info    0x000000000001c368      0xa3d obj_cooja/mtype296.a(rpl-mrhof.o)
 .debug_info    0x000000000001cda5      0xcc0 obj_cooja/mtype296.a(rpl-timers.o)
 .debug_info    0x000000000001da65      0xd0d obj_cooja/mtype296.a(rpl.o)
 .debug_info    0x000000000001e772      0x691 obj_cooja/mtype296.a(link-stats.o)
 .debug_info    0x000000000001ee03      0x165 obj_cooja/mtype296.a(linkaddr.o)
 .debug_info    0x000000000001ef68      0x969 obj_cooja/mtype296.a(nbr-table.o)
 .debug_info    0x000000000001f8d1      0x4b9 obj_cooja/mtype296.a(netstack.o)
 .debug_info    0x000000000001fd8a      0x48d obj_cooja/mtype296.a(packetbuf.o)
 .debug_info    0x0000000000020217      0x57d obj_cooja/mtype296.a(queuebuf.o)
 .debug_info    0x0000000000020794      0xc0d obj_cooja/mtype296.a(csma.o)
 .debug_info    0x00000000000213a1      0x5ed obj_cooja/mtype296.a(framer-802154.o)
 .debug_info    0x000000000002198e      0x112 obj_cooja/mtype296.a(mac.o)
 .debug_info    0x0000000000021aa0      0xc3c obj_cooja/mtype296.a(nullrdc.o)
 .debug_info    0x00000000000226dc      0x3aa obj_cooja/mtype296.a(nullsec.o)
 .debug_info    0x0000000000022a86       0x7b obj_cooja/mtype296.a(watchdog.o)
 .debug_info    0x0000000000022b01      0x119 obj_cooja/mtype296.a(rimestats.o)
 .debug_info    0x0000000000022c1a      0x179 obj_cooja/mtype296.a(stimer.o)
 .debug_info    0x0000000000022d93      0x761 obj_cooja/mtype296.a(uip-icmp6.o)
 .debug_info    0x00000000000234f4      0xdee obj_cooja/mtype296.a(rpl-nbr-policy.)
 .debug_info    0x00000000000242e2      0x72d obj_cooja/mtype296.a(frame802154.o)
 .debug_info    0x0000000000024a0f      0x2bc obj_cooja/mtype296.a(mac-sequence.o)

.debug_abbrev   0x0000000000000000     0x831f
 *(.debug_abbrev)
 .debug_abbrev  0x0000000000000000      0x2f8 receiver.co
 .debug_abbrev  0x00000000000002f8      0x2b3 obj_cooja/mtype296.o
 .debug_abbrev  0x00000000000005ab      0x3b1 obj_cooja/mtype296.a(dtls.o)
 .debug_abbrev  0x000000000000095c      0x2b3 obj_cooja/mtype296.a(tinydtls-crypto)
 .debug_abbrev  0x0000000000000c0f      0x19a obj_cooja/mtype296.a(hmac.o)
 .debug_abbrev  0x0000000000000da9      0x1d3 obj_cooja/mtype296.a(netq.o)
 .debug_abbrev  0x0000000000000f7c      0x101 obj_cooja/mtype296.a(dtls_time.o)
 .debug_abbrev  0x000000000000107d      0x191 obj_cooja/mtype296.a(peer.o)
 .debug_abbrev  0x000000000000120e      0x126 obj_cooja/mtype296.a(session.o)
 .debug_abbrev  0x0000000000001334      0x12c obj_cooja/mtype296.a(rijndael.o)
 .debug_abbrev  0x0000000000001460      0x1a2 obj_cooja/mtype296.a(tinydtls-ccm.o)
 .debug_abbrev  0x0000000000001602      0x165 obj_cooja/mtype296.a(sha2.o)
 .debug_abbrev  0x0000000000001767      0x1e0 obj_cooja/mtype296.a(debug.o)
 .debug_abbrev  0x0000000000001947       0xc3 obj_cooja/mtype296.a(simEnvChange.o)
 .debug_abbrev  0x0000000000001a0a       0xe6 obj_cooja/mtype296.a(cooja_mt.o)
 .debug_abbrev  0x0000000000001af0      0x147 obj_cooja/mtype296.a(cooja_mtarch.o)
 .debug_abbrev  0x0000000000001c37       0xbd obj_cooja/mtype296.a(rtimer-arch.o)
 .debug_abbrev  0x0000000000001cf4       0xe3 obj_cooja/mtype296.a(beep.o)
 .debug_abbrev  0x0000000000001dd7      0x11c obj_cooja/mtype296.a(button-sensor.o)
 .debug_abbrev  0x0000000000001ef3       0xe1 obj_cooja/mtype296.a(leds-arch.o)
 .debug_abbrev  0x0000000000001fd4       0x9c obj_cooja/mtype296.a(moteid.o)
 .debug_abbrev  0x0000000000002070       0xe6 obj_cooja/mtype296.a(pir-sensor.o)
 .debug_abbrev  0x0000000000002156      0x14a obj_cooja/mtype296.a(rs232.o)
 .debug_abbrev  0x00000000000022a0       0xe6 obj_cooja/mtype296.a(vib-sensor.o)
 .debug_abbrev  0x0000000000002386       0xee obj_cooja/mtype296.a(clock.o)
 .debug_abbrev  0x0000000000002474      0x141 obj_cooja/mtype296.a(log.o)
 .debug_abbrev  0x00000000000025b5      0x139 obj_cooja/mtype296.a(cfs-cooja.o)
 .debug_abbrev  0x00000000000026ee      0x324 obj_cooja/mtype296.a(cooja-radio.o)
 .debug_abbrev  0x0000000000002a12       0xf5 obj_cooja/mtype296.a(eeprom.o)
 .debug_abbrev  0x0000000000002b07       0x6d obj_cooja/mtype296.a(random.o)
 .debug_abbrev  0x0000000000002b74      0x1c2 obj_cooja/mtype296.a(sensors.o)
 .debug_abbrev  0x0000000000002d36       0xfb obj_cooja/mtype296.a(autostart.o)
 .debug_abbrev  0x0000000000002e31      0x1a1 obj_cooja/mtype296.a(ctimer.o)
 .debug_abbrev  0x0000000000002fd2      0x1f1 obj_cooja/mtype296.a(etimer.o)
 .debug_abbrev  0x00000000000031c3      0x244 obj_cooja/mtype296.a(process.o)
 .debug_abbrev  0x0000000000003407      0x124 obj_cooja/mtype296.a(rtimer.o)
 .debug_abbrev  0x000000000000352b       0xf5 obj_cooja/mtype296.a(timer.o)
 .debug_abbrev  0x0000000000003620      0x190 obj_cooja/mtype296.a(serial-line.o)
 .debug_abbrev  0x00000000000037b0       0x61 obj_cooja/mtype296.a(assert.o)
 .debug_abbrev  0x0000000000003811      0x145 obj_cooja/mtype296.a(list.o)
 .debug_abbrev  0x0000000000003956       0xe4 obj_cooja/mtype296.a(memb.o)
 .debug_abbrev  0x0000000000003a3a       0xdb obj_cooja/mtype296.a(ringbuf.o)
 .debug_abbrev  0x0000000000003b15      0x290 obj_cooja/mtype296.a(sicslowpan.o)
 .debug_abbrev  0x0000000000003da5      0x2cf obj_cooja/mtype296.a(uip-ds6-nbr.o)
 .debug_abbrev  0x0000000000004074      0x317 obj_cooja/mtype296.a(uip-ds6-route.o)
 .debug_abbrev  0x000000000000438b      0x23a obj_cooja/mtype296.a(uip-ds6.o)
 .debug_abbrev  0x00000000000045c5      0x27e obj_cooja/mtype296.a(uip-nd6.o)
 .debug_abbrev  0x0000000000004843      0x2c9 obj_cooja/mtype296.a(uip6.o)
 .debug_abbrev  0x0000000000004b0c      0x2a4 obj_cooja/mtype296.a(resolv.o)
 .debug_abbrev  0x0000000000004db0      0x349 obj_cooja/mtype296.a(tcpip.o)
 .debug_abbrev  0x00000000000050f9       0xad obj_cooja/mtype296.a(uip-debug.o)
 .debug_abbrev  0x00000000000051a6      0x142 obj_cooja/mtype296.a(uip-nameserver.)
 .debug_abbrev  0x00000000000052e8      0x1d4 obj_cooja/mtype296.a(uip-packetqueue)
 .debug_abbrev  0x00000000000054bc      0x195 obj_cooja/mtype296.a(uip-udp-packet.)
 .debug_abbrev  0x0000000000005651       0xda obj_cooja/mtype296.a(uiplib.o)
 .debug_abbrev  0x000000000000572b      0x373 obj_cooja/mtype296.a(rpl-dag.o)
 .debug_abbrev  0x0000000000005a9e      0x25f obj_cooja/mtype296.a(rpl-ext-header.)
 .debug_abbrev  0x0000000000005cfd      0x37a obj_cooja/mtype296.a(rpl-icmp6.o)
 .debug_abbrev  0x0000000000006077      0x1c4 obj_cooja/mtype296.a(rpl-mrhof.o)
 .debug_abbrev  0x000000000000623b      0x283 obj_cooja/mtype296.a(rpl-timers.o)
 .debug_abbrev  0x00000000000064be      0x25a obj_cooja/mtype296.a(rpl.o)
 .debug_abbrev  0x0000000000006718      0x23f obj_cooja/mtype296.a(link-stats.o)
 .debug_abbrev  0x0000000000006957       0xd8 obj_cooja/mtype296.a(linkaddr.o)
 .debug_abbrev  0x0000000000006a2f      0x1f8 obj_cooja/mtype296.a(nbr-table.o)
 .debug_abbrev  0x0000000000006c27      0x111 obj_cooja/mtype296.a(netstack.o)
 .debug_abbrev  0x0000000000006d38      0x1d8 obj_cooja/mtype296.a(packetbuf.o)
 .debug_abbrev  0x0000000000006f10      0x1ba obj_cooja/mtype296.a(queuebuf.o)
 .debug_abbrev  0x00000000000070ca      0x2aa obj_cooja/mtype296.a(csma.o)
 .debug_abbrev  0x0000000000007374      0x195 obj_cooja/mtype296.a(framer-802154.o)
 .debug_abbrev  0x0000000000007509       0xa3 obj_cooja/mtype296.a(mac.o)
 .debug_abbrev  0x00000000000075ac      0x2a9 obj_cooja/mtype296.a(nullrdc.o)
 .debug_abbrev  0x0000000000007855      0x1ba obj_cooja/mtype296.a(nullsec.o)
 .debug_abbrev  0x0000000000007a0f       0x2c obj_cooja/mtype296.a(watchdog.o)
 .debug_abbrev  0x0000000000007a3b       0x59 obj_cooja/mtype296.a(rimestats.o)
 .debug_abbrev  0x0000000000007a94       0xd9 obj_cooja/mtype296.a(stimer.o)
 .debug_abbrev  0x0000000000007b6d      0x232 obj_cooja/mtype296.a(uip-icmp6.o)
 .debug_abbrev  0x0000000000007d9f      0x23c obj_cooja/mtype296.a(rpl-nbr-policy.)
 .debug_abbrev  0x0000000000007fdb      0x1fb obj_cooja/mtype296.a(frame802154.o)
 .debug_abbrev  0x00000000000081d6      0x149 obj_cooja/mtype296.a(mac-sequence.o)

.debug_line     0x0000000000000000     0xd6a8
 *(.debug_line .debug_line.* .debug_line_end)
 .debug_line    0x0000000000000000      0x450 receiver.co
 .debug_line    0x0000000000000450      0x4f5 obj_cooja/mtype296.o
 .debug_line    0x0000000000000945     0x17b3 obj_cooja/mtype296.a(dtls.o)
 .debug_line    0x00000000000020f8      0x454 obj_cooja/mtype296.a(tinydtls-crypto)
 .debug_line    0x000000000000254c      0x254 obj_cooja/mtype296.a(hmac.o)
 .debug_line    0x00000000000027a0      0x2d7 obj_cooja/mtype296.a(netq.o)
 .debug_line    0x0000000000002a77       0xf3 obj_cooja/mtype296.a(dtls_time.o)
 .debug_line    0x0000000000002b6a      0x1c5 obj_cooja/mtype296.a(peer.o)
 .debug_line    0x0000000000002d2f      0x11b obj_cooja/mtype296.a(session.o)
 .debug_line    0x0000000000002e4a      0x1da obj_cooja/mtype296.a(rijndael.o)
 .debug_line    0x0000000000003024      0x30a obj_cooja/mtype296.a(tinydtls-ccm.o)
 .debug_line    0x000000000000332e      0x2bf obj_cooja/mtype296.a(sha2.o)
 .debug_line    0x00000000000035ed      0x25d obj_cooja/mtype296.a(debug.o)
 .debug_line    0x000000000000384a       0xf4 obj_cooja/mtype296.a(simEnvChange.o)
 .debug_line    0x000000000000393e      0x121 obj_cooja/mtype296.a(cooja_mt.o)
 .debug_line    0x0000000000003a5f      0x182 obj_cooja/mtype296.a(cooja_mtarch.o)
 .debug_line    0x0000000000003be1       0xec obj_cooja/mtype296.a(rtimer-arch.o)
 .debug_line    0x0000000000003ccd      0x168 obj_cooja/mtype296.a(beep.o)
 .debug_line    0x0000000000003e35      0x188 obj_cooja/mtype296.a(button-sensor.o)
 .debug_line    0x0000000000003fbd       0xd2 obj_cooja/mtype296.a(leds-arch.o)
 .debug_line    0x000000000000408f       0x9e obj_cooja/mtype296.a(moteid.o)
 .debug_line    0x000000000000412d      0x10c obj_cooja/mtype296.a(pir-sensor.o)
 .debug_line    0x0000000000004239      0x133 obj_cooja/mtype296.a(rs232.o)
 .debug_line    0x000000000000436c      0x10c obj_cooja/mtype296.a(vib-sensor.o)
 .debug_line    0x0000000000004478      0x10e obj_cooja/mtype296.a(clock.o)
 .debug_line    0x0000000000004586      0x195 obj_cooja/mtype296.a(log.o)
 .debug_line    0x000000000000471b      0x1ac obj_cooja/mtype296.a(cfs-cooja.o)
 .debug_line    0x00000000000048c7      0x4cb obj_cooja/mtype296.a(cooja-radio.o)
 .debug_line    0x0000000000004d92      0x101 obj_cooja/mtype296.a(eeprom.o)
 .debug_line    0x0000000000004e93       0x60 obj_cooja/mtype296.a(random.o)
 .debug_line    0x0000000000004ef3      0x17c obj_cooja/mtype296.a(sensors.o)
 .debug_line    0x000000000000506f       0xc4 obj_cooja/mtype296.a(autostart.o)
 .debug_line    0x0000000000005133      0x1f5 obj_cooja/mtype296.a(ctimer.o)
 .debug_line    0x0000000000005328      0x26c obj_cooja/mtype296.a(etimer.o)
 .debug_line    0x0000000000005594      0x236 obj_cooja/mtype296.a(process.o)
 .debug_line    0x00000000000057ca       0xf2 obj_cooja/mtype296.a(rtimer.o)
 .debug_line    0x00000000000058bc       0xed obj_cooja/mtype296.a(timer.o)
 .debug_line    0x00000000000059a9      0x13c obj_cooja/mtype296.a(serial-line.o)
 .debug_line    0x0000000000005ae5       0x50 obj_cooja/mtype296.a(assert.o)
 .debug_line    0x0000000000005b35      0x1a2 obj_cooja/mtype296.a(list.o)
 .debug_line    0x0000000000005cd7      0x10a obj_cooja/mtype296.a(memb.o)
 .debug_line    0x0000000000005de1       0xf1 obj_cooja/mtype296.a(ringbuf.o)
 .debug_line    0x0000000000005ed2      0x8a9 obj_cooja/mtype296.a(sicslowpan.o)
 .debug_line    0x000000000000677b      0x3e2 obj_cooja/mtype296.a(uip-ds6-nbr.o)
 .debug_line    0x0000000000006b5d      0x49f obj_cooja/mtype296.a(uip-ds6-route.o)
 .debug_line    0x0000000000006ffc      0x473 obj_cooja/mtype296.a(uip-ds6.o)
 .debug_line    0x000000000000746f      0x3c1 obj_cooja/mtype296.a(uip-nd6.o)
 .debug_line    0x0000000000007830      0x890 obj_cooja/mtype296.a(uip6.o)
 .debug_line    0x00000000000080c0      0x731 obj_cooja/mtype296.a(resolv.o)
 .debug_line    0x00000000000087f1      0x502 obj_cooja/mtype296.a(tcpip.o)
 .debug_line    0x0000000000008cf3       0xcb obj_cooja/mtype296.a(uip-debug.o)
 .debug_line    0x0000000000008dbe      0x117 obj_cooja/mtype296.a(uip-nameserver.)
 .debug_line    0x0000000000008ed5      0x1eb obj_cooja/mtype296.a(uip-packetqueue)
 .debug_line    0x00000000000090c0      0x10b obj_cooja/mtype296.a(uip-udp-packet.)
 .debug_line    0x00000000000091cb      0x141 obj_cooja/mtype296.a(uiplib.o)
 .debug_line    0x000000000000930c      0xbe7 obj_cooja/mtype296.a(rpl-dag.o)
 .debug_line    0x0000000000009ef3      0x374 obj_cooja/mtype296.a(rpl-ext-header.)
 .debug_line    0x000000000000a267      0x761 obj_cooja/mtype296.a(rpl-icmp6.o)
 .debug_line    0x000000000000a9c8      0x32f obj_cooja/mtype296.a(rpl-mrhof.o)
 .debug_line    0x000000000000acf7      0x3d2 obj_cooja/mtype296.a(rpl-timers.o)
 .debug_line    0x000000000000b0c9      0x375 obj_cooja/mtype296.a(rpl.o)
 .debug_line    0x000000000000b43e      0x29a obj_cooja/mtype296.a(link-stats.o)
 .debug_line    0x000000000000b6d8       0x9e obj_cooja/mtype296.a(linkaddr.o)
 .debug_line    0x000000000000b776      0x383 obj_cooja/mtype296.a(nbr-table.o)
 .debug_line    0x000000000000baf9      0x125 obj_cooja/mtype296.a(netstack.o)
 .debug_line    0x000000000000bc1e      0x225 obj_cooja/mtype296.a(packetbuf.o)
 .debug_line    0x000000000000be43      0x1c6 obj_cooja/mtype296.a(queuebuf.o)
 .debug_line    0x000000000000c009      0x400 obj_cooja/mtype296.a(csma.o)
 .debug_line    0x000000000000c409      0x1cd obj_cooja/mtype296.a(framer-802154.o)
 .debug_line    0x000000000000c5d6       0x7e obj_cooja/mtype296.a(mac.o)
 .debug_line    0x000000000000c654      0x337 obj_cooja/mtype296.a(nullrdc.o)
 .debug_line    0x000000000000c98b      0x13c obj_cooja/mtype296.a(nullsec.o)
 .debug_line    0x000000000000cac7       0x9a obj_cooja/mtype296.a(watchdog.o)
 .debug_line    0x000000000000cb61       0x71 obj_cooja/mtype296.a(rimestats.o)
 .debug_line    0x000000000000cbd2       0xd1 obj_cooja/mtype296.a(stimer.o)
 .debug_line    0x000000000000cca3      0x29a obj_cooja/mtype296.a(uip-icmp6.o)
 .debug_line    0x000000000000cf3d      0x2b5 obj_cooja/mtype296.a(rpl-nbr-policy.)
 .debug_line    0x000000000000d1f2      0x366 obj_cooja/mtype296.a(frame802154.o)
 .debug_line    0x000000000000d558      0x150 obj_cooja/mtype296.a(mac-sequence.o)

.debug_frame
 *(.debug_frame)

.debug_str      0x0000000000000000     0x8fe5
 *(.debug_str)
 .debug_str     0x0000000000000000      0xacd receiver.co
                                        0xbe6 (size before relaxing)
 .debug_str     0x0000000000000acd     0x1790 obj_cooja/mtype296.o
                                       0x1b06 (size before relaxing)
 .debug_str     0x000000000000225d      0xeca obj_cooja/mtype296.a(dtls.o)
                                       0x1721 (size before relaxing)
 .debug_str     0x0000000000003127      0x34c obj_cooja/mtype296.a(tinydtls-crypto)
                                        0x816 (size before relaxing)
 .debug_str     0x0000000000003473      0x112 obj_cooja/mtype296.a(hmac.o)
                                        0x373 (size before relaxing)
 .debug_str     0x0000000000003585       0xf3 obj_cooja/mtype296.a(netq.o)
                                        0x7a5 (size before relaxing)
 .debug_str     0x0000000000003678       0x53 obj_cooja/mtype296.a(dtls_time.o)
                                        0x1fc (size before relaxing)
 .debug_str     0x00000000000036cb       0x94 obj_cooja/mtype296.a(peer.o)
                                        0x6ea (size before relaxing)
 .debug_str     0x000000000000375f       0x4f obj_cooja/mtype296.a(session.o)
                                        0x21e (size before relaxing)
 .debug_str     0x00000000000037ae       0xae obj_cooja/mtype296.a(rijndael.o)
                                        0x1dc (size before relaxing)
 .debug_str     0x000000000000385c       0x83 obj_cooja/mtype296.a(tinydtls-ccm.o)
                                        0x281 (size before relaxing)
 .debug_str     0x00000000000038df       0xe6 obj_cooja/mtype296.a(sha2.o)
                                        0x2d1 (size before relaxing)
 .debug_str     0x00000000000039c5       0xee obj_cooja/mtype296.a(debug.o)
                                        0x356 (size before relaxing)
 .debug_str     0x0000000000003ab3       0x2e obj_cooja/mtype296.a(simEnvChange.o)
                                        0x1f7 (size before relaxing)
 .debug_str     0x0000000000003ae1       0x8b obj_cooja/mtype296.a(cooja_mt.o)
                                        0x224 (size before relaxing)
 .debug_str     0x0000000000003b6c       0xfb obj_cooja/mtype296.a(cooja_mtarch.o)
                                        0x2a1 (size before relaxing)
 .debug_str     0x0000000000003c67       0xea obj_cooja/mtype296.a(rtimer-arch.o)
                                        0x21b (size before relaxing)
 .debug_str     0x0000000000003d51       0xc4 obj_cooja/mtype296.a(beep.o)
                                        0x238 (size before relaxing)
 .debug_str     0x0000000000003e15       0x70 obj_cooja/mtype296.a(button-sensor.o)
                                        0x268 (size before relaxing)
 .debug_str     0x0000000000003e85       0x68 obj_cooja/mtype296.a(leds-arch.o)
                                        0x203 (size before relaxing)
 .debug_str     0x0000000000003eed       0x47 obj_cooja/mtype296.a(moteid.o)
                                        0x1ee (size before relaxing)
 .debug_str     0x0000000000003f34       0x55 obj_cooja/mtype296.a(pir-sensor.o)
                                        0x225 (size before relaxing)
 .debug_str     0x0000000000003f89       0xc1 obj_cooja/mtype296.a(rs232.o)
                                        0x282 (size before relaxing)
 .debug_str     0x000000000000404a       0x55 obj_cooja/mtype296.a(vib-sensor.o)
                                        0x225 (size before relaxing)
 .debug_str     0x000000000000409f       0x66 obj_cooja/mtype296.a(clock.o)
                                        0x21a (size before relaxing)
 .debug_str     0x0000000000004105       0xd1 obj_cooja/mtype296.a(log.o)
                                        0x2a8 (size before relaxing)
 .debug_str     0x00000000000041d6      0x111 obj_cooja/mtype296.a(cfs-cooja.o)
                                        0x2c4 (size before relaxing)
 .debug_str     0x00000000000042e7      0x732 obj_cooja/mtype296.a(cooja-radio.o)
                                        0xafe (size before relaxing)
 .debug_str     0x0000000000004a19       0x99 obj_cooja/mtype296.a(eeprom.o)
                                        0x244 (size before relaxing)
 .debug_str     0x0000000000004ab2       0x36 obj_cooja/mtype296.a(random.o)
                                        0x163 (size before relaxing)
 .debug_str     0x0000000000004ae8       0xa1 obj_cooja/mtype296.a(sensors.o)
                                        0x293 (size before relaxing)
 .debug_str     0x0000000000004b89       0x40 obj_cooja/mtype296.a(autostart.o)
                                        0x1b6 (size before relaxing)
 .debug_str     0x0000000000004bc9       0xd2 obj_cooja/mtype296.a(ctimer.o)
                                        0x2b7 (size before relaxing)
 .debug_str     0x0000000000004c9b      0x148 obj_cooja/mtype296.a(etimer.o)
                                        0x32a (size before relaxing)
 .debug_str     0x0000000000004de3      0x15c obj_cooja/mtype296.a(process.o)
                                        0x2f5 (size before relaxing)
 .debug_str     0x0000000000004f3f       0xb3 obj_cooja/mtype296.a(rtimer.o)
                                        0x201 (size before relaxing)
 .debug_str     0x0000000000004ff2       0x1d obj_cooja/mtype296.a(timer.o)
                                        0x1a0 (size before relaxing)
 .debug_str     0x000000000000500f       0xbf obj_cooja/mtype296.a(serial-line.o)
                                        0x27e (size before relaxing)
 .debug_str     0x00000000000050ce       0x2e obj_cooja/mtype296.a(assert.o)
                                        0x15b (size before relaxing)
 .debug_str     0x00000000000050fc       0xae obj_cooja/mtype296.a(list.o)
                                        0x15f (size before relaxing)
 .debug_str     0x00000000000051aa       0x62 obj_cooja/mtype296.a(memb.o)
                                        0x19a (size before relaxing)
 .debug_str     0x000000000000520c       0x62 obj_cooja/mtype296.a(ringbuf.o)
                                        0x1b3 (size before relaxing)
 .debug_str     0x000000000000526e      0x4b9 obj_cooja/mtype296.a(sicslowpan.o)
                                        0xa9c (size before relaxing)
 .debug_str     0x0000000000005727      0x3c2 obj_cooja/mtype296.a(uip-ds6-nbr.o)
                                        0x97f (size before relaxing)
 .debug_str     0x0000000000005ae9      0x450 obj_cooja/mtype296.a(uip-ds6-route.o)
                                        0x949 (size before relaxing)
 .debug_str     0x0000000000005f39      0x30f obj_cooja/mtype296.a(uip-ds6.o)
                                        0x674 (size before relaxing)
 .debug_str     0x0000000000006248      0x180 obj_cooja/mtype296.a(uip-nd6.o)
                                        0x64f (size before relaxing)
 .debug_str     0x00000000000063c8      0x340 obj_cooja/mtype296.a(uip6.o)
                                        0x7fa (size before relaxing)
 .debug_str     0x0000000000006708      0x392 obj_cooja/mtype296.a(resolv.o)
                                        0x8d3 (size before relaxing)
 .debug_str     0x0000000000006a9a      0x40a obj_cooja/mtype296.a(tcpip.o)
                                        0xce9 (size before relaxing)
 .debug_str     0x0000000000006ea4       0x3b obj_cooja/mtype296.a(uip-debug.o)
                                        0x194 (size before relaxing)
 .debug_str     0x0000000000006edf       0xab obj_cooja/mtype296.a(uip-nameserver.)
                                        0x270 (size before relaxing)
 .debug_str     0x0000000000006f8a       0xfa obj_cooja/mtype296.a(uip-packetqueue)
                                        0x33d (size before relaxing)
 .debug_str     0x0000000000007084       0x71 obj_cooja/mtype296.a(uip-udp-packet.)
                                        0x28f (size before relaxing)
 .debug_str     0x00000000000070f5       0x6c obj_cooja/mtype296.a(uiplib.o)
                                        0x1c0 (size before relaxing)
 .debug_str     0x0000000000007161      0x58f obj_cooja/mtype296.a(rpl-dag.o)
                                        0xdc9 (size before relaxing)
 .debug_str     0x00000000000076f0       0xf8 obj_cooja/mtype296.a(rpl-ext-header.)
                                        0xba6 (size before relaxing)
 .debug_str     0x00000000000077e8      0x239 obj_cooja/mtype296.a(rpl-icmp6.o)
                                        0xed4 (size before relaxing)
 .debug_str     0x0000000000007a21       0x71 obj_cooja/mtype296.a(rpl-mrhof.o)
                                        0x63f (size before relaxing)
 .debug_str     0x0000000000007a92      0x1d6 obj_cooja/mtype296.a(rpl-timers.o)
                                        0x86e (size before relaxing)
 .debug_str     0x0000000000007c68       0xfa obj_cooja/mtype296.a(rpl.o)
                                        0x88f (size before relaxing)
 .debug_str     0x0000000000007d62       0xf3 obj_cooja/mtype296.a(link-stats.o)
                                        0x6d9 (size before relaxing)
 .debug_str     0x0000000000007e55       0x58 obj_cooja/mtype296.a(linkaddr.o)
                                        0x1b7 (size before relaxing)
 .debug_str     0x0000000000007ead      0x2a5 obj_cooja/mtype296.a(nbr-table.o)
                                        0x589 (size before relaxing)
 .debug_str     0x0000000000008152       0x2e obj_cooja/mtype296.a(netstack.o)
                                        0x33d (size before relaxing)
 .debug_str     0x0000000000008180      0x188 obj_cooja/mtype296.a(packetbuf.o)
                                        0x53d (size before relaxing)
 .debug_str     0x0000000000008308      0x1a5 obj_cooja/mtype296.a(queuebuf.o)
                                        0x53c (size before relaxing)
 .debug_str     0x00000000000084ad      0x207 obj_cooja/mtype296.a(csma.o)
                                        0x793 (size before relaxing)
 .debug_str     0x00000000000086b4      0x218 obj_cooja/mtype296.a(framer-802154.o)
                                        0x61b (size before relaxing)
 .debug_str     0x00000000000088cc       0x3d obj_cooja/mtype296.a(mac.o)
                                        0x1cb (size before relaxing)
 .debug_str     0x0000000000008909       0x86 obj_cooja/mtype296.a(nullrdc.o)
                                        0x97e (size before relaxing)
 .debug_str     0x000000000000898f       0x25 obj_cooja/mtype296.a(nullsec.o)
                                        0x439 (size before relaxing)
 .debug_str     0x00000000000089b4       0x77 obj_cooja/mtype296.a(watchdog.o)
                                        0x10d (size before relaxing)
 .debug_str     0x0000000000008a2b       0x26 obj_cooja/mtype296.a(rimestats.o)
                                        0x161 (size before relaxing)
 .debug_str     0x0000000000008a51       0x74 obj_cooja/mtype296.a(stimer.o)
                                        0x1a4 (size before relaxing)
 .debug_str     0x0000000000008ac5      0x1ef obj_cooja/mtype296.a(uip-icmp6.o)
                                        0x57e (size before relaxing)
 .debug_str     0x0000000000008cb4       0xd0 obj_cooja/mtype296.a(rpl-nbr-policy.)
                                        0x998 (size before relaxing)
 .debug_str     0x0000000000008d84      0x1f3 obj_cooja/mtype296.a(frame802154.o)
                                        0x571 (size before relaxing)
 .debug_str     0x0000000000008f77       0x6e obj_cooja/mtype296.a(mac-sequence.o)
                                        0x3ff (size before relaxing)

.debug_loc
 *(.debug_loc)

.debug_macinfo
 *(.debug_macinfo)

.debug_weaknames
 *(.debug_weaknames)

.debug_funcnames
 *(.debug_funcnames)

.debug_typenames
 *(.debug_typenames)

.debug_varnames
 *(.debug_varnames)

.debug_pubtypes
 *(.debug_pubtypes)

.debug_ranges   0x0000000000000000     0x1c98
 *(.debug_ranges)
 .debug_ranges  0x0000000000000000       0x88 receiver.co
 .debug_ranges  0x0000000000000088       0x58 obj_cooja/mtype296.o
 .debug_ranges  0x00000000000000e0      0x2f0 obj_cooja/mtype296.a(dtls.o)
 .debug_ranges  0x00000000000003d0       0xb8 obj_cooja/mtype296.a(tinydtls-crypto)
 .debug_ranges  0x0000000000000488       0x60 obj_cooja/mtype296.a(hmac.o)
 .debug_ranges  0x00000000000004e8       0x60 obj_cooja/mtype296.a(netq.o)
 .debug_ranges  0x0000000000000548       0x18 obj_cooja/mtype296.a(dtls_time.o)
 .debug_ranges  0x0000000000000560       0x28 obj_cooja/mtype296.a(peer.o)
 .debug_ranges  0x0000000000000588       0x18 obj_cooja/mtype296.a(session.o)
 .debug_ranges  0x00000000000005a0       0x28 obj_cooja/mtype296.a(rijndael.o)
 .debug_ranges  0x00000000000005c8       0x50 obj_cooja/mtype296.a(tinydtls-ccm.o)
 .debug_ranges  0x0000000000000618       0x38 obj_cooja/mtype296.a(sha2.o)
 .debug_ranges  0x0000000000000650       0x58 obj_cooja/mtype296.a(debug.o)
 .debug_ranges  0x00000000000006a8       0x18 obj_cooja/mtype296.a(simEnvChange.o)
 .debug_ranges  0x00000000000006c0       0x38 obj_cooja/mtype296.a(cooja_mt.o)
 .debug_ranges  0x00000000000006f8       0x50 obj_cooja/mtype296.a(cooja_mtarch.o)
 .debug_ranges  0x0000000000000748       0x38 obj_cooja/mtype296.a(rtimer-arch.o)
 .debug_ranges  0x0000000000000780       0x60 obj_cooja/mtype296.a(beep.o)
 .debug_ranges  0x00000000000007e0       0x30 obj_cooja/mtype296.a(button-sensor.o)
 .debug_ranges  0x0000000000000810       0x30 obj_cooja/mtype296.a(leds-arch.o)
 .debug_ranges  0x0000000000000840       0x18 obj_cooja/mtype296.a(moteid.o)
 .debug_ranges  0x0000000000000858       0x30 obj_cooja/mtype296.a(pir-sensor.o)
 .debug_ranges  0x0000000000000888       0x48 obj_cooja/mtype296.a(rs232.o)
 .debug_ranges  0x00000000000008d0       0x30 obj_cooja/mtype296.a(vib-sensor.o)
 .debug_ranges  0x0000000000000900       0x38 obj_cooja/mtype296.a(clock.o)
 .debug_ranges  0x0000000000000938       0x50 obj_cooja/mtype296.a(log.o)
 .debug_ranges  0x0000000000000988       0x60 obj_cooja/mtype296.a(cfs-cooja.o)
 .debug_ranges  0x00000000000009e8       0xe0 obj_cooja/mtype296.a(cooja-radio.o)
 .debug_ranges  0x0000000000000ac8       0x30 obj_cooja/mtype296.a(eeprom.o)
 .debug_ranges  0x0000000000000af8       0x18 obj_cooja/mtype296.a(random.o)
 .debug_ranges  0x0000000000000b10       0x38 obj_cooja/mtype296.a(sensors.o)
 .debug_ranges  0x0000000000000b48       0x18 obj_cooja/mtype296.a(autostart.o)
 .debug_ranges  0x0000000000000b60       0x48 obj_cooja/mtype296.a(ctimer.o)
 .debug_ranges  0x0000000000000ba8       0x80 obj_cooja/mtype296.a(etimer.o)
 .debug_ranges  0x0000000000000c28       0x78 obj_cooja/mtype296.a(process.o)
 .debug_ranges  0x0000000000000ca0       0x20 obj_cooja/mtype296.a(rtimer.o)
 .debug_ranges  0x0000000000000cc0       0x30 obj_cooja/mtype296.a(timer.o)
 .debug_ranges  0x0000000000000cf0       0x20 obj_cooja/mtype296.a(serial-line.o)
 .debug_ranges  0x0000000000000d10       0x10 obj_cooja/mtype296.a(assert.o)
 .debug_ranges  0x0000000000000d20       0x68 obj_cooja/mtype296.a(list.o)
 .debug_ranges  0x0000000000000d88       0x30 obj_cooja/mtype296.a(memb.o)
 .debug_ranges  0x0000000000000db8       0x30 obj_cooja/mtype296.a(ringbuf.o)
 .debug_ranges  0x0000000000000de8       0xd0 obj_cooja/mtype296.a(sicslowpan.o)
 .debug_ranges  0x0000000000000eb8       0x80 obj_cooja/mtype296.a(uip-ds6-nbr.o)
 .debug_ranges  0x0000000000000f38       0xb8 obj_cooja/mtype296.a(uip-ds6-route.o)
 .debug_ranges  0x0000000000000ff0       0xb8 obj_cooja/mtype296.a(uip-ds6.o)
 .debug_ranges  0x00000000000010a8       0x38 obj_cooja/mtype296.a(uip-nd6.o)
 .debug_ranges  0x00000000000010e0       0xa0 obj_cooja/mtype296.a(uip6.o)
 .debug_ranges  0x0000000000001180       0xa8 obj_cooja/mtype296.a(resolv.o)
 .debug_ranges  0x0000000000001228       0xa0 obj_cooja/mtype296.a(tcpip.o)
 .debug_ranges  0x00000000000012c8       0x10 obj_cooja/mtype296.a(uip-debug.o)
 .debug_ranges  0x00000000000012d8       0x28 obj_cooja/mtype296.a(uip-nameserver.)
 .debug_ranges  0x0000000000001300       0x40 obj_cooja/mtype296.a(uip-packetqueue)
 .debug_ranges  0x0000000000001340       0x18 obj_cooja/mtype296.a(uip-udp-packet.)
 .debug_ranges  0x0000000000001358       0x18 obj_cooja/mtype296.a(uiplib.o)
 .debug_ranges  0x0000000000001370      0x1c8 obj_cooja/mtype296.a(rpl-dag.o)
 .debug_ranges  0x0000000000001538       0x38 obj_cooja/mtype296.a(rpl-ext-header.)
 .debug_ranges  0x0000000000001570       0xb0 obj_cooja/mtype296.a(rpl-icmp6.o)
 .debug_ranges  0x0000000000001620       0x50 obj_cooja/mtype296.a(rpl-mrhof.o)
 .debug_ranges  0x0000000000001670       0x90 obj_cooja/mtype296.a(rpl-timers.o)
 .debug_ranges  0x0000000000001700       0x58 obj_cooja/mtype296.a(rpl.o)
 .debug_ranges  0x0000000000001758       0x48 obj_cooja/mtype296.a(link-stats.o)
 .debug_ranges  0x00000000000017a0       0x20 obj_cooja/mtype296.a(linkaddr.o)
 .debug_ranges  0x00000000000017c0       0xb0 obj_cooja/mtype296.a(nbr-table.o)
 .debug_ranges  0x0000000000001870       0x10 obj_cooja/mtype296.a(netstack.o)
 .debug_ranges  0x0000000000001880       0x90 obj_cooja/mtype296.a(packetbuf.o)
 .debug_ranges  0x0000000000001910       0x70 obj_cooja/mtype296.a(queuebuf.o)
 .debug_ranges  0x0000000000001980       0xa8 obj_cooja/mtype296.a(csma.o)
 .debug_ranges  0x0000000000001a28       0x48 obj_cooja/mtype296.a(framer-802154.o)
 .debug_ranges  0x0000000000001a70       0x10 obj_cooja/mtype296.a(mac.o)
 .debug_ranges  0x0000000000001a80       0x60 obj_cooja/mtype296.a(nullrdc.o)
 .debug_ranges  0x0000000000001ae0       0x28 obj_cooja/mtype296.a(nullsec.o)
 .debug_ranges  0x0000000000001b08       0x30 obj_cooja/mtype296.a(watchdog.o)
 .debug_ranges  0x0000000000001b38       0x38 obj_cooja/mtype296.a(stimer.o)
 .debug_ranges  0x0000000000001b70       0x58 obj_cooja/mtype296.a(uip-icmp6.o)
 .debug_ranges  0x0000000000001bc8       0x38 obj_cooja/mtype296.a(rpl-nbr-policy.)
 .debug_ranges  0x0000000000001c00       0x70 obj_cooja/mtype296.a(frame802154.o)
 .debug_ranges  0x0000000000001c70       0x28 obj_cooja/mtype296.a(mac-sequence.o)

.debug_macro
 *(.debug_macro)

.gnu.attributes
 *(.gnu.attributes)

/DISCARD/
 *(.note.GNU-stack)
 *(.gnu_debuglink)
 *(.gnu.lto_*)
OUTPUT(obj_cooja/mtype296.cooja elf32-i386)
