Archive member included to satisfy reference by file (symbol)

obj_cooja/mtype179.a(dtls.o)  sensor.co (dtls_init)
obj_cooja/mtype179.a(tinydtls-crypto)
                              obj_cooja/mtype179.a(dtls.o) (dtls_crypto_init)
obj_cooja/mtype179.a(hmac.o)  obj_cooja/mtype179.a(dtls.o) (dtls_hmac_update)
obj_cooja/mtype179.a(netq.o)  obj_cooja/mtype179.a(dtls.o) (netq_init)
obj_cooja/mtype179.a(dtls_time.o)
                              obj_cooja/mtype179.a(dtls.o) (dtls_clock_init)
obj_cooja/mtype179.a(peer.o)  obj_cooja/mtype179.a(dtls.o) (peer_init)
obj_cooja/mtype179.a(session.o)
                              obj_cooja/mtype179.a(dtls.o) (dtls_session_equals)
obj_cooja/mtype179.a(rijndael.o)
                              obj_cooja/mtype179.a(tinydtls-crypto) (rijndael_set_key_enc_only)
obj_cooja/mtype179.a(tinydtls-ccm.o)
                              obj_cooja/mtype179.a(tinydtls-crypto) (dtls_ccm_encrypt_message)
obj_cooja/mtype179.a(sha2.o)  obj_cooja/mtype179.a(dtls.o) (SHA256_Init)
obj_cooja/mtype179.a(debug.o)
                              sensor.co (dtls_set_log_level)
obj_cooja/mtype179.a(simEnvChange.o)
                              obj_cooja/mtype179.o (simDontFallAsleep)
obj_cooja/mtype179.a(cooja_mt.o)
                              obj_cooja/mtype179.o (cooja_mt_start)
obj_cooja/mtype179.a(cooja_mtarch.o)
                              obj_cooja/mtype179.a(cooja_mt.o) (cooja_mtarch_init)
obj_cooja/mtype179.a(rtimer-arch.o)
                              obj_cooja/mtype179.o (rtimer_arch_check)
obj_cooja/mtype179.a(beep.o)  obj_cooja/mtype179.o (beep_interface)
obj_cooja/mtype179.a(button-sensor.o)
                              obj_cooja/mtype179.o (button_interface)
obj_cooja/mtype179.a(leds-arch.o)
                              obj_cooja/mtype179.o (leds_interface)
obj_cooja/mtype179.a(moteid.o)
                              obj_cooja/mtype179.o (moteid_interface)
obj_cooja/mtype179.a(pir-sensor.o)
                              obj_cooja/mtype179.o (pir_interface)
obj_cooja/mtype179.a(rs232.o)
                              obj_cooja/mtype179.o (rs232_interface)
obj_cooja/mtype179.a(vib-sensor.o)
                              obj_cooja/mtype179.o (vib_interface)
obj_cooja/mtype179.a(clock.o)
                              obj_cooja/mtype179.o (clock_interface)
obj_cooja/mtype179.a(log.o)   obj_cooja/mtype179.o (simlog_interface)
obj_cooja/mtype179.a(cfs-cooja.o)
                              obj_cooja/mtype179.o (cfs_interface)
obj_cooja/mtype179.a(cooja-radio.o)
                              obj_cooja/mtype179.o (radio_interface)
obj_cooja/mtype179.a(eeprom.o)
                              obj_cooja/mtype179.o (eeprom_interface)
obj_cooja/mtype179.a(random.o)
                              obj_cooja/mtype179.a(moteid.o) (random_init)
obj_cooja/mtype179.a(sensors.o)
                              obj_cooja/mtype179.o (sensors_process)
obj_cooja/mtype179.a(autostart.o)
                              obj_cooja/mtype179.o (autostart_start)
obj_cooja/mtype179.a(ctimer.o)
                              obj_cooja/mtype179.o (ctimer_init)
obj_cooja/mtype179.a(etimer.o)
                              obj_cooja/mtype179.o (etimer_process)
obj_cooja/mtype179.a(process.o)
                              obj_cooja/mtype179.a(dtls.o) (process_current)
obj_cooja/mtype179.a(rtimer.o)
                              obj_cooja/mtype179.a(rtimer-arch.o) (rtimer_run_next)
obj_cooja/mtype179.a(timer.o)
                              obj_cooja/mtype179.a(button-sensor.o) (timer_set)
obj_cooja/mtype179.a(serial-line.o)
                              obj_cooja/mtype179.a(rs232.o) (serial_line_input_byte)
obj_cooja/mtype179.a(assert.o)
                              obj_cooja/mtype179.a(dtls.o) (_xassert)
obj_cooja/mtype179.a(list.o)  obj_cooja/mtype179.a(dtls.o) (list_init)
obj_cooja/mtype179.a(memb.o)  obj_cooja/mtype179.a(tinydtls-crypto) (memb_init)
obj_cooja/mtype179.a(ringbuf.o)
                              obj_cooja/mtype179.a(serial-line.o) (ringbuf_init)
obj_cooja/mtype179.a(sicslowpan.o)
                              obj_cooja/mtype179.o (sicslowpan_driver)
obj_cooja/mtype179.a(uip-ds6-nbr.o)
                              obj_cooja/mtype179.a(sicslowpan.o) (uip_ds6_link_neighbor_callback)
obj_cooja/mtype179.a(uip-ds6-route.o)
                              obj_cooja/mtype179.a(uip-ds6-nbr.o) (uip_ds6_defrt_lookup)
obj_cooja/mtype179.a(uip-ds6.o)
                              sensor.co (uip_ds6_if)
obj_cooja/mtype179.a(uip-nd6.o)
                              obj_cooja/mtype179.a(uip-ds6-nbr.o) (uip_nd6_ns_output)
obj_cooja/mtype179.a(uip6.o)  obj_cooja/mtype179.o (uip_lladdr)
obj_cooja/mtype179.a(tcpip.o)
                              sensor.co (tcpip_event)
obj_cooja/mtype179.a(uip-debug.o)
                              sensor.co (uip_debug_ipaddr_print)
obj_cooja/mtype179.a(uip-packetqueue)
                              obj_cooja/mtype179.a(uip-ds6-nbr.o) (uip_packetqueue_new)
obj_cooja/mtype179.a(uip-udp-packet.)
                              sensor.co (uip_udp_packet_send)
obj_cooja/mtype179.a(rpl-dag.o)
                              obj_cooja/mtype179.a(tcpip.o) (rpl_repair_root)
obj_cooja/mtype179.a(rpl-ext-header.)
                              obj_cooja/mtype179.a(uip6.o) (rpl_verify_hbh_header)
obj_cooja/mtype179.a(rpl-icmp6.o)
                              obj_cooja/mtype179.a(rpl-dag.o) (rpl_icmp6_update_nbr_table)
obj_cooja/mtype179.a(rpl-mrhof.o)
                              obj_cooja/mtype179.a(rpl-dag.o) (rpl_mrhof)
obj_cooja/mtype179.a(rpl-timers.o)
                              obj_cooja/mtype179.a(rpl-dag.o) (rpl_reset_dio_timer)
obj_cooja/mtype179.a(rpl.o)   obj_cooja/mtype179.a(rpl-icmp6.o) (rpl_get_mode)
obj_cooja/mtype179.a(link-stats.o)
                              obj_cooja/mtype179.a(rpl-dag.o) (link_stats_from_lladdr)
obj_cooja/mtype179.a(linkaddr.o)
                              obj_cooja/mtype179.o (linkaddr_node_addr)
obj_cooja/mtype179.a(nbr-table.o)
                              obj_cooja/mtype179.a(uip-ds6-nbr.o) (nbr_table_register)
obj_cooja/mtype179.a(netstack.o)
                              obj_cooja/mtype179.o (netstack_init)
obj_cooja/mtype179.a(packetbuf.o)
                              obj_cooja/mtype179.a(cooja-radio.o) (packetbuf_attrs)
obj_cooja/mtype179.a(queuebuf.o)
                              obj_cooja/mtype179.o (queuebuf_init)
obj_cooja/mtype179.a(csma.o)  obj_cooja/mtype179.o (csma_driver)
obj_cooja/mtype179.a(framer-802154.o)
                              obj_cooja/mtype179.a(sicslowpan.o) (framer_802154)
obj_cooja/mtype179.a(mac.o)   obj_cooja/mtype179.a(csma.o) (mac_call_sent_callback)
obj_cooja/mtype179.a(nullrdc.o)
                              obj_cooja/mtype179.o (nullrdc_driver)
obj_cooja/mtype179.a(nullsec.o)
                              obj_cooja/mtype179.a(sicslowpan.o) (nullsec_driver)
obj_cooja/mtype179.a(watchdog.o)
                              obj_cooja/mtype179.a(sicslowpan.o) (watchdog_periodic)
obj_cooja/mtype179.a(rimestats.o)
                              obj_cooja/mtype179.a(cooja-radio.o) (rimestats)
obj_cooja/mtype179.a(stimer.o)
                              obj_cooja/mtype179.a(uip-ds6-nbr.o) (stimer_set)
obj_cooja/mtype179.a(uip-icmp6.o)
                              obj_cooja/mtype179.a(uip6.o) (uip_icmp6_input)
obj_cooja/mtype179.a(rpl-nbr-policy.)
                              obj_cooja/mtype179.a(nbr-table.o) (rpl_nbr_policy_find_removable)
obj_cooja/mtype179.a(frame802154.o)
                              obj_cooja/mtype179.a(framer-802154.o) (frame802154_get_pan_id)
obj_cooja/mtype179.a(mac-sequence.o)
                              obj_cooja/mtype179.a(nullrdc.o) (mac_sequence_is_duplicate)

Allocating common symbols
Common symbol       size              file

default_instance    0x4               obj_cooja/mtype179.a(rpl-dag.o)
simButtonIsActive   0x1               obj_cooja/mtype179.a(button-sensor.o)
simButtonIsDown     0x1               obj_cooja/mtype179.a(button-sensor.o)
cfs_buf             0x1e              sensor.co
simOutDataBuffer    0x80              obj_cooja/mtype179.a(cooja-radio.o)
uip_ds6_prefix_list
                    0x60              obj_cooja/mtype179.a(uip-ds6.o)
linkaddr_node_addr  0x8               obj_cooja/mtype179.a(linkaddr.o)
simSerialReceivingFlag
                    0x1               obj_cooja/mtype179.a(rs232.o)
simEEPROMData       0x400             obj_cooja/mtype179.a(eeprom.o)
periodic_timer      0x20              obj_cooja/mtype179.a(link-stats.o)
simLoggedLength     0x4               obj_cooja/mtype179.a(log.o)
simSerialReceivingLength
                    0x4               obj_cooja/mtype179.a(rs232.o)
simEtimerPending    0x4               obj_cooja/mtype179.a(simEnvChange.o)
uip_slen            0x2               obj_cooja/mtype179.a(uip6.o)
fd                  0x4               sensor.co
uip_ds6_timer_periodic
                    0x10              obj_cooja/mtype179.a(uip-ds6.o)
uip_acc32           0x4               obj_cooja/mtype179.a(uip6.o)
uip_conns           0xc0              obj_cooja/mtype179.a(uip6.o)
simVibChanged       0x1               obj_cooja/mtype179.a(vib-sensor.o)
rimestats           0x48              obj_cooja/mtype179.a(rimestats.o)
simRtimerPending    0x4               obj_cooja/mtype179.a(rtimer-arch.o)
uip_ds6_netif_addr_list_offset
                    0x1               obj_cooja/mtype179.a(uip-ds6.o)
uip_lladdr          0x8               obj_cooja/mtype179.a(uip6.o)
instance_table      0x154             obj_cooja/mtype179.a(rpl-dag.o)
simProcessRunValue  0x4               obj_cooja/mtype179.a(simEnvChange.o)
serial_line_event_message
                    0x1               obj_cooja/mtype179.a(serial-line.o)
uip_appdata         0x4               obj_cooja/mtype179.a(uip6.o)
referenceVar        0x4               obj_cooja/mtype179.o
simCurrentTime      0x4               obj_cooja/mtype179.a(clock.o)
simVibIsActive      0x1               obj_cooja/mtype179.a(vib-sensor.o)
uip_ds6_if          0xf8              obj_cooja/mtype179.a(uip-ds6.o)
uip_flags           0x1               obj_cooja/mtype179.a(uip6.o)
uip_ds6_timer_ra    0x8               obj_cooja/mtype179.a(uip-ds6.o)
simSerialReceivingData
                    0x800             obj_cooja/mtype179.a(rs232.o)
simLoggedFlag       0x1               obj_cooja/mtype179.a(log.o)
packetbuf_attrs     0x1e              obj_cooja/mtype179.a(packetbuf.o)
uip_ds6_addr_size   0x1               obj_cooja/mtype179.a(uip-ds6.o)
uip_aligned_buf     0x640             obj_cooja/mtype179.a(uip6.o)
simRtimerCurrentTicks
                    0x8               obj_cooja/mtype179.a(rtimer-arch.o)
simRandomSeed       0x4               obj_cooja/mtype179.a(moteid.o)
simLoggedData       0x400             obj_cooja/mtype179.a(log.o)
simLedsValue        0x1               obj_cooja/mtype179.a(leds-arch.o)
simEtimerNextExpirationTime
                    0x4               obj_cooja/mtype179.a(simEnvChange.o)
uip_listenports     0x10              obj_cooja/mtype179.a(uip6.o)
uip_len             0x2               obj_cooja/mtype179.a(uip6.o)
simButtonChanged    0x1               obj_cooja/mtype179.a(button-sensor.o)
simRtimerNextExpirationTime
                    0x8               obj_cooja/mtype179.a(rtimer-arch.o)
simPirIsActive      0x1               obj_cooja/mtype179.a(pir-sensor.o)
simInDataBuffer     0x80              obj_cooja/mtype179.a(cooja-radio.o)
simPirChanged       0x1               obj_cooja/mtype179.a(pir-sensor.o)
simBeeped           0x1               obj_cooja/mtype179.a(beep.o)
tcpip_event         0x1               obj_cooja/mtype179.a(tcpip.o)
uip_sappdata        0x4               obj_cooja/mtype179.a(uip6.o)
sensors_event       0x1               obj_cooja/mtype179.a(sensors.o)
dtls_clock_offset   0x4               obj_cooja/mtype179.a(dtls_time.o)
uip_udp_conns       0x180             obj_cooja/mtype179.a(uip6.o)
packetbuf_addrs     0x10              obj_cooja/mtype179.a(packetbuf.o)
uip_udp_conn        0x4               obj_cooja/mtype179.a(uip6.o)
simMoteIDChanged    0x1               obj_cooja/mtype179.a(moteid.o)
sensors_flags       0x4               obj_cooja/mtype179.o
uip_next_hdr        0x4               obj_cooja/mtype179.a(uip6.o)
simMoteID           0x4               obj_cooja/mtype179.a(moteid.o)
uip_conn            0x4               obj_cooja/mtype179.a(uip6.o)

Discarded input sections

 .note.GNU-stack
                0x0000000000000000        0x0 /usr/lib/gcc/i686-linux-gnu/4.8/../../../i386-linux-gnu/crti.o
 .gnu_debuglink
                0x0000000000000000        0xc /usr/lib/gcc/i686-linux-gnu/4.8/../../../i386-linux-gnu/crti.o
 .group         0x0000000000000000        0x8 /usr/lib/gcc/i686-linux-gnu/4.8/crtbeginS.o
 .text.__x86.get_pc_thunk.bx
                0x0000000000000000        0x4 /usr/lib/gcc/i686-linux-gnu/4.8/crtbeginS.o
 .note.GNU-stack
                0x0000000000000000        0x0 /usr/lib/gcc/i686-linux-gnu/4.8/crtbeginS.o
 .note.GNU-stack
                0x0000000000000000        0x0 sensor.co
 .note.GNU-stack
                0x0000000000000000        0x0 obj_cooja/mtype179.o
 .note.GNU-stack
                0x0000000000000000        0x0 obj_cooja/mtype179.a(dtls.o)
 .note.GNU-stack
                0x0000000000000000        0x0 obj_cooja/mtype179.a(tinydtls-crypto)
 .note.GNU-stack
                0x0000000000000000        0x0 obj_cooja/mtype179.a(hmac.o)
 .note.GNU-stack
                0x0000000000000000        0x0 obj_cooja/mtype179.a(netq.o)
 .note.GNU-stack
                0x0000000000000000        0x0 obj_cooja/mtype179.a(dtls_time.o)
 .note.GNU-stack
                0x0000000000000000        0x0 obj_cooja/mtype179.a(peer.o)
 .note.GNU-stack
                0x0000000000000000        0x0 obj_cooja/mtype179.a(session.o)
 .note.GNU-stack
                0x0000000000000000        0x0 obj_cooja/mtype179.a(rijndael.o)
 .note.GNU-stack
                0x0000000000000000        0x0 obj_cooja/mtype179.a(tinydtls-ccm.o)
 .note.GNU-stack
                0x0000000000000000        0x0 obj_cooja/mtype179.a(sha2.o)
 .note.GNU-stack
                0x0000000000000000        0x0 obj_cooja/mtype179.a(debug.o)
 .note.GNU-stack
                0x0000000000000000        0x0 obj_cooja/mtype179.a(simEnvChange.o)
 .note.GNU-stack
                0x0000000000000000        0x0 obj_cooja/mtype179.a(cooja_mt.o)
 .note.GNU-stack
                0x0000000000000000        0x0 obj_cooja/mtype179.a(cooja_mtarch.o)
 .note.GNU-stack
                0x0000000000000000        0x0 obj_cooja/mtype179.a(rtimer-arch.o)
 .note.GNU-stack
                0x0000000000000000        0x0 obj_cooja/mtype179.a(beep.o)
 .note.GNU-stack
                0x0000000000000000        0x0 obj_cooja/mtype179.a(button-sensor.o)
 .note.GNU-stack
                0x0000000000000000        0x0 obj_cooja/mtype179.a(leds-arch.o)
 .note.GNU-stack
                0x0000000000000000        0x0 obj_cooja/mtype179.a(moteid.o)
 .note.GNU-stack
                0x0000000000000000        0x0 obj_cooja/mtype179.a(pir-sensor.o)
 .note.GNU-stack
                0x0000000000000000        0x0 obj_cooja/mtype179.a(rs232.o)
 .note.GNU-stack
                0x0000000000000000        0x0 obj_cooja/mtype179.a(vib-sensor.o)
 .note.GNU-stack
                0x0000000000000000        0x0 obj_cooja/mtype179.a(clock.o)
 .note.GNU-stack
                0x0000000000000000        0x0 obj_cooja/mtype179.a(log.o)
 .note.GNU-stack
                0x0000000000000000        0x0 obj_cooja/mtype179.a(cfs-cooja.o)
 .note.GNU-stack
                0x0000000000000000        0x0 obj_cooja/mtype179.a(cooja-radio.o)
 .note.GNU-stack
                0x0000000000000000        0x0 obj_cooja/mtype179.a(eeprom.o)
 .note.GNU-stack
                0x0000000000000000        0x0 obj_cooja/mtype179.a(random.o)
 .note.GNU-stack
                0x0000000000000000        0x0 obj_cooja/mtype179.a(sensors.o)
 .note.GNU-stack
                0x0000000000000000        0x0 obj_cooja/mtype179.a(autostart.o)
 .note.GNU-stack
                0x0000000000000000        0x0 obj_cooja/mtype179.a(ctimer.o)
 .note.GNU-stack
                0x0000000000000000        0x0 obj_cooja/mtype179.a(etimer.o)
 .note.GNU-stack
                0x0000000000000000        0x0 obj_cooja/mtype179.a(process.o)
 .note.GNU-stack
                0x0000000000000000        0x0 obj_cooja/mtype179.a(rtimer.o)
 .note.GNU-stack
                0x0000000000000000        0x0 obj_cooja/mtype179.a(timer.o)
 .note.GNU-stack
                0x0000000000000000        0x0 obj_cooja/mtype179.a(serial-line.o)
 .note.GNU-stack
                0x0000000000000000        0x0 obj_cooja/mtype179.a(assert.o)
 .note.GNU-stack
                0x0000000000000000        0x0 obj_cooja/mtype179.a(list.o)
 .note.GNU-stack
                0x0000000000000000        0x0 obj_cooja/mtype179.a(memb.o)
 .note.GNU-stack
                0x0000000000000000        0x0 obj_cooja/mtype179.a(ringbuf.o)
 .note.GNU-stack
                0x0000000000000000        0x0 obj_cooja/mtype179.a(sicslowpan.o)
 .note.GNU-stack
                0x0000000000000000        0x0 obj_cooja/mtype179.a(uip-ds6-nbr.o)
 .note.GNU-stack
                0x0000000000000000        0x0 obj_cooja/mtype179.a(uip-ds6-route.o)
 .note.GNU-stack
                0x0000000000000000        0x0 obj_cooja/mtype179.a(uip-ds6.o)
 .note.GNU-stack
                0x0000000000000000        0x0 obj_cooja/mtype179.a(uip-nd6.o)
 .note.GNU-stack
                0x0000000000000000        0x0 obj_cooja/mtype179.a(uip6.o)
 .note.GNU-stack
                0x0000000000000000        0x0 obj_cooja/mtype179.a(tcpip.o)
 .note.GNU-stack
                0x0000000000000000        0x0 obj_cooja/mtype179.a(uip-debug.o)
 .note.GNU-stack
                0x0000000000000000        0x0 obj_cooja/mtype179.a(uip-packetqueue)
 .note.GNU-stack
                0x0000000000000000        0x0 obj_cooja/mtype179.a(uip-udp-packet.)
 .note.GNU-stack
                0x0000000000000000        0x0 obj_cooja/mtype179.a(rpl-dag.o)
 .note.GNU-stack
                0x0000000000000000        0x0 obj_cooja/mtype179.a(rpl-ext-header.)
 .note.GNU-stack
                0x0000000000000000        0x0 obj_cooja/mtype179.a(rpl-icmp6.o)
 .note.GNU-stack
                0x0000000000000000        0x0 obj_cooja/mtype179.a(rpl-mrhof.o)
 .note.GNU-stack
                0x0000000000000000        0x0 obj_cooja/mtype179.a(rpl-timers.o)
 .note.GNU-stack
                0x0000000000000000        0x0 obj_cooja/mtype179.a(rpl.o)
 .note.GNU-stack
                0x0000000000000000        0x0 obj_cooja/mtype179.a(link-stats.o)
 .note.GNU-stack
                0x0000000000000000        0x0 obj_cooja/mtype179.a(linkaddr.o)
 .note.GNU-stack
                0x0000000000000000        0x0 obj_cooja/mtype179.a(nbr-table.o)
 .note.GNU-stack
                0x0000000000000000        0x0 obj_cooja/mtype179.a(netstack.o)
 .note.GNU-stack
                0x0000000000000000        0x0 obj_cooja/mtype179.a(packetbuf.o)
 .note.GNU-stack
                0x0000000000000000        0x0 obj_cooja/mtype179.a(queuebuf.o)
 .note.GNU-stack
                0x0000000000000000        0x0 obj_cooja/mtype179.a(csma.o)
 .note.GNU-stack
                0x0000000000000000        0x0 obj_cooja/mtype179.a(framer-802154.o)
 .note.GNU-stack
                0x0000000000000000        0x0 obj_cooja/mtype179.a(mac.o)
 .note.GNU-stack
                0x0000000000000000        0x0 obj_cooja/mtype179.a(nullrdc.o)
 .note.GNU-stack
                0x0000000000000000        0x0 obj_cooja/mtype179.a(nullsec.o)
 .note.GNU-stack
                0x0000000000000000        0x0 obj_cooja/mtype179.a(watchdog.o)
 .note.GNU-stack
                0x0000000000000000        0x0 obj_cooja/mtype179.a(rimestats.o)
 .note.GNU-stack
                0x0000000000000000        0x0 obj_cooja/mtype179.a(stimer.o)
 .note.GNU-stack
                0x0000000000000000        0x0 obj_cooja/mtype179.a(uip-icmp6.o)
 .note.GNU-stack
                0x0000000000000000        0x0 obj_cooja/mtype179.a(rpl-nbr-policy.)
 .note.GNU-stack
                0x0000000000000000        0x0 obj_cooja/mtype179.a(frame802154.o)
 .note.GNU-stack
                0x0000000000000000        0x0 obj_cooja/mtype179.a(mac-sequence.o)
 .note.GNU-stack
                0x0000000000000000        0x0 /usr/lib/gcc/i686-linux-gnu/4.8/crtendS.o
 .note.GNU-stack
                0x0000000000000000        0x0 /usr/lib/gcc/i686-linux-gnu/4.8/../../../i386-linux-gnu/crtn.o
 .gnu_debuglink
                0x0000000000000000        0xc /usr/lib/gcc/i686-linux-gnu/4.8/../../../i386-linux-gnu/crtn.o

Memory Configuration

Name             Origin             Length             Attributes
*default*        0x0000000000000000 0xffffffffffffffff

Linker script and memory map

LOAD /usr/lib/gcc/i686-linux-gnu/4.8/../../../i386-linux-gnu/crti.o
LOAD /usr/lib/gcc/i686-linux-gnu/4.8/crtbeginS.o
LOAD sensor.co
LOAD obj_cooja/mtype179.o
LOAD obj_cooja/mtype179.a
LOAD /usr/lib/gcc/i686-linux-gnu/4.8/libgcc.a
LOAD /usr/lib/gcc/i686-linux-gnu/4.8/libgcc_s.so
LOAD /usr/lib/gcc/i686-linux-gnu/4.8/../../../i386-linux-gnu/libc.so
START GROUP
LOAD /lib/i386-linux-gnu/libc.so.6
LOAD /usr/lib/i386-linux-gnu/libc_nonshared.a
LOAD /lib/i386-linux-gnu/ld-linux.so.2
END GROUP
LOAD /usr/lib/gcc/i686-linux-gnu/4.8/libgcc.a
LOAD /usr/lib/gcc/i686-linux-gnu/4.8/libgcc_s.so
LOAD /usr/lib/gcc/i686-linux-gnu/4.8/crtendS.o
LOAD /usr/lib/gcc/i686-linux-gnu/4.8/../../../i386-linux-gnu/crtn.o
                0x0000000000000114                . = (0x0 + SIZEOF_HEADERS)

.note.gnu.build-id
                0x0000000000000114       0x24
 *(.note.gnu.build-id)
 .note.gnu.build-id
                0x0000000000000114       0x24 /usr/lib/gcc/i686-linux-gnu/4.8/../../../i386-linux-gnu/crti.o

.hash
 *(.hash)

.gnu.hash       0x0000000000000138     0x13a0
 *(.gnu.hash)
 .gnu.hash      0x0000000000000138     0x13a0 /usr/lib/gcc/i686-linux-gnu/4.8/../../../i386-linux-gnu/crti.o

.dynsym         0x00000000000014d8     0x26d0
 *(.dynsym)
 .dynsym        0x00000000000014d8     0x26d0 /usr/lib/gcc/i686-linux-gnu/4.8/../../../i386-linux-gnu/crti.o

.dynstr         0x0000000000003ba8     0x2832
 *(.dynstr)
 .dynstr        0x0000000000003ba8     0x2832 /usr/lib/gcc/i686-linux-gnu/4.8/../../../i386-linux-gnu/crti.o

.gnu.version    0x00000000000063da      0x4da
 *(.gnu.version)
 .gnu.version   0x00000000000063da      0x4da /usr/lib/gcc/i686-linux-gnu/4.8/../../../i386-linux-gnu/crti.o

.gnu.version_d  0x00000000000068b4        0x0
 *(.gnu.version_d)
 .gnu.version_d
                0x0000000000000000        0x0 /usr/lib/gcc/i686-linux-gnu/4.8/../../../i386-linux-gnu/crti.o

.gnu.version_r  0x00000000000068b4       0x40
 *(.gnu.version_r)
 .gnu.version_r
                0x00000000000068b4       0x40 /usr/lib/gcc/i686-linux-gnu/4.8/../../../i386-linux-gnu/crti.o

.rel.dyn        0x00000000000068f4     0xa398
 *(.rel.init)
 .rel.init      0x0000000000000000        0x0 /usr/lib/gcc/i686-linux-gnu/4.8/../../../i386-linux-gnu/crti.o
 *(.rel.text .rel.text.* .rel.gnu.linkonce.t.*)
 .rel.text      0x0000000000000000        0x0 /usr/lib/gcc/i686-linux-gnu/4.8/../../../i386-linux-gnu/crti.o
 .rel.text.read_from_peer
                0x00000000000068f4       0xd0 /usr/lib/gcc/i686-linux-gnu/4.8/../../../i386-linux-gnu/crti.o
 .rel.text.send_to_peer
                0x00000000000069c4       0x48 /usr/lib/gcc/i686-linux-gnu/4.8/../../../i386-linux-gnu/crti.o
 .rel.text.get_psk_info
                0x0000000000006a0c       0x50 /usr/lib/gcc/i686-linux-gnu/4.8/../../../i386-linux-gnu/crti.o
 .rel.text.print_local_addresses
                0x0000000000006a5c       0x40 /usr/lib/gcc/i686-linux-gnu/4.8/../../../i386-linux-gnu/crti.o
 .rel.text.dtls_handle_read
                0x0000000000006a9c       0x80 /usr/lib/gcc/i686-linux-gnu/4.8/../../../i386-linux-gnu/crti.o
 .rel.text.cfs_prepare_data
                0x0000000000006b1c       0xc8 /usr/lib/gcc/i686-linux-gnu/4.8/../../../i386-linux-gnu/crti.o
 .rel.text.dtls_complete
                0x0000000000006be4       0x38 /usr/lib/gcc/i686-linux-gnu/4.8/../../../i386-linux-gnu/crti.o
 .rel.text.init_dtls
                0x0000000000006c1c       0x50 /usr/lib/gcc/i686-linux-gnu/4.8/../../../i386-linux-gnu/crti.o
 .rel.text.prepare_mcast
                0x0000000000006c6c       0x18 /usr/lib/gcc/i686-linux-gnu/4.8/../../../i386-linux-gnu/crti.o
 .rel.text.process_thread_udp_server_process
                0x0000000000006c84       0xb8 /usr/lib/gcc/i686-linux-gnu/4.8/../../../i386-linux-gnu/crti.o
 .rel.text.print_processes
                0x0000000000006d3c       0x28 /usr/lib/gcc/i686-linux-gnu/4.8/../../../i386-linux-gnu/crti.o
 .rel.text.rtimer_thread_loop
                0x0000000000006d64       0x10 /usr/lib/gcc/i686-linux-gnu/4.8/../../../i386-linux-gnu/crti.o
 .rel.text.set_rime_addr
                0x0000000000006d74       0x58 /usr/lib/gcc/i686-linux-gnu/4.8/../../../i386-linux-gnu/crti.o
 .rel.text.contiki_init
                0x0000000000006dcc      0x1d0 /usr/lib/gcc/i686-linux-gnu/4.8/../../../i386-linux-gnu/crti.o
 .rel.text.process_run_thread_loop
                0x0000000000006f9c       0x70 /usr/lib/gcc/i686-linux-gnu/4.8/../../../i386-linux-gnu/crti.o
 .rel.text.Java_org_contikios_cooja_corecomm_Lib1_init
                0x000000000000700c       0x30 /usr/lib/gcc/i686-linux-gnu/4.8/../../../i386-linux-gnu/crti.o
 .rel.text.Java_org_contikios_cooja_corecomm_Lib1_getMemory
                0x000000000000703c        0x8 /usr/lib/gcc/i686-linux-gnu/4.8/../../../i386-linux-gnu/crti.o
 .rel.text.Java_org_contikios_cooja_corecomm_Lib1_setMemory
                0x0000000000007044       0x10 /usr/lib/gcc/i686-linux-gnu/4.8/../../../i386-linux-gnu/crti.o
 .rel.text.Java_org_contikios_cooja_corecomm_Lib1_tick
                0x0000000000007054       0x70 /usr/lib/gcc/i686-linux-gnu/4.8/../../../i386-linux-gnu/crti.o
 .rel.text.Java_org_contikios_cooja_corecomm_Lib1_setReferenceAddress
                0x00000000000070c4       0x10 /usr/lib/gcc/i686-linux-gnu/4.8/../../../i386-linux-gnu/crti.o
 .rel.text.dtls_hash_init
                0x00000000000070d4       0x18 /usr/lib/gcc/i686-linux-gnu/4.8/../../../i386-linux-gnu/crti.o
 .rel.text.dtls_hash_update
                0x00000000000070ec       0x10 /usr/lib/gcc/i686-linux-gnu/4.8/../../../i386-linux-gnu/crti.o
 .rel.text.dtls_hash_finalize
                0x00000000000070fc       0x10 /usr/lib/gcc/i686-linux-gnu/4.8/../../../i386-linux-gnu/crti.o
 .rel.text.dtls_security_params_next
                0x000000000000710c       0x10 /usr/lib/gcc/i686-linux-gnu/4.8/../../../i386-linux-gnu/crti.o
 .rel.text.dtls_security_params_free_other
                0x000000000000711c        0x8 /usr/lib/gcc/i686-linux-gnu/4.8/../../../i386-linux-gnu/crti.o
 .rel.text.dtls_prng
                0x0000000000007124       0x18 /usr/lib/gcc/i686-linux-gnu/4.8/../../../i386-linux-gnu/crti.o
 .rel.text.malloc_context
                0x000000000000713c        0x8 /usr/lib/gcc/i686-linux-gnu/4.8/../../../i386-linux-gnu/crti.o
 .rel.text.dtls_init
                0x0000000000007144       0x20 /usr/lib/gcc/i686-linux-gnu/4.8/../../../i386-linux-gnu/crti.o
 .rel.text.dtls_get_peer
                0x0000000000007164       0x18 /usr/lib/gcc/i686-linux-gnu/4.8/../../../i386-linux-gnu/crti.o
 .rel.text.dtls_add_peer
                0x000000000000717c        0x8 /usr/lib/gcc/i686-linux-gnu/4.8/../../../i386-linux-gnu/crti.o
 .rel.text.dtls_write
                0x0000000000007184       0x20 /usr/lib/gcc/i686-linux-gnu/4.8/../../../i386-linux-gnu/crti.o
 .rel.text.dtls_create_cookie
                0x00000000000071a4       0x40 /usr/lib/gcc/i686-linux-gnu/4.8/../../../i386-linux-gnu/crti.o
 .rel.text.dtls_set_record_header
                0x00000000000071e4       0x10 /usr/lib/gcc/i686-linux-gnu/4.8/../../../i386-linux-gnu/crti.o
 .rel.text.dtls_set_handshake_header
                0x00000000000071f4        0x8 /usr/lib/gcc/i686-linux-gnu/4.8/../../../i386-linux-gnu/crti.o
 .rel.text.dtls_debug_keyblock
                0x00000000000071fc       0x70 /usr/lib/gcc/i686-linux-gnu/4.8/../../../i386-linux-gnu/crti.o
 .rel.text.dtls_handshake_type_to_name
                0x000000000000726c       0x68 /usr/lib/gcc/i686-linux-gnu/4.8/../../../i386-linux-gnu/crti.o
 .rel.text.calculate_key_block
                0x00000000000072d4       0xb8 /usr/lib/gcc/i686-linux-gnu/4.8/../../../i386-linux-gnu/crti.o
 .rel.text.dtls_check_tls_extension
                0x000000000000738c       0x30 /usr/lib/gcc/i686-linux-gnu/4.8/../../../i386-linux-gnu/crti.o
 .rel.text.dtls_update_parameters
                0x00000000000073bc       0x48 /usr/lib/gcc/i686-linux-gnu/4.8/../../../i386-linux-gnu/crti.o
 .rel.text.check_client_keyexchange
                0x0000000000007404       0x38 /usr/lib/gcc/i686-linux-gnu/4.8/../../../i386-linux-gnu/crti.o
 .rel.text.update_hs_hash
                0x000000000000743c       0x10 /usr/lib/gcc/i686-linux-gnu/4.8/../../../i386-linux-gnu/crti.o
 .rel.text.copy_hs_hash
                0x000000000000744c        0x8 /usr/lib/gcc/i686-linux-gnu/4.8/../../../i386-linux-gnu/crti.o
 .rel.text.clear_hs_hash
                0x0000000000007454       0x20 /usr/lib/gcc/i686-linux-gnu/4.8/../../../i386-linux-gnu/crti.o
 .rel.text.check_finished
                0x0000000000007474       0x58 /usr/lib/gcc/i686-linux-gnu/4.8/../../../i386-linux-gnu/crti.o
 .rel.text.dtls_prepare_record
                0x00000000000074cc      0x130 /usr/lib/gcc/i686-linux-gnu/4.8/../../../i386-linux-gnu/crti.o
 .rel.text.dtls_send_handshake_msg_hash
                0x00000000000075fc       0x18 /usr/lib/gcc/i686-linux-gnu/4.8/../../../i386-linux-gnu/crti.o
 .rel.text.dtls_encrypt_data
                0x0000000000007614       0x20 /usr/lib/gcc/i686-linux-gnu/4.8/../../../i386-linux-gnu/crti.o
 .rel.text.dtls_encrypt_x
                0x0000000000007634       0x10 /usr/lib/gcc/i686-linux-gnu/4.8/../../../i386-linux-gnu/crti.o
 .rel.text.dtls_prepare_record_x
                0x0000000000007644       0x80 /usr/lib/gcc/i686-linux-gnu/4.8/../../../i386-linux-gnu/crti.o
 .rel.text.dtls_send_multi
                0x00000000000076c4       0x98 /usr/lib/gcc/i686-linux-gnu/4.8/../../../i386-linux-gnu/crti.o
 .rel.text.dtls_close
                0x000000000000775c       0x30 /usr/lib/gcc/i686-linux-gnu/4.8/../../../i386-linux-gnu/crti.o
 .rel.text.dtls_destroy_peer
                0x000000000000778c       0x28 /usr/lib/gcc/i686-linux-gnu/4.8/../../../i386-linux-gnu/crti.o
 .rel.text.dtls_verify_peer
                0x00000000000077b4       0xa0 /usr/lib/gcc/i686-linux-gnu/4.8/../../../i386-linux-gnu/crti.o
 .rel.text.dtls_send_server_hello
                0x0000000000007854       0x30 /usr/lib/gcc/i686-linux-gnu/4.8/../../../i386-linux-gnu/crti.o
 .rel.text.dtls_send_server_key_exchange_psk
                0x0000000000007884       0x40 /usr/lib/gcc/i686-linux-gnu/4.8/../../../i386-linux-gnu/crti.o
 .rel.text.dtls_send_server_hello_msgs
                0x00000000000078c4       0x48 /usr/lib/gcc/i686-linux-gnu/4.8/../../../i386-linux-gnu/crti.o
 .rel.text.dtls_send_client_key_exchange
                0x000000000000790c       0x60 /usr/lib/gcc/i686-linux-gnu/4.8/../../../i386-linux-gnu/crti.o
 .rel.text.dtls_send_finished
                0x000000000000796c       0x38 /usr/lib/gcc/i686-linux-gnu/4.8/../../../i386-linux-gnu/crti.o
 .rel.text.dtls_send_client_hello
                0x00000000000079a4       0x50 /usr/lib/gcc/i686-linux-gnu/4.8/../../../i386-linux-gnu/crti.o
 .rel.text.check_server_hello
                0x00000000000079f4       0x38 /usr/lib/gcc/i686-linux-gnu/4.8/../../../i386-linux-gnu/crti.o
 .rel.text.check_server_hello_verify_request
                0x0000000000007a2c       0x10 /usr/lib/gcc/i686-linux-gnu/4.8/../../../i386-linux-gnu/crti.o
 .rel.text.check_server_key_exchange_psk
                0x0000000000007a3c       0x48 /usr/lib/gcc/i686-linux-gnu/4.8/../../../i386-linux-gnu/crti.o
 .rel.text.check_certificate_request
                0x0000000000007a84       0x60 /usr/lib/gcc/i686-linux-gnu/4.8/../../../i386-linux-gnu/crti.o
 .rel.text.check_server_hellodone
                0x0000000000007ae4       0x28 /usr/lib/gcc/i686-linux-gnu/4.8/../../../i386-linux-gnu/crti.o
 .rel.text.decrypt_verify
                0x0000000000007b0c       0xc8 /usr/lib/gcc/i686-linux-gnu/4.8/../../../i386-linux-gnu/crti.o
 .rel.text.dtls_renegotiate
                0x0000000000007bd4       0x20 /usr/lib/gcc/i686-linux-gnu/4.8/../../../i386-linux-gnu/crti.o
 .rel.text.handle_handshake_msg
                0x0000000000007bf4      0x150 /usr/lib/gcc/i686-linux-gnu/4.8/../../../i386-linux-gnu/crti.o
 .rel.text.handle_handshake
                0x0000000000007d44       0xe8 /usr/lib/gcc/i686-linux-gnu/4.8/../../../i386-linux-gnu/crti.o
 .rel.text.handle_ccs
                0x0000000000007e2c       0x10 /usr/lib/gcc/i686-linux-gnu/4.8/../../../i386-linux-gnu/crti.o
 .rel.text.handle_alert
                0x0000000000007e3c       0x48 /usr/lib/gcc/i686-linux-gnu/4.8/../../../i386-linux-gnu/crti.o
 .rel.text.dtls_alert_send_from_err
                0x0000000000007e84       0x10 /usr/lib/gcc/i686-linux-gnu/4.8/../../../i386-linux-gnu/crti.o
 .rel.text.dtls_handle_message
                0x0000000000007e94      0x180 /usr/lib/gcc/i686-linux-gnu/4.8/../../../i386-linux-gnu/crti.o
 .rel.text.dtls_new_context
                0x0000000000008014       0x70 /usr/lib/gcc/i686-linux-gnu/4.8/../../../i386-linux-gnu/crti.o
 .rel.text.dtls_free_context
                0x0000000000008084       0x20 /usr/lib/gcc/i686-linux-gnu/4.8/../../../i386-linux-gnu/crti.o
 .rel.text.dtls_connect_peer
                0x00000000000080a4       0x50 /usr/lib/gcc/i686-linux-gnu/4.8/../../../i386-linux-gnu/crti.o
 .rel.text.dtls_connect
                0x00000000000080f4       0x38 /usr/lib/gcc/i686-linux-gnu/4.8/../../../i386-linux-gnu/crti.o
 .rel.text.dtls_retransmit
                0x000000000000812c       0x98 /usr/lib/gcc/i686-linux-gnu/4.8/../../../i386-linux-gnu/crti.o
 .rel.text.dtls_stop_retransmission
                0x00000000000081c4       0x30 /usr/lib/gcc/i686-linux-gnu/4.8/../../../i386-linux-gnu/crti.o
 .rel.text.dtls_check_retransmit
                0x00000000000081f4       0x20 /usr/lib/gcc/i686-linux-gnu/4.8/../../../i386-linux-gnu/crti.o
 .rel.text.process_thread_dtls_retransmit_process
                0x0000000000008214       0xb0 /usr/lib/gcc/i686-linux-gnu/4.8/../../../i386-linux-gnu/crti.o
 .rel.text.dtls_cipher_context_get
                0x00000000000082c4        0x8 /usr/lib/gcc/i686-linux-gnu/4.8/../../../i386-linux-gnu/crti.o
 .rel.text.dtls_crypto_init
                0x00000000000082cc       0x20 /usr/lib/gcc/i686-linux-gnu/4.8/../../../i386-linux-gnu/crti.o
 .rel.text.dtls_handshake_malloc
                0x00000000000082ec       0x10 /usr/lib/gcc/i686-linux-gnu/4.8/../../../i386-linux-gnu/crti.o
 .rel.text.dtls_handshake_dealloc
                0x00000000000082fc       0x10 /usr/lib/gcc/i686-linux-gnu/4.8/../../../i386-linux-gnu/crti.o
 .rel.text.dtls_security_malloc
                0x000000000000830c       0x10 /usr/lib/gcc/i686-linux-gnu/4.8/../../../i386-linux-gnu/crti.o
 .rel.text.dtls_security_dealloc
                0x000000000000831c       0x10 /usr/lib/gcc/i686-linux-gnu/4.8/../../../i386-linux-gnu/crti.o
 .rel.text.dtls_handshake_new
                0x000000000000832c       0x28 /usr/lib/gcc/i686-linux-gnu/4.8/../../../i386-linux-gnu/crti.o
 .rel.text.dtls_handshake_free
                0x0000000000008354        0x8 /usr/lib/gcc/i686-linux-gnu/4.8/../../../i386-linux-gnu/crti.o
 .rel.text.dtls_security_new
                0x000000000000835c       0x18 /usr/lib/gcc/i686-linux-gnu/4.8/../../../i386-linux-gnu/crti.o
 .rel.text.dtls_p_hash
                0x0000000000008374       0xd0 /usr/lib/gcc/i686-linux-gnu/4.8/../../../i386-linux-gnu/crti.o
 .rel.text.dtls_prf
                0x0000000000008444       0x10 /usr/lib/gcc/i686-linux-gnu/4.8/../../../i386-linux-gnu/crti.o
 .rel.text.dtls_prf_custom
                0x0000000000008454       0x18 /usr/lib/gcc/i686-linux-gnu/4.8/../../../i386-linux-gnu/crti.o
 .rel.text.dtls_mac
                0x000000000000846c       0x38 /usr/lib/gcc/i686-linux-gnu/4.8/../../../i386-linux-gnu/crti.o
 .rel.text.dtls_ccm_encrypt
                0x00000000000084a4       0x18 /usr/lib/gcc/i686-linux-gnu/4.8/../../../i386-linux-gnu/crti.o
 .rel.text.dtls_ccm_decrypt
                0x00000000000084bc       0x18 /usr/lib/gcc/i686-linux-gnu/4.8/../../../i386-linux-gnu/crti.o
 .rel.text.dtls_psk_pre_master_secret
                0x00000000000084d4       0x18 /usr/lib/gcc/i686-linux-gnu/4.8/../../../i386-linux-gnu/crti.o
 .rel.text.dtls_encrypt
                0x00000000000084ec       0x20 /usr/lib/gcc/i686-linux-gnu/4.8/../../../i386-linux-gnu/crti.o
 .rel.text.dtls_decrypt
                0x000000000000850c       0x20 /usr/lib/gcc/i686-linux-gnu/4.8/../../../i386-linux-gnu/crti.o
 .rel.text.dtls_hmac_context_new
                0x000000000000852c       0x10 /usr/lib/gcc/i686-linux-gnu/4.8/../../../i386-linux-gnu/crti.o
 .rel.text.dtls_hmac_context_free
                0x000000000000853c       0x10 /usr/lib/gcc/i686-linux-gnu/4.8/../../../i386-linux-gnu/crti.o
 .rel.text.dtls_hmac_storage_init
                0x000000000000854c       0x10 /usr/lib/gcc/i686-linux-gnu/4.8/../../../i386-linux-gnu/crti.o
 .rel.text.dtls_hmac_update
                0x000000000000855c       0x10 /usr/lib/gcc/i686-linux-gnu/4.8/../../../i386-linux-gnu/crti.o
 .rel.text.dtls_hmac_new
                0x000000000000856c        0x8 /usr/lib/gcc/i686-linux-gnu/4.8/../../../i386-linux-gnu/crti.o
 .rel.text.dtls_hmac_init
                0x0000000000008574       0x28 /usr/lib/gcc/i686-linux-gnu/4.8/../../../i386-linux-gnu/crti.o
 .rel.text.dtls_hmac_finalize
                0x000000000000859c       0x28 /usr/lib/gcc/i686-linux-gnu/4.8/../../../i386-linux-gnu/crti.o
 .rel.text.netq_malloc_node
                0x00000000000085c4       0x10 /usr/lib/gcc/i686-linux-gnu/4.8/../../../i386-linux-gnu/crti.o
 .rel.text.netq_free_node
                0x00000000000085d4       0x10 /usr/lib/gcc/i686-linux-gnu/4.8/../../../i386-linux-gnu/crti.o
 .rel.text.netq_init
                0x00000000000085e4       0x10 /usr/lib/gcc/i686-linux-gnu/4.8/../../../i386-linux-gnu/crti.o
 .rel.text.netq_insert_node
                0x00000000000085f4       0x48 /usr/lib/gcc/i686-linux-gnu/4.8/../../../i386-linux-gnu/crti.o
 .rel.text.netq_head
                0x000000000000863c        0x8 /usr/lib/gcc/i686-linux-gnu/4.8/../../../i386-linux-gnu/crti.o
 .rel.text.netq_next
                0x0000000000008644        0x8 /usr/lib/gcc/i686-linux-gnu/4.8/../../../i386-linux-gnu/crti.o
 .rel.text.netq_remove
                0x000000000000864c        0x8 /usr/lib/gcc/i686-linux-gnu/4.8/../../../i386-linux-gnu/crti.o
 .rel.text.netq_pop_first
                0x0000000000008654        0x8 /usr/lib/gcc/i686-linux-gnu/4.8/../../../i386-linux-gnu/crti.o
 .rel.text.netq_node_new
                0x000000000000865c       0x18 /usr/lib/gcc/i686-linux-gnu/4.8/../../../i386-linux-gnu/crti.o
 .rel.text.netq_delete_all
                0x0000000000008674        0x8 /usr/lib/gcc/i686-linux-gnu/4.8/../../../i386-linux-gnu/crti.o
 .rel.text.dtls_clock_init
                0x000000000000867c       0x10 /usr/lib/gcc/i686-linux-gnu/4.8/../../../i386-linux-gnu/crti.o
 .rel.text.dtls_ticks
                0x000000000000868c        0x8 /usr/lib/gcc/i686-linux-gnu/4.8/../../../i386-linux-gnu/crti.o
 .rel.text.peer_init
                0x0000000000008694       0x10 /usr/lib/gcc/i686-linux-gnu/4.8/../../../i386-linux-gnu/crti.o
 .rel.text.dtls_malloc_peer
                0x00000000000086a4       0x10 /usr/lib/gcc/i686-linux-gnu/4.8/../../../i386-linux-gnu/crti.o
 .rel.text.dtls_free_peer
                0x00000000000086b4       0x28 /usr/lib/gcc/i686-linux-gnu/4.8/../../../i386-linux-gnu/crti.o
 .rel.text.dtls_new_peer
                0x00000000000086dc       0x30 /usr/lib/gcc/i686-linux-gnu/4.8/../../../i386-linux-gnu/crti.o
 .rel.text.dtls_session_init
                0x000000000000870c       0x18 /usr/lib/gcc/i686-linux-gnu/4.8/../../../i386-linux-gnu/crti.o
 .rel.text.dtls_session_equals
                0x0000000000008724       0x28 /usr/lib/gcc/i686-linux-gnu/4.8/../../../i386-linux-gnu/crti.o
 .rel.text.rijndaelKeySetupEnc
                0x000000000000874c       0x98 /usr/lib/gcc/i686-linux-gnu/4.8/../../../i386-linux-gnu/crti.o
 .rel.text.rijndaelEncrypt
                0x00000000000087e4      0x180 /usr/lib/gcc/i686-linux-gnu/4.8/../../../i386-linux-gnu/crti.o
 .rel.text.rijndael_set_key_enc_only
                0x0000000000008964        0x8 /usr/lib/gcc/i686-linux-gnu/4.8/../../../i386-linux-gnu/crti.o
 .rel.text.rijndael_encrypt
                0x000000000000896c        0x8 /usr/lib/gcc/i686-linux-gnu/4.8/../../../i386-linux-gnu/crti.o
 .rel.text.block0
                0x0000000000008974        0x8 /usr/lib/gcc/i686-linux-gnu/4.8/../../../i386-linux-gnu/crti.o
 .rel.text.add_auth_data
                0x000000000000897c       0x50 /usr/lib/gcc/i686-linux-gnu/4.8/../../../i386-linux-gnu/crti.o
 .rel.text.encrypt
                0x00000000000089cc       0x38 /usr/lib/gcc/i686-linux-gnu/4.8/../../../i386-linux-gnu/crti.o
 .rel.text.mac  0x0000000000008a04        0x8 /usr/lib/gcc/i686-linux-gnu/4.8/../../../i386-linux-gnu/crti.o
 .rel.text.dtls_ccm_encrypt_message
                0x0000000000008a0c       0x28 /usr/lib/gcc/i686-linux-gnu/4.8/../../../i386-linux-gnu/crti.o
 .rel.text.dtls_ccm_decrypt_message
                0x0000000000008a34       0x28 /usr/lib/gcc/i686-linux-gnu/4.8/../../../i386-linux-gnu/crti.o
 .rel.text.SHA256_Init
                0x0000000000008a5c       0x18 /usr/lib/gcc/i686-linux-gnu/4.8/../../../i386-linux-gnu/crti.o
 .rel.text.SHA256_Transform
                0x0000000000008a74       0x10 /usr/lib/gcc/i686-linux-gnu/4.8/../../../i386-linux-gnu/crti.o
 .rel.text.SHA256_Update
                0x0000000000008a84       0x38 /usr/lib/gcc/i686-linux-gnu/4.8/../../../i386-linux-gnu/crti.o
 .rel.text.SHA256_Final
                0x0000000000008abc       0x48 /usr/lib/gcc/i686-linux-gnu/4.8/../../../i386-linux-gnu/crti.o
 .rel.text.SHA256_End
                0x0000000000008b04       0x40 /usr/lib/gcc/i686-linux-gnu/4.8/../../../i386-linux-gnu/crti.o
 .rel.text.SHA256_Data
                0x0000000000008b44       0x20 /usr/lib/gcc/i686-linux-gnu/4.8/../../../i386-linux-gnu/crti.o
 .rel.text.dtls_package_name
                0x0000000000008b64        0x8 /usr/lib/gcc/i686-linux-gnu/4.8/../../../i386-linux-gnu/crti.o
 .rel.text.dtls_package_version
                0x0000000000008b6c        0x8 /usr/lib/gcc/i686-linux-gnu/4.8/../../../i386-linux-gnu/crti.o
 .rel.text.dtls_get_log_level
                0x0000000000008b74        0x8 /usr/lib/gcc/i686-linux-gnu/4.8/../../../i386-linux-gnu/crti.o
 .rel.text.dtls_set_log_level
                0x0000000000008b7c        0x8 /usr/lib/gcc/i686-linux-gnu/4.8/../../../i386-linux-gnu/crti.o
 .rel.text.dsrv_print_addr
                0x0000000000008b84       0x20 /usr/lib/gcc/i686-linux-gnu/4.8/../../../i386-linux-gnu/crti.o
 .rel.text.hexdump
                0x0000000000008ba4       0x40 /usr/lib/gcc/i686-linux-gnu/4.8/../../../i386-linux-gnu/crti.o
 .rel.text.dump
                0x0000000000008be4       0x10 /usr/lib/gcc/i686-linux-gnu/4.8/../../../i386-linux-gnu/crti.o
 .rel.text.dtls_dsrv_log_addr
                0x0000000000008bf4       0x18 /usr/lib/gcc/i686-linux-gnu/4.8/../../../i386-linux-gnu/crti.o
 .rel.text.dtls_dsrv_hexdump_log
                0x0000000000008c0c       0xc8 /usr/lib/gcc/i686-linux-gnu/4.8/../../../i386-linux-gnu/crti.o
 .rel.text.doActionsBeforeTick
                0x0000000000008cd4       0x10 /usr/lib/gcc/i686-linux-gnu/4.8/../../../i386-linux-gnu/crti.o
 .rel.text.doActionsAfterTick
                0x0000000000008ce4       0x10 /usr/lib/gcc/i686-linux-gnu/4.8/../../../i386-linux-gnu/crti.o
 .rel.text.cooja_mt_init
                0x0000000000008cf4        0x8 /usr/lib/gcc/i686-linux-gnu/4.8/../../../i386-linux-gnu/crti.o
 .rel.text.cooja_mt_remove
                0x0000000000008cfc        0x8 /usr/lib/gcc/i686-linux-gnu/4.8/../../../i386-linux-gnu/crti.o
 .rel.text.cooja_mt_start
                0x0000000000008d04        0x8 /usr/lib/gcc/i686-linux-gnu/4.8/../../../i386-linux-gnu/crti.o
 .rel.text.cooja_mt_exec
                0x0000000000008d0c       0x10 /usr/lib/gcc/i686-linux-gnu/4.8/../../../i386-linux-gnu/crti.o
 .rel.text.cooja_mt_exit
                0x0000000000008d1c       0x18 /usr/lib/gcc/i686-linux-gnu/4.8/../../../i386-linux-gnu/crti.o
 .rel.text.cooja_mt_yield
                0x0000000000008d34       0x18 /usr/lib/gcc/i686-linux-gnu/4.8/../../../i386-linux-gnu/crti.o
 .rel.text.cooja_mtarch_start
                0x0000000000008d4c        0x8 /usr/lib/gcc/i686-linux-gnu/4.8/../../../i386-linux-gnu/crti.o
 .rel.text.cooja_sw
                0x0000000000008d54        0x8 /usr/lib/gcc/i686-linux-gnu/4.8/../../../i386-linux-gnu/crti.o
 .rel.text.cooja_mtarch_exec
                0x0000000000008d5c       0x18 /usr/lib/gcc/i686-linux-gnu/4.8/../../../i386-linux-gnu/crti.o
 .rel.text.cooja_mtarch_yield
                0x0000000000008d74        0x8 /usr/lib/gcc/i686-linux-gnu/4.8/../../../i386-linux-gnu/crti.o
 .rel.text.rtimer_arch_init
                0x0000000000008d7c       0x18 /usr/lib/gcc/i686-linux-gnu/4.8/../../../i386-linux-gnu/crti.o
 .rel.text.rtimer_arch_schedule
                0x0000000000008d94       0x18 /usr/lib/gcc/i686-linux-gnu/4.8/../../../i386-linux-gnu/crti.o
 .rel.text.rtimer_arch_next
                0x0000000000008dac       0x10 /usr/lib/gcc/i686-linux-gnu/4.8/../../../i386-linux-gnu/crti.o
 .rel.text.rtimer_arch_pending
                0x0000000000008dbc        0x8 /usr/lib/gcc/i686-linux-gnu/4.8/../../../i386-linux-gnu/crti.o
 .rel.text.rtimer_arch_check
                0x0000000000008dc4       0x30 /usr/lib/gcc/i686-linux-gnu/4.8/../../../i386-linux-gnu/crti.o
 .rel.text.rtimer_arch_now
                0x0000000000008df4       0x10 /usr/lib/gcc/i686-linux-gnu/4.8/../../../i386-linux-gnu/crti.o
 .rel.text.beep_alarm
                0x0000000000008e04        0x8 /usr/lib/gcc/i686-linux-gnu/4.8/../../../i386-linux-gnu/crti.o
 .rel.text.beep_beep
                0x0000000000008e0c        0x8 /usr/lib/gcc/i686-linux-gnu/4.8/../../../i386-linux-gnu/crti.o
 .rel.text.beep
                0x0000000000008e14        0x8 /usr/lib/gcc/i686-linux-gnu/4.8/../../../i386-linux-gnu/crti.o
 .rel.text.beep_down
                0x0000000000008e1c        0x8 /usr/lib/gcc/i686-linux-gnu/4.8/../../../i386-linux-gnu/crti.o
 .rel.text.beep_on
                0x0000000000008e24        0x8 /usr/lib/gcc/i686-linux-gnu/4.8/../../../i386-linux-gnu/crti.o
 .rel.text.beep_off
                0x0000000000008e2c        0x8 /usr/lib/gcc/i686-linux-gnu/4.8/../../../i386-linux-gnu/crti.o
 .rel.text.beep_spinup
                0x0000000000008e34        0x8 /usr/lib/gcc/i686-linux-gnu/4.8/../../../i386-linux-gnu/crti.o
 .rel.text.beep_quick
                0x0000000000008e3c        0x8 /usr/lib/gcc/i686-linux-gnu/4.8/../../../i386-linux-gnu/crti.o
 .rel.text.beep_long
                0x0000000000008e44        0x8 /usr/lib/gcc/i686-linux-gnu/4.8/../../../i386-linux-gnu/crti.o
 .rel.text.value
                0x0000000000008e4c       0x28 /usr/lib/gcc/i686-linux-gnu/4.8/../../../i386-linux-gnu/crti.o
 .rel.text.configure
                0x0000000000008e74       0x40 /usr/lib/gcc/i686-linux-gnu/4.8/../../../i386-linux-gnu/crti.o
 .rel.text.status
                0x0000000000008eb4       0x18 /usr/lib/gcc/i686-linux-gnu/4.8/../../../i386-linux-gnu/crti.o
 .rel.text.doInterfaceActionsBeforeTick
                0x0000000000008ecc      0x188 /usr/lib/gcc/i686-linux-gnu/4.8/../../../i386-linux-gnu/crti.o
 .rel.text.leds_arch_init
                0x0000000000009054        0x8 /usr/lib/gcc/i686-linux-gnu/4.8/../../../i386-linux-gnu/crti.o
 .rel.text.leds_arch_get
                0x000000000000905c        0x8 /usr/lib/gcc/i686-linux-gnu/4.8/../../../i386-linux-gnu/crti.o
 .rel.text.leds_arch_set
                0x0000000000009064       0x10 /usr/lib/gcc/i686-linux-gnu/4.8/../../../i386-linux-gnu/crti.o
 .rel.text.rs232_set_input
                0x0000000000009074        0x8 /usr/lib/gcc/i686-linux-gnu/4.8/../../../i386-linux-gnu/crti.o
 .rel.text.rs232_send
                0x000000000000907c       0x10 /usr/lib/gcc/i686-linux-gnu/4.8/../../../i386-linux-gnu/crti.o
 .rel.text.rs232_print
                0x000000000000908c       0x10 /usr/lib/gcc/i686-linux-gnu/4.8/../../../i386-linux-gnu/crti.o
 .rel.text.slip_arch_writeb
                0x000000000000909c        0x8 /usr/lib/gcc/i686-linux-gnu/4.8/../../../i386-linux-gnu/crti.o
 .rel.text.clock_time
                0x00000000000090a4        0x8 /usr/lib/gcc/i686-linux-gnu/4.8/../../../i386-linux-gnu/crti.o
 .rel.text.clock_seconds
                0x00000000000090ac        0x8 /usr/lib/gcc/i686-linux-gnu/4.8/../../../i386-linux-gnu/crti.o
 .rel.text.simlog_char
                0x00000000000090b4       0x30 /usr/lib/gcc/i686-linux-gnu/4.8/../../../i386-linux-gnu/crti.o
 .rel.text.simlog
                0x00000000000090e4       0x50 /usr/lib/gcc/i686-linux-gnu/4.8/../../../i386-linux-gnu/crti.o
 .rel.text.log_message
                0x0000000000009134       0x10 /usr/lib/gcc/i686-linux-gnu/4.8/../../../i386-linux-gnu/crti.o
 .rel.text.log_set_putchar_with_slip
                0x0000000000009144        0x8 /usr/lib/gcc/i686-linux-gnu/4.8/../../../i386-linux-gnu/crti.o
 .rel.text.putchar
                0x000000000000914c       0x50 /usr/lib/gcc/i686-linux-gnu/4.8/../../../i386-linux-gnu/crti.o
 .rel.text.puts
                0x000000000000919c       0x10 /usr/lib/gcc/i686-linux-gnu/4.8/../../../i386-linux-gnu/crti.o
 .rel.text.printf
                0x00000000000091ac       0x20 /usr/lib/gcc/i686-linux-gnu/4.8/../../../i386-linux-gnu/crti.o
 .rel.text.cfs_open
                0x00000000000091cc       0x48 /usr/lib/gcc/i686-linux-gnu/4.8/../../../i386-linux-gnu/crti.o
 .rel.text.cfs_close
                0x0000000000009214        0x8 /usr/lib/gcc/i686-linux-gnu/4.8/../../../i386-linux-gnu/crti.o
 .rel.text.cfs_read
                0x000000000000921c       0x70 /usr/lib/gcc/i686-linux-gnu/4.8/../../../i386-linux-gnu/crti.o
 .rel.text.cfs_write
                0x000000000000928c       0xb0 /usr/lib/gcc/i686-linux-gnu/4.8/../../../i386-linux-gnu/crti.o
 .rel.text.cfs_seek
                0x000000000000933c       0x68 /usr/lib/gcc/i686-linux-gnu/4.8/../../../i386-linux-gnu/crti.o
 .rel.text.cfs_remove
                0x00000000000093a4       0x10 /usr/lib/gcc/i686-linux-gnu/4.8/../../../i386-linux-gnu/crti.o
 .rel.text.packetbuf_set_attr
                0x00000000000093b4       0x30 /usr/lib/gcc/i686-linux-gnu/4.8/../../../i386-linux-gnu/crti.o
 .rel.text.set_send_on_cca
                0x00000000000093e4        0x8 /usr/lib/gcc/i686-linux-gnu/4.8/../../../i386-linux-gnu/crti.o
 .rel.text.set_frame_filtering
                0x00000000000093ec        0x8 /usr/lib/gcc/i686-linux-gnu/4.8/../../../i386-linux-gnu/crti.o
 .rel.text.set_auto_ack
                0x00000000000093f4        0x8 /usr/lib/gcc/i686-linux-gnu/4.8/../../../i386-linux-gnu/crti.o
 .rel.text.set_poll_mode
                0x00000000000093fc        0x8 /usr/lib/gcc/i686-linux-gnu/4.8/../../../i386-linux-gnu/crti.o
 .rel.text.radio_set_channel
                0x0000000000009404        0x8 /usr/lib/gcc/i686-linux-gnu/4.8/../../../i386-linux-gnu/crti.o
 .rel.text.radio_set_txpower
                0x000000000000940c        0x8 /usr/lib/gcc/i686-linux-gnu/4.8/../../../i386-linux-gnu/crti.o
 .rel.text.radio_signal_strength_last
                0x0000000000009414        0x8 /usr/lib/gcc/i686-linux-gnu/4.8/../../../i386-linux-gnu/crti.o
 .rel.text.radio_signal_strength_current
                0x000000000000941c        0x8 /usr/lib/gcc/i686-linux-gnu/4.8/../../../i386-linux-gnu/crti.o
 .rel.text.radio_LQI
                0x0000000000009424        0x8 /usr/lib/gcc/i686-linux-gnu/4.8/../../../i386-linux-gnu/crti.o
 .rel.text.radio_on
                0x000000000000942c        0x8 /usr/lib/gcc/i686-linux-gnu/4.8/../../../i386-linux-gnu/crti.o
 .rel.text.radio_off
                0x0000000000009434        0x8 /usr/lib/gcc/i686-linux-gnu/4.8/../../../i386-linux-gnu/crti.o
 .rel.text.radio_read
                0x000000000000943c       0x68 /usr/lib/gcc/i686-linux-gnu/4.8/../../../i386-linux-gnu/crti.o
 .rel.text.channel_clear
                0x00000000000094a4        0x8 /usr/lib/gcc/i686-linux-gnu/4.8/../../../i386-linux-gnu/crti.o
 .rel.text.radio_send
                0x00000000000094ac       0x78 /usr/lib/gcc/i686-linux-gnu/4.8/../../../i386-linux-gnu/crti.o
 .rel.text.prepare_packet
                0x0000000000009524        0x8 /usr/lib/gcc/i686-linux-gnu/4.8/../../../i386-linux-gnu/crti.o
 .rel.text.transmit_packet
                0x000000000000952c       0x10 /usr/lib/gcc/i686-linux-gnu/4.8/../../../i386-linux-gnu/crti.o
 .rel.text.receiving_packet
                0x000000000000953c        0x8 /usr/lib/gcc/i686-linux-gnu/4.8/../../../i386-linux-gnu/crti.o
 .rel.text.pending_packet
                0x0000000000009544       0x10 /usr/lib/gcc/i686-linux-gnu/4.8/../../../i386-linux-gnu/crti.o
 .rel.text.process_thread_cooja_radio_process
                0x0000000000009554       0x28 /usr/lib/gcc/i686-linux-gnu/4.8/../../../i386-linux-gnu/crti.o
 .rel.text.init
                0x000000000000957c       0x40 /usr/lib/gcc/i686-linux-gnu/4.8/../../../i386-linux-gnu/crti.o
 .rel.text.get_value
                0x00000000000095bc       0x30 /usr/lib/gcc/i686-linux-gnu/4.8/../../../i386-linux-gnu/crti.o
 .rel.text.set_value
                0x00000000000095ec        0x8 /usr/lib/gcc/i686-linux-gnu/4.8/../../../i386-linux-gnu/crti.o
 .rel.text.get_object
                0x00000000000095f4       0x10 /usr/lib/gcc/i686-linux-gnu/4.8/../../../i386-linux-gnu/crti.o
 .rel.text.eeprom_read
                0x0000000000009604       0x28 /usr/lib/gcc/i686-linux-gnu/4.8/../../../i386-linux-gnu/crti.o
 .rel.text.eeprom_write
                0x000000000000962c       0x28 /usr/lib/gcc/i686-linux-gnu/4.8/../../../i386-linux-gnu/crti.o
 .rel.text.random_init
                0x0000000000009654        0x8 /usr/lib/gcc/i686-linux-gnu/4.8/../../../i386-linux-gnu/crti.o
 .rel.text.random_rand
                0x000000000000965c        0x8 /usr/lib/gcc/i686-linux-gnu/4.8/../../../i386-linux-gnu/crti.o
 .rel.text.get_sensor_index
                0x0000000000009664       0x10 /usr/lib/gcc/i686-linux-gnu/4.8/../../../i386-linux-gnu/crti.o
 .rel.text.sensors_first
                0x0000000000009674        0x8 /usr/lib/gcc/i686-linux-gnu/4.8/../../../i386-linux-gnu/crti.o
 .rel.text.sensors_next
                0x000000000000967c        0x8 /usr/lib/gcc/i686-linux-gnu/4.8/../../../i386-linux-gnu/crti.o
 .rel.text.sensors_changed
                0x0000000000009684       0x20 /usr/lib/gcc/i686-linux-gnu/4.8/../../../i386-linux-gnu/crti.o
 .rel.text.sensors_find
                0x00000000000096a4       0x28 /usr/lib/gcc/i686-linux-gnu/4.8/../../../i386-linux-gnu/crti.o
 .rel.text.process_thread_sensors_process
                0x00000000000096cc      0x108 /usr/lib/gcc/i686-linux-gnu/4.8/../../../i386-linux-gnu/crti.o
 .rel.text.autostart_start
                0x00000000000097d4        0x8 /usr/lib/gcc/i686-linux-gnu/4.8/../../../i386-linux-gnu/crti.o
 .rel.text.autostart_exit
                0x00000000000097dc        0x8 /usr/lib/gcc/i686-linux-gnu/4.8/../../../i386-linux-gnu/crti.o
 .rel.text.process_thread_ctimer_process
                0x00000000000097e4       0x58 /usr/lib/gcc/i686-linux-gnu/4.8/../../../i386-linux-gnu/crti.o
 .rel.text.ctimer_init
                0x000000000000983c       0x28 /usr/lib/gcc/i686-linux-gnu/4.8/../../../i386-linux-gnu/crti.o
 .rel.text.ctimer_set
                0x0000000000009864       0x10 /usr/lib/gcc/i686-linux-gnu/4.8/../../../i386-linux-gnu/crti.o
 .rel.text.ctimer_set_with_process
                0x0000000000009874       0x40 /usr/lib/gcc/i686-linux-gnu/4.8/../../../i386-linux-gnu/crti.o
 .rel.text.ctimer_reset
                0x00000000000098b4       0x40 /usr/lib/gcc/i686-linux-gnu/4.8/../../../i386-linux-gnu/crti.o
 .rel.text.ctimer_restart
                0x00000000000098f4       0x40 /usr/lib/gcc/i686-linux-gnu/4.8/../../../i386-linux-gnu/crti.o
 .rel.text.ctimer_stop
                0x0000000000009934       0x20 /usr/lib/gcc/i686-linux-gnu/4.8/../../../i386-linux-gnu/crti.o
 .rel.text.ctimer_expired
                0x0000000000009954       0x20 /usr/lib/gcc/i686-linux-gnu/4.8/../../../i386-linux-gnu/crti.o
 .rel.text.update_time
                0x0000000000009974       0x28 /usr/lib/gcc/i686-linux-gnu/4.8/../../../i386-linux-gnu/crti.o
 .rel.text.process_thread_etimer_process
                0x000000000000999c       0x60 /usr/lib/gcc/i686-linux-gnu/4.8/../../../i386-linux-gnu/crti.o
 .rel.text.etimer_request_poll
                0x00000000000099fc       0x10 /usr/lib/gcc/i686-linux-gnu/4.8/../../../i386-linux-gnu/crti.o
 .rel.text.add_timer
                0x0000000000009a0c       0x30 /usr/lib/gcc/i686-linux-gnu/4.8/../../../i386-linux-gnu/crti.o
 .rel.text.etimer_set
                0x0000000000009a3c        0x8 /usr/lib/gcc/i686-linux-gnu/4.8/../../../i386-linux-gnu/crti.o
 .rel.text.etimer_reset_with_new_interval
                0x0000000000009a44        0x8 /usr/lib/gcc/i686-linux-gnu/4.8/../../../i386-linux-gnu/crti.o
 .rel.text.etimer_reset
                0x0000000000009a4c        0x8 /usr/lib/gcc/i686-linux-gnu/4.8/../../../i386-linux-gnu/crti.o
 .rel.text.etimer_restart
                0x0000000000009a54        0x8 /usr/lib/gcc/i686-linux-gnu/4.8/../../../i386-linux-gnu/crti.o
 .rel.text.etimer_pending
                0x0000000000009a5c        0x8 /usr/lib/gcc/i686-linux-gnu/4.8/../../../i386-linux-gnu/crti.o
 .rel.text.etimer_next_expiration_time
                0x0000000000009a64       0x10 /usr/lib/gcc/i686-linux-gnu/4.8/../../../i386-linux-gnu/crti.o
 .rel.text.etimer_stop
                0x0000000000009a74       0x20 /usr/lib/gcc/i686-linux-gnu/4.8/../../../i386-linux-gnu/crti.o
 .rel.text.process_alloc_event
                0x0000000000009a94       0x10 /usr/lib/gcc/i686-linux-gnu/4.8/../../../i386-linux-gnu/crti.o
 .rel.text.process_start
                0x0000000000009aa4       0x20 /usr/lib/gcc/i686-linux-gnu/4.8/../../../i386-linux-gnu/crti.o
 .rel.text.exit_process
                0x0000000000009ac4       0x50 /usr/lib/gcc/i686-linux-gnu/4.8/../../../i386-linux-gnu/crti.o
 .rel.text.call_process
                0x0000000000009b14        0x8 /usr/lib/gcc/i686-linux-gnu/4.8/../../../i386-linux-gnu/crti.o
 .rel.text.process_exit
                0x0000000000009b1c        0x8 /usr/lib/gcc/i686-linux-gnu/4.8/../../../i386-linux-gnu/crti.o
 .rel.text.process_init
                0x0000000000009b24       0x38 /usr/lib/gcc/i686-linux-gnu/4.8/../../../i386-linux-gnu/crti.o
 .rel.text.do_poll
                0x0000000000009b5c       0x10 /usr/lib/gcc/i686-linux-gnu/4.8/../../../i386-linux-gnu/crti.o
 .rel.text.do_event
                0x0000000000009b6c       0x68 /usr/lib/gcc/i686-linux-gnu/4.8/../../../i386-linux-gnu/crti.o
 .rel.text.process_run
                0x0000000000009bd4       0x18 /usr/lib/gcc/i686-linux-gnu/4.8/../../../i386-linux-gnu/crti.o
 .rel.text.process_nevents
                0x0000000000009bec       0x10 /usr/lib/gcc/i686-linux-gnu/4.8/../../../i386-linux-gnu/crti.o
 .rel.text.process_post
                0x0000000000009bfc       0x40 /usr/lib/gcc/i686-linux-gnu/4.8/../../../i386-linux-gnu/crti.o
 .rel.text.process_post_synch
                0x0000000000009c3c       0x10 /usr/lib/gcc/i686-linux-gnu/4.8/../../../i386-linux-gnu/crti.o
 .rel.text.process_poll
                0x0000000000009c4c        0x8 /usr/lib/gcc/i686-linux-gnu/4.8/../../../i386-linux-gnu/crti.o
 .rel.text.rtimer_init
                0x0000000000009c54        0x8 /usr/lib/gcc/i686-linux-gnu/4.8/../../../i386-linux-gnu/crti.o
 .rel.text.rtimer_set
                0x0000000000009c5c       0x18 /usr/lib/gcc/i686-linux-gnu/4.8/../../../i386-linux-gnu/crti.o
 .rel.text.rtimer_run_next
                0x0000000000009c74       0x30 /usr/lib/gcc/i686-linux-gnu/4.8/../../../i386-linux-gnu/crti.o
 .rel.text.timer_set
                0x0000000000009ca4        0x8 /usr/lib/gcc/i686-linux-gnu/4.8/../../../i386-linux-gnu/crti.o
 .rel.text.timer_restart
                0x0000000000009cac        0x8 /usr/lib/gcc/i686-linux-gnu/4.8/../../../i386-linux-gnu/crti.o
 .rel.text.timer_expired
                0x0000000000009cb4        0x8 /usr/lib/gcc/i686-linux-gnu/4.8/../../../i386-linux-gnu/crti.o
 .rel.text.timer_remaining
                0x0000000000009cbc        0x8 /usr/lib/gcc/i686-linux-gnu/4.8/../../../i386-linux-gnu/crti.o
 .rel.text.serial_line_input_byte
                0x0000000000009cc4       0x48 /usr/lib/gcc/i686-linux-gnu/4.8/../../../i386-linux-gnu/crti.o
 .rel.text.process_thread_serial_line_process
                0x0000000000009d0c       0x90 /usr/lib/gcc/i686-linux-gnu/4.8/../../../i386-linux-gnu/crti.o
 .rel.text.serial_line_init
                0x0000000000009d9c       0x28 /usr/lib/gcc/i686-linux-gnu/4.8/../../../i386-linux-gnu/crti.o
 .rel.text._xassert
                0x0000000000009dc4       0x10 /usr/lib/gcc/i686-linux-gnu/4.8/../../../i386-linux-gnu/crti.o
 .rel.text.list_add
                0x0000000000009dd4       0x10 /usr/lib/gcc/i686-linux-gnu/4.8/../../../i386-linux-gnu/crti.o
 .rel.text.list_push
                0x0000000000009de4        0x8 /usr/lib/gcc/i686-linux-gnu/4.8/../../../i386-linux-gnu/crti.o
 .rel.text.list_insert
                0x0000000000009dec        0x8 /usr/lib/gcc/i686-linux-gnu/4.8/../../../i386-linux-gnu/crti.o
 .rel.text.memb_init
                0x0000000000009df4       0x10 /usr/lib/gcc/i686-linux-gnu/4.8/../../../i386-linux-gnu/crti.o
 .rel.text.packetbuf_attr
                0x0000000000009e04       0x28 /usr/lib/gcc/i686-linux-gnu/4.8/../../../i386-linux-gnu/crti.o
 .rel.text.packetbuf_set_addr
                0x0000000000009e2c       0x30 /usr/lib/gcc/i686-linux-gnu/4.8/../../../i386-linux-gnu/crti.o
 .rel.text.packetbuf_addr
                0x0000000000009e5c       0x40 /usr/lib/gcc/i686-linux-gnu/4.8/../../../i386-linux-gnu/crti.o
 .rel.text.clear_fragments
                0x0000000000009e9c       0x20 /usr/lib/gcc/i686-linux-gnu/4.8/../../../i386-linux-gnu/crti.o
 .rel.text.timeout_fragments
                0x0000000000009ebc       0x18 /usr/lib/gcc/i686-linux-gnu/4.8/../../../i386-linux-gnu/crti.o
 .rel.text.store_fragment
                0x0000000000009ed4       0x68 /usr/lib/gcc/i686-linux-gnu/4.8/../../../i386-linux-gnu/crti.o
 .rel.text.add_fragment
                0x0000000000009f3c       0x80 /usr/lib/gcc/i686-linux-gnu/4.8/../../../i386-linux-gnu/crti.o
 .rel.text.copy_frags2uip
                0x0000000000009fbc       0x58 /usr/lib/gcc/i686-linux-gnu/4.8/../../../i386-linux-gnu/crti.o
 .rel.text.rime_sniffer_add
                0x000000000000a014        0x8 /usr/lib/gcc/i686-linux-gnu/4.8/../../../i386-linux-gnu/crti.o
 .rel.text.rime_sniffer_remove
                0x000000000000a01c        0x8 /usr/lib/gcc/i686-linux-gnu/4.8/../../../i386-linux-gnu/crti.o
 .rel.text.set_packet_attrs
                0x000000000000a024       0x60 /usr/lib/gcc/i686-linux-gnu/4.8/../../../i386-linux-gnu/crti.o
 .rel.text.addr_context_lookup_by_prefix
                0x000000000000a084       0x20 /usr/lib/gcc/i686-linux-gnu/4.8/../../../i386-linux-gnu/crti.o
 .rel.text.addr_context_lookup_by_number
                0x000000000000a0a4       0x18 /usr/lib/gcc/i686-linux-gnu/4.8/../../../i386-linux-gnu/crti.o
 .rel.text.compress_addr_64
                0x000000000000a0bc       0x40 /usr/lib/gcc/i686-linux-gnu/4.8/../../../i386-linux-gnu/crti.o
 .rel.text.uncompress_addr
                0x000000000000a0fc       0x38 /usr/lib/gcc/i686-linux-gnu/4.8/../../../i386-linux-gnu/crti.o
 .rel.text.compress_hdr_iphc
                0x000000000000a134      0x5f8 /usr/lib/gcc/i686-linux-gnu/4.8/../../../i386-linux-gnu/crti.o
 .rel.text.uncompress_hdr_iphc
                0x000000000000a72c      0x2f0 /usr/lib/gcc/i686-linux-gnu/4.8/../../../i386-linux-gnu/crti.o
 .rel.text.compress_hdr_ipv6
                0x000000000000aa1c       0x58 /usr/lib/gcc/i686-linux-gnu/4.8/../../../i386-linux-gnu/crti.o
 .rel.text.packet_sent
                0x000000000000aa74       0x38 /usr/lib/gcc/i686-linux-gnu/4.8/../../../i386-linux-gnu/crti.o
 .rel.text.send_packet
                0x000000000000aaac      0x120 /usr/lib/gcc/i686-linux-gnu/4.8/../../../i386-linux-gnu/crti.o
 .rel.text.output
                0x000000000000abcc      0x2c8 /usr/lib/gcc/i686-linux-gnu/4.8/../../../i386-linux-gnu/crti.o
 .rel.text.input
                0x000000000000ae94      0x200 /usr/lib/gcc/i686-linux-gnu/4.8/../../../i386-linux-gnu/crti.o
 .rel.text.sicslowpan_init
                0x000000000000b094       0x38 /usr/lib/gcc/i686-linux-gnu/4.8/../../../i386-linux-gnu/crti.o
 .rel.text.sicslowpan_get_last_rssi
                0x000000000000b0cc        0x8 /usr/lib/gcc/i686-linux-gnu/4.8/../../../i386-linux-gnu/crti.o
 .rel.text.uip_ds6_neighbors_init
                0x000000000000b0d4       0x20 /usr/lib/gcc/i686-linux-gnu/4.8/../../../i386-linux-gnu/crti.o
 .rel.text.uip_ds6_nbr_add
                0x000000000000b0f4       0x38 /usr/lib/gcc/i686-linux-gnu/4.8/../../../i386-linux-gnu/crti.o
 .rel.text.uip_ds6_nbr_rm
                0x000000000000b12c       0x20 /usr/lib/gcc/i686-linux-gnu/4.8/../../../i386-linux-gnu/crti.o
 .rel.text.uip_ds6_nbr_get_ll
                0x000000000000b14c       0x10 /usr/lib/gcc/i686-linux-gnu/4.8/../../../i386-linux-gnu/crti.o
 .rel.text.uip_ds6_nbr_num
                0x000000000000b15c       0x20 /usr/lib/gcc/i686-linux-gnu/4.8/../../../i386-linux-gnu/crti.o
 .rel.text.uip_ds6_nbr_lookup
                0x000000000000b17c       0x28 /usr/lib/gcc/i686-linux-gnu/4.8/../../../i386-linux-gnu/crti.o
 .rel.text.uip_ds6_nbr_ll_lookup
                0x000000000000b1a4       0x10 /usr/lib/gcc/i686-linux-gnu/4.8/../../../i386-linux-gnu/crti.o
 .rel.text.uip_ds6_nbr_ipaddr_from_lladdr
                0x000000000000b1b4        0x8 /usr/lib/gcc/i686-linux-gnu/4.8/../../../i386-linux-gnu/crti.o
 .rel.text.uip_ds6_nbr_lladdr_from_ipaddr
                0x000000000000b1bc       0x10 /usr/lib/gcc/i686-linux-gnu/4.8/../../../i386-linux-gnu/crti.o
 .rel.text.uip_ds6_link_neighbor_callback
                0x000000000000b1cc       0x20 /usr/lib/gcc/i686-linux-gnu/4.8/../../../i386-linux-gnu/crti.o
 .rel.text.uip_ds6_neighbor_periodic
                0x000000000000b1ec       0xb8 /usr/lib/gcc/i686-linux-gnu/4.8/../../../i386-linux-gnu/crti.o
 .rel.text.uip_ds6_nbr_refresh_reachable_state
                0x000000000000b2a4       0x10 /usr/lib/gcc/i686-linux-gnu/4.8/../../../i386-linux-gnu/crti.o
 .rel.text.uip_ds6_get_least_lifetime_neighbor
                0x000000000000b2b4       0x30 /usr/lib/gcc/i686-linux-gnu/4.8/../../../i386-linux-gnu/crti.o
 .rel.text.call_route_callback
                0x000000000000b2e4       0x30 /usr/lib/gcc/i686-linux-gnu/4.8/../../../i386-linux-gnu/crti.o
 .rel.text.uip_ds6_notification_add
                0x000000000000b314       0x10 /usr/lib/gcc/i686-linux-gnu/4.8/../../../i386-linux-gnu/crti.o
 .rel.text.uip_ds6_notification_rm
                0x000000000000b324       0x10 /usr/lib/gcc/i686-linux-gnu/4.8/../../../i386-linux-gnu/crti.o
 .rel.text.uip_ds6_route_init
                0x000000000000b334       0x68 /usr/lib/gcc/i686-linux-gnu/4.8/../../../i386-linux-gnu/crti.o
 .rel.text.uip_ds6_route_nexthop_lladdr
                0x000000000000b39c       0x10 /usr/lib/gcc/i686-linux-gnu/4.8/../../../i386-linux-gnu/crti.o
 .rel.text.uip_ds6_route_nexthop
                0x000000000000b3ac        0x8 /usr/lib/gcc/i686-linux-gnu/4.8/../../../i386-linux-gnu/crti.o
 .rel.text.uip_ds6_route_head
                0x000000000000b3b4       0x10 /usr/lib/gcc/i686-linux-gnu/4.8/../../../i386-linux-gnu/crti.o
 .rel.text.uip_ds6_route_next
                0x000000000000b3c4        0x8 /usr/lib/gcc/i686-linux-gnu/4.8/../../../i386-linux-gnu/crti.o
 .rel.text.uip_ds6_route_is_nexthop
                0x000000000000b3cc       0x18 /usr/lib/gcc/i686-linux-gnu/4.8/../../../i386-linux-gnu/crti.o
 .rel.text.uip_ds6_route_num_routes
                0x000000000000b3e4        0x8 /usr/lib/gcc/i686-linux-gnu/4.8/../../../i386-linux-gnu/crti.o
 .rel.text.uip_ds6_route_lookup
                0x000000000000b3ec       0x48 /usr/lib/gcc/i686-linux-gnu/4.8/../../../i386-linux-gnu/crti.o
 .rel.text.uip_ds6_route_add
                0x000000000000b434       0xd0 /usr/lib/gcc/i686-linux-gnu/4.8/../../../i386-linux-gnu/crti.o
 .rel.text.uip_ds6_route_rm
                0x000000000000b504       0x80 /usr/lib/gcc/i686-linux-gnu/4.8/../../../i386-linux-gnu/crti.o
 .rel.text.rm_routelist
                0x000000000000b584       0x28 /usr/lib/gcc/i686-linux-gnu/4.8/../../../i386-linux-gnu/crti.o
 .rel.text.uip_ds6_route_rm_by_nexthop
                0x000000000000b5ac       0x18 /usr/lib/gcc/i686-linux-gnu/4.8/../../../i386-linux-gnu/crti.o
 .rel.text.uip_ds6_defrt_head
                0x000000000000b5c4       0x10 /usr/lib/gcc/i686-linux-gnu/4.8/../../../i386-linux-gnu/crti.o
 .rel.text.uip_ds6_defrt_add
                0x000000000000b5d4       0x30 /usr/lib/gcc/i686-linux-gnu/4.8/../../../i386-linux-gnu/crti.o
 .rel.text.uip_ds6_defrt_rm
                0x000000000000b604       0x38 /usr/lib/gcc/i686-linux-gnu/4.8/../../../i386-linux-gnu/crti.o
 .rel.text.uip_ds6_defrt_lookup
                0x000000000000b63c       0x20 /usr/lib/gcc/i686-linux-gnu/4.8/../../../i386-linux-gnu/crti.o
 .rel.text.uip_ds6_defrt_choose
                0x000000000000b65c       0x20 /usr/lib/gcc/i686-linux-gnu/4.8/../../../i386-linux-gnu/crti.o
 .rel.text.uip_ds6_defrt_periodic
                0x000000000000b67c       0x38 /usr/lib/gcc/i686-linux-gnu/4.8/../../../i386-linux-gnu/crti.o
 .rel.text.uip_ds6_init
                0x000000000000b6b4      0x180 /usr/lib/gcc/i686-linux-gnu/4.8/../../../i386-linux-gnu/crti.o
 .rel.text.uip_ds6_periodic
                0x000000000000b834       0x80 /usr/lib/gcc/i686-linux-gnu/4.8/../../../i386-linux-gnu/crti.o
 .rel.text.uip_ds6_list_loop
                0x000000000000b8b4        0x8 /usr/lib/gcc/i686-linux-gnu/4.8/../../../i386-linux-gnu/crti.o
 .rel.text.uip_ds6_prefix_add
                0x000000000000b8bc       0x58 /usr/lib/gcc/i686-linux-gnu/4.8/../../../i386-linux-gnu/crti.o
 .rel.text.uip_ds6_prefix_lookup
                0x000000000000b914       0x20 /usr/lib/gcc/i686-linux-gnu/4.8/../../../i386-linux-gnu/crti.o
 .rel.text.uip_ds6_is_addr_onlink
                0x000000000000b934       0x50 /usr/lib/gcc/i686-linux-gnu/4.8/../../../i386-linux-gnu/crti.o
 .rel.text.uip_ds6_addr_add
                0x000000000000b984       0xc8 /usr/lib/gcc/i686-linux-gnu/4.8/../../../i386-linux-gnu/crti.o
 .rel.text.uip_ds6_addr_rm
                0x000000000000ba4c       0x88 /usr/lib/gcc/i686-linux-gnu/4.8/../../../i386-linux-gnu/crti.o
 .rel.text.uip_ds6_addr_lookup
                0x000000000000bad4       0x20 /usr/lib/gcc/i686-linux-gnu/4.8/../../../i386-linux-gnu/crti.o
 .rel.text.uip_ds6_get_link_local
                0x000000000000baf4       0x58 /usr/lib/gcc/i686-linux-gnu/4.8/../../../i386-linux-gnu/crti.o
 .rel.text.uip_ds6_get_global
                0x000000000000bb4c       0x58 /usr/lib/gcc/i686-linux-gnu/4.8/../../../i386-linux-gnu/crti.o
 .rel.text.uip_ds6_maddr_add
                0x000000000000bba4       0x30 /usr/lib/gcc/i686-linux-gnu/4.8/../../../i386-linux-gnu/crti.o
 .rel.text.uip_ds6_maddr_lookup
                0x000000000000bbd4       0x20 /usr/lib/gcc/i686-linux-gnu/4.8/../../../i386-linux-gnu/crti.o
 .rel.text.uip_ds6_aaddr_add
                0x000000000000bbf4       0x30 /usr/lib/gcc/i686-linux-gnu/4.8/../../../i386-linux-gnu/crti.o
 .rel.text.uip_ds6_aaddr_lookup
                0x000000000000bc24       0x20 /usr/lib/gcc/i686-linux-gnu/4.8/../../../i386-linux-gnu/crti.o
 .rel.text.uip_ds6_select_src
                0x000000000000bc44       0x70 /usr/lib/gcc/i686-linux-gnu/4.8/../../../i386-linux-gnu/crti.o
 .rel.text.uip_ds6_set_addr_iid
                0x000000000000bcb4        0x8 /usr/lib/gcc/i686-linux-gnu/4.8/../../../i386-linux-gnu/crti.o
 .rel.text.uip_ds6_compute_reachable_time
                0x000000000000bcbc       0x30 /usr/lib/gcc/i686-linux-gnu/4.8/../../../i386-linux-gnu/crti.o
 .rel.text.extract_lladdr_from_llao_aligned
                0x000000000000bcec       0x18 /usr/lib/gcc/i686-linux-gnu/4.8/../../../i386-linux-gnu/crti.o
 .rel.text.create_llao
                0x000000000000bd04       0x18 /usr/lib/gcc/i686-linux-gnu/4.8/../../../i386-linux-gnu/crti.o
 .rel.text.ns_input
                0x000000000000bd1c      0x388 /usr/lib/gcc/i686-linux-gnu/4.8/../../../i386-linux-gnu/crti.o
 .rel.text.uip_nd6_ns_output
                0x000000000000c0a4      0x1e8 /usr/lib/gcc/i686-linux-gnu/4.8/../../../i386-linux-gnu/crti.o
 .rel.text.na_input
                0x000000000000c28c      0x280 /usr/lib/gcc/i686-linux-gnu/4.8/../../../i386-linux-gnu/crti.o
 .rel.text.uip_nd6_init
                0x000000000000c50c       0x20 /usr/lib/gcc/i686-linux-gnu/4.8/../../../i386-linux-gnu/crti.o
 .rel.text.uip_add32
                0x000000000000c52c       0x98 /usr/lib/gcc/i686-linux-gnu/4.8/../../../i386-linux-gnu/crti.o
 .rel.text.uip_chksum
                0x000000000000c5c4        0x8 /usr/lib/gcc/i686-linux-gnu/4.8/../../../i386-linux-gnu/crti.o
 .rel.text.upper_layer_chksum
                0x000000000000c5cc       0x38 /usr/lib/gcc/i686-linux-gnu/4.8/../../../i386-linux-gnu/crti.o
 .rel.text.uip_init
                0x000000000000c604       0x38 /usr/lib/gcc/i686-linux-gnu/4.8/../../../i386-linux-gnu/crti.o
 .rel.text.uip_connect
                0x000000000000c63c       0x70 /usr/lib/gcc/i686-linux-gnu/4.8/../../../i386-linux-gnu/crti.o
 .rel.text.remove_ext_hdr
                0x000000000000c6ac       0x98 /usr/lib/gcc/i686-linux-gnu/4.8/../../../i386-linux-gnu/crti.o
 .rel.text.uip_udp_new
                0x000000000000c744       0x68 /usr/lib/gcc/i686-linux-gnu/4.8/../../../i386-linux-gnu/crti.o
 .rel.text.uip_unlisten
                0x000000000000c7ac       0x10 /usr/lib/gcc/i686-linux-gnu/4.8/../../../i386-linux-gnu/crti.o
 .rel.text.uip_listen
                0x000000000000c7bc       0x10 /usr/lib/gcc/i686-linux-gnu/4.8/../../../i386-linux-gnu/crti.o
 .rel.text.uip_add_rcv_nxt
                0x000000000000c7cc       0x50 /usr/lib/gcc/i686-linux-gnu/4.8/../../../i386-linux-gnu/crti.o
 .rel.text.ext_hdr_options_process
                0x000000000000c81c      0x108 /usr/lib/gcc/i686-linux-gnu/4.8/../../../i386-linux-gnu/crti.o
 .rel.text.uip_process
                0x000000000000c924      0xf70 /usr/lib/gcc/i686-linux-gnu/4.8/../../../i386-linux-gnu/crti.o
 .rel.text.uip_send
                0x000000000000d894       0x60 /usr/lib/gcc/i686-linux-gnu/4.8/../../../i386-linux-gnu/crti.o
 .rel.text.tcpip_output
                0x000000000000d8f4       0x10 /usr/lib/gcc/i686-linux-gnu/4.8/../../../i386-linux-gnu/crti.o
 .rel.text.tcpip_set_outputfunc
                0x000000000000d904        0x8 /usr/lib/gcc/i686-linux-gnu/4.8/../../../i386-linux-gnu/crti.o
 .rel.text.start_periodic_tcp_timer
                0x000000000000d90c       0x20 /usr/lib/gcc/i686-linux-gnu/4.8/../../../i386-linux-gnu/crti.o
 .rel.text.check_for_tcp_syn
                0x000000000000d92c       0x10 /usr/lib/gcc/i686-linux-gnu/4.8/../../../i386-linux-gnu/crti.o
 .rel.text.packet_input
                0x000000000000d93c       0x98 /usr/lib/gcc/i686-linux-gnu/4.8/../../../i386-linux-gnu/crti.o
 .rel.text.tcp_connect
                0x000000000000d9d4       0x18 /usr/lib/gcc/i686-linux-gnu/4.8/../../../i386-linux-gnu/crti.o
 .rel.text.tcp_unlisten
                0x000000000000d9ec       0x18 /usr/lib/gcc/i686-linux-gnu/4.8/../../../i386-linux-gnu/crti.o
 .rel.text.tcp_listen
                0x000000000000da04       0x18 /usr/lib/gcc/i686-linux-gnu/4.8/../../../i386-linux-gnu/crti.o
 .rel.text.tcp_attach
                0x000000000000da1c        0x8 /usr/lib/gcc/i686-linux-gnu/4.8/../../../i386-linux-gnu/crti.o
 .rel.text.udp_attach
                0x000000000000da24        0x8 /usr/lib/gcc/i686-linux-gnu/4.8/../../../i386-linux-gnu/crti.o
 .rel.text.udp_new
                0x000000000000da2c       0x10 /usr/lib/gcc/i686-linux-gnu/4.8/../../../i386-linux-gnu/crti.o
 .rel.text.udp_broadcast_new
                0x000000000000da3c       0x10 /usr/lib/gcc/i686-linux-gnu/4.8/../../../i386-linux-gnu/crti.o
 .rel.text.eventhandler
                0x000000000000da4c       0xd8 /usr/lib/gcc/i686-linux-gnu/4.8/../../../i386-linux-gnu/crti.o
 .rel.text.tcpip_input
                0x000000000000db24       0x20 /usr/lib/gcc/i686-linux-gnu/4.8/../../../i386-linux-gnu/crti.o
 .rel.text.tcpip_ipv6_output
                0x000000000000db44      0x290 /usr/lib/gcc/i686-linux-gnu/4.8/../../../i386-linux-gnu/crti.o
 .rel.text.tcpip_poll_udp
                0x000000000000ddd4       0x10 /usr/lib/gcc/i686-linux-gnu/4.8/../../../i386-linux-gnu/crti.o
 .rel.text.tcpip_poll_tcp
                0x000000000000dde4       0x10 /usr/lib/gcc/i686-linux-gnu/4.8/../../../i386-linux-gnu/crti.o
 .rel.text.tcpip_uipcall
                0x000000000000ddf4       0x40 /usr/lib/gcc/i686-linux-gnu/4.8/../../../i386-linux-gnu/crti.o
 .rel.text.process_thread_tcpip_process
                0x000000000000de34       0x48 /usr/lib/gcc/i686-linux-gnu/4.8/../../../i386-linux-gnu/crti.o
 .rel.text.uip_debug_ipaddr_print
                0x000000000000de7c       0x50 /usr/lib/gcc/i686-linux-gnu/4.8/../../../i386-linux-gnu/crti.o
 .rel.text.packet_timedout
                0x000000000000decc       0x10 /usr/lib/gcc/i686-linux-gnu/4.8/../../../i386-linux-gnu/crti.o
 .rel.text.uip_packetqueue_alloc
                0x000000000000dedc       0x20 /usr/lib/gcc/i686-linux-gnu/4.8/../../../i386-linux-gnu/crti.o
 .rel.text.uip_packetqueue_free
                0x000000000000defc       0x18 /usr/lib/gcc/i686-linux-gnu/4.8/../../../i386-linux-gnu/crti.o
 .rel.text.uip_udp_packet_send
                0x000000000000df14       0x38 /usr/lib/gcc/i686-linux-gnu/4.8/../../../i386-linux-gnu/crti.o
 .rel.text.uip_udp_packet_sendto
                0x000000000000df4c       0x10 /usr/lib/gcc/i686-linux-gnu/4.8/../../../i386-linux-gnu/crti.o
 .rel.text.rpl_print_neighbor_list
                0x000000000000df5c       0xc8 /usr/lib/gcc/i686-linux-gnu/4.8/../../../i386-linux-gnu/crti.o
 .rel.text.rpl_get_nbr
                0x000000000000e024       0x18 /usr/lib/gcc/i686-linux-gnu/4.8/../../../i386-linux-gnu/crti.o
 .rel.text.nbr_callback
                0x000000000000e03c        0x8 /usr/lib/gcc/i686-linux-gnu/4.8/../../../i386-linux-gnu/crti.o
 .rel.text.rpl_dag_init
                0x000000000000e044       0x18 /usr/lib/gcc/i686-linux-gnu/4.8/../../../i386-linux-gnu/crti.o
 .rel.text.rpl_get_parent
                0x000000000000e05c       0x10 /usr/lib/gcc/i686-linux-gnu/4.8/../../../i386-linux-gnu/crti.o
 .rel.text.rpl_get_parent_rank
                0x000000000000e06c       0x10 /usr/lib/gcc/i686-linux-gnu/4.8/../../../i386-linux-gnu/crti.o
 .rel.text.rpl_get_parent_lladdr
                0x000000000000e07c       0x10 /usr/lib/gcc/i686-linux-gnu/4.8/../../../i386-linux-gnu/crti.o
 .rel.text.rpl_get_parent_ipaddr
                0x000000000000e08c       0x10 /usr/lib/gcc/i686-linux-gnu/4.8/../../../i386-linux-gnu/crti.o
 .rel.text.rpl_get_parent_link_stats
                0x000000000000e09c       0x10 /usr/lib/gcc/i686-linux-gnu/4.8/../../../i386-linux-gnu/crti.o
 .rel.text.rpl_parent_is_fresh
                0x000000000000e0ac       0x10 /usr/lib/gcc/i686-linux-gnu/4.8/../../../i386-linux-gnu/crti.o
 .rel.text.rpl_parent_is_reachable
                0x000000000000e0bc       0x10 /usr/lib/gcc/i686-linux-gnu/4.8/../../../i386-linux-gnu/crti.o
 .rel.text.rpl_set_preferred_parent
                0x000000000000e0cc       0x20 /usr/lib/gcc/i686-linux-gnu/4.8/../../../i386-linux-gnu/crti.o
 .rel.text.remove_parents
                0x000000000000e0ec       0x28 /usr/lib/gcc/i686-linux-gnu/4.8/../../../i386-linux-gnu/crti.o
 .rel.text.nullify_parents
                0x000000000000e114       0x28 /usr/lib/gcc/i686-linux-gnu/4.8/../../../i386-linux-gnu/crti.o
 .rel.text.get_dag
                0x000000000000e13c       0x10 /usr/lib/gcc/i686-linux-gnu/4.8/../../../i386-linux-gnu/crti.o
 .rel.text.rpl_set_root
                0x000000000000e14c       0x48 /usr/lib/gcc/i686-linux-gnu/4.8/../../../i386-linux-gnu/crti.o
 .rel.text.rpl_repair_root
                0x000000000000e194       0x10 /usr/lib/gcc/i686-linux-gnu/4.8/../../../i386-linux-gnu/crti.o
 .rel.text.set_ip_from_prefix
                0x000000000000e1a4       0x20 /usr/lib/gcc/i686-linux-gnu/4.8/../../../i386-linux-gnu/crti.o
 .rel.text.check_prefix
                0x000000000000e1c4       0x30 /usr/lib/gcc/i686-linux-gnu/4.8/../../../i386-linux-gnu/crti.o
 .rel.text.rpl_set_prefix
                0x000000000000e1f4       0x20 /usr/lib/gcc/i686-linux-gnu/4.8/../../../i386-linux-gnu/crti.o
 .rel.text.rpl_set_default_route
                0x000000000000e214       0x10 /usr/lib/gcc/i686-linux-gnu/4.8/../../../i386-linux-gnu/crti.o
 .rel.text.rpl_alloc_instance
                0x000000000000e224       0x18 /usr/lib/gcc/i686-linux-gnu/4.8/../../../i386-linux-gnu/crti.o
 .rel.text.rpl_alloc_dag
                0x000000000000e23c       0x18 /usr/lib/gcc/i686-linux-gnu/4.8/../../../i386-linux-gnu/crti.o
 .rel.text.rpl_set_default_instance
                0x000000000000e254        0x8 /usr/lib/gcc/i686-linux-gnu/4.8/../../../i386-linux-gnu/crti.o
 .rel.text.rpl_get_default_instance
                0x000000000000e25c        0x8 /usr/lib/gcc/i686-linux-gnu/4.8/../../../i386-linux-gnu/crti.o
 .rel.text.rpl_free_instance
                0x000000000000e264       0x40 /usr/lib/gcc/i686-linux-gnu/4.8/../../../i386-linux-gnu/crti.o
 .rel.text.rpl_free_dag
                0x000000000000e2a4        0x8 /usr/lib/gcc/i686-linux-gnu/4.8/../../../i386-linux-gnu/crti.o
 .rel.text.rpl_add_parent
                0x000000000000e2ac       0x18 /usr/lib/gcc/i686-linux-gnu/4.8/../../../i386-linux-gnu/crti.o
 .rel.text.find_parent_any_dag_any_instance
                0x000000000000e2c4       0x20 /usr/lib/gcc/i686-linux-gnu/4.8/../../../i386-linux-gnu/crti.o
 .rel.text.rpl_select_dag
                0x000000000000e2e4       0x48 /usr/lib/gcc/i686-linux-gnu/4.8/../../../i386-linux-gnu/crti.o
 .rel.text.best_parent
                0x000000000000e32c       0x30 /usr/lib/gcc/i686-linux-gnu/4.8/../../../i386-linux-gnu/crti.o
 .rel.text.rpl_select_parent
                0x000000000000e35c       0x18 /usr/lib/gcc/i686-linux-gnu/4.8/../../../i386-linux-gnu/crti.o
 .rel.text.rpl_remove_parent
                0x000000000000e374       0x18 /usr/lib/gcc/i686-linux-gnu/4.8/../../../i386-linux-gnu/crti.o
 .rel.text.rpl_nullify_parent
                0x000000000000e38c       0x10 /usr/lib/gcc/i686-linux-gnu/4.8/../../../i386-linux-gnu/crti.o
 .rel.text.rpl_move_parent
                0x000000000000e39c       0x18 /usr/lib/gcc/i686-linux-gnu/4.8/../../../i386-linux-gnu/crti.o
 .rel.text.rpl_has_downward_route
                0x000000000000e3b4       0x10 /usr/lib/gcc/i686-linux-gnu/4.8/../../../i386-linux-gnu/crti.o
 .rel.text.rpl_get_dag
                0x000000000000e3c4       0x30 /usr/lib/gcc/i686-linux-gnu/4.8/../../../i386-linux-gnu/crti.o
 .rel.text.rpl_get_any_dag
                0x000000000000e3f4       0x18 /usr/lib/gcc/i686-linux-gnu/4.8/../../../i386-linux-gnu/crti.o
 .rel.text.rpl_get_instance
                0x000000000000e40c       0x18 /usr/lib/gcc/i686-linux-gnu/4.8/../../../i386-linux-gnu/crti.o
 .rel.text.rpl_find_of
                0x000000000000e424       0x10 /usr/lib/gcc/i686-linux-gnu/4.8/../../../i386-linux-gnu/crti.o
 .rel.text.rpl_join_instance
                0x000000000000e434       0x58 /usr/lib/gcc/i686-linux-gnu/4.8/../../../i386-linux-gnu/crti.o
 .rel.text.rpl_add_dag
                0x000000000000e48c       0x50 /usr/lib/gcc/i686-linux-gnu/4.8/../../../i386-linux-gnu/crti.o
 .rel.text.global_repair
                0x000000000000e4dc       0x18 /usr/lib/gcc/i686-linux-gnu/4.8/../../../i386-linux-gnu/crti.o
 .rel.text.rpl_local_repair
                0x000000000000e4f4        0x8 /usr/lib/gcc/i686-linux-gnu/4.8/../../../i386-linux-gnu/crti.o
 .rel.text.rpl_recalculate_ranks
                0x000000000000e4fc       0x28 /usr/lib/gcc/i686-linux-gnu/4.8/../../../i386-linux-gnu/crti.o
 .rel.text.rpl_process_parent_event
                0x000000000000e524       0x40 /usr/lib/gcc/i686-linux-gnu/4.8/../../../i386-linux-gnu/crti.o
 .rel.text.add_nbr_from_dio
                0x000000000000e564        0x8 /usr/lib/gcc/i686-linux-gnu/4.8/../../../i386-linux-gnu/crti.o
 .rel.text.rpl_process_dio
                0x000000000000e56c       0x78 /usr/lib/gcc/i686-linux-gnu/4.8/../../../i386-linux-gnu/crti.o
 .rel.text.rpl_verify_hbh_header
                0x000000000000e5e4      0x108 /usr/lib/gcc/i686-linux-gnu/4.8/../../../i386-linux-gnu/crti.o
 .rel.text.update_hbh_header
                0x000000000000e6ec      0x138 /usr/lib/gcc/i686-linux-gnu/4.8/../../../i386-linux-gnu/crti.o
 .rel.text.insert_hbh_header
                0x000000000000e824      0x128 /usr/lib/gcc/i686-linux-gnu/4.8/../../../i386-linux-gnu/crti.o
 .rel.text.rpl_remove_header
                0x000000000000e94c       0xc8 /usr/lib/gcc/i686-linux-gnu/4.8/../../../i386-linux-gnu/crti.o
 .rel.text.rpl_update_header
                0x000000000000ea14       0x80 /usr/lib/gcc/i686-linux-gnu/4.8/../../../i386-linux-gnu/crti.o
 .rel.text.prepare_for_dao_fwd
                0x000000000000ea94       0x38 /usr/lib/gcc/i686-linux-gnu/4.8/../../../i386-linux-gnu/crti.o
 .rel.text.get_global_addr
                0x000000000000eacc       0x30 /usr/lib/gcc/i686-linux-gnu/4.8/../../../i386-linux-gnu/crti.o
 .rel.text.rpl_icmp6_update_nbr_table
                0x000000000000eafc       0x10 /usr/lib/gcc/i686-linux-gnu/4.8/../../../i386-linux-gnu/crti.o
 .rel.text.dis_input
                0x000000000000eb0c       0x48 /usr/lib/gcc/i686-linux-gnu/4.8/../../../i386-linux-gnu/crti.o
 .rel.text.dis_output
                0x000000000000eb54       0x20 /usr/lib/gcc/i686-linux-gnu/4.8/../../../i386-linux-gnu/crti.o
 .rel.text.dio_input
                0x000000000000eb74       0x58 /usr/lib/gcc/i686-linux-gnu/4.8/../../../i386-linux-gnu/crti.o
 .rel.text.dio_output
                0x000000000000ebcc       0x40 /usr/lib/gcc/i686-linux-gnu/4.8/../../../i386-linux-gnu/crti.o
 .rel.text.dao_input_storing
                0x000000000000ec0c      0x120 /usr/lib/gcc/i686-linux-gnu/4.8/../../../i386-linux-gnu/crti.o
 .rel.text.dao_input
                0x000000000000ed2c       0x28 /usr/lib/gcc/i686-linux-gnu/4.8/../../../i386-linux-gnu/crti.o
 .rel.text.dao_output
                0x000000000000ed54       0x38 /usr/lib/gcc/i686-linux-gnu/4.8/../../../i386-linux-gnu/crti.o
 .rel.text.dao_output_target
                0x000000000000ed8c        0x8 /usr/lib/gcc/i686-linux-gnu/4.8/../../../i386-linux-gnu/crti.o
 .rel.text.dao_output_target_seq
                0x000000000000ed94       0x48 /usr/lib/gcc/i686-linux-gnu/4.8/../../../i386-linux-gnu/crti.o
 .rel.text.dao_ack_input
                0x000000000000eddc       0x10 /usr/lib/gcc/i686-linux-gnu/4.8/../../../i386-linux-gnu/crti.o
 .rel.text.rpl_icmp6_register_handlers
                0x000000000000edec       0x40 /usr/lib/gcc/i686-linux-gnu/4.8/../../../i386-linux-gnu/crti.o
 .rel.text.parent_link_metric
                0x000000000000ee2c        0x8 /usr/lib/gcc/i686-linux-gnu/4.8/../../../i386-linux-gnu/crti.o
 .rel.text.handle_periodic_timer
                0x000000000000ee34       0x68 /usr/lib/gcc/i686-linux-gnu/4.8/../../../i386-linux-gnu/crti.o
 .rel.text.new_dio_interval
                0x000000000000ee9c       0x18 /usr/lib/gcc/i686-linux-gnu/4.8/../../../i386-linux-gnu/crti.o
 .rel.text.handle_dio_timer
                0x000000000000eeb4       0x40 /usr/lib/gcc/i686-linux-gnu/4.8/../../../i386-linux-gnu/crti.o
 .rel.text.rpl_reset_periodic_timer
                0x000000000000eef4       0x28 /usr/lib/gcc/i686-linux-gnu/4.8/../../../i386-linux-gnu/crti.o
 .rel.text.set_dao_lifetime_timer
                0x000000000000ef1c       0x20 /usr/lib/gcc/i686-linux-gnu/4.8/../../../i386-linux-gnu/crti.o
 .rel.text.handle_dao_timer
                0x000000000000ef3c       0x38 /usr/lib/gcc/i686-linux-gnu/4.8/../../../i386-linux-gnu/crti.o
 .rel.text.schedule_dao
                0x000000000000ef74       0x30 /usr/lib/gcc/i686-linux-gnu/4.8/../../../i386-linux-gnu/crti.o
 .rel.text.rpl_cancel_dao
                0x000000000000efa4       0x10 /usr/lib/gcc/i686-linux-gnu/4.8/../../../i386-linux-gnu/crti.o
 .rel.text.handle_unicast_dio_timer
                0x000000000000efb4       0x10 /usr/lib/gcc/i686-linux-gnu/4.8/../../../i386-linux-gnu/crti.o
 .rel.text.rpl_schedule_unicast_dio_immediately
                0x000000000000efc4       0x10 /usr/lib/gcc/i686-linux-gnu/4.8/../../../i386-linux-gnu/crti.o
 .rel.text.get_probing_delay
                0x000000000000efd4       0x10 /usr/lib/gcc/i686-linux-gnu/4.8/../../../i386-linux-gnu/crti.o
 .rel.text.get_probing_target
                0x000000000000efe4       0x70 /usr/lib/gcc/i686-linux-gnu/4.8/../../../i386-linux-gnu/crti.o
 .rel.text.handle_probing_timer
                0x000000000000f054       0x28 /usr/lib/gcc/i686-linux-gnu/4.8/../../../i386-linux-gnu/crti.o
 .rel.text.rpl_schedule_probing
                0x000000000000f07c       0x18 /usr/lib/gcc/i686-linux-gnu/4.8/../../../i386-linux-gnu/crti.o
 .rel.text.rpl_get_mode
                0x000000000000f094        0x8 /usr/lib/gcc/i686-linux-gnu/4.8/../../../i386-linux-gnu/crti.o
 .rel.text.rpl_set_mode
                0x000000000000f09c       0x68 /usr/lib/gcc/i686-linux-gnu/4.8/../../../i386-linux-gnu/crti.o
 .rel.text.rpl_purge_routes
                0x000000000000f104       0x50 /usr/lib/gcc/i686-linux-gnu/4.8/../../../i386-linux-gnu/crti.o
 .rel.text.rpl_remove_routes
                0x000000000000f154       0x20 /usr/lib/gcc/i686-linux-gnu/4.8/../../../i386-linux-gnu/crti.o
 .rel.text.rpl_remove_routes_by_nexthop
                0x000000000000f174       0x20 /usr/lib/gcc/i686-linux-gnu/4.8/../../../i386-linux-gnu/crti.o
 .rel.text.rpl_add_route
                0x000000000000f194        0x8 /usr/lib/gcc/i686-linux-gnu/4.8/../../../i386-linux-gnu/crti.o
 .rel.text.rpl_link_neighbor_callback
                0x000000000000f19c       0x20 /usr/lib/gcc/i686-linux-gnu/4.8/../../../i386-linux-gnu/crti.o
 .rel.text.rpl_ipv6_neighbor_callback
                0x000000000000f1bc       0x10 /usr/lib/gcc/i686-linux-gnu/4.8/../../../i386-linux-gnu/crti.o
 .rel.text.rpl_purge_dags
                0x000000000000f1cc       0x10 /usr/lib/gcc/i686-linux-gnu/4.8/../../../i386-linux-gnu/crti.o
 .rel.text.rpl_init
                0x000000000000f1dc       0x30 /usr/lib/gcc/i686-linux-gnu/4.8/../../../i386-linux-gnu/crti.o
 .rel.text.link_stats_from_lladdr
                0x000000000000f20c       0x10 /usr/lib/gcc/i686-linux-gnu/4.8/../../../i386-linux-gnu/crti.o
 .rel.text.link_stats_is_fresh
                0x000000000000f21c        0x8 /usr/lib/gcc/i686-linux-gnu/4.8/../../../i386-linux-gnu/crti.o
 .rel.text.link_stats_packet_sent
                0x000000000000f224       0x30 /usr/lib/gcc/i686-linux-gnu/4.8/../../../i386-linux-gnu/crti.o
 .rel.text.link_stats_input_callback
                0x000000000000f254       0x20 /usr/lib/gcc/i686-linux-gnu/4.8/../../../i386-linux-gnu/crti.o
 .rel.text.periodic
                0x000000000000f274       0x30 /usr/lib/gcc/i686-linux-gnu/4.8/../../../i386-linux-gnu/crti.o
 .rel.text.link_stats_init
                0x000000000000f2a4       0x28 /usr/lib/gcc/i686-linux-gnu/4.8/../../../i386-linux-gnu/crti.o
 .rel.text.linkaddr_copy
                0x000000000000f2cc        0x8 /usr/lib/gcc/i686-linux-gnu/4.8/../../../i386-linux-gnu/crti.o
 .rel.text.linkaddr_cmp
                0x000000000000f2d4        0x8 /usr/lib/gcc/i686-linux-gnu/4.8/../../../i386-linux-gnu/crti.o
 .rel.text.linkaddr_set_node_addr
                0x000000000000f2dc       0x10 /usr/lib/gcc/i686-linux-gnu/4.8/../../../i386-linux-gnu/crti.o
 .rel.text.key_from_index
                0x000000000000f2ec        0x8 /usr/lib/gcc/i686-linux-gnu/4.8/../../../i386-linux-gnu/crti.o
 .rel.text.index_from_key
                0x000000000000f2f4        0x8 /usr/lib/gcc/i686-linux-gnu/4.8/../../../i386-linux-gnu/crti.o
 .rel.text.index_from_lladdr
                0x000000000000f2fc       0x28 /usr/lib/gcc/i686-linux-gnu/4.8/../../../i386-linux-gnu/crti.o
 .rel.text.remove_key
                0x000000000000f324       0x48 /usr/lib/gcc/i686-linux-gnu/4.8/../../../i386-linux-gnu/crti.o
 .rel.text.nbr_table_allocate
                0x000000000000f36c       0x50 /usr/lib/gcc/i686-linux-gnu/4.8/../../../i386-linux-gnu/crti.o
 .rel.text.nbr_table_register
                0x000000000000f3bc       0x20 /usr/lib/gcc/i686-linux-gnu/4.8/../../../i386-linux-gnu/crti.o
 .rel.text.nbr_table_head
                0x000000000000f3dc       0x20 /usr/lib/gcc/i686-linux-gnu/4.8/../../../i386-linux-gnu/crti.o
 .rel.text.nbr_table_next
                0x000000000000f3fc       0x10 /usr/lib/gcc/i686-linux-gnu/4.8/../../../i386-linux-gnu/crti.o
 .rel.text.nbr_table_add_lladdr
                0x000000000000f40c       0x30 /usr/lib/gcc/i686-linux-gnu/4.8/../../../i386-linux-gnu/crti.o
 .rel.text.nbr_table_get_from_lladdr
                0x000000000000f43c        0x8 /usr/lib/gcc/i686-linux-gnu/4.8/../../../i386-linux-gnu/crti.o
 .rel.text.nbr_table_remove
                0x000000000000f444       0x10 /usr/lib/gcc/i686-linux-gnu/4.8/../../../i386-linux-gnu/crti.o
 .rel.text.nbr_table_lock
                0x000000000000f454        0x8 /usr/lib/gcc/i686-linux-gnu/4.8/../../../i386-linux-gnu/crti.o
 .rel.text.nbr_table_unlock
                0x000000000000f45c        0x8 /usr/lib/gcc/i686-linux-gnu/4.8/../../../i386-linux-gnu/crti.o
 .rel.text.nbr_table_update_lladdr
                0x000000000000f464        0x8 /usr/lib/gcc/i686-linux-gnu/4.8/../../../i386-linux-gnu/crti.o
 .rel.text.netstack_init
                0x000000000000f46c       0x28 /usr/lib/gcc/i686-linux-gnu/4.8/../../../i386-linux-gnu/crti.o
 .rel.text.packetbuf_clear
                0x000000000000f494       0x28 /usr/lib/gcc/i686-linux-gnu/4.8/../../../i386-linux-gnu/crti.o
 .rel.text.packetbuf_copyfrom
                0x000000000000f4bc       0x20 /usr/lib/gcc/i686-linux-gnu/4.8/../../../i386-linux-gnu/crti.o
 .rel.text.packetbuf_compact
                0x000000000000f4dc       0x38 /usr/lib/gcc/i686-linux-gnu/4.8/../../../i386-linux-gnu/crti.o
 .rel.text.packetbuf_copyto
                0x000000000000f514       0x58 /usr/lib/gcc/i686-linux-gnu/4.8/../../../i386-linux-gnu/crti.o
 .rel.text.packetbuf_hdralloc
                0x000000000000f56c       0x30 /usr/lib/gcc/i686-linux-gnu/4.8/../../../i386-linux-gnu/crti.o
 .rel.text.packetbuf_hdrreduce
                0x000000000000f59c       0x28 /usr/lib/gcc/i686-linux-gnu/4.8/../../../i386-linux-gnu/crti.o
 .rel.text.packetbuf_set_datalen
                0x000000000000f5c4        0x8 /usr/lib/gcc/i686-linux-gnu/4.8/../../../i386-linux-gnu/crti.o
 .rel.text.packetbuf_dataptr
                0x000000000000f5cc       0x10 /usr/lib/gcc/i686-linux-gnu/4.8/../../../i386-linux-gnu/crti.o
 .rel.text.packetbuf_hdrptr
                0x000000000000f5dc        0x8 /usr/lib/gcc/i686-linux-gnu/4.8/../../../i386-linux-gnu/crti.o
 .rel.text.packetbuf_datalen
                0x000000000000f5e4        0x8 /usr/lib/gcc/i686-linux-gnu/4.8/../../../i386-linux-gnu/crti.o
 .rel.text.packetbuf_hdrlen
                0x000000000000f5ec       0x10 /usr/lib/gcc/i686-linux-gnu/4.8/../../../i386-linux-gnu/crti.o
 .rel.text.packetbuf_totlen
                0x000000000000f5fc       0x10 /usr/lib/gcc/i686-linux-gnu/4.8/../../../i386-linux-gnu/crti.o
 .rel.text.packetbuf_remaininglen
                0x000000000000f60c        0x8 /usr/lib/gcc/i686-linux-gnu/4.8/../../../i386-linux-gnu/crti.o
 .rel.text.packetbuf_attr_clear
                0x000000000000f614       0x28 /usr/lib/gcc/i686-linux-gnu/4.8/../../../i386-linux-gnu/crti.o
 .rel.text.packetbuf_attr_copyto
                0x000000000000f63c       0x30 /usr/lib/gcc/i686-linux-gnu/4.8/../../../i386-linux-gnu/crti.o
 .rel.text.packetbuf_attr_copyfrom
                0x000000000000f66c       0x30 /usr/lib/gcc/i686-linux-gnu/4.8/../../../i386-linux-gnu/crti.o
 .rel.text.packetbuf_holds_broadcast
                0x000000000000f69c       0x18 /usr/lib/gcc/i686-linux-gnu/4.8/../../../i386-linux-gnu/crti.o
 .rel.text.queuebuf_init
                0x000000000000f6b4       0x20 /usr/lib/gcc/i686-linux-gnu/4.8/../../../i386-linux-gnu/crti.o
 .rel.text.queuebuf_numfree
                0x000000000000f6d4       0x10 /usr/lib/gcc/i686-linux-gnu/4.8/../../../i386-linux-gnu/crti.o
 .rel.text.queuebuf_new_from_packetbuf
                0x000000000000f6e4       0x40 /usr/lib/gcc/i686-linux-gnu/4.8/../../../i386-linux-gnu/crti.o
 .rel.text.queuebuf_update_attr_from_packetbuf
                0x000000000000f724        0x8 /usr/lib/gcc/i686-linux-gnu/4.8/../../../i386-linux-gnu/crti.o
 .rel.text.queuebuf_update_from_packetbuf
                0x000000000000f72c       0x10 /usr/lib/gcc/i686-linux-gnu/4.8/../../../i386-linux-gnu/crti.o
 .rel.text.queuebuf_free
                0x000000000000f73c       0x30 /usr/lib/gcc/i686-linux-gnu/4.8/../../../i386-linux-gnu/crti.o
 .rel.text.queuebuf_to_packetbuf
                0x000000000000f76c       0x20 /usr/lib/gcc/i686-linux-gnu/4.8/../../../i386-linux-gnu/crti.o
 .rel.text.queuebuf_dataptr
                0x000000000000f78c       0x10 /usr/lib/gcc/i686-linux-gnu/4.8/../../../i386-linux-gnu/crti.o
 .rel.text.neighbor_queue_from_addr
                0x000000000000f79c       0x20 /usr/lib/gcc/i686-linux-gnu/4.8/../../../i386-linux-gnu/crti.o
 .rel.text.backoff_period
                0x000000000000f7bc        0x8 /usr/lib/gcc/i686-linux-gnu/4.8/../../../i386-linux-gnu/crti.o
 .rel.text.transmit_packet_list
                0x000000000000f7c4       0x18 /usr/lib/gcc/i686-linux-gnu/4.8/../../../i386-linux-gnu/crti.o
 .rel.text.schedule_transmission
                0x000000000000f7dc       0x18 /usr/lib/gcc/i686-linux-gnu/4.8/../../../i386-linux-gnu/crti.o
 .rel.text.free_packet
                0x000000000000f7f4       0x60 /usr/lib/gcc/i686-linux-gnu/4.8/../../../i386-linux-gnu/crti.o
 .rel.text.tx_done
                0x000000000000f854        0x8 /usr/lib/gcc/i686-linux-gnu/4.8/../../../i386-linux-gnu/crti.o
 .rel.text.rexmit
                0x000000000000f85c        0x8 /usr/lib/gcc/i686-linux-gnu/4.8/../../../i386-linux-gnu/crti.o
 .rel.text.input_packet
                0x000000000000f864        0x8 /usr/lib/gcc/i686-linux-gnu/4.8/../../../i386-linux-gnu/crti.o
 .rel.text.on   0x000000000000f86c       0x10 /usr/lib/gcc/i686-linux-gnu/4.8/../../../i386-linux-gnu/crti.o
 .rel.text.off  0x000000000000f87c       0x18 /usr/lib/gcc/i686-linux-gnu/4.8/../../../i386-linux-gnu/crti.o
 .rel.text.channel_check_interval
                0x000000000000f894       0x10 /usr/lib/gcc/i686-linux-gnu/4.8/../../../i386-linux-gnu/crti.o
 .rel.text.create_frame
                0x000000000000f8a4       0xc0 /usr/lib/gcc/i686-linux-gnu/4.8/../../../i386-linux-gnu/crti.o
 .rel.text.parse
                0x000000000000f964       0x38 /usr/lib/gcc/i686-linux-gnu/4.8/../../../i386-linux-gnu/crti.o
 .rel.text.send_one_packet
                0x000000000000f99c       0xd0 /usr/lib/gcc/i686-linux-gnu/4.8/../../../i386-linux-gnu/crti.o
 .rel.text.send_list
                0x000000000000fa6c        0x8 /usr/lib/gcc/i686-linux-gnu/4.8/../../../i386-linux-gnu/crti.o
 .rel.text.send
                0x000000000000fa74        0x8 /usr/lib/gcc/i686-linux-gnu/4.8/../../../i386-linux-gnu/crti.o
 .rel.text.stimer_set
                0x000000000000fa7c        0x8 /usr/lib/gcc/i686-linux-gnu/4.8/../../../i386-linux-gnu/crti.o
 .rel.text.stimer_restart
                0x000000000000fa84        0x8 /usr/lib/gcc/i686-linux-gnu/4.8/../../../i386-linux-gnu/crti.o
 .rel.text.stimer_expired
                0x000000000000fa8c        0x8 /usr/lib/gcc/i686-linux-gnu/4.8/../../../i386-linux-gnu/crti.o
 .rel.text.stimer_remaining
                0x000000000000fa94        0x8 /usr/lib/gcc/i686-linux-gnu/4.8/../../../i386-linux-gnu/crti.o
 .rel.text.stimer_elapsed
                0x000000000000fa9c        0x8 /usr/lib/gcc/i686-linux-gnu/4.8/../../../i386-linux-gnu/crti.o
 .rel.text.input_handler_lookup
                0x000000000000faa4       0x18 /usr/lib/gcc/i686-linux-gnu/4.8/../../../i386-linux-gnu/crti.o
 .rel.text.uip_icmp6_register_input_handler
                0x000000000000fabc       0x10 /usr/lib/gcc/i686-linux-gnu/4.8/../../../i386-linux-gnu/crti.o
 .rel.text.echo_request_input
                0x000000000000facc      0x160 /usr/lib/gcc/i686-linux-gnu/4.8/../../../i386-linux-gnu/crti.o
 .rel.text.uip_icmp6_error_output
                0x000000000000fc2c      0x250 /usr/lib/gcc/i686-linux-gnu/4.8/../../../i386-linux-gnu/crti.o
 .rel.text.uip_icmp6_send
                0x000000000000fe7c       0xc0 /usr/lib/gcc/i686-linux-gnu/4.8/../../../i386-linux-gnu/crti.o
 .rel.text.echo_reply_input
                0x000000000000ff3c       0xd0 /usr/lib/gcc/i686-linux-gnu/4.8/../../../i386-linux-gnu/crti.o
 .rel.text.uip_icmp6_echo_reply_callback_add
                0x000000000001000c       0x10 /usr/lib/gcc/i686-linux-gnu/4.8/../../../i386-linux-gnu/crti.o
 .rel.text.uip_icmp6_echo_reply_callback_rm
                0x000000000001001c       0x10 /usr/lib/gcc/i686-linux-gnu/4.8/../../../i386-linux-gnu/crti.o
 .rel.text.uip_icmp6_init
                0x000000000001002c       0x20 /usr/lib/gcc/i686-linux-gnu/4.8/../../../i386-linux-gnu/crti.o
 .rel.text.update_nbr
                0x000000000001004c       0xe0 /usr/lib/gcc/i686-linux-gnu/4.8/../../../i386-linux-gnu/crti.o
 .rel.text.find_removable_dis
                0x000000000001012c       0x10 /usr/lib/gcc/i686-linux-gnu/4.8/../../../i386-linux-gnu/crti.o
 .rel.text.find_removable_dio
                0x000000000001013c       0x18 /usr/lib/gcc/i686-linux-gnu/4.8/../../../i386-linux-gnu/crti.o
 .rel.text.find_removable_dao
                0x0000000000010154       0x10 /usr/lib/gcc/i686-linux-gnu/4.8/../../../i386-linux-gnu/crti.o
 .rel.text.rpl_nbr_policy_find_removable
                0x0000000000010164       0x30 /usr/lib/gcc/i686-linux-gnu/4.8/../../../i386-linux-gnu/crti.o
 .rel.text.frame802154_get_pan_id
                0x0000000000010194        0x8 /usr/lib/gcc/i686-linux-gnu/4.8/../../../i386-linux-gnu/crti.o
 .rel.text.frame802154_set_pan_id
                0x000000000001019c        0x8 /usr/lib/gcc/i686-linux-gnu/4.8/../../../i386-linux-gnu/crti.o
 .rel.text.frame802154_check_dest_panid
                0x00000000000101a4       0x10 /usr/lib/gcc/i686-linux-gnu/4.8/../../../i386-linux-gnu/crti.o
 .rel.text.frame802154_extract_linkaddr
                0x00000000000101b4       0x40 /usr/lib/gcc/i686-linux-gnu/4.8/../../../i386-linux-gnu/crti.o
 .rel.text.field_len
                0x00000000000101f4       0x10 /usr/lib/gcc/i686-linux-gnu/4.8/../../../i386-linux-gnu/crti.o
 .rel.text.frame802154_create
                0x0000000000010204        0x8 /usr/lib/gcc/i686-linux-gnu/4.8/../../../i386-linux-gnu/crti.o
 .rel.text.frame802154_parse
                0x000000000001020c       0x50 /usr/lib/gcc/i686-linux-gnu/4.8/../../../i386-linux-gnu/crti.o
 .rel.text.mac_sequence_is_duplicate
                0x000000000001025c       0x28 /usr/lib/gcc/i686-linux-gnu/4.8/../../../i386-linux-gnu/crti.o
 .rel.text.mac_sequence_register_seqno
                0x0000000000010284       0x48 /usr/lib/gcc/i686-linux-gnu/4.8/../../../i386-linux-gnu/crti.o
 *(.rel.fini)
 .rel.fini      0x0000000000000000        0x0 /usr/lib/gcc/i686-linux-gnu/4.8/../../../i386-linux-gnu/crti.o
 *(.rel.rodata .rel.rodata.* .rel.gnu.linkonce.r.*)
 .rel.rodata    0x00000000000102cc      0x630 /usr/lib/gcc/i686-linux-gnu/4.8/../../../i386-linux-gnu/crti.o
 *(.rel.data.rel.ro .rel.data.rel.ro.* .rel.gnu.linkonce.d.rel.ro.*)
 *(.rel.data .rel.data.* .rel.gnu.linkonce.d.*)
 .rel.data.rel  0x00000000000108fc        0x8 /usr/lib/gcc/i686-linux-gnu/4.8/../../../i386-linux-gnu/crti.o
 .rel.data      0x0000000000010904      0x350 /usr/lib/gcc/i686-linux-gnu/4.8/../../../i386-linux-gnu/crti.o
 *(.rel.tdata .rel.tdata.* .rel.gnu.linkonce.td.*)
 *(.rel.tbss .rel.tbss.* .rel.gnu.linkonce.tb.*)
 *(.rel.ctors)
 *(.rel.dtors)
 *(.rel.got)
 .rel.got       0x0000000000010c54       0x28 /usr/lib/gcc/i686-linux-gnu/4.8/../../../i386-linux-gnu/crti.o
 *(.rel.bss .rel.bss.* .rel.gnu.linkonce.b.*)
 *(.rel.ifunc)
 .rel.ifunc     0x0000000000000000        0x0 /usr/lib/gcc/i686-linux-gnu/4.8/../../../i386-linux-gnu/crti.o
 .rel.fini_array
                0x0000000000010c7c        0x8 /usr/lib/gcc/i686-linux-gnu/4.8/../../../i386-linux-gnu/crti.o
 .rel.init_array
                0x0000000000010c84        0x8 /usr/lib/gcc/i686-linux-gnu/4.8/../../../i386-linux-gnu/crti.o

.rel.plt        0x0000000000010c8c       0x10
 *(.rel.plt)
 .rel.plt       0x0000000000010c8c       0x10 /usr/lib/gcc/i686-linux-gnu/4.8/../../../i386-linux-gnu/crti.o
 *(.rel.iplt)

.init           0x0000000000010c9c       0x23
 *(SORT(.init))
 .init          0x0000000000010c9c       0x1e /usr/lib/gcc/i686-linux-gnu/4.8/../../../i386-linux-gnu/crti.o
                0x0000000000010c9c                _init
 .init          0x0000000000010cba        0x5 /usr/lib/gcc/i686-linux-gnu/4.8/../../../i386-linux-gnu/crtn.o

.plt            0x0000000000010cc0       0x30
 *(.plt)
 .plt           0x0000000000010cc0       0x30 /usr/lib/gcc/i686-linux-gnu/4.8/../../../i386-linux-gnu/crti.o
 *(.iplt)

.text           0x0000000000010cf0    0x1f7df
 *(.text.unlikely .text.*_unlikely .text.unlikely.*)
 *(.text.exit .text.exit.*)
 *(.text.startup .text.startup.*)
 *(.text.hot .text.hot.*)
 *(.text .stub .text.* .gnu.linkonce.t.*)
 .text          0x0000000000010cf0        0x0 /usr/lib/gcc/i686-linux-gnu/4.8/../../../i386-linux-gnu/crti.o
 .gnu.linkonce.t.__x86.get_pc_thunk.bx
                0x0000000000010cf0        0x4 /usr/lib/gcc/i686-linux-gnu/4.8/../../../i386-linux-gnu/crti.o
                0x0000000000010cf0                __x86.get_pc_thunk.bx
 *fill*         0x0000000000010cf4        0xc 
 .text          0x0000000000010d00      0x11b /usr/lib/gcc/i686-linux-gnu/4.8/crtbeginS.o
 .text          0x0000000000010e1b        0x0 sensor.co
 .text.dtls_alert_create
                0x0000000000010e1b       0x10 sensor.co
 .text.dtls_alert_fatal_create
                0x0000000000010e2b       0x1b sensor.co
 .text.dtls_set_handler
                0x0000000000010e46        0xe sensor.co
 .text.read_from_peer
                0x0000000000010e54      0x1ef sensor.co
 .text.send_to_peer
                0x0000000000011043       0xcd sensor.co
 .text.get_psk_info
                0x0000000000011110      0x15e sensor.co
 .text.print_local_addresses
                0x000000000001126e       0x80 sensor.co
 .text.dtls_handle_read
                0x00000000000112ee      0x105 sensor.co
 .text.cfs_prepare_data
                0x00000000000113f3      0x1b0 sensor.co
                0x00000000000113f3                cfs_prepare_data
 .text.dtls_complete
                0x00000000000115a3       0x5b sensor.co
 .text.init_dtls
                0x00000000000115fe       0x70 sensor.co
                0x00000000000115fe                init_dtls
 .text.prepare_mcast
                0x000000000001166e       0x74 sensor.co
 .text.process_thread_udp_server_process
                0x00000000000116e2      0x195 sensor.co
 .text          0x0000000000011877        0x0 obj_cooja/mtype179.o
 .text.print_processes
                0x0000000000011877       0x47 obj_cooja/mtype179.o
 .text.rtimer_thread_loop
                0x00000000000118be       0x12 obj_cooja/mtype179.o
 .text.set_rime_addr
                0x00000000000118d0       0xdd obj_cooja/mtype179.o
 .text.contiki_init
                0x00000000000119ad      0x385 obj_cooja/mtype179.o
                0x00000000000119ad                contiki_init
 .text.process_run_thread_loop
                0x0000000000011d32       0x6a obj_cooja/mtype179.o
 .text.Java_org_contikios_cooja_corecomm_Lib1_init
                0x0000000000011d9c       0x40 obj_cooja/mtype179.o
                0x0000000000011d9c                Java_org_contikios_cooja_corecomm_Lib1_init
 .text.Java_org_contikios_cooja_corecomm_Lib1_getMemory
                0x0000000000011ddc       0x40 obj_cooja/mtype179.o
                0x0000000000011ddc                Java_org_contikios_cooja_corecomm_Lib1_getMemory
 .text.Java_org_contikios_cooja_corecomm_Lib1_setMemory
                0x0000000000011e1c       0x77 obj_cooja/mtype179.o
                0x0000000000011e1c                Java_org_contikios_cooja_corecomm_Lib1_setMemory
 .text.Java_org_contikios_cooja_corecomm_Lib1_tick
                0x0000000000011e93       0x5f obj_cooja/mtype179.o
                0x0000000000011e93                Java_org_contikios_cooja_corecomm_Lib1_tick
 .text.Java_org_contikios_cooja_corecomm_Lib1_setReferenceAddress
                0x0000000000011ef2       0x12 obj_cooja/mtype179.o
                0x0000000000011ef2                Java_org_contikios_cooja_corecomm_Lib1_setReferenceAddress
 .text          0x0000000000011f04        0x0 obj_cooja/mtype179.a(dtls.o)
 .text.equals   0x0000000000011f04       0x44 obj_cooja/mtype179.a(dtls.o)
 .text.check_stack
                0x0000000000011f48        0x5 obj_cooja/mtype179.a(dtls.o)
 .text.dtls_int_to_uint8
                0x0000000000011f4d       0x1c obj_cooja/mtype179.a(dtls.o)
 .text.dtls_int_to_uint16
                0x0000000000011f69       0x2f obj_cooja/mtype179.a(dtls.o)
 .text.dtls_int_to_uint24
                0x0000000000011f98       0x30 obj_cooja/mtype179.a(dtls.o)
 .text.dtls_int_to_uint32
                0x0000000000011fc8       0x3e obj_cooja/mtype179.a(dtls.o)
 .text.dtls_int_to_uint48
                0x0000000000012006       0x89 obj_cooja/mtype179.a(dtls.o)
 .text.dtls_uint8_to_int
                0x000000000001208f        0xb obj_cooja/mtype179.a(dtls.o)
 .text.dtls_uint16_to_int
                0x000000000001209a       0x21 obj_cooja/mtype179.a(dtls.o)
 .text.dtls_uint24_to_int
                0x00000000000120bb       0x32 obj_cooja/mtype179.a(dtls.o)
 .text.dtls_hash_init
                0x00000000000120ed       0x13 obj_cooja/mtype179.a(dtls.o)
 .text.dtls_hash_update
                0x0000000000012100       0x21 obj_cooja/mtype179.a(dtls.o)
 .text.dtls_hash_finalize
                0x0000000000012121       0x1f obj_cooja/mtype179.a(dtls.o)
 .text.dtls_security_params_epoch
                0x0000000000012140       0x58 obj_cooja/mtype179.a(dtls.o)
 .text.dtls_security_params
                0x0000000000012198        0xb obj_cooja/mtype179.a(dtls.o)
 .text.dtls_security_params_next
                0x00000000000121a3       0x59 obj_cooja/mtype179.a(dtls.o)
 .text.dtls_security_params_free_other
                0x00000000000121fc       0x50 obj_cooja/mtype179.a(dtls.o)
 .text.dtls_security_params_switch
                0x000000000001224c       0x26 obj_cooja/mtype179.a(dtls.o)
 .text.dtls_alert_create
                0x0000000000012272       0x10 obj_cooja/mtype179.a(dtls.o)
 .text.dtls_alert_fatal_create
                0x0000000000012282       0x1b obj_cooja/mtype179.a(dtls.o)
 .text.dtls_prng
                0x000000000001229d       0x52 obj_cooja/mtype179.a(dtls.o)
 .text.dtls_prng_init
                0x00000000000122ef        0xf obj_cooja/mtype179.a(dtls.o)
 .text.malloc_context
                0x00000000000122fe        0xa obj_cooja/mtype179.a(dtls.o)
 .text.free_context
                0x0000000000012308        0x5 obj_cooja/mtype179.a(dtls.o)
 .text.dtls_init
                0x000000000001230d       0x1c obj_cooja/mtype179.a(dtls.o)
                0x000000000001230d                dtls_init
 .text.dtls_send
                0x0000000000012329       0x5e obj_cooja/mtype179.a(dtls.o)
 .text.dtls_get_peer
                0x0000000000012387       0x57 obj_cooja/mtype179.a(dtls.o)
                0x0000000000012387                dtls_get_peer
 .text.dtls_add_peer
                0x00000000000123de       0x1d obj_cooja/mtype179.a(dtls.o)
 .text.dtls_write
                0x00000000000123fb       0x94 obj_cooja/mtype179.a(dtls.o)
                0x00000000000123fb                dtls_write
 .text.dtls_get_cookie
                0x000000000001248f       0xd8 obj_cooja/mtype179.a(dtls.o)
 .text.dtls_create_cookie
                0x0000000000012567      0x233 obj_cooja/mtype179.a(dtls.o)
 .text.is_record
                0x000000000001279a       0x58 obj_cooja/mtype179.a(dtls.o)
 .text.dtls_set_record_header
                0x00000000000127f2       0xd9 obj_cooja/mtype179.a(dtls.o)
 .text.dtls_set_handshake_header
                0x00000000000128cb       0xc8 obj_cooja/mtype179.a(dtls.o)
 .text.is_tls_ecdhe_ecdsa_with_aes_128_ccm_8
                0x0000000000012993        0xa obj_cooja/mtype179.a(dtls.o)
 .text.is_tls_psk_with_aes_128_ccm_8
                0x000000000001299d       0x12 obj_cooja/mtype179.a(dtls.o)
 .text.is_psk_supported
                0x00000000000129af       0x2e obj_cooja/mtype179.a(dtls.o)
 .text.is_rpk_supported
                0x00000000000129dd        0xa obj_cooja/mtype179.a(dtls.o)
 .text.is_cert_supported
                0x00000000000129e7        0xa obj_cooja/mtype179.a(dtls.o)
 .text.known_cipher
                0x00000000000129f1       0x7c obj_cooja/mtype179.a(dtls.o)
 .text.dtls_debug_keyblock
                0x0000000000012a6d      0x130 obj_cooja/mtype179.a(dtls.o)
 .text.dtls_handshake_type_to_name
                0x0000000000012b9d       0x6c obj_cooja/mtype179.a(dtls.o)
 .text.calculate_key_block
                0x0000000000012c09      0x39e obj_cooja/mtype179.a(dtls.o)
 .text.dtls_check_tls_extension
                0x0000000000012fa7      0x1a0 obj_cooja/mtype179.a(dtls.o)
 .text.dtls_update_parameters
                0x0000000000013147      0x376 obj_cooja/mtype179.a(dtls.o)
 .text.check_client_keyexchange
                0x00000000000134bd       0xd5 obj_cooja/mtype179.a(dtls.o)
 .text.update_hs_hash
                0x0000000000013592       0x51 obj_cooja/mtype179.a(dtls.o)
 .text.copy_hs_hash
                0x00000000000135e3       0x28 obj_cooja/mtype179.a(dtls.o)
 .text.finalize_hs_hash
                0x000000000001360b       0x20 obj_cooja/mtype179.a(dtls.o)
 .text.clear_hs_hash
                0x000000000001362b       0x3f obj_cooja/mtype179.a(dtls.o)
 .text.check_finished
                0x000000000001366a      0x1ef obj_cooja/mtype179.a(dtls.o)
 .text.dtls_prepare_record
                0x0000000000013859      0x550 obj_cooja/mtype179.a(dtls.o)
 .text.dtls_send_handshake_msg_hash
                0x0000000000013da9      0x172 obj_cooja/mtype179.a(dtls.o)
 .text.dtls_send_handshake_msg
                0x0000000000013f1b       0x48 obj_cooja/mtype179.a(dtls.o)
 .text.dtls_encrypt_data
                0x0000000000013f63       0xc1 obj_cooja/mtype179.a(dtls.o)
                0x0000000000013f63                dtls_encrypt_data
 .text.dtls_encrypt_x
                0x0000000000014024       0x8c obj_cooja/mtype179.a(dtls.o)
 .text.dtls_prepare_record_x
                0x00000000000140b0      0x3c4 obj_cooja/mtype179.a(dtls.o)
 .text.dtls_send_multi
                0x0000000000014474      0x42f obj_cooja/mtype179.a(dtls.o)
 .text.dtls_send_alert
                0x00000000000148a3       0x42 obj_cooja/mtype179.a(dtls.o)
 .text.dtls_close
                0x00000000000148e5       0x8c obj_cooja/mtype179.a(dtls.o)
                0x00000000000148e5                dtls_close
 .text.dtls_destroy_peer
                0x0000000000014971       0x77 obj_cooja/mtype179.a(dtls.o)
 .text.dtls_verify_peer
                0x00000000000149e8      0x26d obj_cooja/mtype179.a(dtls.o)
 .text.dtls_send_server_hello
                0x0000000000014c55      0x1ab obj_cooja/mtype179.a(dtls.o)
 .text.dtls_send_server_key_exchange_psk
                0x0000000000014e00      0x103 obj_cooja/mtype179.a(dtls.o)
 .text.dtls_send_server_hello_done
                0x0000000000014f03       0x32 obj_cooja/mtype179.a(dtls.o)
 .text.dtls_send_server_hello_msgs
                0x0000000000014f35      0x16b obj_cooja/mtype179.a(dtls.o)
 .text.dtls_send_ccs
                0x00000000000150a0       0x35 obj_cooja/mtype179.a(dtls.o)
 .text.dtls_send_client_key_exchange
                0x00000000000150d5      0x231 obj_cooja/mtype179.a(dtls.o)
 .text.dtls_send_finished
                0x0000000000015306      0x182 obj_cooja/mtype179.a(dtls.o)
 .text.dtls_send_client_hello
                0x0000000000015488      0x631 obj_cooja/mtype179.a(dtls.o)
 .text.check_server_hello
                0x0000000000015ab9      0x1db obj_cooja/mtype179.a(dtls.o)
 .text.check_server_hello_verify_request
                0x0000000000015c94       0x67 obj_cooja/mtype179.a(dtls.o)
 .text.check_server_key_exchange_psk
                0x0000000000015cfb      0x109 obj_cooja/mtype179.a(dtls.o)
 .text.check_certificate_request
                0x0000000000015e04      0x1f7 obj_cooja/mtype179.a(dtls.o)
 .text.check_server_hellodone
                0x0000000000015ffb       0xf3 obj_cooja/mtype179.a(dtls.o)
 .text.decrypt_verify
                0x00000000000160ee      0x35a obj_cooja/mtype179.a(dtls.o)
 .text.dtls_send_hello_request
                0x0000000000016448       0x44 obj_cooja/mtype179.a(dtls.o)
 .text.dtls_renegotiate
                0x000000000001648c       0xf6 obj_cooja/mtype179.a(dtls.o)
                0x000000000001648c                dtls_renegotiate
 .text.handle_handshake_msg
                0x0000000000016582      0x7b9 obj_cooja/mtype179.a(dtls.o)
 .text.handle_handshake
                0x0000000000016d3b      0x424 obj_cooja/mtype179.a(dtls.o)
 .text.handle_ccs
                0x000000000001715f       0xa8 obj_cooja/mtype179.a(dtls.o)
 .text.handle_alert
                0x0000000000017207      0x194 obj_cooja/mtype179.a(dtls.o)
 .text.dtls_alert_send_from_err
                0x000000000001739b       0xe0 obj_cooja/mtype179.a(dtls.o)
 .text.dtls_handle_message
                0x000000000001747b      0x665 obj_cooja/mtype179.a(dtls.o)
                0x000000000001747b                dtls_handle_message
 .text.dtls_new_context
                0x0000000000017ae0      0x12b obj_cooja/mtype179.a(dtls.o)
                0x0000000000017ae0                dtls_new_context
 .text.dtls_free_context
                0x0000000000017c0b       0x68 obj_cooja/mtype179.a(dtls.o)
                0x0000000000017c0b                dtls_free_context
 .text.dtls_connect_peer
                0x0000000000017c73      0x13b obj_cooja/mtype179.a(dtls.o)
                0x0000000000017c73                dtls_connect_peer
 .text.dtls_connect
                0x0000000000017dae      0x114 obj_cooja/mtype179.a(dtls.o)
                0x0000000000017dae                dtls_connect
 .text.dtls_retransmit
                0x0000000000017ec2      0x32f obj_cooja/mtype179.a(dtls.o)
 .text.dtls_stop_retransmission
                0x00000000000181f1       0x84 obj_cooja/mtype179.a(dtls.o)
 .text.dtls_check_retransmit
                0x0000000000018275       0x81 obj_cooja/mtype179.a(dtls.o)
                0x0000000000018275                dtls_check_retransmit
 .text.process_thread_dtls_retransmit_process
                0x00000000000182f6      0x1aa obj_cooja/mtype179.a(dtls.o)
 .text.change_sequence
                0x00000000000184a0       0x43 obj_cooja/mtype179.a(dtls.o)
                0x00000000000184a0                change_sequence
 .text          0x00000000000184e3        0x0 obj_cooja/mtype179.a(tinydtls-crypto)
 .text.dtls_int_to_uint16
                0x00000000000184e3       0x2f obj_cooja/mtype179.a(tinydtls-crypto)
 .text.dtls_hash_init
                0x0000000000018512       0x13 obj_cooja/mtype179.a(tinydtls-crypto)
 .text.dtls_cipher_context_get
                0x0000000000018525        0xa obj_cooja/mtype179.a(tinydtls-crypto)
 .text.dtls_cipher_context_release
                0x000000000001852f        0x5 obj_cooja/mtype179.a(tinydtls-crypto)
 .text.dtls_crypto_init
                0x0000000000018534       0x20 obj_cooja/mtype179.a(tinydtls-crypto)
                0x0000000000018534                dtls_crypto_init
 .text.dtls_handshake_malloc
                0x0000000000018554       0x14 obj_cooja/mtype179.a(tinydtls-crypto)
 .text.dtls_handshake_dealloc
                0x0000000000018568       0x1b obj_cooja/mtype179.a(tinydtls-crypto)
 .text.dtls_security_malloc
                0x0000000000018583       0x14 obj_cooja/mtype179.a(tinydtls-crypto)
 .text.dtls_security_dealloc
                0x0000000000018597       0x1b obj_cooja/mtype179.a(tinydtls-crypto)
 .text.dtls_handshake_new
                0x00000000000185b2       0x67 obj_cooja/mtype179.a(tinydtls-crypto)
                0x00000000000185b2                dtls_handshake_new
 .text.dtls_handshake_free
                0x0000000000018619       0x29 obj_cooja/mtype179.a(tinydtls-crypto)
                0x0000000000018619                dtls_handshake_free
 .text.dtls_security_new
                0x0000000000018642       0x60 obj_cooja/mtype179.a(tinydtls-crypto)
                0x0000000000018642                dtls_security_new
 .text.dtls_security_free
                0x00000000000186a2       0x1b obj_cooja/mtype179.a(tinydtls-crypto)
                0x00000000000186a2                dtls_security_free
 .text.dtls_p_hash
                0x00000000000186bd      0x2fa obj_cooja/mtype179.a(tinydtls-crypto)
                0x00000000000186bd                dtls_p_hash
 .text.dtls_prf
                0x00000000000189b7       0x74 obj_cooja/mtype179.a(tinydtls-crypto)
                0x00000000000189b7                dtls_prf
 .text.dtls_prf_custom
                0x0000000000018a2b       0xd4 obj_cooja/mtype179.a(tinydtls-crypto)
                0x0000000000018a2b                dtls_prf_custom
 .text.dtls_mac
                0x0000000000018aff       0xb3 obj_cooja/mtype179.a(tinydtls-crypto)
                0x0000000000018aff                dtls_mac
 .text.dtls_ccm_encrypt
                0x0000000000018bb2       0x66 obj_cooja/mtype179.a(tinydtls-crypto)
 .text.dtls_ccm_decrypt
                0x0000000000018c18       0x66 obj_cooja/mtype179.a(tinydtls-crypto)
 .text.dtls_psk_pre_master_secret
                0x0000000000018c7e       0x9a obj_cooja/mtype179.a(tinydtls-crypto)
                0x0000000000018c7e                dtls_psk_pre_master_secret
 .text.dtls_encrypt
                0x0000000000018d18       0xa6 obj_cooja/mtype179.a(tinydtls-crypto)
                0x0000000000018d18                dtls_encrypt
 .text.dtls_decrypt
                0x0000000000018dbe       0xa6 obj_cooja/mtype179.a(tinydtls-crypto)
                0x0000000000018dbe                dtls_decrypt
 .text          0x0000000000018e64        0x0 obj_cooja/mtype179.a(hmac.o)
 .text.dtls_hash_init
                0x0000000000018e64       0x13 obj_cooja/mtype179.a(hmac.o)
 .text.dtls_hash_update
                0x0000000000018e77       0x21 obj_cooja/mtype179.a(hmac.o)
 .text.dtls_hash_finalize
                0x0000000000018e98       0x1f obj_cooja/mtype179.a(hmac.o)
 .text.dtls_hmac_context_new
                0x0000000000018eb7       0x14 obj_cooja/mtype179.a(hmac.o)
 .text.dtls_hmac_context_free
                0x0000000000018ecb       0x1b obj_cooja/mtype179.a(hmac.o)
 .text.dtls_hmac_storage_init
                0x0000000000018ee6       0x14 obj_cooja/mtype179.a(hmac.o)
                0x0000000000018ee6                dtls_hmac_storage_init
 .text.dtls_hmac_update
                0x0000000000018efa       0x3e obj_cooja/mtype179.a(hmac.o)
                0x0000000000018efa                dtls_hmac_update
 .text.dtls_hmac_new
                0x0000000000018f38       0x32 obj_cooja/mtype179.a(hmac.o)
                0x0000000000018f38                dtls_hmac_new
 .text.dtls_hmac_init
                0x0000000000018f6a      0x11b obj_cooja/mtype179.a(hmac.o)
                0x0000000000018f6a                dtls_hmac_init
 .text.dtls_hmac_free
                0x0000000000019085       0x19 obj_cooja/mtype179.a(hmac.o)
                0x0000000000019085                dtls_hmac_free
 .text.dtls_hmac_finalize
                0x000000000001909e       0xde obj_cooja/mtype179.a(hmac.o)
                0x000000000001909e                dtls_hmac_finalize
 .text          0x000000000001917c        0x0 obj_cooja/mtype179.a(netq.o)
 .text.netq_malloc_node
                0x000000000001917c       0x14 obj_cooja/mtype179.a(netq.o)
 .text.netq_free_node
                0x0000000000019190       0x1b obj_cooja/mtype179.a(netq.o)
 .text.netq_init
                0x00000000000191ab       0x14 obj_cooja/mtype179.a(netq.o)
                0x00000000000191ab                netq_init
 .text.netq_insert_node
                0x00000000000191bf       0xb7 obj_cooja/mtype179.a(netq.o)
                0x00000000000191bf                netq_insert_node
 .text.netq_head
                0x0000000000019276       0x20 obj_cooja/mtype179.a(netq.o)
                0x0000000000019276                netq_head
 .text.netq_next
                0x0000000000019296       0x20 obj_cooja/mtype179.a(netq.o)
                0x0000000000019296                netq_next
 .text.netq_remove
                0x00000000000192b6       0x28 obj_cooja/mtype179.a(netq.o)
                0x00000000000192b6                netq_remove
 .text.netq_pop_first
                0x00000000000192de       0x20 obj_cooja/mtype179.a(netq.o)
                0x00000000000192de                netq_pop_first
 .text.netq_node_new
                0x00000000000192fe       0x4c obj_cooja/mtype179.a(netq.o)
                0x00000000000192fe                netq_node_new
 .text.netq_node_free
                0x000000000001934a       0x19 obj_cooja/mtype179.a(netq.o)
                0x000000000001934a                netq_node_free
 .text.netq_delete_all
                0x0000000000019363       0x2f obj_cooja/mtype179.a(netq.o)
                0x0000000000019363                netq_delete_all
 .text          0x0000000000019392        0x0 obj_cooja/mtype179.a(dtls_time.o)
 .text.dtls_clock_init
                0x0000000000019392       0x12 obj_cooja/mtype179.a(dtls_time.o)
                0x0000000000019392                dtls_clock_init
 .text.dtls_ticks
                0x00000000000193a4       0x12 obj_cooja/mtype179.a(dtls_time.o)
                0x00000000000193a4                dtls_ticks
 .text          0x00000000000193b6        0x0 obj_cooja/mtype179.a(peer.o)
 .text.peer_init
                0x00000000000193b6       0x14 obj_cooja/mtype179.a(peer.o)
                0x00000000000193b6                peer_init
 .text.dtls_malloc_peer
                0x00000000000193ca       0x14 obj_cooja/mtype179.a(peer.o)
 .text.dtls_free_peer
                0x00000000000193de       0x45 obj_cooja/mtype179.a(peer.o)
                0x00000000000193de                dtls_free_peer
 .text.dtls_new_peer
                0x0000000000019423       0x93 obj_cooja/mtype179.a(peer.o)
                0x0000000000019423                dtls_new_peer
 .text          0x00000000000194b6        0x0 obj_cooja/mtype179.a(session.o)
 .text.dtls_session_init
                0x00000000000194b6       0x43 obj_cooja/mtype179.a(session.o)
                0x00000000000194b6                dtls_session_init
 .text.dtls_session_equals
                0x00000000000194f9       0x9f obj_cooja/mtype179.a(session.o)
                0x00000000000194f9                dtls_session_equals
 .text          0x0000000000019598        0x0 obj_cooja/mtype179.a(rijndael.o)
 .text.rijndaelKeySetupEnc
                0x0000000000019598      0x610 obj_cooja/mtype179.a(rijndael.o)
                0x0000000000019598                rijndaelKeySetupEnc
 .text.rijndaelEncrypt
                0x0000000000019ba8      0x613 obj_cooja/mtype179.a(rijndael.o)
                0x0000000000019ba8                rijndaelEncrypt
 .text.rijndael_set_key_enc_only
                0x000000000001a1bb       0x41 obj_cooja/mtype179.a(rijndael.o)
                0x000000000001a1bb                rijndael_set_key_enc_only
 .text.rijndael_encrypt
                0x000000000001a1fc       0x2d obj_cooja/mtype179.a(rijndael.o)
                0x000000000001a1fc                rijndael_encrypt
 .text          0x000000000001a229        0x0 obj_cooja/mtype179.a(tinydtls-ccm.o)
 .text.memxor   0x000000000001a229       0x2f obj_cooja/mtype179.a(tinydtls-ccm.o)
 .text.equals   0x000000000001a258       0x44 obj_cooja/mtype179.a(tinydtls-ccm.o)
 .text.dtls_int_to_uint16
                0x000000000001a29c       0x2f obj_cooja/mtype179.a(tinydtls-ccm.o)
 .text.block0   0x000000000001a2cb       0x82 obj_cooja/mtype179.a(tinydtls-ccm.o)
 .text.add_auth_data
                0x000000000001a34d      0x1c0 obj_cooja/mtype179.a(tinydtls-ccm.o)
 .text.encrypt  0x000000000001a50d       0xc3 obj_cooja/mtype179.a(tinydtls-ccm.o)
 .text.mac      0x000000000001a5d0       0x5d obj_cooja/mtype179.a(tinydtls-ccm.o)
 .text.dtls_ccm_encrypt_message
                0x000000000001a62d      0x298 obj_cooja/mtype179.a(tinydtls-ccm.o)
                0x000000000001a62d                dtls_ccm_encrypt_message
 .text.dtls_ccm_decrypt_message
                0x000000000001a8c5      0x2b2 obj_cooja/mtype179.a(tinydtls-ccm.o)
                0x000000000001a8c5                dtls_ccm_decrypt_message
 .text          0x000000000001ab77        0x0 obj_cooja/mtype179.a(sha2.o)
 .text.SHA256_Init
                0x000000000001ab77       0x5a obj_cooja/mtype179.a(sha2.o)
                0x000000000001ab77                SHA256_Init
 .text.SHA256_Transform
                0x000000000001abd1      0x3c3 obj_cooja/mtype179.a(sha2.o)
                0x000000000001abd1                SHA256_Transform
 .text.SHA256_Update
                0x000000000001af94      0x1b6 obj_cooja/mtype179.a(sha2.o)
                0x000000000001af94                SHA256_Update
 .text.SHA256_Final
                0x000000000001b14a      0x2a4 obj_cooja/mtype179.a(sha2.o)
                0x000000000001b14a                SHA256_Final
 .text.SHA256_End
                0x000000000001b3ee      0x109 obj_cooja/mtype179.a(sha2.o)
                0x000000000001b3ee                SHA256_End
 .text.SHA256_Data
                0x000000000001b4f7       0x69 obj_cooja/mtype179.a(sha2.o)
                0x000000000001b4f7                SHA256_Data
 .text          0x000000000001b560        0x0 obj_cooja/mtype179.a(debug.o)
 .text.dtls_package_name
                0x000000000001b560        0xa obj_cooja/mtype179.a(debug.o)
                0x000000000001b560                dtls_package_name
 .text.dtls_package_version
                0x000000000001b56a        0xa obj_cooja/mtype179.a(debug.o)
                0x000000000001b56a                dtls_package_version
 .text.dtls_get_log_level
                0x000000000001b574        0xa obj_cooja/mtype179.a(debug.o)
                0x000000000001b574                dtls_get_log_level
 .text.dtls_set_log_level
                0x000000000001b57e        0xd obj_cooja/mtype179.a(debug.o)
                0x000000000001b57e                dtls_set_log_level
 .text.print_timestamp
                0x000000000001b58b        0xa obj_cooja/mtype179.a(debug.o)
 .text.dsrv_print_addr
                0x000000000001b595      0x190 obj_cooja/mtype179.a(debug.o)
 .text.hexdump  0x000000000001b725       0x8c obj_cooja/mtype179.a(debug.o)
                0x000000000001b725                hexdump
 .text.dump     0x000000000001b7b1       0x36 obj_cooja/mtype179.a(debug.o)
                0x000000000001b7b1                dump
 .text.dtls_dsrv_log_addr
                0x000000000001b7e7       0x76 obj_cooja/mtype179.a(debug.o)
                0x000000000001b7e7                dtls_dsrv_log_addr
 .text.dtls_dsrv_hexdump_log
                0x000000000001b85d      0x16a obj_cooja/mtype179.a(debug.o)
                0x000000000001b85d                dtls_dsrv_hexdump_log
 .text          0x000000000001b9c7        0x0 obj_cooja/mtype179.a(simEnvChange.o)
 .text.doActionsBeforeTick
                0x000000000001b9c7       0x31 obj_cooja/mtype179.a(simEnvChange.o)
                0x000000000001b9c7                doActionsBeforeTick
 .text.doActionsAfterTick
                0x000000000001b9f8       0x32 obj_cooja/mtype179.a(simEnvChange.o)
                0x000000000001b9f8                doActionsAfterTick
 .text          0x000000000001ba2a        0x0 obj_cooja/mtype179.a(cooja_mt.o)
 .text.cooja_mt_init
                0x000000000001ba2a        0xd obj_cooja/mtype179.a(cooja_mt.o)
                0x000000000001ba2a                cooja_mt_init
 .text.cooja_mt_remove
                0x000000000001ba37        0xd obj_cooja/mtype179.a(cooja_mt.o)
                0x000000000001ba37                cooja_mt_remove
 .text.cooja_mt_start
                0x000000000001ba44       0x2d obj_cooja/mtype179.a(cooja_mt.o)
                0x000000000001ba44                cooja_mt_start
 .text.cooja_mt_exec
                0x000000000001ba71       0x31 obj_cooja/mtype179.a(cooja_mt.o)
                0x000000000001ba71                cooja_mt_exec
 .text.cooja_mt_exit
                0x000000000001baa2       0x22 obj_cooja/mtype179.a(cooja_mt.o)
                0x000000000001baa2                cooja_mt_exit
 .text.cooja_mt_yield
                0x000000000001bac4       0x22 obj_cooja/mtype179.a(cooja_mt.o)
                0x000000000001bac4                cooja_mt_yield
 .text          0x000000000001bae6        0x0 obj_cooja/mtype179.a(cooja_mtarch.o)
 .text.cooja_mtarch_init
                0x000000000001bae6        0x5 obj_cooja/mtype179.a(cooja_mtarch.o)
                0x000000000001bae6                cooja_mtarch_init
 .text.cooja_mtarch_start
                0x000000000001baeb       0x7b obj_cooja/mtype179.a(cooja_mtarch.o)
                0x000000000001baeb                cooja_mtarch_start
 .text.cooja_sw
                0x000000000001bb66       0x22 obj_cooja/mtype179.a(cooja_mtarch.o)
                0x000000000001bb66                cooja_sw
 .text.cooja_mtarch_exec
                0x000000000001bb88       0x1c obj_cooja/mtype179.a(cooja_mtarch.o)
                0x000000000001bb88                cooja_mtarch_exec
 .text.cooja_mtarch_remove
                0x000000000001bba4        0x5 obj_cooja/mtype179.a(cooja_mtarch.o)
                0x000000000001bba4                cooja_mtarch_remove
 .text.cooja_mtarch_yield
                0x000000000001bba9        0xa obj_cooja/mtype179.a(cooja_mtarch.o)
                0x000000000001bba9                cooja_mtarch_yield
 .text.cooja_mtarch_pstop
                0x000000000001bbb3        0x5 obj_cooja/mtype179.a(cooja_mtarch.o)
                0x000000000001bbb3                cooja_mtarch_pstop
 .text.cooja_mtarch_pstart
                0x000000000001bbb8        0x5 obj_cooja/mtype179.a(cooja_mtarch.o)
                0x000000000001bbb8                cooja_mtarch_pstart
 .text.cooja_mtarch_stack_usage
                0x000000000001bbbd       0x3e obj_cooja/mtype179.a(cooja_mtarch.o)
                0x000000000001bbbd                cooja_mtarch_stack_usage
 .text          0x000000000001bbfb        0x0 obj_cooja/mtype179.a(rtimer-arch.o)
 .text.rtimer_arch_init
                0x000000000001bbfb       0x23 obj_cooja/mtype179.a(rtimer-arch.o)
                0x000000000001bbfb                rtimer_arch_init
 .text.rtimer_arch_schedule
                0x000000000001bc1e       0x2f obj_cooja/mtype179.a(rtimer-arch.o)
                0x000000000001bc1e                rtimer_arch_schedule
 .text.rtimer_arch_next
                0x000000000001bc4d       0x10 obj_cooja/mtype179.a(rtimer-arch.o)
                0x000000000001bc4d                rtimer_arch_next
 .text.rtimer_arch_pending
                0x000000000001bc5d        0xa obj_cooja/mtype179.a(rtimer-arch.o)
                0x000000000001bc5d                rtimer_arch_pending
 .text.rtimer_arch_check
                0x000000000001bc67       0x47 obj_cooja/mtype179.a(rtimer-arch.o)
                0x000000000001bc67                rtimer_arch_check
 .text.rtimer_arch_now
                0x000000000001bcae       0x10 obj_cooja/mtype179.a(rtimer-arch.o)
                0x000000000001bcae                rtimer_arch_now
 .text          0x000000000001bcbe        0x0 obj_cooja/mtype179.a(beep.o)
 .text.beep_alarm
                0x000000000001bcbe        0xc obj_cooja/mtype179.a(beep.o)
                0x000000000001bcbe                beep_alarm
 .text.beep_beep
                0x000000000001bcca        0xc obj_cooja/mtype179.a(beep.o)
                0x000000000001bcca                beep_beep
 .text.beep     0x000000000001bcd6        0xc obj_cooja/mtype179.a(beep.o)
                0x000000000001bcd6                beep
 .text.beep_down
                0x000000000001bce2        0xc obj_cooja/mtype179.a(beep.o)
                0x000000000001bce2                beep_down
 .text.beep_on  0x000000000001bcee        0xc obj_cooja/mtype179.a(beep.o)
                0x000000000001bcee                beep_on
 .text.beep_off
                0x000000000001bcfa        0xc obj_cooja/mtype179.a(beep.o)
                0x000000000001bcfa                beep_off
 .text.beep_spinup
                0x000000000001bd06        0xc obj_cooja/mtype179.a(beep.o)
                0x000000000001bd06                beep_spinup
 .text.beep_quick
                0x000000000001bd12        0xc obj_cooja/mtype179.a(beep.o)
                0x000000000001bd12                beep_quick
 .text.beep_long
                0x000000000001bd1e        0xc obj_cooja/mtype179.a(beep.o)
                0x000000000001bd1e                beep_long
 .text.doInterfaceActionsBeforeTick
                0x000000000001bd2a        0x5 obj_cooja/mtype179.a(beep.o)
 .text.doInterfaceActionsAfterTick
                0x000000000001bd2f        0x5 obj_cooja/mtype179.a(beep.o)
 .text          0x000000000001bd34        0x0 obj_cooja/mtype179.a(button-sensor.o)
 .text.value    0x000000000001bd34       0x2f obj_cooja/mtype179.a(button-sensor.o)
 .text.configure
                0x000000000001bd63       0x50 obj_cooja/mtype179.a(button-sensor.o)
 .text.status   0x000000000001bdb3       0x1f obj_cooja/mtype179.a(button-sensor.o)
 .text.doInterfaceActionsBeforeTick
                0x000000000001bdd2       0x60 obj_cooja/mtype179.a(button-sensor.o)
 .text.doInterfaceActionsAfterTick
                0x000000000001be32        0x5 obj_cooja/mtype179.a(button-sensor.o)
 .text          0x000000000001be37        0x0 obj_cooja/mtype179.a(leds-arch.o)
 .text.leds_arch_init
                0x000000000001be37        0xc obj_cooja/mtype179.a(leds-arch.o)
                0x000000000001be37                leds_arch_init
 .text.leds_arch_get
                0x000000000001be43        0xc obj_cooja/mtype179.a(leds-arch.o)
                0x000000000001be43                leds_arch_get
 .text.leds_arch_set
                0x000000000001be4f       0x23 obj_cooja/mtype179.a(leds-arch.o)
                0x000000000001be4f                leds_arch_set
 .text.doInterfaceActionsBeforeTick
                0x000000000001be72        0x5 obj_cooja/mtype179.a(leds-arch.o)
 .text.doInterfaceActionsAfterTick
                0x000000000001be77        0x5 obj_cooja/mtype179.a(leds-arch.o)
 .text          0x000000000001be7c        0x0 obj_cooja/mtype179.a(moteid.o)
 .text.doInterfaceActionsBeforeTick
                0x000000000001be7c       0x2a obj_cooja/mtype179.a(moteid.o)
 .text.doInterfaceActionsAfterTick
                0x000000000001bea6        0x5 obj_cooja/mtype179.a(moteid.o)
 .text          0x000000000001beab        0x0 obj_cooja/mtype179.a(pir-sensor.o)
 .text.value    0x000000000001beab        0xf obj_cooja/mtype179.a(pir-sensor.o)
 .text.configure
                0x000000000001beba       0x3a obj_cooja/mtype179.a(pir-sensor.o)
 .text.status   0x000000000001bef4       0x23 obj_cooja/mtype179.a(pir-sensor.o)
 .text.doInterfaceActionsBeforeTick
                0x000000000001bf17       0x40 obj_cooja/mtype179.a(pir-sensor.o)
 .text.doInterfaceActionsAfterTick
                0x000000000001bf57        0x5 obj_cooja/mtype179.a(pir-sensor.o)
 .text          0x000000000001bf5c        0x0 obj_cooja/mtype179.a(rs232.o)
 .text.rs232_init
                0x000000000001bf5c        0x5 obj_cooja/mtype179.a(rs232.o)
                0x000000000001bf5c                rs232_init
 .text.rs232_set_speed
                0x000000000001bf61        0xe obj_cooja/mtype179.a(rs232.o)
                0x000000000001bf61                rs232_set_speed
 .text.rs232_set_input
                0x000000000001bf6f        0xd obj_cooja/mtype179.a(rs232.o)
                0x000000000001bf6f                rs232_set_input
 .text.rs232_send
                0x000000000001bf7c       0x22 obj_cooja/mtype179.a(rs232.o)
                0x000000000001bf7c                rs232_send
 .text.rs232_print
                0x000000000001bf9e       0x1b obj_cooja/mtype179.a(rs232.o)
                0x000000000001bf9e                rs232_print
 .text.slip_arch_writeb
                0x000000000001bfb9       0x1d obj_cooja/mtype179.a(rs232.o)
                0x000000000001bfb9                slip_arch_writeb
 .text.doInterfaceActionsBeforeTick
                0x000000000001bfd6       0xb2 obj_cooja/mtype179.a(rs232.o)
 .text.doInterfaceActionsAfterTick
                0x000000000001c088        0x5 obj_cooja/mtype179.a(rs232.o)
 .text          0x000000000001c08d        0x0 obj_cooja/mtype179.a(vib-sensor.o)
 .text.value    0x000000000001c08d        0xf obj_cooja/mtype179.a(vib-sensor.o)
 .text.configure
                0x000000000001c09c       0x3a obj_cooja/mtype179.a(vib-sensor.o)
 .text.status   0x000000000001c0d6       0x23 obj_cooja/mtype179.a(vib-sensor.o)
 .text.doInterfaceActionsBeforeTick
                0x000000000001c0f9       0x40 obj_cooja/mtype179.a(vib-sensor.o)
 .text.doInterfaceActionsAfterTick
                0x000000000001c139        0x5 obj_cooja/mtype179.a(vib-sensor.o)
 .text          0x000000000001c13e        0x0 obj_cooja/mtype179.a(clock.o)
 .text.clock_init
                0x000000000001c13e        0x5 obj_cooja/mtype179.a(clock.o)
                0x000000000001c13e                clock_init
 .text.clock_time
                0x000000000001c143        0xa obj_cooja/mtype179.a(clock.o)
                0x000000000001c143                clock_time
 .text.clock_seconds
                0x000000000001c14d       0x16 obj_cooja/mtype179.a(clock.o)
                0x000000000001c14d                clock_seconds
 .text.clock_delay
                0x000000000001c163        0x5 obj_cooja/mtype179.a(clock.o)
                0x000000000001c163                clock_delay
 .text.doInterfaceActionsBeforeTick
                0x000000000001c168        0x5 obj_cooja/mtype179.a(clock.o)
 .text.doInterfaceActionsAfterTick
                0x000000000001c16d        0x5 obj_cooja/mtype179.a(clock.o)
 .text          0x000000000001c172        0x0 obj_cooja/mtype179.a(log.o)
 .text.simlog_char
                0x000000000001c172       0x42 obj_cooja/mtype179.a(log.o)
                0x000000000001c172                simlog_char
 .text.simlog   0x000000000001c1b4       0x6d obj_cooja/mtype179.a(log.o)
                0x000000000001c1b4                simlog
 .text.log_message
                0x000000000001c221       0x1e obj_cooja/mtype179.a(log.o)
                0x000000000001c221                log_message
 .text.doInterfaceActionsBeforeTick
                0x000000000001c23f        0x5 obj_cooja/mtype179.a(log.o)
 .text.doInterfaceActionsAfterTick
                0x000000000001c244        0x5 obj_cooja/mtype179.a(log.o)
 .text.log_set_putchar_with_slip
                0x000000000001c249        0xd obj_cooja/mtype179.a(log.o)
                0x000000000001c249                log_set_putchar_with_slip
 .text.putchar  0x000000000001c256       0x84 obj_cooja/mtype179.a(log.o)
                0x000000000001c256                log_putchar
 .text.puts     0x000000000001c2da       0x24 obj_cooja/mtype179.a(log.o)
                0x000000000001c2da                log_puts
 .text.printf   0x000000000001c2fe       0x61 obj_cooja/mtype179.a(log.o)
                0x000000000001c2fe                log_printf
 .text          0x000000000001c35f        0x0 obj_cooja/mtype179.a(cfs-cooja.o)
 .text.cfs_open
                0x000000000001c35f       0x69 obj_cooja/mtype179.a(cfs-cooja.o)
                0x000000000001c35f                cfs_open
 .text.cfs_close
                0x000000000001c3c8        0xc obj_cooja/mtype179.a(cfs-cooja.o)
                0x000000000001c3c8                cfs_close
 .text.cfs_read
                0x000000000001c3d4       0x9e obj_cooja/mtype179.a(cfs-cooja.o)
                0x000000000001c3d4                cfs_read
 .text.cfs_write
                0x000000000001c472       0xdd obj_cooja/mtype179.a(cfs-cooja.o)
                0x000000000001c472                cfs_write
 .text.cfs_seek
                0x000000000001c54f       0x88 obj_cooja/mtype179.a(cfs-cooja.o)
                0x000000000001c54f                cfs_seek
 .text.cfs_remove
                0x000000000001c5d7       0x29 obj_cooja/mtype179.a(cfs-cooja.o)
                0x000000000001c5d7                cfs_remove
 .text.cfs_opendir
                0x000000000001c600        0xa obj_cooja/mtype179.a(cfs-cooja.o)
                0x000000000001c600                cfs_opendir
 .text.cfs_readdir
                0x000000000001c60a        0xa obj_cooja/mtype179.a(cfs-cooja.o)
                0x000000000001c60a                cfs_readdir
 .text.cfs_closedir
                0x000000000001c614        0x5 obj_cooja/mtype179.a(cfs-cooja.o)
                0x000000000001c614                cfs_closedir
 .text.doInterfaceActionsBeforeTick
                0x000000000001c619        0x5 obj_cooja/mtype179.a(cfs-cooja.o)
 .text.doInterfaceActionsAfterTick
                0x000000000001c61e        0x5 obj_cooja/mtype179.a(cfs-cooja.o)
 .text          0x000000000001c623        0x0 obj_cooja/mtype179.a(cooja-radio.o)
 .text.packetbuf_set_attr
                0x000000000001c623       0x2a obj_cooja/mtype179.a(cooja-radio.o)
 .text.set_send_on_cca
                0x000000000001c64d       0x17 obj_cooja/mtype179.a(cooja-radio.o)
 .text.set_frame_filtering
                0x000000000001c664        0xd obj_cooja/mtype179.a(cooja-radio.o)
 .text.set_auto_ack
                0x000000000001c671        0xd obj_cooja/mtype179.a(cooja-radio.o)
 .text.set_poll_mode
                0x000000000001c67e        0xd obj_cooja/mtype179.a(cooja-radio.o)
 .text.radio_set_channel
                0x000000000001c68b        0xd obj_cooja/mtype179.a(cooja-radio.o)
                0x000000000001c68b                radio_set_channel
 .text.radio_set_txpower
                0x000000000001c698       0x17 obj_cooja/mtype179.a(cooja-radio.o)
                0x000000000001c698                radio_set_txpower
 .text.radio_signal_strength_last
                0x000000000001c6af        0xa obj_cooja/mtype179.a(cooja-radio.o)
                0x000000000001c6af                radio_signal_strength_last
 .text.radio_signal_strength_current
                0x000000000001c6b9        0xa obj_cooja/mtype179.a(cooja-radio.o)
                0x000000000001c6b9                radio_signal_strength_current
 .text.radio_LQI
                0x000000000001c6c3        0xa obj_cooja/mtype179.a(cooja-radio.o)
                0x000000000001c6c3                radio_LQI
 .text.radio_on
                0x000000000001c6cd       0x11 obj_cooja/mtype179.a(cooja-radio.o)
 .text.radio_off
                0x000000000001c6de       0x11 obj_cooja/mtype179.a(cooja-radio.o)
 .text.doInterfaceActionsBeforeTick
                0x000000000001c6ef       0x4b obj_cooja/mtype179.a(cooja-radio.o)
 .text.doInterfaceActionsAfterTick
                0x000000000001c73a        0x5 obj_cooja/mtype179.a(cooja-radio.o)
 .text.radio_read
                0x000000000001c73f       0xb7 obj_cooja/mtype179.a(cooja-radio.o)
 .text.channel_clear
                0x000000000001c7f6       0x1b obj_cooja/mtype179.a(cooja-radio.o)
 .text.radio_send
                0x000000000001c811       0xda obj_cooja/mtype179.a(cooja-radio.o)
 .text.prepare_packet
                0x000000000001c8eb       0x1c obj_cooja/mtype179.a(cooja-radio.o)
 .text.transmit_packet
                0x000000000001c907       0x3a obj_cooja/mtype179.a(cooja-radio.o)
 .text.receiving_packet
                0x000000000001c941        0xf obj_cooja/mtype179.a(cooja-radio.o)
 .text.pending_packet
                0x000000000001c950       0x25 obj_cooja/mtype179.a(cooja-radio.o)
 .text.process_thread_cooja_radio_process
                0x000000000001c975       0x9f obj_cooja/mtype179.a(cooja-radio.o)
 .text.init     0x000000000001ca14       0x21 obj_cooja/mtype179.a(cooja-radio.o)
 .text.get_value
                0x000000000001ca35       0xdc obj_cooja/mtype179.a(cooja-radio.o)
 .text.set_value
                0x000000000001cb11      0x104 obj_cooja/mtype179.a(cooja-radio.o)
 .text.get_object
                0x000000000001cc15       0x3d obj_cooja/mtype179.a(cooja-radio.o)
 .text.set_object
                0x000000000001cc52        0xa obj_cooja/mtype179.a(cooja-radio.o)
 .text          0x000000000001cc5c        0x0 obj_cooja/mtype179.a(eeprom.o)
 .text.eeprom_init
                0x000000000001cc5c        0x5 obj_cooja/mtype179.a(eeprom.o)
                0x000000000001cc5c                eeprom_init
 .text.eeprom_read
                0x000000000001cc61       0x70 obj_cooja/mtype179.a(eeprom.o)
                0x000000000001cc61                eeprom_read
 .text.eeprom_write
                0x000000000001ccd1       0x70 obj_cooja/mtype179.a(eeprom.o)
                0x000000000001ccd1                eeprom_write
 .text.doInterfaceActionsBeforeTick
                0x000000000001cd41        0x5 obj_cooja/mtype179.a(eeprom.o)
 .text.doInterfaceActionsAfterTick
                0x000000000001cd46        0x5 obj_cooja/mtype179.a(eeprom.o)
 .text          0x000000000001cd4b        0x0 obj_cooja/mtype179.a(random.o)
 .text.random_init
                0x000000000001cd4b       0x1b obj_cooja/mtype179.a(random.o)
                0x000000000001cd4b                random_init
 .text.random_rand
                0x000000000001cd66        0xd obj_cooja/mtype179.a(random.o)
                0x000000000001cd66                random_rand
 .text          0x000000000001cd73        0x0 obj_cooja/mtype179.a(sensors.o)
 .text.get_sensor_index
                0x000000000001cd73       0x3b obj_cooja/mtype179.a(sensors.o)
 .text.sensors_first
                0x000000000001cdae        0xa obj_cooja/mtype179.a(sensors.o)
                0x000000000001cdae                sensors_first
 .text.sensors_next
                0x000000000001cdb8       0x1d obj_cooja/mtype179.a(sensors.o)
                0x000000000001cdb8                sensors_next
 .text.sensors_changed
                0x000000000001cdd5       0x2f obj_cooja/mtype179.a(sensors.o)
                0x000000000001cdd5                sensors_changed
 .text.sensors_find
                0x000000000001ce04       0x6b obj_cooja/mtype179.a(sensors.o)
                0x000000000001ce04                sensors_find
 .text.process_thread_sensors_process
                0x000000000001ce6f      0x1a5 obj_cooja/mtype179.a(sensors.o)
 .text          0x000000000001d014        0x0 obj_cooja/mtype179.a(autostart.o)
 .text.autostart_start
                0x000000000001d014       0x4b obj_cooja/mtype179.a(autostart.o)
                0x000000000001d014                autostart_start
 .text.autostart_exit
                0x000000000001d05f       0x43 obj_cooja/mtype179.a(autostart.o)
                0x000000000001d05f                autostart_exit
 .text          0x000000000001d0a2        0x0 obj_cooja/mtype179.a(ctimer.o)
 .text.process_thread_ctimer_process
                0x000000000001d0a2      0x117 obj_cooja/mtype179.a(ctimer.o)
 .text.ctimer_init
                0x000000000001d1b9       0x30 obj_cooja/mtype179.a(ctimer.o)
                0x000000000001d1b9                ctimer_init
 .text.ctimer_set
                0x000000000001d1e9       0x31 obj_cooja/mtype179.a(ctimer.o)
                0x000000000001d1e9                ctimer_set
 .text.ctimer_set_with_process
                0x000000000001d21a       0x7c obj_cooja/mtype179.a(ctimer.o)
                0x000000000001d21a                ctimer_set_with_process
 .text.ctimer_reset
                0x000000000001d296       0x4f obj_cooja/mtype179.a(ctimer.o)
                0x000000000001d296                ctimer_reset
 .text.ctimer_restart
                0x000000000001d2e5       0x4f obj_cooja/mtype179.a(ctimer.o)
                0x000000000001d2e5                ctimer_restart
 .text.ctimer_stop
                0x000000000001d334       0x4b obj_cooja/mtype179.a(ctimer.o)
                0x000000000001d334                ctimer_stop
 .text.ctimer_expired
                0x000000000001d37f       0x57 obj_cooja/mtype179.a(ctimer.o)
                0x000000000001d37f                ctimer_expired
 .text          0x000000000001d3d6        0x0 obj_cooja/mtype179.a(etimer.o)
 .text.update_time
                0x000000000001d3d6       0x8f obj_cooja/mtype179.a(etimer.o)
 .text.process_thread_etimer_process
                0x000000000001d465      0x184 obj_cooja/mtype179.a(etimer.o)
 .text.etimer_request_poll
                0x000000000001d5e9       0x14 obj_cooja/mtype179.a(etimer.o)
                0x000000000001d5e9                etimer_request_poll
 .text.add_timer
                0x000000000001d5fd       0x70 obj_cooja/mtype179.a(etimer.o)
 .text.etimer_set
                0x000000000001d66d       0x25 obj_cooja/mtype179.a(etimer.o)
                0x000000000001d66d                etimer_set
 .text.etimer_reset_with_new_interval
                0x000000000001d692       0x27 obj_cooja/mtype179.a(etimer.o)
                0x000000000001d692                etimer_reset_with_new_interval
 .text.etimer_reset
                0x000000000001d6b9       0x1e obj_cooja/mtype179.a(etimer.o)
                0x000000000001d6b9                etimer_reset
 .text.etimer_restart
                0x000000000001d6d7       0x1e obj_cooja/mtype179.a(etimer.o)
                0x000000000001d6d7                etimer_restart
 .text.etimer_adjust
                0x000000000001d6f5       0x1c obj_cooja/mtype179.a(etimer.o)
                0x000000000001d6f5                etimer_adjust
 .text.etimer_expired
                0x000000000001d711       0x13 obj_cooja/mtype179.a(etimer.o)
                0x000000000001d711                etimer_expired
 .text.etimer_expiration_time
                0x000000000001d724       0x12 obj_cooja/mtype179.a(etimer.o)
                0x000000000001d724                etimer_expiration_time
 .text.etimer_start_time
                0x000000000001d736        0xa obj_cooja/mtype179.a(etimer.o)
                0x000000000001d736                etimer_start_time
 .text.etimer_pending
                0x000000000001d740       0x12 obj_cooja/mtype179.a(etimer.o)
                0x000000000001d740                etimer_pending
 .text.etimer_next_expiration_time
                0x000000000001d752       0x1a obj_cooja/mtype179.a(etimer.o)
                0x000000000001d752                etimer_next_expiration_time
 .text.etimer_stop
                0x000000000001d76c       0x75 obj_cooja/mtype179.a(etimer.o)
                0x000000000001d76c                etimer_stop
 .text          0x000000000001d7e1        0x0 obj_cooja/mtype179.a(process.o)
 .text.process_alloc_event
                0x000000000001d7e1       0x15 obj_cooja/mtype179.a(process.o)
                0x000000000001d7e1                process_alloc_event
 .text.process_start
                0x000000000001d7f6       0x6f obj_cooja/mtype179.a(process.o)
                0x000000000001d7f6                process_start
 .text.exit_process
                0x000000000001d865       0xea obj_cooja/mtype179.a(process.o)
 .text.call_process
                0x000000000001d94f       0x90 obj_cooja/mtype179.a(process.o)
 .text.process_exit
                0x000000000001d9df       0x1c obj_cooja/mtype179.a(process.o)
                0x000000000001d9df                process_exit
 .text.process_init
                0x000000000001d9fb       0x33 obj_cooja/mtype179.a(process.o)
                0x000000000001d9fb                process_init
 .text.do_poll  0x000000000001da2e       0x5b obj_cooja/mtype179.a(process.o)
 .text.do_event
                0x000000000001da89      0x114 obj_cooja/mtype179.a(process.o)
 .text.process_run
                0x000000000001db9d       0x33 obj_cooja/mtype179.a(process.o)
                0x000000000001db9d                process_run
 .text.process_nevents
                0x000000000001dbd0       0x1b obj_cooja/mtype179.a(process.o)
                0x000000000001dbd0                process_nevents
 .text.process_post
                0x000000000001dbeb       0x95 obj_cooja/mtype179.a(process.o)
                0x000000000001dbeb                process_post
 .text.process_post_synch
                0x000000000001dc80       0x38 obj_cooja/mtype179.a(process.o)
                0x000000000001dc80                process_post_synch
 .text.process_poll
                0x000000000001dcb8       0x2f obj_cooja/mtype179.a(process.o)
                0x000000000001dcb8                process_poll
 .text.process_is_running
                0x000000000001dce7       0x14 obj_cooja/mtype179.a(process.o)
                0x000000000001dce7                process_is_running
 .text          0x000000000001dcfb        0x0 obj_cooja/mtype179.a(rtimer.o)
 .text.rtimer_init
                0x000000000001dcfb        0xd obj_cooja/mtype179.a(rtimer.o)
                0x000000000001dcfb                rtimer_init
 .text.rtimer_set
                0x000000000001dd08       0x7c obj_cooja/mtype179.a(rtimer.o)
                0x000000000001dd08                rtimer_set
 .text.rtimer_run_next
                0x000000000001dd84       0x5d obj_cooja/mtype179.a(rtimer.o)
                0x000000000001dd84                rtimer_run_next
 .text          0x000000000001dde1        0x0 obj_cooja/mtype179.a(timer.o)
 .text.timer_set
                0x000000000001dde1       0x1b obj_cooja/mtype179.a(timer.o)
                0x000000000001dde1                timer_set
 .text.timer_reset
                0x000000000001ddfc       0x17 obj_cooja/mtype179.a(timer.o)
                0x000000000001ddfc                timer_reset
 .text.timer_restart
                0x000000000001de13       0x12 obj_cooja/mtype179.a(timer.o)
                0x000000000001de13                timer_restart
 .text.timer_expired
                0x000000000001de25       0x29 obj_cooja/mtype179.a(timer.o)
                0x000000000001de25                timer_expired
 .text.timer_remaining
                0x000000000001de4e       0x24 obj_cooja/mtype179.a(timer.o)
                0x000000000001de4e                timer_remaining
 .text          0x000000000001de72        0x0 obj_cooja/mtype179.a(serial-line.o)
 .text.serial_line_input_byte
                0x000000000001de72       0x7d obj_cooja/mtype179.a(serial-line.o)
                0x000000000001de72                serial_line_input_byte
 .text.process_thread_serial_line_process
                0x000000000001deef      0x146 obj_cooja/mtype179.a(serial-line.o)
 .text.serial_line_init
                0x000000000001e035       0x38 obj_cooja/mtype179.a(serial-line.o)
                0x000000000001e035                serial_line_init
 .text          0x000000000001e06d        0x0 obj_cooja/mtype179.a(assert.o)
 .text._xassert
                0x000000000001e06d       0x22 obj_cooja/mtype179.a(assert.o)
                0x000000000001e06d                _xassert
 .text          0x000000000001e08f        0x0 obj_cooja/mtype179.a(list.o)
 .text.list_init
                0x000000000001e08f        0xe obj_cooja/mtype179.a(list.o)
                0x000000000001e08f                list_init
 .text.list_head
                0x000000000001e09d        0xa obj_cooja/mtype179.a(list.o)
                0x000000000001e09d                list_head
 .text.list_copy
                0x000000000001e0a7        0xf obj_cooja/mtype179.a(list.o)
                0x000000000001e0a7                list_copy
 .text.list_tail
                0x000000000001e0b6       0x36 obj_cooja/mtype179.a(list.o)
                0x000000000001e0b6                list_tail
 .text.list_add
                0x000000000001e0ec       0x49 obj_cooja/mtype179.a(list.o)
                0x000000000001e0ec                list_add
 .text.list_push
                0x000000000001e135       0x2c obj_cooja/mtype179.a(list.o)
                0x000000000001e135                list_push
 .text.list_chop
                0x000000000001e161       0x6a obj_cooja/mtype179.a(list.o)
                0x000000000001e161                list_chop
 .text.list_pop
                0x000000000001e1cb       0x28 obj_cooja/mtype179.a(list.o)
                0x000000000001e1cb                list_pop
 .text.list_remove
                0x000000000001e1f3       0x67 obj_cooja/mtype179.a(list.o)
                0x000000000001e1f3                list_remove
 .text.list_length
                0x000000000001e25a       0x2e obj_cooja/mtype179.a(list.o)
                0x000000000001e25a                list_length
 .text.list_insert
                0x000000000001e288       0x34 obj_cooja/mtype179.a(list.o)
                0x000000000001e288                list_insert
 .text.list_item_next
                0x000000000001e2bc       0x17 obj_cooja/mtype179.a(list.o)
                0x000000000001e2bc                list_item_next
 .text          0x000000000001e2d3        0x0 obj_cooja/mtype179.a(memb.o)
 .text.memb_init
                0x000000000001e2d3       0x5e obj_cooja/mtype179.a(memb.o)
                0x000000000001e2d3                memb_init
 .text.memb_alloc
                0x000000000001e331       0x65 obj_cooja/mtype179.a(memb.o)
                0x000000000001e331                memb_alloc
 .text.memb_free
                0x000000000001e396       0x7b obj_cooja/mtype179.a(memb.o)
                0x000000000001e396                memb_free
 .text.memb_inmemb
                0x000000000001e411       0x3f obj_cooja/mtype179.a(memb.o)
                0x000000000001e411                memb_inmemb
 .text.memb_numfree
                0x000000000001e450       0x44 obj_cooja/mtype179.a(memb.o)
                0x000000000001e450                memb_numfree
 .text          0x000000000001e494        0x0 obj_cooja/mtype179.a(ringbuf.o)
 .text.ringbuf_init
                0x000000000001e494       0x31 obj_cooja/mtype179.a(ringbuf.o)
                0x000000000001e494                ringbuf_init
 .text.ringbuf_put
                0x000000000001e4c5       0x7e obj_cooja/mtype179.a(ringbuf.o)
                0x000000000001e4c5                ringbuf_put
 .text.ringbuf_get
                0x000000000001e543       0x6d obj_cooja/mtype179.a(ringbuf.o)
                0x000000000001e543                ringbuf_get
 .text.ringbuf_size
                0x000000000001e5b0       0x12 obj_cooja/mtype179.a(ringbuf.o)
                0x000000000001e5b0                ringbuf_size
 .text.ringbuf_elements
                0x000000000001e5c2       0x27 obj_cooja/mtype179.a(ringbuf.o)
                0x000000000001e5c2                ringbuf_elements
 .text          0x000000000001e5e9        0x0 obj_cooja/mtype179.a(sicslowpan.o)
 .text.packetbuf_set_attr
                0x000000000001e5e9       0x2a obj_cooja/mtype179.a(sicslowpan.o)
 .text.packetbuf_attr
                0x000000000001e613       0x1a obj_cooja/mtype179.a(sicslowpan.o)
 .text.packetbuf_set_addr
                0x000000000001e62d       0x32 obj_cooja/mtype179.a(sicslowpan.o)
 .text.packetbuf_addr
                0x000000000001e65f       0x1d obj_cooja/mtype179.a(sicslowpan.o)
 .text.clear_fragments
                0x000000000001e67c       0x79 obj_cooja/mtype179.a(sicslowpan.o)
 .text.timeout_fragments
                0x000000000001e6f5       0x75 obj_cooja/mtype179.a(sicslowpan.o)
 .text.store_fragment
                0x000000000001e76a       0xe8 obj_cooja/mtype179.a(sicslowpan.o)
 .text.add_fragment
                0x000000000001e852      0x23e obj_cooja/mtype179.a(sicslowpan.o)
 .text.copy_frags2uip
                0x000000000001ea90       0xe3 obj_cooja/mtype179.a(sicslowpan.o)
 .text.rime_sniffer_add
                0x000000000001eb73        0xd obj_cooja/mtype179.a(sicslowpan.o)
                0x000000000001eb73                rime_sniffer_add
 .text.rime_sniffer_remove
                0x000000000001eb80        0xf obj_cooja/mtype179.a(sicslowpan.o)
                0x000000000001eb80                rime_sniffer_remove
 .text.set_packet_attrs
                0x000000000001eb8f       0xe9 obj_cooja/mtype179.a(sicslowpan.o)
 .text.addr_context_lookup_by_prefix
                0x000000000001ec78       0x7a obj_cooja/mtype179.a(sicslowpan.o)
 .text.addr_context_lookup_by_number
                0x000000000001ecf2       0x6a obj_cooja/mtype179.a(sicslowpan.o)
 .text.compress_addr_64
                0x000000000001ed5c      0x16c obj_cooja/mtype179.a(sicslowpan.o)
 .text.uncompress_addr
                0x000000000001eec8      0x120 obj_cooja/mtype179.a(sicslowpan.o)
 .text.compress_hdr_iphc
                0x000000000001efe8      0x994 obj_cooja/mtype179.a(sicslowpan.o)
 .text.uncompress_hdr_iphc
                0x000000000001f97c      0x7dd obj_cooja/mtype179.a(sicslowpan.o)
 .text.compress_hdr_ipv6
                0x0000000000020159       0x68 obj_cooja/mtype179.a(sicslowpan.o)
 .text.packet_sent
                0x00000000000201c1       0x3b obj_cooja/mtype179.a(sicslowpan.o)
 .text.send_packet
                0x00000000000201fc       0x36 obj_cooja/mtype179.a(sicslowpan.o)
 .text.output   0x0000000000020232      0x49d obj_cooja/mtype179.a(sicslowpan.o)
 .text.input    0x00000000000206cf      0x458 obj_cooja/mtype179.a(sicslowpan.o)
 .text.sicslowpan_init
                0x0000000000020b27       0x57 obj_cooja/mtype179.a(sicslowpan.o)
                0x0000000000020b27                sicslowpan_init
 .text.sicslowpan_get_last_rssi
                0x0000000000020b7e        0xa obj_cooja/mtype179.a(sicslowpan.o)
                0x0000000000020b7e                sicslowpan_get_last_rssi
 .text          0x0000000000020b88        0x0 obj_cooja/mtype179.a(uip-ds6-nbr.o)
 .text.packetbuf_addr
                0x0000000000020b88       0x1d obj_cooja/mtype179.a(uip-ds6-nbr.o)
 .text.uip_ds6_neighbors_init
                0x0000000000020ba5       0x22 obj_cooja/mtype179.a(uip-ds6-nbr.o)
                0x0000000000020ba5                uip_ds6_neighbors_init
 .text.uip_ds6_nbr_add
                0x0000000000020bc7       0xe2 obj_cooja/mtype179.a(uip-ds6-nbr.o)
                0x0000000000020bc7                uip_ds6_nbr_add
 .text.uip_ds6_nbr_rm
                0x0000000000020ca9       0x42 obj_cooja/mtype179.a(uip-ds6-nbr.o)
                0x0000000000020ca9                uip_ds6_nbr_rm
 .text.uip_ds6_nbr_get_ipaddr
                0x0000000000020ceb       0x15 obj_cooja/mtype179.a(uip-ds6-nbr.o)
                0x0000000000020ceb                uip_ds6_nbr_get_ipaddr
 .text.uip_ds6_nbr_get_ll
                0x0000000000020d00       0x1c obj_cooja/mtype179.a(uip-ds6-nbr.o)
                0x0000000000020d00                uip_ds6_nbr_get_ll
 .text.uip_ds6_nbr_num
                0x0000000000020d1c       0x45 obj_cooja/mtype179.a(uip-ds6-nbr.o)
                0x0000000000020d1c                uip_ds6_nbr_num
 .text.uip_ds6_nbr_lookup
                0x0000000000020d61       0x65 obj_cooja/mtype179.a(uip-ds6-nbr.o)
                0x0000000000020d61                uip_ds6_nbr_lookup
 .text.uip_ds6_nbr_ll_lookup
                0x0000000000020dc6       0x1c obj_cooja/mtype179.a(uip-ds6-nbr.o)
                0x0000000000020dc6                uip_ds6_nbr_ll_lookup
 .text.uip_ds6_nbr_ipaddr_from_lladdr
                0x0000000000020de2       0x26 obj_cooja/mtype179.a(uip-ds6-nbr.o)
                0x0000000000020de2                uip_ds6_nbr_ipaddr_from_lladdr
 .text.uip_ds6_nbr_lladdr_from_ipaddr
                0x0000000000020e08       0x2e obj_cooja/mtype179.a(uip-ds6-nbr.o)
                0x0000000000020e08                uip_ds6_nbr_lladdr_from_ipaddr
 .text.uip_ds6_link_neighbor_callback
                0x0000000000020e36       0x62 obj_cooja/mtype179.a(uip-ds6-nbr.o)
                0x0000000000020e36                uip_ds6_link_neighbor_callback
 .text.uip_ds6_neighbor_periodic
                0x0000000000020e98      0x244 obj_cooja/mtype179.a(uip-ds6-nbr.o)
                0x0000000000020e98                uip_ds6_neighbor_periodic
 .text.uip_ds6_nbr_refresh_reachable_state
                0x00000000000210dc       0x40 obj_cooja/mtype179.a(uip-ds6-nbr.o)
                0x00000000000210dc                uip_ds6_nbr_refresh_reachable_state
 .text.uip_ds6_get_least_lifetime_neighbor
                0x000000000002111c       0x7b obj_cooja/mtype179.a(uip-ds6-nbr.o)
                0x000000000002111c                uip_ds6_get_least_lifetime_neighbor
 .text          0x0000000000021197        0x0 obj_cooja/mtype179.a(uip-ds6-route.o)
 .text.call_route_callback
                0x0000000000021197       0x77 obj_cooja/mtype179.a(uip-ds6-route.o)
 .text.uip_ds6_notification_add
                0x000000000002120e       0x31 obj_cooja/mtype179.a(uip-ds6-route.o)
                0x000000000002120e                uip_ds6_notification_add
 .text.uip_ds6_notification_rm
                0x000000000002123f       0x1c obj_cooja/mtype179.a(uip-ds6-route.o)
                0x000000000002123f                uip_ds6_notification_rm
 .text.uip_ds6_route_init
                0x000000000002125b       0x5c obj_cooja/mtype179.a(uip-ds6-route.o)
                0x000000000002125b                uip_ds6_route_init
 .text.uip_ds6_route_nexthop_lladdr
                0x00000000000212b7       0x2c obj_cooja/mtype179.a(uip-ds6-route.o)
 .text.uip_ds6_route_nexthop
                0x00000000000212e3       0x28 obj_cooja/mtype179.a(uip-ds6-route.o)
                0x00000000000212e3                uip_ds6_route_nexthop
 .text.uip_ds6_route_head
                0x000000000002130b       0x15 obj_cooja/mtype179.a(uip-ds6-route.o)
                0x000000000002130b                uip_ds6_route_head
 .text.uip_ds6_route_next
                0x0000000000021320       0x26 obj_cooja/mtype179.a(uip-ds6-route.o)
                0x0000000000021320                uip_ds6_route_next
 .text.uip_ds6_route_is_nexthop
                0x0000000000021346       0x3f obj_cooja/mtype179.a(uip-ds6-route.o)
                0x0000000000021346                uip_ds6_route_is_nexthop
 .text.uip_ds6_route_num_routes
                0x0000000000021385        0xa obj_cooja/mtype179.a(uip-ds6-route.o)
                0x0000000000021385                uip_ds6_route_num_routes
 .text.uip_ds6_route_lookup
                0x000000000002138f       0xc2 obj_cooja/mtype179.a(uip-ds6-route.o)
                0x000000000002138f                uip_ds6_route_lookup
 .text.uip_ds6_route_add
                0x0000000000021451      0x236 obj_cooja/mtype179.a(uip-ds6-route.o)
                0x0000000000021451                uip_ds6_route_add
 .text.uip_ds6_route_rm
                0x0000000000021687      0x11d obj_cooja/mtype179.a(uip-ds6-route.o)
                0x0000000000021687                uip_ds6_route_rm
 .text.rm_routelist
                0x00000000000217a4       0x64 obj_cooja/mtype179.a(uip-ds6-route.o)
 .text.rm_routelist_callback
                0x0000000000021808       0x13 obj_cooja/mtype179.a(uip-ds6-route.o)
 .text.uip_ds6_route_rm_by_nexthop
                0x000000000002181b       0x38 obj_cooja/mtype179.a(uip-ds6-route.o)
                0x000000000002181b                uip_ds6_route_rm_by_nexthop
 .text.uip_ds6_defrt_head
                0x0000000000021853       0x15 obj_cooja/mtype179.a(uip-ds6-route.o)
                0x0000000000021853                uip_ds6_defrt_head
 .text.uip_ds6_defrt_add
                0x0000000000021868       0xb1 obj_cooja/mtype179.a(uip-ds6-route.o)
                0x0000000000021868                uip_ds6_defrt_add
 .text.uip_ds6_defrt_rm
                0x0000000000021919       0x7f obj_cooja/mtype179.a(uip-ds6-route.o)
                0x0000000000021919                uip_ds6_defrt_rm
 .text.uip_ds6_defrt_lookup
                0x0000000000021998       0x59 obj_cooja/mtype179.a(uip-ds6-route.o)
                0x0000000000021998                uip_ds6_defrt_lookup
 .text.uip_ds6_defrt_choose
                0x00000000000219f1       0x6b obj_cooja/mtype179.a(uip-ds6-route.o)
                0x00000000000219f1                uip_ds6_defrt_choose
 .text.uip_ds6_defrt_periodic
                0x0000000000021a5c       0x68 obj_cooja/mtype179.a(uip-ds6-route.o)
                0x0000000000021a5c                uip_ds6_defrt_periodic
 .text          0x0000000000021ac4        0x0 obj_cooja/mtype179.a(uip-ds6.o)
 .text.uip_ds6_init
                0x0000000000021ac4      0x1d3 obj_cooja/mtype179.a(uip-ds6.o)
                0x0000000000021ac4                uip_ds6_init
 .text.uip_ds6_periodic
                0x0000000000021c97       0x7e obj_cooja/mtype179.a(uip-ds6.o)
                0x0000000000021c97                uip_ds6_periodic
 .text.uip_ds6_list_loop
                0x0000000000021d15       0xa7 obj_cooja/mtype179.a(uip-ds6.o)
                0x0000000000021d15                uip_ds6_list_loop
 .text.uip_ds6_prefix_add
                0x0000000000021dbc       0xbe obj_cooja/mtype179.a(uip-ds6.o)
                0x0000000000021dbc                uip_ds6_prefix_add
 .text.uip_ds6_prefix_rm
                0x0000000000021e7a       0x12 obj_cooja/mtype179.a(uip-ds6.o)
                0x0000000000021e7a                uip_ds6_prefix_rm
 .text.uip_ds6_prefix_lookup
                0x0000000000021e8c       0x51 obj_cooja/mtype179.a(uip-ds6.o)
                0x0000000000021e8c                uip_ds6_prefix_lookup
 .text.uip_ds6_is_addr_onlink
                0x0000000000021edd       0x74 obj_cooja/mtype179.a(uip-ds6.o)
                0x0000000000021edd                uip_ds6_is_addr_onlink
 .text.uip_ds6_addr_add
                0x0000000000021f51      0x12e obj_cooja/mtype179.a(uip-ds6.o)
                0x0000000000021f51                uip_ds6_addr_add
 .text.uip_ds6_addr_rm
                0x000000000002207f       0xa0 obj_cooja/mtype179.a(uip-ds6.o)
                0x000000000002207f                uip_ds6_addr_rm
 .text.uip_ds6_addr_lookup
                0x000000000002211f       0x4b obj_cooja/mtype179.a(uip-ds6.o)
                0x000000000002211f                uip_ds6_addr_lookup
 .text.uip_ds6_get_link_local
                0x000000000002216a       0x7f obj_cooja/mtype179.a(uip-ds6.o)
                0x000000000002216a                uip_ds6_get_link_local
 .text.uip_ds6_get_global
                0x00000000000221e9       0x7f obj_cooja/mtype179.a(uip-ds6.o)
                0x00000000000221e9                uip_ds6_get_global
 .text.uip_ds6_maddr_add
                0x0000000000022268       0x72 obj_cooja/mtype179.a(uip-ds6.o)
                0x0000000000022268                uip_ds6_maddr_add
 .text.uip_ds6_maddr_rm
                0x00000000000222da       0x12 obj_cooja/mtype179.a(uip-ds6.o)
                0x00000000000222da                uip_ds6_maddr_rm
 .text.uip_ds6_maddr_lookup
                0x00000000000222ec       0x4b obj_cooja/mtype179.a(uip-ds6.o)
                0x00000000000222ec                uip_ds6_maddr_lookup
 .text.uip_ds6_aaddr_add
                0x0000000000022337       0x72 obj_cooja/mtype179.a(uip-ds6.o)
                0x0000000000022337                uip_ds6_aaddr_add
 .text.uip_ds6_aaddr_rm
                0x00000000000223a9       0x12 obj_cooja/mtype179.a(uip-ds6.o)
                0x00000000000223a9                uip_ds6_aaddr_rm
 .text.uip_ds6_aaddr_lookup
                0x00000000000223bb       0x4b obj_cooja/mtype179.a(uip-ds6.o)
                0x00000000000223bb                uip_ds6_aaddr_lookup
 .text.uip_ds6_select_src
                0x0000000000022406      0x145 obj_cooja/mtype179.a(uip-ds6.o)
                0x0000000000022406                uip_ds6_select_src
 .text.uip_ds6_set_addr_iid
                0x000000000002254b       0x37 obj_cooja/mtype179.a(uip-ds6.o)
                0x000000000002254b                uip_ds6_set_addr_iid
 .text.get_match_length
                0x0000000000022582       0x92 obj_cooja/mtype179.a(uip-ds6.o)
                0x0000000000022582                get_match_length
 .text.uip_ds6_compute_reachable_time
                0x0000000000022614       0x4c obj_cooja/mtype179.a(uip-ds6.o)
                0x0000000000022614                uip_ds6_compute_reachable_time
 .text          0x0000000000022660        0x0 obj_cooja/mtype179.a(uip-nd6.o)
 .text.extract_lladdr_from_llao_aligned
                0x0000000000022660       0x42 obj_cooja/mtype179.a(uip-nd6.o)
 .text.create_llao
                0x00000000000226a2       0x54 obj_cooja/mtype179.a(uip-nd6.o)
 .text.ns_input
                0x00000000000226f6      0x602 obj_cooja/mtype179.a(uip-nd6.o)
 .text.uip_nd6_ns_output
                0x0000000000022cf8      0x2ff obj_cooja/mtype179.a(uip-nd6.o)
                0x0000000000022cf8                uip_nd6_ns_output
 .text.na_input
                0x0000000000022ff7      0x430 obj_cooja/mtype179.a(uip-nd6.o)
 .text.uip_nd6_init
                0x0000000000023427       0x20 obj_cooja/mtype179.a(uip-nd6.o)
                0x0000000000023427                uip_nd6_init
 .text          0x0000000000023447        0x0 obj_cooja/mtype179.a(uip6.o)
 .text.uip_add32
                0x0000000000023447       0xea obj_cooja/mtype179.a(uip6.o)
                0x0000000000023447                uip_add32
 .text.chksum   0x0000000000023531       0xaf obj_cooja/mtype179.a(uip6.o)
 .text.uip_chksum
                0x00000000000235e0       0x35 obj_cooja/mtype179.a(uip6.o)
                0x00000000000235e0                uip_chksum
 .text.upper_layer_chksum
                0x0000000000023615       0xb9 obj_cooja/mtype179.a(uip6.o)
 .text.uip_icmp6chksum
                0x00000000000236ce       0x14 obj_cooja/mtype179.a(uip6.o)
                0x00000000000236ce                uip_icmp6chksum
 .text.uip_tcpchksum
                0x00000000000236e2       0x14 obj_cooja/mtype179.a(uip6.o)
                0x00000000000236e2                uip_tcpchksum
 .text.uip_udpchksum
                0x00000000000236f6       0x14 obj_cooja/mtype179.a(uip6.o)
                0x00000000000236f6                uip_udpchksum
 .text.uip_init
                0x000000000002370a       0x8b obj_cooja/mtype179.a(uip6.o)
                0x000000000002370a                uip_init
 .text.uip_connect
                0x0000000000023795      0x181 obj_cooja/mtype179.a(uip6.o)
                0x0000000000023795                uip_connect
 .text.remove_ext_hdr
                0x0000000000023916       0xd5 obj_cooja/mtype179.a(uip6.o)
                0x0000000000023916                remove_ext_hdr
 .text.uip_udp_new
                0x00000000000239eb      0x127 obj_cooja/mtype179.a(uip6.o)
                0x00000000000239eb                uip_udp_new
 .text.uip_unlisten
                0x0000000000023b12       0x42 obj_cooja/mtype179.a(uip6.o)
                0x0000000000023b12                uip_unlisten
 .text.uip_listen
                0x0000000000023b54       0x43 obj_cooja/mtype179.a(uip6.o)
                0x0000000000023b54                uip_listen
 .text.uip_add_rcv_nxt
                0x0000000000023b97       0x64 obj_cooja/mtype179.a(uip6.o)
 .text.ext_hdr_options_process
                0x0000000000023bfb      0x1fd obj_cooja/mtype179.a(uip6.o)
 .text.uip_process
                0x0000000000023df8     0x1ca1 obj_cooja/mtype179.a(uip6.o)
                0x0000000000023df8                uip_process
 .text.uip_htons
                0x0000000000025a99       0x22 obj_cooja/mtype179.a(uip6.o)
                0x0000000000025a99                uip_htons
 .text.uip_htonl
                0x0000000000025abb       0x40 obj_cooja/mtype179.a(uip6.o)
                0x0000000000025abb                uip_htonl
 .text.uip_send
                0x0000000000025afb       0xaa obj_cooja/mtype179.a(uip6.o)
                0x0000000000025afb                uip_send
 .text          0x0000000000025ba5        0x0 obj_cooja/mtype179.a(tcpip.o)
 .text.tcpip_output
                0x0000000000025ba5       0x2e obj_cooja/mtype179.a(tcpip.o)
                0x0000000000025ba5                tcpip_output
 .text.tcpip_set_outputfunc
                0x0000000000025bd3        0xd obj_cooja/mtype179.a(tcpip.o)
                0x0000000000025bd3                tcpip_set_outputfunc
 .text.start_periodic_tcp_timer
                0x0000000000025be0       0x24 obj_cooja/mtype179.a(tcpip.o)
 .text.check_for_tcp_syn
                0x0000000000025c04       0x2d obj_cooja/mtype179.a(tcpip.o)
 .text.packet_input
                0x0000000000025c31       0x36 obj_cooja/mtype179.a(tcpip.o)
 .text.tcp_connect
                0x0000000000025c67       0x55 obj_cooja/mtype179.a(tcpip.o)
                0x0000000000025c67                tcp_connect
 .text.tcp_unlisten
                0x0000000000025cbc       0x5b obj_cooja/mtype179.a(tcpip.o)
                0x0000000000025cbc                tcp_unlisten
 .text.tcp_listen
                0x0000000000025d17       0x59 obj_cooja/mtype179.a(tcpip.o)
                0x0000000000025d17                tcp_listen
 .text.tcp_attach
                0x0000000000025d70       0x25 obj_cooja/mtype179.a(tcpip.o)
                0x0000000000025d70                tcp_attach
 .text.udp_attach
                0x0000000000025d95       0x25 obj_cooja/mtype179.a(tcpip.o)
                0x0000000000025d95                udp_attach
 .text.udp_new  0x0000000000025dba       0x52 obj_cooja/mtype179.a(tcpip.o)
                0x0000000000025dba                udp_new
 .text.udp_broadcast_new
                0x0000000000025e0c       0x92 obj_cooja/mtype179.a(tcpip.o)
                0x0000000000025e0c                udp_broadcast_new
 .text.eventhandler
                0x0000000000025e9e      0x1e2 obj_cooja/mtype179.a(tcpip.o)
 .text.tcpip_input
                0x0000000000026080       0x34 obj_cooja/mtype179.a(tcpip.o)
                0x0000000000026080                tcpip_input
 .text.tcpip_ipv6_output
                0x00000000000260b4      0x4b5 obj_cooja/mtype179.a(tcpip.o)
                0x00000000000260b4                tcpip_ipv6_output
 .text.tcpip_poll_udp
                0x0000000000026569       0x23 obj_cooja/mtype179.a(tcpip.o)
                0x0000000000026569                tcpip_poll_udp
 .text.tcpip_poll_tcp
                0x000000000002658c       0x23 obj_cooja/mtype179.a(tcpip.o)
                0x000000000002658c                tcpip_poll_tcp
 .text.tcpip_uipcall
                0x00000000000265af       0xbd obj_cooja/mtype179.a(tcpip.o)
                0x00000000000265af                tcpip_uipcall
 .text.process_thread_tcpip_process
                0x000000000002666c       0xb7 obj_cooja/mtype179.a(tcpip.o)
 .text          0x0000000000026723        0x0 obj_cooja/mtype179.a(uip-debug.o)
 .text.uip_debug_ipaddr_print
                0x0000000000026723      0x162 obj_cooja/mtype179.a(uip-debug.o)
                0x0000000000026723                uip_debug_ipaddr_print
 .text          0x0000000000026885        0x0 obj_cooja/mtype179.a(uip-packetqueue)
 .text.packet_timedout
                0x0000000000026885       0x2c obj_cooja/mtype179.a(uip-packetqueue)
 .text.uip_packetqueue_new
                0x00000000000268b1        0xe obj_cooja/mtype179.a(uip-packetqueue)
                0x00000000000268b1                uip_packetqueue_new
 .text.uip_packetqueue_alloc
                0x00000000000268bf       0x60 obj_cooja/mtype179.a(uip-packetqueue)
                0x00000000000268bf                uip_packetqueue_alloc
 .text.uip_packetqueue_free
                0x000000000002691f       0x41 obj_cooja/mtype179.a(uip-packetqueue)
                0x000000000002691f                uip_packetqueue_free
 .text.uip_packetqueue_buf
                0x0000000000026960       0x1d obj_cooja/mtype179.a(uip-packetqueue)
                0x0000000000026960                uip_packetqueue_buf
 .text.uip_packetqueue_buflen
                0x000000000002697d       0x21 obj_cooja/mtype179.a(uip-packetqueue)
                0x000000000002697d                uip_packetqueue_buflen
 .text.uip_packetqueue_set_buflen
                0x000000000002699e       0x28 obj_cooja/mtype179.a(uip-packetqueue)
                0x000000000002699e                uip_packetqueue_set_buflen
 .text          0x00000000000269c6        0x0 obj_cooja/mtype179.a(uip-udp-packet.)
 .text.uip_udp_packet_send
                0x00000000000269c6       0x5c obj_cooja/mtype179.a(uip-udp-packet.)
                0x00000000000269c6                uip_udp_packet_send
 .text.uip_udp_packet_sendto
                0x0000000000026a22       0xd1 obj_cooja/mtype179.a(uip-udp-packet.)
                0x0000000000026a22                uip_udp_packet_sendto
 .text          0x0000000000026af3        0x0 obj_cooja/mtype179.a(rpl-dag.o)
 .text.rpl_print_neighbor_list
                0x0000000000026af3      0x1e6 obj_cooja/mtype179.a(rpl-dag.o)
                0x0000000000026af3                rpl_print_neighbor_list
 .text.rpl_get_nbr
                0x0000000000026cd9       0x37 obj_cooja/mtype179.a(rpl-dag.o)
                0x0000000000026cd9                rpl_get_nbr
 .text.nbr_callback
                0x0000000000026d10       0x13 obj_cooja/mtype179.a(rpl-dag.o)
 .text.rpl_dag_init
                0x0000000000026d23       0x1d obj_cooja/mtype179.a(rpl-dag.o)
                0x0000000000026d23                rpl_dag_init
 .text.rpl_get_parent
                0x0000000000026d40       0x22 obj_cooja/mtype179.a(rpl-dag.o)
                0x0000000000026d40                rpl_get_parent
 .text.rpl_get_parent_rank
                0x0000000000026d62       0x33 obj_cooja/mtype179.a(rpl-dag.o)
                0x0000000000026d62                rpl_get_parent_rank
 .text.rpl_get_parent_link_metric
                0x0000000000026d95       0x57 obj_cooja/mtype179.a(rpl-dag.o)
                0x0000000000026d95                rpl_get_parent_link_metric
 .text.rpl_rank_via_parent
                0x0000000000026dec       0x57 obj_cooja/mtype179.a(rpl-dag.o)
                0x0000000000026dec                rpl_rank_via_parent
 .text.rpl_get_parent_lladdr
                0x0000000000026e43       0x1c obj_cooja/mtype179.a(rpl-dag.o)
                0x0000000000026e43                rpl_get_parent_lladdr
 .text.rpl_get_parent_ipaddr
                0x0000000000026e5f       0x21 obj_cooja/mtype179.a(rpl-dag.o)
                0x0000000000026e5f                rpl_get_parent_ipaddr
 .text.rpl_get_parent_link_stats
                0x0000000000026e80       0x21 obj_cooja/mtype179.a(rpl-dag.o)
                0x0000000000026e80                rpl_get_parent_link_stats
 .text.rpl_parent_is_fresh
                0x0000000000026ea1       0x21 obj_cooja/mtype179.a(rpl-dag.o)
                0x0000000000026ea1                rpl_parent_is_fresh
 .text.rpl_parent_is_reachable
                0x0000000000026ec2       0x94 obj_cooja/mtype179.a(rpl-dag.o)
                0x0000000000026ec2                rpl_parent_is_reachable
 .text.rpl_set_preferred_parent
                0x0000000000026f56       0x4d obj_cooja/mtype179.a(rpl-dag.o)
 .text.lollipop_greater_than
                0x0000000000026fa3       0x61 obj_cooja/mtype179.a(rpl-dag.o)
 .text.remove_parents
                0x0000000000027004       0x60 obj_cooja/mtype179.a(rpl-dag.o)
 .text.nullify_parents
                0x0000000000027064       0x60 obj_cooja/mtype179.a(rpl-dag.o)
 .text.should_refresh_routes
                0x00000000000270c4       0x5b obj_cooja/mtype179.a(rpl-dag.o)
 .text.acceptable_rank
                0x000000000002711f       0x8f obj_cooja/mtype179.a(rpl-dag.o)
 .text.get_dag  0x00000000000271ae       0x81 obj_cooja/mtype179.a(rpl-dag.o)
 .text.rpl_set_root
                0x000000000002722f      0x257 obj_cooja/mtype179.a(rpl-dag.o)
                0x000000000002722f                rpl_set_root
 .text.rpl_repair_root
                0x0000000000027486       0xd6 obj_cooja/mtype179.a(rpl-dag.o)
                0x0000000000027486                rpl_repair_root
 .text.set_ip_from_prefix
                0x000000000002755c       0x66 obj_cooja/mtype179.a(rpl-dag.o)
 .text.check_prefix
                0x00000000000275c2      0x100 obj_cooja/mtype179.a(rpl-dag.o)
 .text.rpl_set_prefix
                0x00000000000276c2       0xff obj_cooja/mtype179.a(rpl-dag.o)
                0x00000000000276c2                rpl_set_prefix
 .text.rpl_set_default_route
                0x00000000000277c1       0x6e obj_cooja/mtype179.a(rpl-dag.o)
                0x00000000000277c1                rpl_set_default_route
 .text.rpl_alloc_instance
                0x000000000002782f       0x93 obj_cooja/mtype179.a(rpl-dag.o)
                0x000000000002782f                rpl_alloc_instance
 .text.rpl_alloc_dag
                0x00000000000278c2       0xb1 obj_cooja/mtype179.a(rpl-dag.o)
                0x00000000000278c2                rpl_alloc_dag
 .text.rpl_set_default_instance
                0x0000000000027973        0xd obj_cooja/mtype179.a(rpl-dag.o)
                0x0000000000027973                rpl_set_default_instance
 .text.rpl_get_default_instance
                0x0000000000027980        0xa obj_cooja/mtype179.a(rpl-dag.o)
                0x0000000000027980                rpl_get_default_instance
 .text.rpl_free_instance
                0x000000000002798a       0xaf obj_cooja/mtype179.a(rpl-dag.o)
                0x000000000002798a                rpl_free_instance
 .text.rpl_free_dag
                0x0000000000027a39       0x81 obj_cooja/mtype179.a(rpl-dag.o)
                0x0000000000027a39                rpl_free_dag
 .text.rpl_add_parent
                0x0000000000027aba       0x75 obj_cooja/mtype179.a(rpl-dag.o)
                0x0000000000027aba                rpl_add_parent
 .text.find_parent_any_dag_any_instance
                0x0000000000027b2f       0x38 obj_cooja/mtype179.a(rpl-dag.o)
 .text.rpl_find_parent
                0x0000000000027b67       0x30 obj_cooja/mtype179.a(rpl-dag.o)
                0x0000000000027b67                rpl_find_parent
 .text.find_parent_dag
                0x0000000000027b97       0x28 obj_cooja/mtype179.a(rpl-dag.o)
 .text.rpl_find_parent_any_dag
                0x0000000000027bbf       0x3c obj_cooja/mtype179.a(rpl-dag.o)
                0x0000000000027bbf                rpl_find_parent_any_dag
 .text.rpl_select_dag
                0x0000000000027bfb      0x322 obj_cooja/mtype179.a(rpl-dag.o)
                0x0000000000027bfb                rpl_select_dag
 .text.best_parent
                0x0000000000027f1d       0xfd obj_cooja/mtype179.a(rpl-dag.o)
 .text.rpl_select_parent
                0x000000000002801a       0xda obj_cooja/mtype179.a(rpl-dag.o)
                0x000000000002801a                rpl_select_parent
 .text.rpl_remove_parent
                0x00000000000280f4       0x27 obj_cooja/mtype179.a(rpl-dag.o)
                0x00000000000280f4                rpl_remove_parent
 .text.rpl_nullify_parent
                0x000000000002811b       0xc1 obj_cooja/mtype179.a(rpl-dag.o)
                0x000000000002811b                rpl_nullify_parent
 .text.rpl_move_parent
                0x00000000000281dc       0xb8 obj_cooja/mtype179.a(rpl-dag.o)
                0x00000000000281dc                rpl_move_parent
 .text.rpl_has_downward_route
                0x0000000000028294       0x53 obj_cooja/mtype179.a(rpl-dag.o)
                0x0000000000028294                rpl_has_downward_route
 .text.rpl_get_dag
                0x00000000000282e7       0xec obj_cooja/mtype179.a(rpl-dag.o)
                0x00000000000282e7                rpl_get_dag
 .text.rpl_get_any_dag
                0x00000000000283d3       0x62 obj_cooja/mtype179.a(rpl-dag.o)
                0x00000000000283d3                rpl_get_any_dag
 .text.rpl_get_instance
                0x0000000000028435       0x63 obj_cooja/mtype179.a(rpl-dag.o)
                0x0000000000028435                rpl_get_instance
 .text.rpl_find_of
                0x0000000000028498       0x3d obj_cooja/mtype179.a(rpl-dag.o)
                0x0000000000028498                rpl_find_of
 .text.rpl_join_instance
                0x00000000000284d5      0x2c0 obj_cooja/mtype179.a(rpl-dag.o)
                0x00000000000284d5                rpl_join_instance
 .text.rpl_add_dag
                0x0000000000028795      0x27c obj_cooja/mtype179.a(rpl-dag.o)
                0x0000000000028795                rpl_add_dag
 .text.global_repair
                0x0000000000028a11      0x154 obj_cooja/mtype179.a(rpl-dag.o)
 .text.rpl_local_repair
                0x0000000000028b65       0xd8 obj_cooja/mtype179.a(rpl-dag.o)
                0x0000000000028b65                rpl_local_repair
 .text.rpl_recalculate_ranks
                0x0000000000028c3d       0x86 obj_cooja/mtype179.a(rpl-dag.o)
                0x0000000000028c3d                rpl_recalculate_ranks
 .text.rpl_process_parent_event
                0x0000000000028cc3       0xfb obj_cooja/mtype179.a(rpl-dag.o)
                0x0000000000028cc3                rpl_process_parent_event
 .text.add_nbr_from_dio
                0x0000000000028dbe       0x32 obj_cooja/mtype179.a(rpl-dag.o)
 .text.rpl_process_dio
                0x0000000000028df0      0x4da obj_cooja/mtype179.a(rpl-dag.o)
                0x0000000000028df0                rpl_process_dio
 .text          0x00000000000292ca        0x0 obj_cooja/mtype179.a(rpl-ext-header.)
 .text.packetbuf_addr
                0x00000000000292ca       0x1d obj_cooja/mtype179.a(rpl-ext-header.)
 .text.rpl_verify_hbh_header
                0x00000000000292e7      0x2c8 obj_cooja/mtype179.a(rpl-ext-header.)
                0x00000000000292e7                rpl_verify_hbh_header
 .text.update_hbh_header
                0x00000000000295af      0x2b8 obj_cooja/mtype179.a(rpl-ext-header.)
 .text.insert_hbh_header
                0x0000000000029867      0x203 obj_cooja/mtype179.a(rpl-ext-header.)
 .text.rpl_remove_header
                0x0000000000029a6a      0x163 obj_cooja/mtype179.a(rpl-ext-header.)
                0x0000000000029a6a                rpl_remove_header
 .text.rpl_update_header
                0x0000000000029bcd       0xcc obj_cooja/mtype179.a(rpl-ext-header.)
                0x0000000000029bcd                rpl_update_header
 .text          0x0000000000029c99        0x0 obj_cooja/mtype179.a(rpl-icmp6.o)
 .text.packetbuf_addr
                0x0000000000029c99       0x1d obj_cooja/mtype179.a(rpl-icmp6.o)
 .text.prepare_for_dao_fwd
                0x0000000000029cb6       0x6c obj_cooja/mtype179.a(rpl-icmp6.o)
 .text.get_global_addr
                0x0000000000029d22       0xb3 obj_cooja/mtype179.a(rpl-icmp6.o)
 .text.get32    0x0000000000029dd5       0x57 obj_cooja/mtype179.a(rpl-icmp6.o)
 .text.set32    0x0000000000029e2c       0x62 obj_cooja/mtype179.a(rpl-icmp6.o)
 .text.get16    0x0000000000029e8e       0x2b obj_cooja/mtype179.a(rpl-icmp6.o)
 .text.set16    0x0000000000029eb9       0x3f obj_cooja/mtype179.a(rpl-icmp6.o)
 .text.rpl_icmp6_update_nbr_table
                0x0000000000029ef8       0x5b obj_cooja/mtype179.a(rpl-icmp6.o)
                0x0000000000029ef8                rpl_icmp6_update_nbr_table
 .text.dis_input
                0x0000000000029f53       0x95 obj_cooja/mtype179.a(rpl-icmp6.o)
 .text.dis_output
                0x0000000000029fe8       0xaf obj_cooja/mtype179.a(rpl-icmp6.o)
                0x0000000000029fe8                dis_output
 .text.dio_input
                0x000000000002a097      0x58a obj_cooja/mtype179.a(rpl-icmp6.o)
 .text.dio_output
                0x000000000002a621      0x622 obj_cooja/mtype179.a(rpl-icmp6.o)
                0x000000000002a621                dio_output
 .text.dao_input_storing
                0x000000000002ac43      0x6d8 obj_cooja/mtype179.a(rpl-icmp6.o)
 .text.dao_input_nonstoring
                0x000000000002b31b        0x5 obj_cooja/mtype179.a(rpl-icmp6.o)
 .text.dao_input
                0x000000000002b320       0x5f obj_cooja/mtype179.a(rpl-icmp6.o)
 .text.dao_output
                0x000000000002b37f       0xbb obj_cooja/mtype179.a(rpl-icmp6.o)
                0x000000000002b37f                dao_output
 .text.dao_output_target
                0x000000000002b43a       0x36 obj_cooja/mtype179.a(rpl-icmp6.o)
                0x000000000002b43a                dao_output_target
 .text.dao_output_target_seq
                0x000000000002b470      0x2ff obj_cooja/mtype179.a(rpl-icmp6.o)
 .text.dao_ack_input
                0x000000000002b76f       0x15 obj_cooja/mtype179.a(rpl-icmp6.o)
 .text.dao_ack_output
                0x000000000002b784       0x14 obj_cooja/mtype179.a(rpl-icmp6.o)
                0x000000000002b784                dao_ack_output
 .text.rpl_icmp6_register_handlers
                0x000000000002b798       0x38 obj_cooja/mtype179.a(rpl-icmp6.o)
                0x000000000002b798                rpl_icmp6_register_handlers
 .text          0x000000000002b7d0        0x0 obj_cooja/mtype179.a(rpl-mrhof.o)
 .text.reset    0x000000000002b7d0        0x5 obj_cooja/mtype179.a(rpl-mrhof.o)
 .text.parent_link_metric
                0x000000000002b7d5       0x29 obj_cooja/mtype179.a(rpl-mrhof.o)
 .text.parent_path_cost
                0x000000000002b7fe       0x6d obj_cooja/mtype179.a(rpl-mrhof.o)
 .text.rank_via_parent
                0x000000000002b86b       0x72 obj_cooja/mtype179.a(rpl-mrhof.o)
 .text.parent_is_acceptable
                0x000000000002b8dd       0x42 obj_cooja/mtype179.a(rpl-mrhof.o)
 .text.parent_has_usable_link
                0x000000000002b91f       0x23 obj_cooja/mtype179.a(rpl-mrhof.o)
 .text.best_parent
                0x000000000002b942       0xf7 obj_cooja/mtype179.a(rpl-mrhof.o)
 .text.best_dag
                0x000000000002ba39       0x75 obj_cooja/mtype179.a(rpl-mrhof.o)
 .text.update_metric_container
                0x000000000002baae        0xb obj_cooja/mtype179.a(rpl-mrhof.o)
 .text          0x000000000002bab9        0x0 obj_cooja/mtype179.a(rpl-timers.o)
 .text.handle_periodic_timer
                0x000000000002bab9       0x84 obj_cooja/mtype179.a(rpl-timers.o)
 .text.new_dio_interval
                0x000000000002bb3d       0xca obj_cooja/mtype179.a(rpl-timers.o)
 .text.handle_dio_timer
                0x000000000002bc07      0x12d obj_cooja/mtype179.a(rpl-timers.o)
 .text.rpl_reset_periodic_timer
                0x000000000002bd34       0x55 obj_cooja/mtype179.a(rpl-timers.o)
                0x000000000002bd34                rpl_reset_periodic_timer
 .text.rpl_reset_dio_timer
                0x000000000002bd89       0x48 obj_cooja/mtype179.a(rpl-timers.o)
                0x000000000002bd89                rpl_reset_dio_timer
 .text.set_dao_lifetime_timer
                0x000000000002bdd1       0x8c obj_cooja/mtype179.a(rpl-timers.o)
 .text.handle_dao_timer
                0x000000000002be5d       0xb1 obj_cooja/mtype179.a(rpl-timers.o)
 .text.schedule_dao
                0x000000000002bf0e       0xa2 obj_cooja/mtype179.a(rpl-timers.o)
 .text.rpl_schedule_dao
                0x000000000002bfb0       0x1b obj_cooja/mtype179.a(rpl-timers.o)
                0x000000000002bfb0                rpl_schedule_dao
 .text.rpl_schedule_dao_immediately
                0x000000000002bfcb       0x1b obj_cooja/mtype179.a(rpl-timers.o)
                0x000000000002bfcb                rpl_schedule_dao_immediately
 .text.rpl_cancel_dao
                0x000000000002bfe6       0x28 obj_cooja/mtype179.a(rpl-timers.o)
                0x000000000002bfe6                rpl_cancel_dao
 .text.handle_unicast_dio_timer
                0x000000000002c00e       0x3a obj_cooja/mtype179.a(rpl-timers.o)
 .text.rpl_schedule_unicast_dio_immediately
                0x000000000002c048       0x30 obj_cooja/mtype179.a(rpl-timers.o)
                0x000000000002c048                rpl_schedule_unicast_dio_immediately
 .text.get_probing_delay
                0x000000000002c078       0x7f obj_cooja/mtype179.a(rpl-timers.o)
                0x000000000002c078                get_probing_delay
 .text.get_probing_target
                0x000000000002c0f7      0x18c obj_cooja/mtype179.a(rpl-timers.o)
                0x000000000002c0f7                get_probing_target
 .text.handle_probing_timer
                0x000000000002c283       0x6b obj_cooja/mtype179.a(rpl-timers.o)
 .text.rpl_schedule_probing
                0x000000000002c2ee       0x3a obj_cooja/mtype179.a(rpl-timers.o)
                0x000000000002c2ee                rpl_schedule_probing
 .text          0x000000000002c328        0x0 obj_cooja/mtype179.a(rpl.o)
 .text.rpl_get_mode
                0x000000000002c328        0xa obj_cooja/mtype179.a(rpl.o)
                0x000000000002c328                rpl_get_mode
 .text.rpl_set_mode
                0x000000000002c332       0x8e obj_cooja/mtype179.a(rpl.o)
                0x000000000002c332                rpl_set_mode
 .text.rpl_purge_routes
                0x000000000002c3c0      0x105 obj_cooja/mtype179.a(rpl.o)
                0x000000000002c3c0                rpl_purge_routes
 .text.rpl_remove_routes
                0x000000000002c4c5       0x46 obj_cooja/mtype179.a(rpl.o)
                0x000000000002c4c5                rpl_remove_routes
 .text.rpl_remove_routes_by_nexthop
                0x000000000002c50b       0x61 obj_cooja/mtype179.a(rpl.o)
                0x000000000002c50b                rpl_remove_routes_by_nexthop
 .text.rpl_add_route
                0x000000000002c56c       0x93 obj_cooja/mtype179.a(rpl.o)
                0x000000000002c56c                rpl_add_route
 .text.rpl_link_neighbor_callback
                0x000000000002c5ff       0xca obj_cooja/mtype179.a(rpl.o)
                0x000000000002c5ff                rpl_link_neighbor_callback
 .text.rpl_ipv6_neighbor_callback
                0x000000000002c6c9       0x6f obj_cooja/mtype179.a(rpl.o)
                0x000000000002c6c9                rpl_ipv6_neighbor_callback
 .text.rpl_purge_dags
                0x000000000002c738       0xe2 obj_cooja/mtype179.a(rpl.o)
                0x000000000002c738                rpl_purge_dags
 .text.rpl_init
                0x000000000002c81a       0x78 obj_cooja/mtype179.a(rpl.o)
                0x000000000002c81a                rpl_init
 .text          0x000000000002c892        0x0 obj_cooja/mtype179.a(link-stats.o)
 .text.packetbuf_attr
                0x000000000002c892       0x1a obj_cooja/mtype179.a(link-stats.o)
 .text.link_stats_from_lladdr
                0x000000000002c8ac       0x1c obj_cooja/mtype179.a(link-stats.o)
                0x000000000002c8ac                link_stats_from_lladdr
 .text.link_stats_is_fresh
                0x000000000002c8c8       0x39 obj_cooja/mtype179.a(link-stats.o)
                0x000000000002c8c8                link_stats_is_fresh
 .text.guess_etx_from_rssi
                0x000000000002c901       0x7c obj_cooja/mtype179.a(link-stats.o)
                0x000000000002c901                guess_etx_from_rssi
 .text.link_stats_packet_sent
                0x000000000002c97d      0x10e obj_cooja/mtype179.a(link-stats.o)
                0x000000000002c97d                link_stats_packet_sent
 .text.link_stats_input_callback
                0x000000000002ca8b       0xaf obj_cooja/mtype179.a(link-stats.o)
                0x000000000002ca8b                link_stats_input_callback
 .text.periodic
                0x000000000002cb3a       0x54 obj_cooja/mtype179.a(link-stats.o)
 .text.link_stats_init
                0x000000000002cb8e       0x41 obj_cooja/mtype179.a(link-stats.o)
                0x000000000002cb8e                link_stats_init
 .text          0x000000000002cbcf        0x0 obj_cooja/mtype179.a(linkaddr.o)
 .text.linkaddr_copy
                0x000000000002cbcf       0x22 obj_cooja/mtype179.a(linkaddr.o)
                0x000000000002cbcf                linkaddr_copy
 .text.linkaddr_cmp
                0x000000000002cbf1       0x2a obj_cooja/mtype179.a(linkaddr.o)
                0x000000000002cbf1                linkaddr_cmp
 .text.linkaddr_set_node_addr
                0x000000000002cc1b       0x1b obj_cooja/mtype179.a(linkaddr.o)
                0x000000000002cc1b                linkaddr_set_node_addr
 .text          0x000000000002cc36        0x0 obj_cooja/mtype179.a(nbr-table.o)
 .text.key_from_index
                0x000000000002cc36       0x26 obj_cooja/mtype179.a(nbr-table.o)
 .text.item_from_index
                0x000000000002cc5c       0x2a obj_cooja/mtype179.a(nbr-table.o)
 .text.index_from_key
                0x000000000002cc86       0x27 obj_cooja/mtype179.a(nbr-table.o)
 .text.index_from_item
                0x000000000002ccad       0x32 obj_cooja/mtype179.a(nbr-table.o)
 .text.item_from_key
                0x000000000002ccdf       0x22 obj_cooja/mtype179.a(nbr-table.o)
 .text.key_from_item
                0x000000000002cd01       0x22 obj_cooja/mtype179.a(nbr-table.o)
 .text.index_from_lladdr
                0x000000000002cd23       0x6c obj_cooja/mtype179.a(nbr-table.o)
 .text.nbr_get_bit
                0x000000000002cd8f       0x54 obj_cooja/mtype179.a(nbr-table.o)
 .text.nbr_set_bit
                0x000000000002cde3       0x98 obj_cooja/mtype179.a(nbr-table.o)
 .text.remove_key
                0x000000000002ce7b       0xb7 obj_cooja/mtype179.a(nbr-table.o)
 .text.nbr_table_allocate
                0x000000000002cf32      0x173 obj_cooja/mtype179.a(nbr-table.o)
 .text.nbr_table_register
                0x000000000002d0a5       0x48 obj_cooja/mtype179.a(nbr-table.o)
                0x000000000002d0a5                nbr_table_register
 .text.nbr_table_head
                0x000000000002d0ed       0x5c obj_cooja/mtype179.a(nbr-table.o)
                0x000000000002d0ed                nbr_table_head
 .text.nbr_table_next
                0x000000000002d149       0x67 obj_cooja/mtype179.a(nbr-table.o)
                0x000000000002d149                nbr_table_next
 .text.nbr_table_add_lladdr
                0x000000000002d1b0       0xdc obj_cooja/mtype179.a(nbr-table.o)
                0x000000000002d1b0                nbr_table_add_lladdr
 .text.nbr_table_get_from_lladdr
                0x000000000002d28c       0x4d obj_cooja/mtype179.a(nbr-table.o)
                0x000000000002d28c                nbr_table_get_from_lladdr
 .text.nbr_table_remove
                0x000000000002d2d9       0x52 obj_cooja/mtype179.a(nbr-table.o)
                0x000000000002d2d9                nbr_table_remove
 .text.nbr_table_lock
                0x000000000002d32b       0x2a obj_cooja/mtype179.a(nbr-table.o)
                0x000000000002d32b                nbr_table_lock
 .text.nbr_table_unlock
                0x000000000002d355       0x2a obj_cooja/mtype179.a(nbr-table.o)
                0x000000000002d355                nbr_table_unlock
 .text.nbr_table_get_lladdr
                0x000000000002d37f       0x30 obj_cooja/mtype179.a(nbr-table.o)
                0x000000000002d37f                nbr_table_get_lladdr
 .text.nbr_table_update_lladdr
                0x000000000002d3af       0x96 obj_cooja/mtype179.a(nbr-table.o)
                0x000000000002d3af                nbr_table_update_lladdr
 .text          0x000000000002d445        0x0 obj_cooja/mtype179.a(netstack.o)
 .text.netstack_init
                0x000000000002d445       0x2b obj_cooja/mtype179.a(netstack.o)
                0x000000000002d445                netstack_init
 .text          0x000000000002d470        0x0 obj_cooja/mtype179.a(packetbuf.o)
 .text.packetbuf_clear
                0x000000000002d470       0x2a obj_cooja/mtype179.a(packetbuf.o)
                0x000000000002d470                packetbuf_clear
 .text.packetbuf_copyfrom
                0x000000000002d49a       0x52 obj_cooja/mtype179.a(packetbuf.o)
                0x000000000002d49a                packetbuf_copyfrom
 .text.packetbuf_compact
                0x000000000002d4ec       0x7d obj_cooja/mtype179.a(packetbuf.o)
                0x000000000002d4ec                packetbuf_compact
 .text.packetbuf_copyto
                0x000000000002d569       0x97 obj_cooja/mtype179.a(packetbuf.o)
                0x000000000002d569                packetbuf_copyto
 .text.packetbuf_hdralloc
                0x000000000002d600       0x7d obj_cooja/mtype179.a(packetbuf.o)
                0x000000000002d600                packetbuf_hdralloc
 .text.packetbuf_hdrreduce
                0x000000000002d67d       0x48 obj_cooja/mtype179.a(packetbuf.o)
                0x000000000002d67d                packetbuf_hdrreduce
 .text.packetbuf_set_datalen
                0x000000000002d6c5       0x19 obj_cooja/mtype179.a(packetbuf.o)
                0x000000000002d6c5                packetbuf_set_datalen
 .text.packetbuf_dataptr
                0x000000000002d6de       0x1d obj_cooja/mtype179.a(packetbuf.o)
                0x000000000002d6de                packetbuf_dataptr
 .text.packetbuf_hdrptr
                0x000000000002d6fb        0xa obj_cooja/mtype179.a(packetbuf.o)
                0x000000000002d6fb                packetbuf_hdrptr
 .text.packetbuf_datalen
                0x000000000002d705        0xc obj_cooja/mtype179.a(packetbuf.o)
                0x000000000002d705                packetbuf_datalen
 .text.packetbuf_hdrlen
                0x000000000002d711       0x17 obj_cooja/mtype179.a(packetbuf.o)
                0x000000000002d711                packetbuf_hdrlen
 .text.packetbuf_totlen
                0x000000000002d728       0x16 obj_cooja/mtype179.a(packetbuf.o)
                0x000000000002d728                packetbuf_totlen
 .text.packetbuf_remaininglen
                0x000000000002d73e       0x13 obj_cooja/mtype179.a(packetbuf.o)
                0x000000000002d73e                packetbuf_remaininglen
 .text.packetbuf_attr_clear
                0x000000000002d751       0x52 obj_cooja/mtype179.a(packetbuf.o)
                0x000000000002d751                packetbuf_attr_clear
 .text.packetbuf_attr_copyto
                0x000000000002d7a3       0x49 obj_cooja/mtype179.a(packetbuf.o)
                0x000000000002d7a3                packetbuf_attr_copyto
 .text.packetbuf_attr_copyfrom
                0x000000000002d7ec       0x48 obj_cooja/mtype179.a(packetbuf.o)
                0x000000000002d7ec                packetbuf_attr_copyfrom
 .text.packetbuf_holds_broadcast
                0x000000000002d834       0x1c obj_cooja/mtype179.a(packetbuf.o)
                0x000000000002d834                packetbuf_holds_broadcast
 .text          0x000000000002d850        0x0 obj_cooja/mtype179.a(queuebuf.o)
 .text.queuebuf_load_to_ram
                0x000000000002d850        0xa obj_cooja/mtype179.a(queuebuf.o)
 .text.queuebuf_init
                0x000000000002d85a       0x20 obj_cooja/mtype179.a(queuebuf.o)
                0x000000000002d85a                queuebuf_init
 .text.queuebuf_numfree
                0x000000000002d87a       0x14 obj_cooja/mtype179.a(queuebuf.o)
                0x000000000002d87a                queuebuf_numfree
 .text.queuebuf_new_from_packetbuf
                0x000000000002d88e       0x90 obj_cooja/mtype179.a(queuebuf.o)
                0x000000000002d88e                queuebuf_new_from_packetbuf
 .text.queuebuf_update_attr_from_packetbuf
                0x000000000002d91e       0x33 obj_cooja/mtype179.a(queuebuf.o)
                0x000000000002d91e                queuebuf_update_attr_from_packetbuf
 .text.queuebuf_update_from_packetbuf
                0x000000000002d951       0x4a obj_cooja/mtype179.a(queuebuf.o)
                0x000000000002d951                queuebuf_update_from_packetbuf
 .text.queuebuf_free
                0x000000000002d99b       0x47 obj_cooja/mtype179.a(queuebuf.o)
                0x000000000002d99b                queuebuf_free
 .text.queuebuf_to_packetbuf
                0x000000000002d9e2       0x66 obj_cooja/mtype179.a(queuebuf.o)
                0x000000000002d9e2                queuebuf_to_packetbuf
 .text.queuebuf_dataptr
                0x000000000002da48       0x37 obj_cooja/mtype179.a(queuebuf.o)
                0x000000000002da48                queuebuf_dataptr
 .text.queuebuf_datalen
                0x000000000002da7f       0x23 obj_cooja/mtype179.a(queuebuf.o)
                0x000000000002da7f                queuebuf_datalen
 .text.queuebuf_addr
                0x000000000002daa2       0x32 obj_cooja/mtype179.a(queuebuf.o)
                0x000000000002daa2                queuebuf_addr
 .text.queuebuf_attr
                0x000000000002dad4       0x2b obj_cooja/mtype179.a(queuebuf.o)
                0x000000000002dad4                queuebuf_attr
 .text.queuebuf_debug_print
                0x000000000002daff        0x5 obj_cooja/mtype179.a(queuebuf.o)
                0x000000000002daff                queuebuf_debug_print
 .text          0x000000000002db04        0x0 obj_cooja/mtype179.a(csma.o)
 .text.packetbuf_set_attr
                0x000000000002db04       0x2a obj_cooja/mtype179.a(csma.o)
 .text.packetbuf_attr
                0x000000000002db2e       0x1a obj_cooja/mtype179.a(csma.o)
 .text.packetbuf_addr
                0x000000000002db48       0x1d obj_cooja/mtype179.a(csma.o)
 .text.neighbor_queue_from_addr
                0x000000000002db65       0x51 obj_cooja/mtype179.a(csma.o)
 .text.backoff_period
                0x000000000002dbb6       0x25 obj_cooja/mtype179.a(csma.o)
 .text.transmit_packet_list
                0x000000000002dbdb       0x47 obj_cooja/mtype179.a(csma.o)
 .text.schedule_transmission
                0x000000000002dc22       0x87 obj_cooja/mtype179.a(csma.o)
 .text.free_packet
                0x000000000002dca9       0xc0 obj_cooja/mtype179.a(csma.o)
 .text.tx_done  0x000000000002dd69       0x7c obj_cooja/mtype179.a(csma.o)
 .text.rexmit   0x000000000002dde5       0x21 obj_cooja/mtype179.a(csma.o)
 .text.collision
                0x000000000002de06       0x85 obj_cooja/mtype179.a(csma.o)
 .text.noack    0x000000000002de8b       0x6a obj_cooja/mtype179.a(csma.o)
 .text.tx_ok    0x000000000002def5       0x3b obj_cooja/mtype179.a(csma.o)
 .text.packet_sent
                0x000000000002df30      0x117 obj_cooja/mtype179.a(csma.o)
 .text.send_packet
                0x000000000002e047      0x274 obj_cooja/mtype179.a(csma.o)
 .text.input_packet
                0x000000000002e2bb        0xf obj_cooja/mtype179.a(csma.o)
 .text.on       0x000000000002e2ca        0xf obj_cooja/mtype179.a(csma.o)
 .text.off      0x000000000002e2d9       0x15 obj_cooja/mtype179.a(csma.o)
 .text.channel_check_interval
                0x000000000002e2ee       0x1f obj_cooja/mtype179.a(csma.o)
 .text.init     0x000000000002e30d       0x2c obj_cooja/mtype179.a(csma.o)
 .text          0x000000000002e339        0x0 obj_cooja/mtype179.a(framer-802154.o)
 .text.packetbuf_set_attr
                0x000000000002e339       0x2a obj_cooja/mtype179.a(framer-802154.o)
 .text.packetbuf_attr
                0x000000000002e363       0x1a obj_cooja/mtype179.a(framer-802154.o)
 .text.packetbuf_set_addr
                0x000000000002e37d       0x32 obj_cooja/mtype179.a(framer-802154.o)
 .text.packetbuf_addr
                0x000000000002e3af       0x1d obj_cooja/mtype179.a(framer-802154.o)
 .text.create_frame
                0x000000000002e3cc      0x1eb obj_cooja/mtype179.a(framer-802154.o)
 .text.hdr_length
                0x000000000002e5b7       0x1c obj_cooja/mtype179.a(framer-802154.o)
 .text.create   0x000000000002e5d3       0x1c obj_cooja/mtype179.a(framer-802154.o)
 .text.parse    0x000000000002e5ef      0x143 obj_cooja/mtype179.a(framer-802154.o)
 .text          0x000000000002e732        0x0 obj_cooja/mtype179.a(mac.o)
 .text.mac_call_sent_callback
                0x000000000002e732       0x3c obj_cooja/mtype179.a(mac.o)
                0x000000000002e732                mac_call_sent_callback
 .text          0x000000000002e76e        0x0 obj_cooja/mtype179.a(nullrdc.o)
 .text.packetbuf_set_attr
                0x000000000002e76e       0x2a obj_cooja/mtype179.a(nullrdc.o)
 .text.packetbuf_set_addr
                0x000000000002e798       0x32 obj_cooja/mtype179.a(nullrdc.o)
 .text.packetbuf_addr
                0x000000000002e7ca       0x1d obj_cooja/mtype179.a(nullrdc.o)
 .text.send_one_packet
                0x000000000002e7e7      0x1ec obj_cooja/mtype179.a(nullrdc.o)
 .text.send_packet
                0x000000000002e9d3       0x1a obj_cooja/mtype179.a(nullrdc.o)
 .text.send_list
                0x000000000002e9ed       0x49 obj_cooja/mtype179.a(nullrdc.o)
 .text.packet_input
                0x000000000002ea36      0x11a obj_cooja/mtype179.a(nullrdc.o)
 .text.on       0x000000000002eb50        0xf obj_cooja/mtype179.a(nullrdc.o)
 .text.off      0x000000000002eb5f       0x1e obj_cooja/mtype179.a(nullrdc.o)
 .text.channel_check_interval
                0x000000000002eb7d        0xa obj_cooja/mtype179.a(nullrdc.o)
 .text.init     0x000000000002eb87        0xd obj_cooja/mtype179.a(nullrdc.o)
 .text          0x000000000002eb94        0x0 obj_cooja/mtype179.a(nullsec.o)
 .text.packetbuf_set_attr
                0x000000000002eb94       0x2a obj_cooja/mtype179.a(nullsec.o)
 .text.init     0x000000000002ebbe        0x5 obj_cooja/mtype179.a(nullsec.o)
 .text.send     0x000000000002ebc3       0x30 obj_cooja/mtype179.a(nullsec.o)
 .text.input    0x000000000002ebf3        0xf obj_cooja/mtype179.a(nullsec.o)
 .text          0x000000000002ec02        0x0 obj_cooja/mtype179.a(watchdog.o)
 .text.watchdog_init
                0x000000000002ec02        0x5 obj_cooja/mtype179.a(watchdog.o)
                0x000000000002ec02                watchdog_init
 .text.watchdog_start
                0x000000000002ec07        0x5 obj_cooja/mtype179.a(watchdog.o)
                0x000000000002ec07                watchdog_start
 .text.watchdog_periodic
                0x000000000002ec0c        0x5 obj_cooja/mtype179.a(watchdog.o)
                0x000000000002ec0c                watchdog_periodic
 .text.watchdog_stop
                0x000000000002ec11        0x5 obj_cooja/mtype179.a(watchdog.o)
                0x000000000002ec11                watchdog_stop
 .text.watchdog_reboot
                0x000000000002ec16        0x5 obj_cooja/mtype179.a(watchdog.o)
                0x000000000002ec16                watchdog_reboot
 .text          0x000000000002ec1b        0x0 obj_cooja/mtype179.a(rimestats.o)
 .text          0x000000000002ec1b        0x0 obj_cooja/mtype179.a(stimer.o)
 .text.stimer_set
                0x000000000002ec1b       0x1b obj_cooja/mtype179.a(stimer.o)
                0x000000000002ec1b                stimer_set
 .text.stimer_reset
                0x000000000002ec36       0x17 obj_cooja/mtype179.a(stimer.o)
                0x000000000002ec36                stimer_reset
 .text.stimer_restart
                0x000000000002ec4d       0x12 obj_cooja/mtype179.a(stimer.o)
                0x000000000002ec4d                stimer_restart
 .text.stimer_expired
                0x000000000002ec5f       0x27 obj_cooja/mtype179.a(stimer.o)
                0x000000000002ec5f                stimer_expired
 .text.stimer_remaining
                0x000000000002ec86       0x24 obj_cooja/mtype179.a(stimer.o)
                0x000000000002ec86                stimer_remaining
 .text.stimer_elapsed
                0x000000000002ecaa       0x14 obj_cooja/mtype179.a(stimer.o)
                0x000000000002ecaa                stimer_elapsed
 .text          0x000000000002ecbe        0x0 obj_cooja/mtype179.a(uip-icmp6.o)
 .text.input_handler_lookup
                0x000000000002ecbe       0x6e obj_cooja/mtype179.a(uip-icmp6.o)
 .text.uip_icmp6_input
                0x000000000002ed2c       0x56 obj_cooja/mtype179.a(uip-icmp6.o)
                0x000000000002ed2c                uip_icmp6_input
 .text.uip_icmp6_register_input_handler
                0x000000000002ed82       0x1c obj_cooja/mtype179.a(uip-icmp6.o)
                0x000000000002ed82                uip_icmp6_register_input_handler
 .text.echo_request_input
                0x000000000002ed9e      0x1c7 obj_cooja/mtype179.a(uip-icmp6.o)
 .text.uip_icmp6_error_output
                0x000000000002ef65      0x340 obj_cooja/mtype179.a(uip-icmp6.o)
                0x000000000002ef65                uip_icmp6_error_output
 .text.uip_icmp6_send
                0x000000000002f2a5      0x107 obj_cooja/mtype179.a(uip-icmp6.o)
                0x000000000002f2a5                uip_icmp6_send
 .text.echo_reply_input
                0x000000000002f3ac      0x16d obj_cooja/mtype179.a(uip-icmp6.o)
 .text.uip_icmp6_echo_reply_callback_add
                0x000000000002f519       0x31 obj_cooja/mtype179.a(uip-icmp6.o)
                0x000000000002f519                uip_icmp6_echo_reply_callback_add
 .text.uip_icmp6_echo_reply_callback_rm
                0x000000000002f54a       0x1c obj_cooja/mtype179.a(uip-icmp6.o)
                0x000000000002f54a                uip_icmp6_echo_reply_callback_rm
 .text.uip_icmp6_init
                0x000000000002f566       0x20 obj_cooja/mtype179.a(uip-icmp6.o)
                0x000000000002f566                uip_icmp6_init
 .text          0x000000000002f586        0x0 obj_cooja/mtype179.a(rpl-nbr-policy.)
 .text.handle_periodic_timer
                0x000000000002f586       0x19 obj_cooja/mtype179.a(rpl-nbr-policy.)
 .text.update_nbr
                0x000000000002f59f      0x1b7 obj_cooja/mtype179.a(rpl-nbr-policy.)
 .text.find_removable_dis
                0x000000000002f756       0x25 obj_cooja/mtype179.a(rpl-nbr-policy.)
                0x000000000002f756                find_removable_dis
 .text.find_removable_dio
                0x000000000002f77b       0x81 obj_cooja/mtype179.a(rpl-nbr-policy.)
                0x000000000002f77b                find_removable_dio
 .text.find_removable_dao
                0x000000000002f7fc       0x50 obj_cooja/mtype179.a(rpl-nbr-policy.)
                0x000000000002f7fc                find_removable_dao
 .text.rpl_nbr_policy_find_removable
                0x000000000002f84c       0x57 obj_cooja/mtype179.a(rpl-nbr-policy.)
                0x000000000002f84c                rpl_nbr_policy_find_removable
 .text          0x000000000002f8a3        0x0 obj_cooja/mtype179.a(frame802154.o)
 .text.addr_len
                0x000000000002f8a3       0x31 obj_cooja/mtype179.a(frame802154.o)
 .text.frame802154_get_pan_id
                0x000000000002f8d4        0xc obj_cooja/mtype179.a(frame802154.o)
                0x000000000002f8d4                frame802154_get_pan_id
 .text.frame802154_set_pan_id
                0x000000000002f8e0       0x19 obj_cooja/mtype179.a(frame802154.o)
                0x000000000002f8e0                frame802154_set_pan_id
 .text.frame802154_has_panid
                0x000000000002f8f9      0x1ad obj_cooja/mtype179.a(frame802154.o)
                0x000000000002f8f9                frame802154_has_panid
 .text.frame802154_check_dest_panid
                0x000000000002faa6       0x6f obj_cooja/mtype179.a(frame802154.o)
                0x000000000002faa6                frame802154_check_dest_panid
 .text.frame802154_is_broadcast_addr
                0x000000000002fb15       0x4d obj_cooja/mtype179.a(frame802154.o)
                0x000000000002fb15                frame802154_is_broadcast_addr
 .text.frame802154_extract_linkaddr
                0x000000000002fb62      0x148 obj_cooja/mtype179.a(frame802154.o)
                0x000000000002fb62                frame802154_extract_linkaddr
 .text.field_len
                0x000000000002fcaa       0xf8 obj_cooja/mtype179.a(frame802154.o)
 .text.frame802154_hdrlen
                0x000000000002fda2       0x51 obj_cooja/mtype179.a(frame802154.o)
                0x000000000002fda2                frame802154_hdrlen
 .text.frame802154_create_fcf
                0x000000000002fdf3       0xb7 obj_cooja/mtype179.a(frame802154.o)
                0x000000000002fdf3                frame802154_create_fcf
 .text.frame802154_create
                0x000000000002feaa      0x14d obj_cooja/mtype179.a(frame802154.o)
                0x000000000002feaa                frame802154_create
 .text.frame802154_parse_fcf
                0x000000000002fff7       0xb9 obj_cooja/mtype179.a(frame802154.o)
                0x000000000002fff7                frame802154_parse_fcf
 .text.frame802154_parse
                0x00000000000300b0      0x280 obj_cooja/mtype179.a(frame802154.o)
                0x00000000000300b0                frame802154_parse
 .text          0x0000000000030330        0x0 obj_cooja/mtype179.a(mac-sequence.o)
 .text.packetbuf_attr
                0x0000000000030330       0x1a obj_cooja/mtype179.a(mac-sequence.o)
 .text.packetbuf_addr
                0x000000000003034a       0x1d obj_cooja/mtype179.a(mac-sequence.o)
 .text.mac_sequence_is_duplicate
                0x0000000000030367       0x9e obj_cooja/mtype179.a(mac-sequence.o)
                0x0000000000030367                mac_sequence_is_duplicate
 .text.mac_sequence_register_seqno
                0x0000000000030405       0xca obj_cooja/mtype179.a(mac-sequence.o)
                0x0000000000030405                mac_sequence_register_seqno
 .text          0x00000000000304cf        0x0 /usr/lib/gcc/i686-linux-gnu/4.8/crtendS.o
 .text          0x00000000000304cf        0x0 /usr/lib/gcc/i686-linux-gnu/4.8/../../../i386-linux-gnu/crtn.o
 *(.gnu.warning)

.fini           0x00000000000304d0       0x14
 *(SORT(.fini))
 .fini          0x00000000000304d0        0xf /usr/lib/gcc/i686-linux-gnu/4.8/../../../i386-linux-gnu/crti.o
                0x00000000000304d0                _fini
 .fini          0x00000000000304df        0x5 /usr/lib/gcc/i686-linux-gnu/4.8/../../../i386-linux-gnu/crtn.o
                0x00000000000304e4                PROVIDE (__etext, .)
                0x00000000000304e4                PROVIDE (_etext, .)
                0x00000000000304e4                PROVIDE (etext, .)

.rodata         0x0000000000030500     0x3258
 *(.rodata .rodata.* .gnu.linkonce.r.*)
 .rodata        0x0000000000030500      0x20e sensor.co
                0x0000000000030574                autostart_processes
 *fill*         0x000000000003070e        0x2 
 .rodata        0x0000000000030710      0x133 obj_cooja/mtype179.o
 *fill*         0x0000000000030843        0x1 
 .rodata        0x0000000000030844     0x131a obj_cooja/mtype179.a(dtls.o)
 *fill*         0x0000000000031b5e        0x2 
 .rodata        0x0000000000031b60       0xb5 obj_cooja/mtype179.a(tinydtls-crypto)
 *fill*         0x0000000000031c15        0x3 
 .rodata        0x0000000000031c18       0x21 obj_cooja/mtype179.a(hmac.o)
 *fill*         0x0000000000031c39        0x3 
 .rodata        0x0000000000031c3c       0x38 obj_cooja/mtype179.a(netq.o)
 .rodata        0x0000000000031c74        0xe obj_cooja/mtype179.a(peer.o)
 *fill*         0x0000000000031c82        0x2 
 .rodata        0x0000000000031c84       0x24 obj_cooja/mtype179.a(session.o)
 *fill*         0x0000000000031ca8       0x18 
 .rodata        0x0000000000031cc0     0x1428 obj_cooja/mtype179.a(rijndael.o)
 .rodata        0x00000000000330e8       0x29 obj_cooja/mtype179.a(tinydtls-ccm.o)
 *fill*         0x0000000000033111        0xf 
 .rodata        0x0000000000033120      0x15a obj_cooja/mtype179.a(sha2.o)
 .rodata        0x000000000003327a       0x7e obj_cooja/mtype179.a(debug.o)
 .rodata        0x00000000000332f8        0x8 obj_cooja/mtype179.a(beep.o)
                0x00000000000332f8                beep_interface
 .rodata        0x0000000000033300       0x20 obj_cooja/mtype179.a(button-sensor.o)
                0x0000000000033300                button_interface
                0x0000000000033310                button_sensor
 .rodata        0x0000000000033320        0x8 obj_cooja/mtype179.a(leds-arch.o)
                0x0000000000033320                leds_interface
 .rodata        0x0000000000033328        0x8 obj_cooja/mtype179.a(moteid.o)
                0x0000000000033328                moteid_interface
 .rodata        0x0000000000033330       0x1c obj_cooja/mtype179.a(pir-sensor.o)
                0x0000000000033330                pir_interface
                0x000000000003333c                pir_sensor
 .rodata        0x000000000003334c        0xe obj_cooja/mtype179.a(rs232.o)
                0x000000000003334c                rs232_interface
 *fill*         0x000000000003335a        0x2 
 .rodata        0x000000000003335c       0x24 obj_cooja/mtype179.a(vib-sensor.o)
                0x000000000003335c                vib_interface
                0x0000000000033370                vib_sensor
 .rodata        0x0000000000033380        0x8 obj_cooja/mtype179.a(clock.o)
                0x0000000000033380                clock_interface
 .rodata        0x0000000000033388        0x8 obj_cooja/mtype179.a(log.o)
                0x0000000000033388                simlog_interface
 .rodata        0x0000000000033390       0x2f obj_cooja/mtype179.a(cfs-cooja.o)
                0x0000000000033390                cfs_interface
 *fill*         0x00000000000333bf        0x1 
 .rodata        0x00000000000333c0       0x58 obj_cooja/mtype179.a(cooja-radio.o)
                0x00000000000333c0                radio_interface
                0x00000000000333e0                cooja_radio_driver
 .rodata        0x0000000000033418        0x8 obj_cooja/mtype179.a(eeprom.o)
                0x0000000000033418                eeprom_interface
 .rodata        0x0000000000033420        0x8 obj_cooja/mtype179.a(sensors.o)
 .rodata        0x0000000000033428        0xf obj_cooja/mtype179.a(ctimer.o)
 .rodata        0x0000000000033437        0xc obj_cooja/mtype179.a(etimer.o)
 .rodata        0x0000000000033443        0xe obj_cooja/mtype179.a(serial-line.o)
 *fill*         0x0000000000033451        0x3 
 .rodata        0x0000000000033454       0x25 obj_cooja/mtype179.a(assert.o)
 *fill*         0x0000000000033479        0x3 
 .rodata        0x000000000003347c       0x2c obj_cooja/mtype179.a(sicslowpan.o)
                0x000000000003347c                unc_llconf
                0x0000000000033480                unc_ctxconf
                0x0000000000033484                unc_mxconf
                0x0000000000033488                llprefix
                0x000000000003349c                sicslowpan_driver
 .rodata        0x00000000000334a8      0x13c obj_cooja/mtype179.a(uip6.o)
 .rodata        0x00000000000335e4       0x29 obj_cooja/mtype179.a(tcpip.o)
 .rodata        0x000000000003360d       0x2a obj_cooja/mtype179.a(uip-debug.o)
 *fill*         0x0000000000033637        0x1 
 .rodata        0x0000000000033638       0x89 obj_cooja/mtype179.a(rpl-dag.o)
 .rodata        0x00000000000336c1        0x8 obj_cooja/mtype179.a(linkaddr.o)
                0x00000000000336c1                linkaddr_null
 *fill*         0x00000000000336c9        0x3 
 .rodata        0x00000000000336cc       0x24 obj_cooja/mtype179.a(csma.o)
                0x00000000000336d4                csma_driver
 .rodata        0x00000000000336f0        0xc obj_cooja/mtype179.a(framer-802154.o)
                0x00000000000336f0                framer_802154
 *fill*         0x00000000000336fc        0x4 
 .rodata        0x0000000000033700       0x40 obj_cooja/mtype179.a(nullrdc.o)
                0x0000000000033720                nullrdc_driver
 .rodata        0x0000000000033740       0x18 obj_cooja/mtype179.a(nullsec.o)
                0x0000000000033748                nullsec_driver

.rodata1
 *(.rodata1)

.eh_frame_hdr   0x0000000000033758     0x1954
 *(.eh_frame_hdr)
 .eh_frame_hdr  0x0000000000033758     0x1954 sensor.co

.eh_frame       0x00000000000350ac     0x67bc
 *(.eh_frame)
 .eh_frame      0x00000000000350ac       0x3c /usr/lib/gcc/i686-linux-gnu/4.8/../../../i386-linux-gnu/crti.o
                                         0x40 (size before relaxing)
 .eh_frame      0x00000000000350e8      0x1b8 sensor.co
                                        0x1d0 (size before relaxing)
 .eh_frame      0x00000000000352a0      0x148 obj_cooja/mtype179.o
                                        0x160 (size before relaxing)
 .eh_frame      0x00000000000353e8      0xc58 obj_cooja/mtype179.a(dtls.o)
                                        0xc70 (size before relaxing)
 .eh_frame      0x0000000000036040      0x2c0 obj_cooja/mtype179.a(tinydtls-crypto)
                                        0x2d8 (size before relaxing)
 .eh_frame      0x0000000000036300      0x160 obj_cooja/mtype179.a(hmac.o)
                                        0x178 (size before relaxing)
 .eh_frame      0x0000000000036460      0x160 obj_cooja/mtype179.a(netq.o)
                                        0x178 (size before relaxing)
 .eh_frame      0x00000000000365c0       0x40 obj_cooja/mtype179.a(dtls_time.o)
                                         0x58 (size before relaxing)
 .eh_frame      0x0000000000036600       0x80 obj_cooja/mtype179.a(peer.o)
                                         0x98 (size before relaxing)
 .eh_frame      0x0000000000036680       0x40 obj_cooja/mtype179.a(session.o)
                                         0x58 (size before relaxing)
 .eh_frame      0x00000000000366c0       0x80 obj_cooja/mtype179.a(rijndael.o)
                                         0x98 (size before relaxing)
 .eh_frame      0x0000000000036740      0x144 obj_cooja/mtype179.a(tinydtls-ccm.o)
                                        0x15c (size before relaxing)
 .eh_frame      0x0000000000036884       0xec obj_cooja/mtype179.a(sha2.o)
                                        0x104 (size before relaxing)
 .eh_frame      0x0000000000036970      0x148 obj_cooja/mtype179.a(debug.o)
                                        0x160 (size before relaxing)
 .eh_frame      0x0000000000036ab8       0x40 obj_cooja/mtype179.a(simEnvChange.o)
                                         0x58 (size before relaxing)
 .eh_frame      0x0000000000036af8       0xc0 obj_cooja/mtype179.a(cooja_mt.o)
                                         0xd8 (size before relaxing)
 .eh_frame      0x0000000000036bb8      0x120 obj_cooja/mtype179.a(cooja_mtarch.o)
                                        0x138 (size before relaxing)
 .eh_frame      0x0000000000036cd8       0xc8 obj_cooja/mtype179.a(rtimer-arch.o)
                                         0xe0 (size before relaxing)
 .eh_frame      0x0000000000036da0      0x160 obj_cooja/mtype179.a(beep.o)
                                        0x178 (size before relaxing)
 .eh_frame      0x0000000000036f00       0xa0 obj_cooja/mtype179.a(button-sensor.o)
                                         0xb8 (size before relaxing)
 .eh_frame      0x0000000000036fa0       0xa0 obj_cooja/mtype179.a(leds-arch.o)
                                         0xb8 (size before relaxing)
 .eh_frame      0x0000000000037040       0x40 obj_cooja/mtype179.a(moteid.o)
                                         0x58 (size before relaxing)
 .eh_frame      0x0000000000037080       0xa0 obj_cooja/mtype179.a(pir-sensor.o)
                                         0xb8 (size before relaxing)
 .eh_frame      0x0000000000037120      0x100 obj_cooja/mtype179.a(rs232.o)
                                        0x118 (size before relaxing)
 .eh_frame      0x0000000000037220       0xa0 obj_cooja/mtype179.a(vib-sensor.o)
                                         0xb8 (size before relaxing)
 .eh_frame      0x00000000000372c0       0xc0 obj_cooja/mtype179.a(clock.o)
                                         0xd8 (size before relaxing)
 .eh_frame      0x0000000000037380      0x120 obj_cooja/mtype179.a(log.o)
                                        0x138 (size before relaxing)
 .eh_frame      0x00000000000374a0      0x160 obj_cooja/mtype179.a(cfs-cooja.o)
                                        0x178 (size before relaxing)
 .eh_frame      0x0000000000037600      0x360 obj_cooja/mtype179.a(cooja-radio.o)
                                        0x378 (size before relaxing)
 .eh_frame      0x0000000000037960       0xa0 obj_cooja/mtype179.a(eeprom.o)
                                         0xb8 (size before relaxing)
 .eh_frame      0x0000000000037a00       0x40 obj_cooja/mtype179.a(random.o)
                                         0x58 (size before relaxing)
 .eh_frame      0x0000000000037a40       0xc0 obj_cooja/mtype179.a(sensors.o)
                                         0xd8 (size before relaxing)
 .eh_frame      0x0000000000037b00       0x40 obj_cooja/mtype179.a(autostart.o)
                                         0x58 (size before relaxing)
 .eh_frame      0x0000000000037b40      0x100 obj_cooja/mtype179.a(ctimer.o)
                                        0x118 (size before relaxing)
 .eh_frame      0x0000000000037c40      0x1e0 obj_cooja/mtype179.a(etimer.o)
                                        0x1f8 (size before relaxing)
 .eh_frame      0x0000000000037e20      0x1c8 obj_cooja/mtype179.a(process.o)
                                        0x1e0 (size before relaxing)
 .eh_frame      0x0000000000037fe8       0x60 obj_cooja/mtype179.a(rtimer.o)
                                         0x78 (size before relaxing)
 .eh_frame      0x0000000000038048       0xa4 obj_cooja/mtype179.a(timer.o)
                                         0xbc (size before relaxing)
 .eh_frame      0x00000000000380ec       0x60 obj_cooja/mtype179.a(serial-line.o)
                                         0x78 (size before relaxing)
 .eh_frame      0x000000000003814c       0x20 obj_cooja/mtype179.a(assert.o)
                                         0x38 (size before relaxing)
 .eh_frame      0x000000000003816c      0x180 obj_cooja/mtype179.a(list.o)
                                        0x198 (size before relaxing)
 .eh_frame      0x00000000000382ec       0xa0 obj_cooja/mtype179.a(memb.o)
                                         0xb8 (size before relaxing)
 .eh_frame      0x000000000003838c       0xa0 obj_cooja/mtype179.a(ringbuf.o)
                                         0xb8 (size before relaxing)
 .eh_frame      0x000000000003842c      0x350 obj_cooja/mtype179.a(sicslowpan.o)
                                        0x368 (size before relaxing)
 .eh_frame      0x000000000003877c      0x1e0 obj_cooja/mtype179.a(uip-ds6-nbr.o)
                                        0x1f8 (size before relaxing)
 .eh_frame      0x000000000003895c      0x2c0 obj_cooja/mtype179.a(uip-ds6-route.o)
                                        0x2d8 (size before relaxing)
 .eh_frame      0x0000000000038c1c      0x2c8 obj_cooja/mtype179.a(uip-ds6.o)
                                        0x2e0 (size before relaxing)
 .eh_frame      0x0000000000038ee4       0xd8 obj_cooja/mtype179.a(uip-nd6.o)
                                         0xf0 (size before relaxing)
 .eh_frame      0x0000000000038fbc      0x27c obj_cooja/mtype179.a(uip6.o)
                                        0x294 (size before relaxing)
 .eh_frame      0x0000000000039238      0x270 obj_cooja/mtype179.a(tcpip.o)
                                        0x288 (size before relaxing)
 .eh_frame      0x00000000000394a8       0x28 obj_cooja/mtype179.a(uip-debug.o)
                                         0x40 (size before relaxing)
 .eh_frame      0x00000000000394d0       0xe0 obj_cooja/mtype179.a(uip-packetqueue)
                                         0xf8 (size before relaxing)
 .eh_frame      0x00000000000395b0       0x40 obj_cooja/mtype179.a(uip-udp-packet.)
                                         0x58 (size before relaxing)
 .eh_frame      0x00000000000395f0      0x720 obj_cooja/mtype179.a(rpl-dag.o)
                                        0x738 (size before relaxing)
 .eh_frame      0x0000000000039d10       0xc0 obj_cooja/mtype179.a(rpl-ext-header.)
                                         0xd8 (size before relaxing)
 .eh_frame      0x0000000000039dd0      0x2b8 obj_cooja/mtype179.a(rpl-icmp6.o)
                                        0x2d0 (size before relaxing)
 .eh_frame      0x000000000003a088      0x124 obj_cooja/mtype179.a(rpl-mrhof.o)
                                        0x13c (size before relaxing)
 .eh_frame      0x000000000003a1ac      0x22c obj_cooja/mtype179.a(rpl-timers.o)
                                        0x244 (size before relaxing)
 .eh_frame      0x000000000003a3d8      0x140 obj_cooja/mtype179.a(rpl.o)
                                        0x158 (size before relaxing)
 .eh_frame      0x000000000003a518      0x100 obj_cooja/mtype179.a(link-stats.o)
                                        0x118 (size before relaxing)
 .eh_frame      0x000000000003a618       0x60 obj_cooja/mtype179.a(linkaddr.o)
                                         0x78 (size before relaxing)
 .eh_frame      0x000000000003a678      0x2ac obj_cooja/mtype179.a(nbr-table.o)
                                        0x2c4 (size before relaxing)
 .eh_frame      0x000000000003a924       0x20 obj_cooja/mtype179.a(netstack.o)
                                         0x38 (size before relaxing)
 .eh_frame      0x000000000003a944      0x234 obj_cooja/mtype179.a(packetbuf.o)
                                        0x24c (size before relaxing)
 .eh_frame      0x000000000003ab78      0x1a0 obj_cooja/mtype179.a(queuebuf.o)
                                        0x1b8 (size before relaxing)
 .eh_frame      0x000000000003ad18      0x28c obj_cooja/mtype179.a(csma.o)
                                        0x2a4 (size before relaxing)
 .eh_frame      0x000000000003afa4      0x108 obj_cooja/mtype179.a(framer-802154.o)
                                        0x120 (size before relaxing)
 .eh_frame      0x000000000003b0ac       0x20 obj_cooja/mtype179.a(mac.o)
                                         0x38 (size before relaxing)
 .eh_frame      0x000000000003b0cc      0x16c obj_cooja/mtype179.a(nullrdc.o)
                                        0x184 (size before relaxing)
 .eh_frame      0x000000000003b238       0x80 obj_cooja/mtype179.a(nullsec.o)
                                         0x98 (size before relaxing)
 .eh_frame      0x000000000003b2b8       0xa0 obj_cooja/mtype179.a(watchdog.o)
                                         0xb8 (size before relaxing)
 .eh_frame      0x000000000003b358       0xc4 obj_cooja/mtype179.a(stimer.o)
                                         0xdc (size before relaxing)
 .eh_frame      0x000000000003b41c      0x15c obj_cooja/mtype179.a(uip-icmp6.o)
                                        0x174 (size before relaxing)
 .eh_frame      0x000000000003b578       0xc0 obj_cooja/mtype179.a(rpl-nbr-policy.)
                                         0xd8 (size before relaxing)
 .eh_frame      0x000000000003b638      0x1a4 obj_cooja/mtype179.a(frame802154.o)
                                        0x1bc (size before relaxing)
 .eh_frame      0x000000000003b7dc       0x88 obj_cooja/mtype179.a(mac-sequence.o)
                                         0xa0 (size before relaxing)
 .eh_frame      0x000000000003b864        0x4 /usr/lib/gcc/i686-linux-gnu/4.8/crtendS.o

.gcc_except_table
 *(.gcc_except_table .gcc_except_table.*)

.exception_ranges
 *(.exception_ranges .exception_ranges*)
                0x000000000003b868                . = (ALIGN (0x1000) - ((0x1000 - .) & 0xfff))
                0x000000000003cef8                . = DATA_SEGMENT_ALIGN (0x1000, 0x1000)

.eh_frame
 *(.eh_frame)

.gcc_except_table
 *(.gcc_except_table .gcc_except_table.*)

.exception_ranges
 *(.exception_ranges .exception_ranges*)

.tdata
 *(.tdata .tdata.* .gnu.linkonce.td.*)

.tbss
 *(.tbss .tbss.* .gnu.linkonce.tb.*)
 *(.tcommon)

.preinit_array
 *(.preinit_array)

.init_array     0x000000000003cef8        0x4
 *(SORT(.init_array.*) SORT(.ctors.*))
 *(.init_array EXCLUDE_FILE(*crtend?.o *crtend.o *crtbegin?.o *crtbegin.o) .ctors)
 .init_array    0x000000000003cef8        0x4 /usr/lib/gcc/i686-linux-gnu/4.8/crtbeginS.o

.fini_array     0x000000000003cefc        0x4
 *(SORT(.fini_array.*) SORT(.dtors.*))
 *(.fini_array EXCLUDE_FILE(*crtend?.o *crtend.o *crtbegin?.o *crtbegin.o) .dtors)
 .fini_array    0x000000000003cefc        0x4 /usr/lib/gcc/i686-linux-gnu/4.8/crtbeginS.o

.ctors
 *crtbegin.o(.ctors)
 *crtbegin?.o(.ctors)
 *(EXCLUDE_FILE(*crtend?.o *crtend.o) .ctors)
 *(SORT(.ctors.*))
 *(.ctors)

.dtors
 *crtbegin.o(.dtors)
 *crtbegin?.o(.dtors)
 *(EXCLUDE_FILE(*crtend?.o *crtend.o) .dtors)
 *(SORT(.dtors.*))
 *(.dtors)

.jcr            0x000000000003cf00        0x4
 *(.jcr)
 .jcr           0x000000000003cf00        0x0 /usr/lib/gcc/i686-linux-gnu/4.8/crtbeginS.o
 .jcr           0x000000000003cf00        0x4 /usr/lib/gcc/i686-linux-gnu/4.8/crtendS.o

.data.rel.ro
 *(.data.rel.ro.local* .gnu.linkonce.d.rel.ro.local.*)
 *(.data.rel.ro .data.rel.ro.* .gnu.linkonce.d.rel.ro.*)

.dynamic        0x000000000003cf04       0xe8
 *(.dynamic)
 .dynamic       0x000000000003cf04       0xe8 /usr/lib/gcc/i686-linux-gnu/4.8/../../../i386-linux-gnu/crti.o
                0x000000000003cf04                _DYNAMIC

.got            0x000000000003cfec       0x14
 *(.got)
 .got           0x000000000003cfec       0x14 /usr/lib/gcc/i686-linux-gnu/4.8/../../../i386-linux-gnu/crti.o
 *(.igot)
                0x000000000003dff4                . = DATA_SEGMENT_RELRO_END (., (SIZEOF (.got.plt) >= 0xc)?0xc:0x0)

.got.plt        0x000000000003d000       0x14
 *(.got.plt)
 .got.plt       0x000000000003d000       0x14 /usr/lib/gcc/i686-linux-gnu/4.8/../../../i386-linux-gnu/crti.o
                0x000000000003d000                _GLOBAL_OFFSET_TABLE_
 *(.igot.plt)

.data           0x000000000003d020      0x2ee
 *(.data .data.* .gnu.linkonce.d.*)
 .data          0x000000000003d020        0x0 /usr/lib/gcc/i686-linux-gnu/4.8/../../../i386-linux-gnu/crti.o
 .data          0x000000000003d020        0x0 /usr/lib/gcc/i686-linux-gnu/4.8/crtbeginS.o
 .data.rel      0x000000000003d020        0x4 /usr/lib/gcc/i686-linux-gnu/4.8/crtbeginS.o
                0x000000000003d020                __dso_handle
 .data          0x000000000003d024       0x20 sensor.co
                0x000000000003d024                udp_server_process
 *fill*         0x000000000003d044       0x1c 
 .data          0x000000000003d060       0x44 obj_cooja/mtype179.o
                0x000000000003d060                simInterfaces
                0x000000000003d094                sensors
 .data          0x000000000003d0a4       0x10 obj_cooja/mtype179.a(dtls.o)
                0x000000000003d0a4                dtls_retransmit_process
 .data          0x000000000003d0b4       0x18 obj_cooja/mtype179.a(tinydtls-crypto)
 .data          0x000000000003d0cc        0xc obj_cooja/mtype179.a(hmac.o)
 .data          0x000000000003d0d8        0xc obj_cooja/mtype179.a(netq.o)
 .data          0x000000000003d0e4        0x0 obj_cooja/mtype179.a(dtls_time.o)
 .data          0x000000000003d0e4        0xc obj_cooja/mtype179.a(peer.o)
 .data          0x000000000003d0f0        0x0 obj_cooja/mtype179.a(session.o)
 .data          0x000000000003d0f0        0x0 obj_cooja/mtype179.a(rijndael.o)
 .data          0x000000000003d0f0        0x0 obj_cooja/mtype179.a(tinydtls-ccm.o)
 .data          0x000000000003d0f0        0x4 obj_cooja/mtype179.a(sha2.o)
 .data          0x000000000003d0f4       0x20 obj_cooja/mtype179.a(debug.o)
 .data          0x000000000003d114        0x0 obj_cooja/mtype179.a(simEnvChange.o)
 .data          0x000000000003d114        0x0 obj_cooja/mtype179.a(cooja_mt.o)
 .data          0x000000000003d114        0x0 obj_cooja/mtype179.a(cooja_mtarch.o)
 .data          0x000000000003d114        0x0 obj_cooja/mtype179.a(rtimer-arch.o)
 .data          0x000000000003d114        0x0 obj_cooja/mtype179.a(beep.o)
 .data          0x000000000003d114        0x0 obj_cooja/mtype179.a(button-sensor.o)
 .data          0x000000000003d114        0x0 obj_cooja/mtype179.a(leds-arch.o)
 .data          0x000000000003d114        0x0 obj_cooja/mtype179.a(moteid.o)
 .data          0x000000000003d114        0x0 obj_cooja/mtype179.a(pir-sensor.o)
 .data          0x000000000003d114        0x0 obj_cooja/mtype179.a(rs232.o)
 .data          0x000000000003d114        0x0 obj_cooja/mtype179.a(vib-sensor.o)
 .data          0x000000000003d114        0x0 obj_cooja/mtype179.a(clock.o)
 .data          0x000000000003d114        0x0 obj_cooja/mtype179.a(log.o)
 .data          0x000000000003d114        0x0 obj_cooja/mtype179.a(cfs-cooja.o)
 .data          0x000000000003d114       0x2c obj_cooja/mtype179.a(cooja-radio.o)
                0x000000000003d114                simRadioHWOn
                0x000000000003d118                simSignalStrength
                0x000000000003d11c                simLastSignalStrength
                0x000000000003d120                simPower
                0x000000000003d124                simRadioChannel
                0x000000000003d128                simLQI
                0x000000000003d130                cooja_radio_process
 .data          0x000000000003d140        0x0 obj_cooja/mtype179.a(eeprom.o)
 .data          0x000000000003d140        0x0 obj_cooja/mtype179.a(random.o)
 .data          0x000000000003d140       0x10 obj_cooja/mtype179.a(sensors.o)
                0x000000000003d140                sensors_process
 .data          0x000000000003d150        0x0 obj_cooja/mtype179.a(autostart.o)
 .data          0x000000000003d150       0x14 obj_cooja/mtype179.a(ctimer.o)
                0x000000000003d154                ctimer_process
 .data          0x000000000003d164       0x10 obj_cooja/mtype179.a(etimer.o)
                0x000000000003d164                etimer_process
 .data          0x000000000003d174        0x0 obj_cooja/mtype179.a(process.o)
 .data          0x000000000003d174        0x0 obj_cooja/mtype179.a(rtimer.o)
 .data          0x000000000003d174        0x0 obj_cooja/mtype179.a(timer.o)
 .data          0x000000000003d174       0x10 obj_cooja/mtype179.a(serial-line.o)
                0x000000000003d174                serial_line_process
 .data          0x000000000003d184        0x0 obj_cooja/mtype179.a(assert.o)
 .data          0x000000000003d184        0x0 obj_cooja/mtype179.a(list.o)
 .data          0x000000000003d184        0x0 obj_cooja/mtype179.a(memb.o)
 .data          0x000000000003d184        0x0 obj_cooja/mtype179.a(ringbuf.o)
 .data          0x000000000003d184        0x0 obj_cooja/mtype179.a(sicslowpan.o)
 .data          0x000000000003d184       0x14 obj_cooja/mtype179.a(uip-ds6-nbr.o)
                0x000000000003d194                ds6_neighbors
 .data          0x000000000003d198       0x44 obj_cooja/mtype179.a(uip-ds6-route.o)
                0x000000000003d1a8                nbr_routes
 .data          0x000000000003d1dc        0x0 obj_cooja/mtype179.a(uip-ds6.o)
 .data          0x000000000003d1dc       0x18 obj_cooja/mtype179.a(uip-nd6.o)
 .data          0x000000000003d1f4        0x0 obj_cooja/mtype179.a(uip6.o)
 .data          0x000000000003d1f4       0x10 obj_cooja/mtype179.a(tcpip.o)
                0x000000000003d1f4                tcpip_process
 .data          0x000000000003d204        0x0 obj_cooja/mtype179.a(uip-debug.o)
 .data          0x000000000003d204        0xc obj_cooja/mtype179.a(uip-packetqueue)
 .data          0x000000000003d210        0x0 obj_cooja/mtype179.a(uip-udp-packet.)
 .data          0x000000000003d210       0x14 obj_cooja/mtype179.a(rpl-dag.o)
                0x000000000003d220                rpl_parents
 .data          0x000000000003d224        0x0 obj_cooja/mtype179.a(rpl-ext-header.)
 .data          0x000000000003d224       0x34 obj_cooja/mtype179.a(rpl-icmp6.o)
 *fill*         0x000000000003d258        0x8 
 .data          0x000000000003d260       0x24 obj_cooja/mtype179.a(rpl-mrhof.o)
                0x000000000003d260                rpl_mrhof
 .data          0x000000000003d284        0x0 obj_cooja/mtype179.a(rpl-timers.o)
 .data          0x000000000003d284        0x0 obj_cooja/mtype179.a(rpl.o)
 .data          0x000000000003d284       0x14 obj_cooja/mtype179.a(link-stats.o)
 .data          0x000000000003d298        0x0 obj_cooja/mtype179.a(linkaddr.o)
 .data          0x000000000003d298       0x10 obj_cooja/mtype179.a(nbr-table.o)
 .data          0x000000000003d2a8        0x0 obj_cooja/mtype179.a(netstack.o)
 .data          0x000000000003d2a8        0x4 obj_cooja/mtype179.a(packetbuf.o)
 .data          0x000000000003d2ac       0x18 obj_cooja/mtype179.a(queuebuf.o)
 .data          0x000000000003d2c4       0x28 obj_cooja/mtype179.a(csma.o)
 .data          0x000000000003d2ec        0x0 obj_cooja/mtype179.a(framer-802154.o)
 .data          0x000000000003d2ec        0x0 obj_cooja/mtype179.a(mac.o)
 .data          0x000000000003d2ec        0x0 obj_cooja/mtype179.a(nullrdc.o)
 .data          0x000000000003d2ec        0x0 obj_cooja/mtype179.a(nullsec.o)
 .data          0x000000000003d2ec        0x0 obj_cooja/mtype179.a(watchdog.o)
 .data          0x000000000003d2ec        0x0 obj_cooja/mtype179.a(rimestats.o)
 .data          0x000000000003d2ec        0x0 obj_cooja/mtype179.a(stimer.o)
 .data          0x000000000003d2ec       0x20 obj_cooja/mtype179.a(uip-icmp6.o)
 .data          0x000000000003d30c        0x0 obj_cooja/mtype179.a(rpl-nbr-policy.)
 .data          0x000000000003d30c        0x2 obj_cooja/mtype179.a(frame802154.o)
 .data          0x000000000003d30e        0x0 obj_cooja/mtype179.a(mac-sequence.o)
 .data          0x000000000003d30e        0x0 /usr/lib/gcc/i686-linux-gnu/4.8/crtendS.o
 .data          0x000000000003d30e        0x0 /usr/lib/gcc/i686-linux-gnu/4.8/../../../i386-linux-gnu/crtn.o

.tm_clone_table
                0x000000000003d310        0x0
 .tm_clone_table
                0x000000000003d310        0x0 /usr/lib/gcc/i686-linux-gnu/4.8/crtbeginS.o
 .tm_clone_table
                0x000000000003d310        0x0 /usr/lib/gcc/i686-linux-gnu/4.8/crtendS.o

.data1
 *(.data1)
                0x000000000003d310                _edata = .
                0x000000000003d310                PROVIDE (edata, .)
                0x000000000003d310                . = .
                0x000000000003d310                __bss_start = .

.bss            0x000000000003d320    0x13528
 *(.dynbss)
 .dynbss        0x0000000000000000        0x0 /usr/lib/gcc/i686-linux-gnu/4.8/../../../i386-linux-gnu/crti.o
 *(.bss .bss.* .gnu.linkonce.b.*)
 .bss           0x000000000003d320        0x0 /usr/lib/gcc/i686-linux-gnu/4.8/../../../i386-linux-gnu/crti.o
 .bss           0x000000000003d320        0x1 /usr/lib/gcc/i686-linux-gnu/4.8/crtbeginS.o
 *fill*         0x000000000003d321        0x3 
 .bss           0x000000000003d324       0x2c sensor.co
                0x000000000003d324                receiver_num
 *fill*         0x000000000003d350       0x10 
 .bss           0x000000000003d360     0x2030 obj_cooja/mtype179.o
 *fill*         0x000000000003f390       0x10 
 .bss           0x000000000003f3a0      0x165 obj_cooja/mtype179.a(dtls.o)
 *fill*         0x000000000003f505       0x1b 
 .bss           0x000000000003f520      0xc70 obj_cooja/mtype179.a(tinydtls-crypto)
 *fill*         0x0000000000040190       0x10 
 .bss           0x00000000000401a0      0x410 obj_cooja/mtype179.a(hmac.o)
 *fill*         0x00000000000405b0       0x10 
 .bss           0x00000000000405c0      0x470 obj_cooja/mtype179.a(netq.o)
 .bss           0x0000000000040a30        0x0 obj_cooja/mtype179.a(dtls_time.o)
 *fill*         0x0000000000040a30       0x10 
 .bss           0x0000000000040a40       0x80 obj_cooja/mtype179.a(peer.o)
 .bss           0x0000000000040ac0        0x0 obj_cooja/mtype179.a(session.o)
 .bss           0x0000000000040ac0        0x0 obj_cooja/mtype179.a(rijndael.o)
 .bss           0x0000000000040ac0        0x4 obj_cooja/mtype179.a(tinydtls-ccm.o)
 .bss           0x0000000000040ac4        0x0 obj_cooja/mtype179.a(sha2.o)
 *fill*         0x0000000000040ac4       0x1c 
 .bss           0x0000000000040ae0       0x20 obj_cooja/mtype179.a(debug.o)
 .bss           0x0000000000040b00        0x1 obj_cooja/mtype179.a(simEnvChange.o)
                0x0000000000040b00                simDontFallAsleep
 *fill*         0x0000000000040b01        0x3 
 .bss           0x0000000000040b04        0x4 obj_cooja/mtype179.a(cooja_mt.o)
 .bss           0x0000000000040b08        0x4 obj_cooja/mtype179.a(cooja_mtarch.o)
 .bss           0x0000000000040b0c        0x0 obj_cooja/mtype179.a(rtimer-arch.o)
 .bss           0x0000000000040b0c        0x0 obj_cooja/mtype179.a(beep.o)
 .bss           0x0000000000040b0c        0x8 obj_cooja/mtype179.a(button-sensor.o)
 .bss           0x0000000000040b14        0x0 obj_cooja/mtype179.a(leds-arch.o)
 .bss           0x0000000000040b14        0x0 obj_cooja/mtype179.a(moteid.o)
 .bss           0x0000000000040b14        0x1 obj_cooja/mtype179.a(pir-sensor.o)
                0x0000000000040b14                simPirValue
 *fill*         0x0000000000040b15        0x3 
 .bss           0x0000000000040b18        0x4 obj_cooja/mtype179.a(rs232.o)
 .bss           0x0000000000040b1c        0x1 obj_cooja/mtype179.a(vib-sensor.o)
                0x0000000000040b1c                simVibValue
 .bss           0x0000000000040b1d        0x0 obj_cooja/mtype179.a(clock.o)
 *fill*         0x0000000000040b1d        0x3 
 .bss           0x0000000000040b20      0x420 obj_cooja/mtype179.a(log.o)
 .bss           0x0000000000040f40      0xfc0 obj_cooja/mtype179.a(cfs-cooja.o)
                0x0000000000040f40                simCFSData
                0x0000000000041ee0                simCFSSize
                0x0000000000041ee4                simCFSChanged
                0x0000000000041ee8                simCFSRead
                0x0000000000041eec                simCFSWritten
 .bss           0x0000000000041f00       0x24 obj_cooja/mtype179.a(cooja-radio.o)
                0x0000000000041f00                simReceiving
                0x0000000000041f04                simInSize
                0x0000000000041f08                simLastPacketTimestamp
                0x0000000000041f10                simOutSize
 .bss           0x0000000000041f24        0xc obj_cooja/mtype179.a(eeprom.o)
                0x0000000000041f24                simEEPROMChanged
                0x0000000000041f28                simEEPROMRead
                0x0000000000041f2c                simEEPROMWritten
 .bss           0x0000000000041f30        0x0 obj_cooja/mtype179.a(random.o)
 .bss           0x0000000000041f30        0xc obj_cooja/mtype179.a(sensors.o)
 .bss           0x0000000000041f3c        0x0 obj_cooja/mtype179.a(autostart.o)
 .bss           0x0000000000041f3c        0x5 obj_cooja/mtype179.a(ctimer.o)
 *fill*         0x0000000000041f41        0x3 
 .bss           0x0000000000041f44        0x8 obj_cooja/mtype179.a(etimer.o)
 *fill*         0x0000000000041f4c       0x14 
 .bss           0x0000000000041f60      0x1a1 obj_cooja/mtype179.a(process.o)
                0x0000000000041f60                process_list
                0x0000000000041f64                process_current
 *fill*         0x0000000000042101        0x3 
 .bss           0x0000000000042104        0x4 obj_cooja/mtype179.a(rtimer.o)
 .bss           0x0000000000042108        0x0 obj_cooja/mtype179.a(timer.o)
 *fill*         0x0000000000042108       0x18 
 .bss           0x0000000000042120      0x140 obj_cooja/mtype179.a(serial-line.o)
 .bss           0x0000000000042260        0x0 obj_cooja/mtype179.a(assert.o)
 .bss           0x0000000000042260        0x0 obj_cooja/mtype179.a(list.o)
 .bss           0x0000000000042260        0x0 obj_cooja/mtype179.a(memb.o)
 .bss           0x0000000000042260        0x0 obj_cooja/mtype179.a(ringbuf.o)
 .bss           0x0000000000042260      0x70c obj_cooja/mtype179.a(sicslowpan.o)
 *fill*         0x000000000004296c       0x14 
 .bss           0x0000000000042980     0x3390 obj_cooja/mtype179.a(uip-ds6-nbr.o)
 *fill*         0x0000000000045d10       0x10 
 .bss           0x0000000000045d20     0x44a4 obj_cooja/mtype179.a(uip-ds6-route.o)
 .bss           0x000000000004a1c4       0x20 obj_cooja/mtype179.a(uip-ds6.o)
 .bss           0x000000000004a1e4       0x14 obj_cooja/mtype179.a(uip-nd6.o)
 .bss           0x000000000004a1f8        0xa obj_cooja/mtype179.a(uip6.o)
                0x000000000004a1f8                uip_ext_bitmap
                0x000000000004a1f9                uip_ext_len
                0x000000000004a1fa                uip_ext_opt_offset
 *fill*         0x000000000004a202       0x1e 
 .bss           0x000000000004a220       0x6a obj_cooja/mtype179.a(tcpip.o)
 .bss           0x000000000004a28a        0x0 obj_cooja/mtype179.a(uip-debug.o)
 *fill*         0x000000000004a28a       0x16 
 .bss           0x000000000004a2a0      0xcf8 obj_cooja/mtype179.a(uip-packetqueue)
 .bss           0x000000000004af98        0x0 obj_cooja/mtype179.a(uip-udp-packet.)
 *fill*         0x000000000004af98        0x8 
 .bss           0x000000000004afa0      0x960 obj_cooja/mtype179.a(rpl-dag.o)
 .bss           0x000000000004b900        0x0 obj_cooja/mtype179.a(rpl-ext-header.)
 .bss           0x000000000004b900        0x0 obj_cooja/mtype179.a(rpl-icmp6.o)
 .bss           0x000000000004b900        0x0 obj_cooja/mtype179.a(rpl-mrhof.o)
 .bss           0x000000000004b900       0x23 obj_cooja/mtype179.a(rpl-timers.o)
 *fill*         0x000000000004b923        0x1 
 .bss           0x000000000004b924        0x4 obj_cooja/mtype179.a(rpl.o)
 *fill*         0x000000000004b928       0x18 
 .bss           0x000000000004b940      0xe10 obj_cooja/mtype179.a(link-stats.o)
 .bss           0x000000000004c750        0x0 obj_cooja/mtype179.a(linkaddr.o)
 *fill*         0x000000000004c750       0x10 
 .bss           0x000000000004c760     0x1214 obj_cooja/mtype179.a(nbr-table.o)
 .bss           0x000000000004d974        0x0 obj_cooja/mtype179.a(netstack.o)
 *fill*         0x000000000004d974        0xc 
 .bss           0x000000000004d980       0xa0 obj_cooja/mtype179.a(packetbuf.o)
 .bss           0x000000000004da20      0xb80 obj_cooja/mtype179.a(queuebuf.o)
 .bss           0x000000000004e5a0      0x248 obj_cooja/mtype179.a(csma.o)
 .bss           0x000000000004e7e8        0x2 obj_cooja/mtype179.a(framer-802154.o)
 .bss           0x000000000004e7ea        0x0 obj_cooja/mtype179.a(mac.o)
 .bss           0x000000000004e7ea        0x0 obj_cooja/mtype179.a(nullrdc.o)
 .bss           0x000000000004e7ea        0x0 obj_cooja/mtype179.a(nullsec.o)
 .bss           0x000000000004e7ea        0x0 obj_cooja/mtype179.a(watchdog.o)
 .bss           0x000000000004e7ea        0x0 obj_cooja/mtype179.a(rimestats.o)
 .bss           0x000000000004e7ea        0x0 obj_cooja/mtype179.a(stimer.o)
 *fill*         0x000000000004e7ea        0x2 
 .bss           0x000000000004e7ec       0x18 obj_cooja/mtype179.a(uip-icmp6.o)
 *fill*         0x000000000004e804       0x1c 
 .bss           0x000000000004e820       0x44 obj_cooja/mtype179.a(rpl-nbr-policy.)
 .bss           0x000000000004e864        0x0 obj_cooja/mtype179.a(frame802154.o)
 *fill*         0x000000000004e864       0x1c 
 .bss           0x000000000004e880      0x100 obj_cooja/mtype179.a(mac-sequence.o)
 .bss           0x000000000004e980        0x0 /usr/lib/gcc/i686-linux-gnu/4.8/crtendS.o
 .bss           0x000000000004e980        0x0 /usr/lib/gcc/i686-linux-gnu/4.8/../../../i386-linux-gnu/crtn.o
 *(COMMON)
 COMMON         0x000000000004e980       0x24 sensor.co
                0x000000000004e980                cfs_buf
                0x000000000004e9a0                fd
 COMMON         0x000000000004e9a4        0x8 obj_cooja/mtype179.o
                0x000000000004e9a4                referenceVar
                0x000000000004e9a8                sensors_flags
 COMMON         0x000000000004e9ac        0x4 obj_cooja/mtype179.a(dtls_time.o)
                0x000000000004e9ac                dtls_clock_offset
 COMMON         0x000000000004e9b0        0xc obj_cooja/mtype179.a(simEnvChange.o)
                0x000000000004e9b0                simEtimerPending
                0x000000000004e9b4                simProcessRunValue
                0x000000000004e9b8                simEtimerNextExpirationTime
 *fill*         0x000000000004e9bc        0x4 
 COMMON         0x000000000004e9c0       0x18 obj_cooja/mtype179.a(rtimer-arch.o)
                0x000000000004e9c0                simRtimerPending
                0x000000000004e9c8                simRtimerCurrentTicks
                0x000000000004e9d0                simRtimerNextExpirationTime
 COMMON         0x000000000004e9d8        0x1 obj_cooja/mtype179.a(beep.o)
                0x000000000004e9d8                simBeeped
 COMMON         0x000000000004e9d9        0x3 obj_cooja/mtype179.a(button-sensor.o)
                0x000000000004e9d9                simButtonIsActive
                0x000000000004e9da                simButtonIsDown
                0x000000000004e9db                simButtonChanged
 COMMON         0x000000000004e9dc        0x1 obj_cooja/mtype179.a(leds-arch.o)
                0x000000000004e9dc                simLedsValue
 *fill*         0x000000000004e9dd        0x3 
 COMMON         0x000000000004e9e0        0xc obj_cooja/mtype179.a(moteid.o)
                0x000000000004e9e0                simRandomSeed
                0x000000000004e9e4                simMoteIDChanged
                0x000000000004e9e8                simMoteID
 COMMON         0x000000000004e9ec        0x2 obj_cooja/mtype179.a(pir-sensor.o)
                0x000000000004e9ec                simPirIsActive
                0x000000000004e9ed                simPirChanged
 *fill*         0x000000000004e9ee       0x12 
 COMMON         0x000000000004ea00      0x820 obj_cooja/mtype179.a(rs232.o)
                0x000000000004ea00                simSerialReceivingFlag
                0x000000000004ea04                simSerialReceivingLength
                0x000000000004ea20                simSerialReceivingData
 COMMON         0x000000000004f220        0x2 obj_cooja/mtype179.a(vib-sensor.o)
                0x000000000004f220                simVibChanged
                0x000000000004f221                simVibIsActive
 *fill*         0x000000000004f222        0x2 
 COMMON         0x000000000004f224        0x4 obj_cooja/mtype179.a(clock.o)
                0x000000000004f224                simCurrentTime
 *fill*         0x000000000004f228       0x18 
 COMMON         0x000000000004f240      0x420 obj_cooja/mtype179.a(log.o)
                0x000000000004f240                simLoggedLength
                0x000000000004f244                simLoggedFlag
                0x000000000004f260                simLoggedData
 COMMON         0x000000000004f660      0x100 obj_cooja/mtype179.a(cooja-radio.o)
                0x000000000004f660                simOutDataBuffer
                0x000000000004f6e0                simInDataBuffer
 COMMON         0x000000000004f760      0x400 obj_cooja/mtype179.a(eeprom.o)
                0x000000000004f760                simEEPROMData
 COMMON         0x000000000004fb60        0x1 obj_cooja/mtype179.a(sensors.o)
                0x000000000004fb60                sensors_event
 COMMON         0x000000000004fb61        0x1 obj_cooja/mtype179.a(serial-line.o)
                0x000000000004fb61                serial_line_event_message
 *fill*         0x000000000004fb62       0x1e 
 COMMON         0x000000000004fb80      0x181 obj_cooja/mtype179.a(uip-ds6.o)
                0x000000000004fb80                uip_ds6_prefix_list
                0x000000000004fbe0                uip_ds6_timer_periodic
                0x000000000004fbf0                uip_ds6_netif_addr_list_offset
                0x000000000004fc00                uip_ds6_if
                0x000000000004fcf8                uip_ds6_timer_ra
                0x000000000004fd00                uip_ds6_addr_size
 *fill*         0x000000000004fd01       0x1f 
 COMMON         0x000000000004fd20      0x8ec obj_cooja/mtype179.a(uip6.o)
                0x000000000004fd20                uip_slen
                0x000000000004fd22                uip_acc32
                0x000000000004fd40                uip_conns
                0x000000000004fe00                uip_lladdr
                0x000000000004fe08                uip_appdata
                0x000000000004fe0c                uip_flags
                0x000000000004fe20                uip_aligned_buf
                0x0000000000050460                uip_listenports
                0x0000000000050470                uip_len
                0x0000000000050474                uip_sappdata
                0x0000000000050480                uip_udp_conns
                0x0000000000050600                uip_udp_conn
                0x0000000000050604                uip_next_hdr
                0x0000000000050608                uip_conn
 COMMON         0x000000000005060c        0x1 obj_cooja/mtype179.a(tcpip.o)
                0x000000000005060c                tcpip_event
 *fill*         0x000000000005060d       0x13 
 COMMON         0x0000000000050620      0x174 obj_cooja/mtype179.a(rpl-dag.o)
                0x0000000000050620                default_instance
                0x0000000000050640                instance_table
 *fill*         0x0000000000050794        0xc 
 COMMON         0x00000000000507a0       0x20 obj_cooja/mtype179.a(link-stats.o)
                0x00000000000507a0                periodic_timer
 COMMON         0x00000000000507c0        0x8 obj_cooja/mtype179.a(linkaddr.o)
                0x00000000000507c0                linkaddr_node_addr
 COMMON         0x00000000000507c8       0x2e obj_cooja/mtype179.a(packetbuf.o)
                0x00000000000507c8                packetbuf_attrs
                0x00000000000507e6                packetbuf_addrs
 *fill*         0x00000000000507f6        0xa 
 COMMON         0x0000000000050800       0x48 obj_cooja/mtype179.a(rimestats.o)
                0x0000000000050800                rimestats
                0x0000000000050848                . = ALIGN ((. != 0x0)?0x4:0x1)
                0x0000000000050848                . = ALIGN (0x4)
                0x0000000000050848                . = SEGMENT_START ("ldata-segment", .)
                0x0000000000050848                . = ALIGN (0x4)
                0x0000000000050848                _end = .
                0x0000000000050848                PROVIDE (end, .)
                0x0000000000050848                . = DATA_SEGMENT_END (.)

.stab
 *(.stab)

.stabstr
 *(.stabstr)

.stab.excl
 *(.stab.excl)

.stab.exclstr
 *(.stab.exclstr)

.stab.index
 *(.stab.index)

.stab.indexstr
 *(.stab.indexstr)

.comment        0x0000000000000000       0x29
 *(.comment)
 .comment       0x0000000000000000       0x29 /usr/lib/gcc/i686-linux-gnu/4.8/crtbeginS.o
                                         0x2a (size before relaxing)
 .comment       0x0000000000000000       0x2a sensor.co
 .comment       0x0000000000000000       0x2a obj_cooja/mtype179.o
 .comment       0x0000000000000000       0x2a obj_cooja/mtype179.a(dtls.o)
 .comment       0x0000000000000000       0x2a obj_cooja/mtype179.a(tinydtls-crypto)
 .comment       0x0000000000000000       0x2a obj_cooja/mtype179.a(hmac.o)
 .comment       0x0000000000000000       0x2a obj_cooja/mtype179.a(netq.o)
 .comment       0x0000000000000000       0x2a obj_cooja/mtype179.a(dtls_time.o)
 .comment       0x0000000000000000       0x2a obj_cooja/mtype179.a(peer.o)
 .comment       0x0000000000000000       0x2a obj_cooja/mtype179.a(session.o)
 .comment       0x0000000000000000       0x2a obj_cooja/mtype179.a(rijndael.o)
 .comment       0x0000000000000000       0x2a obj_cooja/mtype179.a(tinydtls-ccm.o)
 .comment       0x0000000000000000       0x2a obj_cooja/mtype179.a(sha2.o)
 .comment       0x0000000000000000       0x2a obj_cooja/mtype179.a(debug.o)
 .comment       0x0000000000000000       0x2a obj_cooja/mtype179.a(simEnvChange.o)
 .comment       0x0000000000000000       0x2a obj_cooja/mtype179.a(cooja_mt.o)
 .comment       0x0000000000000000       0x2a obj_cooja/mtype179.a(cooja_mtarch.o)
 .comment       0x0000000000000000       0x2a obj_cooja/mtype179.a(rtimer-arch.o)
 .comment       0x0000000000000000       0x2a obj_cooja/mtype179.a(beep.o)
 .comment       0x0000000000000000       0x2a obj_cooja/mtype179.a(button-sensor.o)
 .comment       0x0000000000000000       0x2a obj_cooja/mtype179.a(leds-arch.o)
 .comment       0x0000000000000000       0x2a obj_cooja/mtype179.a(moteid.o)
 .comment       0x0000000000000000       0x2a obj_cooja/mtype179.a(pir-sensor.o)
 .comment       0x0000000000000000       0x2a obj_cooja/mtype179.a(rs232.o)
 .comment       0x0000000000000000       0x2a obj_cooja/mtype179.a(vib-sensor.o)
 .comment       0x0000000000000000       0x2a obj_cooja/mtype179.a(clock.o)
 .comment       0x0000000000000000       0x2a obj_cooja/mtype179.a(log.o)
 .comment       0x0000000000000000       0x2a obj_cooja/mtype179.a(cfs-cooja.o)
 .comment       0x0000000000000000       0x2a obj_cooja/mtype179.a(cooja-radio.o)
 .comment       0x0000000000000000       0x2a obj_cooja/mtype179.a(eeprom.o)
 .comment       0x0000000000000000       0x2a obj_cooja/mtype179.a(random.o)
 .comment       0x0000000000000000       0x2a obj_cooja/mtype179.a(sensors.o)
 .comment       0x0000000000000000       0x2a obj_cooja/mtype179.a(autostart.o)
 .comment       0x0000000000000000       0x2a obj_cooja/mtype179.a(ctimer.o)
 .comment       0x0000000000000000       0x2a obj_cooja/mtype179.a(etimer.o)
 .comment       0x0000000000000000       0x2a obj_cooja/mtype179.a(process.o)
 .comment       0x0000000000000000       0x2a obj_cooja/mtype179.a(rtimer.o)
 .comment       0x0000000000000000       0x2a obj_cooja/mtype179.a(timer.o)
 .comment       0x0000000000000000       0x2a obj_cooja/mtype179.a(serial-line.o)
 .comment       0x0000000000000000       0x2a obj_cooja/mtype179.a(assert.o)
 .comment       0x0000000000000000       0x2a obj_cooja/mtype179.a(list.o)
 .comment       0x0000000000000000       0x2a obj_cooja/mtype179.a(memb.o)
 .comment       0x0000000000000000       0x2a obj_cooja/mtype179.a(ringbuf.o)
 .comment       0x0000000000000000       0x2a obj_cooja/mtype179.a(sicslowpan.o)
 .comment       0x0000000000000000       0x2a obj_cooja/mtype179.a(uip-ds6-nbr.o)
 .comment       0x0000000000000000       0x2a obj_cooja/mtype179.a(uip-ds6-route.o)
 .comment       0x0000000000000000       0x2a obj_cooja/mtype179.a(uip-ds6.o)
 .comment       0x0000000000000000       0x2a obj_cooja/mtype179.a(uip-nd6.o)
 .comment       0x0000000000000000       0x2a obj_cooja/mtype179.a(uip6.o)
 .comment       0x0000000000000000       0x2a obj_cooja/mtype179.a(tcpip.o)
 .comment       0x0000000000000000       0x2a obj_cooja/mtype179.a(uip-debug.o)
 .comment       0x0000000000000000       0x2a obj_cooja/mtype179.a(uip-packetqueue)
 .comment       0x0000000000000000       0x2a obj_cooja/mtype179.a(uip-udp-packet.)
 .comment       0x0000000000000000       0x2a obj_cooja/mtype179.a(rpl-dag.o)
 .comment       0x0000000000000000       0x2a obj_cooja/mtype179.a(rpl-ext-header.)
 .comment       0x0000000000000000       0x2a obj_cooja/mtype179.a(rpl-icmp6.o)
 .comment       0x0000000000000000       0x2a obj_cooja/mtype179.a(rpl-mrhof.o)
 .comment       0x0000000000000000       0x2a obj_cooja/mtype179.a(rpl-timers.o)
 .comment       0x0000000000000000       0x2a obj_cooja/mtype179.a(rpl.o)
 .comment       0x0000000000000000       0x2a obj_cooja/mtype179.a(link-stats.o)
 .comment       0x0000000000000000       0x2a obj_cooja/mtype179.a(linkaddr.o)
 .comment       0x0000000000000000       0x2a obj_cooja/mtype179.a(nbr-table.o)
 .comment       0x0000000000000000       0x2a obj_cooja/mtype179.a(netstack.o)
 .comment       0x0000000000000000       0x2a obj_cooja/mtype179.a(packetbuf.o)
 .comment       0x0000000000000000       0x2a obj_cooja/mtype179.a(queuebuf.o)
 .comment       0x0000000000000000       0x2a obj_cooja/mtype179.a(csma.o)
 .comment       0x0000000000000000       0x2a obj_cooja/mtype179.a(framer-802154.o)
 .comment       0x0000000000000000       0x2a obj_cooja/mtype179.a(mac.o)
 .comment       0x0000000000000000       0x2a obj_cooja/mtype179.a(nullrdc.o)
 .comment       0x0000000000000000       0x2a obj_cooja/mtype179.a(nullsec.o)
 .comment       0x0000000000000000       0x2a obj_cooja/mtype179.a(watchdog.o)
 .comment       0x0000000000000000       0x2a obj_cooja/mtype179.a(rimestats.o)
 .comment       0x0000000000000000       0x2a obj_cooja/mtype179.a(stimer.o)
 .comment       0x0000000000000000       0x2a obj_cooja/mtype179.a(uip-icmp6.o)
 .comment       0x0000000000000000       0x2a obj_cooja/mtype179.a(rpl-nbr-policy.)
 .comment       0x0000000000000000       0x2a obj_cooja/mtype179.a(frame802154.o)
 .comment       0x0000000000000000       0x2a obj_cooja/mtype179.a(mac-sequence.o)
 .comment       0x0000000000000000       0x2a /usr/lib/gcc/i686-linux-gnu/4.8/crtendS.o

.debug
 *(.debug)

.line
 *(.line)

.debug_srcinfo
 *(.debug_srcinfo)

.debug_sfnames
 *(.debug_sfnames)

.debug_aranges  0x0000000000000000     0x2060
 *(.debug_aranges)
 .debug_aranges
                0x0000000000000000       0x80 sensor.co
 .debug_aranges
                0x0000000000000080       0x68 obj_cooja/mtype179.o
 .debug_aranges
                0x00000000000000e8      0x300 obj_cooja/mtype179.a(dtls.o)
 .debug_aranges
                0x00000000000003e8       0xc8 obj_cooja/mtype179.a(tinydtls-crypto)
 .debug_aranges
                0x00000000000004b0       0x70 obj_cooja/mtype179.a(hmac.o)
 .debug_aranges
                0x0000000000000520       0x70 obj_cooja/mtype179.a(netq.o)
 .debug_aranges
                0x0000000000000590       0x28 obj_cooja/mtype179.a(dtls_time.o)
 .debug_aranges
                0x00000000000005b8       0x38 obj_cooja/mtype179.a(peer.o)
 .debug_aranges
                0x00000000000005f0       0x28 obj_cooja/mtype179.a(session.o)
 .debug_aranges
                0x0000000000000618       0x38 obj_cooja/mtype179.a(rijndael.o)
 .debug_aranges
                0x0000000000000650       0x60 obj_cooja/mtype179.a(tinydtls-ccm.o)
 .debug_aranges
                0x00000000000006b0       0x48 obj_cooja/mtype179.a(sha2.o)
 .debug_aranges
                0x00000000000006f8       0x68 obj_cooja/mtype179.a(debug.o)
 .debug_aranges
                0x0000000000000760       0x28 obj_cooja/mtype179.a(simEnvChange.o)
 .debug_aranges
                0x0000000000000788       0x48 obj_cooja/mtype179.a(cooja_mt.o)
 .debug_aranges
                0x00000000000007d0       0x60 obj_cooja/mtype179.a(cooja_mtarch.o)
 .debug_aranges
                0x0000000000000830       0x48 obj_cooja/mtype179.a(rtimer-arch.o)
 .debug_aranges
                0x0000000000000878       0x70 obj_cooja/mtype179.a(beep.o)
 .debug_aranges
                0x00000000000008e8       0x40 obj_cooja/mtype179.a(button-sensor.o)
 .debug_aranges
                0x0000000000000928       0x40 obj_cooja/mtype179.a(leds-arch.o)
 .debug_aranges
                0x0000000000000968       0x28 obj_cooja/mtype179.a(moteid.o)
 .debug_aranges
                0x0000000000000990       0x40 obj_cooja/mtype179.a(pir-sensor.o)
 .debug_aranges
                0x00000000000009d0       0x58 obj_cooja/mtype179.a(rs232.o)
 .debug_aranges
                0x0000000000000a28       0x40 obj_cooja/mtype179.a(vib-sensor.o)
 .debug_aranges
                0x0000000000000a68       0x48 obj_cooja/mtype179.a(clock.o)
 .debug_aranges
                0x0000000000000ab0       0x60 obj_cooja/mtype179.a(log.o)
 .debug_aranges
                0x0000000000000b10       0x70 obj_cooja/mtype179.a(cfs-cooja.o)
 .debug_aranges
                0x0000000000000b80       0xf0 obj_cooja/mtype179.a(cooja-radio.o)
 .debug_aranges
                0x0000000000000c70       0x40 obj_cooja/mtype179.a(eeprom.o)
 .debug_aranges
                0x0000000000000cb0       0x28 obj_cooja/mtype179.a(random.o)
 .debug_aranges
                0x0000000000000cd8       0x48 obj_cooja/mtype179.a(sensors.o)
 .debug_aranges
                0x0000000000000d20       0x28 obj_cooja/mtype179.a(autostart.o)
 .debug_aranges
                0x0000000000000d48       0x58 obj_cooja/mtype179.a(ctimer.o)
 .debug_aranges
                0x0000000000000da0       0x90 obj_cooja/mtype179.a(etimer.o)
 .debug_aranges
                0x0000000000000e30       0x88 obj_cooja/mtype179.a(process.o)
 .debug_aranges
                0x0000000000000eb8       0x30 obj_cooja/mtype179.a(rtimer.o)
 .debug_aranges
                0x0000000000000ee8       0x40 obj_cooja/mtype179.a(timer.o)
 .debug_aranges
                0x0000000000000f28       0x30 obj_cooja/mtype179.a(serial-line.o)
 .debug_aranges
                0x0000000000000f58       0x20 obj_cooja/mtype179.a(assert.o)
 .debug_aranges
                0x0000000000000f78       0x78 obj_cooja/mtype179.a(list.o)
 .debug_aranges
                0x0000000000000ff0       0x40 obj_cooja/mtype179.a(memb.o)
 .debug_aranges
                0x0000000000001030       0x40 obj_cooja/mtype179.a(ringbuf.o)
 .debug_aranges
                0x0000000000001070       0xe0 obj_cooja/mtype179.a(sicslowpan.o)
 .debug_aranges
                0x0000000000001150       0x90 obj_cooja/mtype179.a(uip-ds6-nbr.o)
 .debug_aranges
                0x00000000000011e0       0xc8 obj_cooja/mtype179.a(uip-ds6-route.o)
 .debug_aranges
                0x00000000000012a8       0xc8 obj_cooja/mtype179.a(uip-ds6.o)
 .debug_aranges
                0x0000000000001370       0x48 obj_cooja/mtype179.a(uip-nd6.o)
 .debug_aranges
                0x00000000000013b8       0xb0 obj_cooja/mtype179.a(uip6.o)
 .debug_aranges
                0x0000000000001468       0xb0 obj_cooja/mtype179.a(tcpip.o)
 .debug_aranges
                0x0000000000001518       0x20 obj_cooja/mtype179.a(uip-debug.o)
 .debug_aranges
                0x0000000000001538       0x50 obj_cooja/mtype179.a(uip-packetqueue)
 .debug_aranges
                0x0000000000001588       0x28 obj_cooja/mtype179.a(uip-udp-packet.)
 .debug_aranges
                0x00000000000015b0      0x1d8 obj_cooja/mtype179.a(rpl-dag.o)
 .debug_aranges
                0x0000000000001788       0x48 obj_cooja/mtype179.a(rpl-ext-header.)
 .debug_aranges
                0x00000000000017d0       0xc0 obj_cooja/mtype179.a(rpl-icmp6.o)
 .debug_aranges
                0x0000000000001890       0x60 obj_cooja/mtype179.a(rpl-mrhof.o)
 .debug_aranges
                0x00000000000018f0       0xa0 obj_cooja/mtype179.a(rpl-timers.o)
 .debug_aranges
                0x0000000000001990       0x68 obj_cooja/mtype179.a(rpl.o)
 .debug_aranges
                0x00000000000019f8       0x58 obj_cooja/mtype179.a(link-stats.o)
 .debug_aranges
                0x0000000000001a50       0x30 obj_cooja/mtype179.a(linkaddr.o)
 .debug_aranges
                0x0000000000001a80       0xc0 obj_cooja/mtype179.a(nbr-table.o)
 .debug_aranges
                0x0000000000001b40       0x20 obj_cooja/mtype179.a(netstack.o)
 .debug_aranges
                0x0000000000001b60       0xa0 obj_cooja/mtype179.a(packetbuf.o)
 .debug_aranges
                0x0000000000001c00       0x80 obj_cooja/mtype179.a(queuebuf.o)
 .debug_aranges
                0x0000000000001c80       0xb8 obj_cooja/mtype179.a(csma.o)
 .debug_aranges
                0x0000000000001d38       0x58 obj_cooja/mtype179.a(framer-802154.o)
 .debug_aranges
                0x0000000000001d90       0x20 obj_cooja/mtype179.a(mac.o)
 .debug_aranges
                0x0000000000001db0       0x70 obj_cooja/mtype179.a(nullrdc.o)
 .debug_aranges
                0x0000000000001e20       0x38 obj_cooja/mtype179.a(nullsec.o)
 .debug_aranges
                0x0000000000001e58       0x40 obj_cooja/mtype179.a(watchdog.o)
 .debug_aranges
                0x0000000000001e98       0x18 obj_cooja/mtype179.a(rimestats.o)
 .debug_aranges
                0x0000000000001eb0       0x48 obj_cooja/mtype179.a(stimer.o)
 .debug_aranges
                0x0000000000001ef8       0x68 obj_cooja/mtype179.a(uip-icmp6.o)
 .debug_aranges
                0x0000000000001f60       0x48 obj_cooja/mtype179.a(rpl-nbr-policy.)
 .debug_aranges
                0x0000000000001fa8       0x80 obj_cooja/mtype179.a(frame802154.o)
 .debug_aranges
                0x0000000000002028       0x38 obj_cooja/mtype179.a(mac-sequence.o)

.debug_pubnames
 *(.debug_pubnames)

.debug_info     0x0000000000000000    0x23684
 *(.debug_info .gnu.linkonce.wi.*)
 .debug_info    0x0000000000000000      0xf78 sensor.co
 .debug_info    0x0000000000000f78     0x36d8 obj_cooja/mtype179.o
 .debug_info    0x0000000000004650     0x3461 obj_cooja/mtype179.a(dtls.o)
 .debug_info    0x0000000000007ab1      0xe43 obj_cooja/mtype179.a(tinydtls-crypto)
 .debug_info    0x00000000000088f4      0x4e9 obj_cooja/mtype179.a(hmac.o)
 .debug_info    0x0000000000008ddd      0x8d5 obj_cooja/mtype179.a(netq.o)
 .debug_info    0x00000000000096b2      0x17e obj_cooja/mtype179.a(dtls_time.o)
 .debug_info    0x0000000000009830      0x6d1 obj_cooja/mtype179.a(peer.o)
 .debug_info    0x0000000000009f01      0x22c obj_cooja/mtype179.a(session.o)
 .debug_info    0x000000000000a12d      0x37f obj_cooja/mtype179.a(rijndael.o)
 .debug_info    0x000000000000a4ac      0x650 obj_cooja/mtype179.a(tinydtls-ccm.o)
 .debug_info    0x000000000000aafc      0x560 obj_cooja/mtype179.a(sha2.o)
 .debug_info    0x000000000000b05c      0x518 obj_cooja/mtype179.a(debug.o)
 .debug_info    0x000000000000b574      0x15a obj_cooja/mtype179.a(simEnvChange.o)
 .debug_info    0x000000000000b6ce      0x1e2 obj_cooja/mtype179.a(cooja_mt.o)
 .debug_info    0x000000000000b8b0      0x2e7 obj_cooja/mtype179.a(cooja_mtarch.o)
 .debug_info    0x000000000000bb97      0x14a obj_cooja/mtype179.a(rtimer-arch.o)
 .debug_info    0x000000000000bce1      0x1f3 obj_cooja/mtype179.a(beep.o)
 .debug_info    0x000000000000bed4      0x257 obj_cooja/mtype179.a(button-sensor.o)
 .debug_info    0x000000000000c12b      0x132 obj_cooja/mtype179.a(leds-arch.o)
 .debug_info    0x000000000000c25d      0x10a obj_cooja/mtype179.a(moteid.o)
 .debug_info    0x000000000000c367      0x216 obj_cooja/mtype179.a(pir-sensor.o)
 .debug_info    0x000000000000c57d      0x21e obj_cooja/mtype179.a(rs232.o)
 .debug_info    0x000000000000c79b      0x216 obj_cooja/mtype179.a(vib-sensor.o)
 .debug_info    0x000000000000c9b1      0x152 obj_cooja/mtype179.a(clock.o)
 .debug_info    0x000000000000cb03      0x2bb obj_cooja/mtype179.a(log.o)
 .debug_info    0x000000000000cdbe      0x3cf obj_cooja/mtype179.a(cfs-cooja.o)
 .debug_info    0x000000000000d18d      0xd1b obj_cooja/mtype179.a(cooja-radio.o)
 .debug_info    0x000000000000dea8      0x1d5 obj_cooja/mtype179.a(eeprom.o)
 .debug_info    0x000000000000e07d       0xb3 obj_cooja/mtype179.a(random.o)
 .debug_info    0x000000000000e130      0x36d obj_cooja/mtype179.a(sensors.o)
 .debug_info    0x000000000000e49d      0x1a5 obj_cooja/mtype179.a(autostart.o)
 .debug_info    0x000000000000e642      0x46c obj_cooja/mtype179.a(ctimer.o)
 .debug_info    0x000000000000eaae      0x49c obj_cooja/mtype179.a(etimer.o)
 .debug_info    0x000000000000ef4a      0x4ab obj_cooja/mtype179.a(process.o)
 .debug_info    0x000000000000f3f5      0x1b6 obj_cooja/mtype179.a(rtimer.o)
 .debug_info    0x000000000000f5ab      0x16c obj_cooja/mtype179.a(timer.o)
 .debug_info    0x000000000000f717      0x2de obj_cooja/mtype179.a(serial-line.o)
 .debug_info    0x000000000000f9f5       0xb3 obj_cooja/mtype179.a(assert.o)
 .debug_info    0x000000000000faa8      0x2ed obj_cooja/mtype179.a(list.o)
 .debug_info    0x000000000000fd95      0x1d7 obj_cooja/mtype179.a(memb.o)
 .debug_info    0x000000000000ff6c      0x1aa obj_cooja/mtype179.a(ringbuf.o)
 .debug_info    0x0000000000010116     0x105d obj_cooja/mtype179.a(sicslowpan.o)
 .debug_info    0x0000000000011173      0xb48 obj_cooja/mtype179.a(uip-ds6-nbr.o)
 .debug_info    0x0000000000011cbb      0xd6b obj_cooja/mtype179.a(uip-ds6-route.o)
 .debug_info    0x0000000000012a26      0xa4b obj_cooja/mtype179.a(uip-ds6.o)
 .debug_info    0x0000000000013471      0x97b obj_cooja/mtype179.a(uip-nd6.o)
 .debug_info    0x0000000000013dec      0xe68 obj_cooja/mtype179.a(uip6.o)
 .debug_info    0x0000000000014c54     0x1602 obj_cooja/mtype179.a(tcpip.o)
 .debug_info    0x0000000000016256      0x13b obj_cooja/mtype179.a(uip-debug.o)
 .debug_info    0x0000000000016391      0x470 obj_cooja/mtype179.a(uip-packetqueue)
 .debug_info    0x0000000000016801      0x37a obj_cooja/mtype179.a(uip-udp-packet.)
 .debug_info    0x0000000000016b7b     0x1b58 obj_cooja/mtype179.a(rpl-dag.o)
 .debug_info    0x00000000000186d3      0xf73 obj_cooja/mtype179.a(rpl-ext-header.)
 .debug_info    0x0000000000019646     0x16db obj_cooja/mtype179.a(rpl-icmp6.o)
 .debug_info    0x000000000001ad21      0xa3d obj_cooja/mtype179.a(rpl-mrhof.o)
 .debug_info    0x000000000001b75e      0xcc0 obj_cooja/mtype179.a(rpl-timers.o)
 .debug_info    0x000000000001c41e      0xd0d obj_cooja/mtype179.a(rpl.o)
 .debug_info    0x000000000001d12b      0x691 obj_cooja/mtype179.a(link-stats.o)
 .debug_info    0x000000000001d7bc      0x165 obj_cooja/mtype179.a(linkaddr.o)
 .debug_info    0x000000000001d921      0x969 obj_cooja/mtype179.a(nbr-table.o)
 .debug_info    0x000000000001e28a      0x4b9 obj_cooja/mtype179.a(netstack.o)
 .debug_info    0x000000000001e743      0x48d obj_cooja/mtype179.a(packetbuf.o)
 .debug_info    0x000000000001ebd0      0x57d obj_cooja/mtype179.a(queuebuf.o)
 .debug_info    0x000000000001f14d      0xc0d obj_cooja/mtype179.a(csma.o)
 .debug_info    0x000000000001fd5a      0x5ed obj_cooja/mtype179.a(framer-802154.o)
 .debug_info    0x0000000000020347      0x112 obj_cooja/mtype179.a(mac.o)
 .debug_info    0x0000000000020459      0xc3c obj_cooja/mtype179.a(nullrdc.o)
 .debug_info    0x0000000000021095      0x3aa obj_cooja/mtype179.a(nullsec.o)
 .debug_info    0x000000000002143f       0x7b obj_cooja/mtype179.a(watchdog.o)
 .debug_info    0x00000000000214ba      0x119 obj_cooja/mtype179.a(rimestats.o)
 .debug_info    0x00000000000215d3      0x179 obj_cooja/mtype179.a(stimer.o)
 .debug_info    0x000000000002174c      0x761 obj_cooja/mtype179.a(uip-icmp6.o)
 .debug_info    0x0000000000021ead      0xdee obj_cooja/mtype179.a(rpl-nbr-policy.)
 .debug_info    0x0000000000022c9b      0x72d obj_cooja/mtype179.a(frame802154.o)
 .debug_info    0x00000000000233c8      0x2bc obj_cooja/mtype179.a(mac-sequence.o)

.debug_abbrev   0x0000000000000000     0x7e5d
 *(.debug_abbrev)
 .debug_abbrev  0x0000000000000000      0x2f6 sensor.co
 .debug_abbrev  0x00000000000002f6      0x2b3 obj_cooja/mtype179.o
 .debug_abbrev  0x00000000000005a9      0x3b1 obj_cooja/mtype179.a(dtls.o)
 .debug_abbrev  0x000000000000095a      0x2b3 obj_cooja/mtype179.a(tinydtls-crypto)
 .debug_abbrev  0x0000000000000c0d      0x19a obj_cooja/mtype179.a(hmac.o)
 .debug_abbrev  0x0000000000000da7      0x1d3 obj_cooja/mtype179.a(netq.o)
 .debug_abbrev  0x0000000000000f7a      0x101 obj_cooja/mtype179.a(dtls_time.o)
 .debug_abbrev  0x000000000000107b      0x191 obj_cooja/mtype179.a(peer.o)
 .debug_abbrev  0x000000000000120c      0x126 obj_cooja/mtype179.a(session.o)
 .debug_abbrev  0x0000000000001332      0x12c obj_cooja/mtype179.a(rijndael.o)
 .debug_abbrev  0x000000000000145e      0x1a2 obj_cooja/mtype179.a(tinydtls-ccm.o)
 .debug_abbrev  0x0000000000001600      0x165 obj_cooja/mtype179.a(sha2.o)
 .debug_abbrev  0x0000000000001765      0x1e0 obj_cooja/mtype179.a(debug.o)
 .debug_abbrev  0x0000000000001945       0xc3 obj_cooja/mtype179.a(simEnvChange.o)
 .debug_abbrev  0x0000000000001a08       0xe6 obj_cooja/mtype179.a(cooja_mt.o)
 .debug_abbrev  0x0000000000001aee      0x147 obj_cooja/mtype179.a(cooja_mtarch.o)
 .debug_abbrev  0x0000000000001c35       0xbd obj_cooja/mtype179.a(rtimer-arch.o)
 .debug_abbrev  0x0000000000001cf2       0xe3 obj_cooja/mtype179.a(beep.o)
 .debug_abbrev  0x0000000000001dd5      0x11c obj_cooja/mtype179.a(button-sensor.o)
 .debug_abbrev  0x0000000000001ef1       0xe1 obj_cooja/mtype179.a(leds-arch.o)
 .debug_abbrev  0x0000000000001fd2       0x9c obj_cooja/mtype179.a(moteid.o)
 .debug_abbrev  0x000000000000206e       0xe6 obj_cooja/mtype179.a(pir-sensor.o)
 .debug_abbrev  0x0000000000002154      0x14a obj_cooja/mtype179.a(rs232.o)
 .debug_abbrev  0x000000000000229e       0xe6 obj_cooja/mtype179.a(vib-sensor.o)
 .debug_abbrev  0x0000000000002384       0xee obj_cooja/mtype179.a(clock.o)
 .debug_abbrev  0x0000000000002472      0x141 obj_cooja/mtype179.a(log.o)
 .debug_abbrev  0x00000000000025b3      0x139 obj_cooja/mtype179.a(cfs-cooja.o)
 .debug_abbrev  0x00000000000026ec      0x324 obj_cooja/mtype179.a(cooja-radio.o)
 .debug_abbrev  0x0000000000002a10       0xf5 obj_cooja/mtype179.a(eeprom.o)
 .debug_abbrev  0x0000000000002b05       0x6d obj_cooja/mtype179.a(random.o)
 .debug_abbrev  0x0000000000002b72      0x1c2 obj_cooja/mtype179.a(sensors.o)
 .debug_abbrev  0x0000000000002d34       0xfb obj_cooja/mtype179.a(autostart.o)
 .debug_abbrev  0x0000000000002e2f      0x1a1 obj_cooja/mtype179.a(ctimer.o)
 .debug_abbrev  0x0000000000002fd0      0x1f1 obj_cooja/mtype179.a(etimer.o)
 .debug_abbrev  0x00000000000031c1      0x244 obj_cooja/mtype179.a(process.o)
 .debug_abbrev  0x0000000000003405      0x124 obj_cooja/mtype179.a(rtimer.o)
 .debug_abbrev  0x0000000000003529       0xf5 obj_cooja/mtype179.a(timer.o)
 .debug_abbrev  0x000000000000361e      0x190 obj_cooja/mtype179.a(serial-line.o)
 .debug_abbrev  0x00000000000037ae       0x61 obj_cooja/mtype179.a(assert.o)
 .debug_abbrev  0x000000000000380f      0x145 obj_cooja/mtype179.a(list.o)
 .debug_abbrev  0x0000000000003954       0xe4 obj_cooja/mtype179.a(memb.o)
 .debug_abbrev  0x0000000000003a38       0xdb obj_cooja/mtype179.a(ringbuf.o)
 .debug_abbrev  0x0000000000003b13      0x290 obj_cooja/mtype179.a(sicslowpan.o)
 .debug_abbrev  0x0000000000003da3      0x2cf obj_cooja/mtype179.a(uip-ds6-nbr.o)
 .debug_abbrev  0x0000000000004072      0x317 obj_cooja/mtype179.a(uip-ds6-route.o)
 .debug_abbrev  0x0000000000004389      0x23a obj_cooja/mtype179.a(uip-ds6.o)
 .debug_abbrev  0x00000000000045c3      0x27e obj_cooja/mtype179.a(uip-nd6.o)
 .debug_abbrev  0x0000000000004841      0x2c9 obj_cooja/mtype179.a(uip6.o)
 .debug_abbrev  0x0000000000004b0a      0x349 obj_cooja/mtype179.a(tcpip.o)
 .debug_abbrev  0x0000000000004e53       0xad obj_cooja/mtype179.a(uip-debug.o)
 .debug_abbrev  0x0000000000004f00      0x1d4 obj_cooja/mtype179.a(uip-packetqueue)
 .debug_abbrev  0x00000000000050d4      0x195 obj_cooja/mtype179.a(uip-udp-packet.)
 .debug_abbrev  0x0000000000005269      0x373 obj_cooja/mtype179.a(rpl-dag.o)
 .debug_abbrev  0x00000000000055dc      0x25f obj_cooja/mtype179.a(rpl-ext-header.)
 .debug_abbrev  0x000000000000583b      0x37a obj_cooja/mtype179.a(rpl-icmp6.o)
 .debug_abbrev  0x0000000000005bb5      0x1c4 obj_cooja/mtype179.a(rpl-mrhof.o)
 .debug_abbrev  0x0000000000005d79      0x283 obj_cooja/mtype179.a(rpl-timers.o)
 .debug_abbrev  0x0000000000005ffc      0x25a obj_cooja/mtype179.a(rpl.o)
 .debug_abbrev  0x0000000000006256      0x23f obj_cooja/mtype179.a(link-stats.o)
 .debug_abbrev  0x0000000000006495       0xd8 obj_cooja/mtype179.a(linkaddr.o)
 .debug_abbrev  0x000000000000656d      0x1f8 obj_cooja/mtype179.a(nbr-table.o)
 .debug_abbrev  0x0000000000006765      0x111 obj_cooja/mtype179.a(netstack.o)
 .debug_abbrev  0x0000000000006876      0x1d8 obj_cooja/mtype179.a(packetbuf.o)
 .debug_abbrev  0x0000000000006a4e      0x1ba obj_cooja/mtype179.a(queuebuf.o)
 .debug_abbrev  0x0000000000006c08      0x2aa obj_cooja/mtype179.a(csma.o)
 .debug_abbrev  0x0000000000006eb2      0x195 obj_cooja/mtype179.a(framer-802154.o)
 .debug_abbrev  0x0000000000007047       0xa3 obj_cooja/mtype179.a(mac.o)
 .debug_abbrev  0x00000000000070ea      0x2a9 obj_cooja/mtype179.a(nullrdc.o)
 .debug_abbrev  0x0000000000007393      0x1ba obj_cooja/mtype179.a(nullsec.o)
 .debug_abbrev  0x000000000000754d       0x2c obj_cooja/mtype179.a(watchdog.o)
 .debug_abbrev  0x0000000000007579       0x59 obj_cooja/mtype179.a(rimestats.o)
 .debug_abbrev  0x00000000000075d2       0xd9 obj_cooja/mtype179.a(stimer.o)
 .debug_abbrev  0x00000000000076ab      0x232 obj_cooja/mtype179.a(uip-icmp6.o)
 .debug_abbrev  0x00000000000078dd      0x23c obj_cooja/mtype179.a(rpl-nbr-policy.)
 .debug_abbrev  0x0000000000007b19      0x1fb obj_cooja/mtype179.a(frame802154.o)
 .debug_abbrev  0x0000000000007d14      0x149 obj_cooja/mtype179.a(mac-sequence.o)

.debug_line     0x0000000000000000     0xccd3
 *(.debug_line .debug_line.* .debug_line_end)
 .debug_line    0x0000000000000000      0x404 sensor.co
 .debug_line    0x0000000000000404      0x4f5 obj_cooja/mtype179.o
 .debug_line    0x00000000000008f9     0x17b3 obj_cooja/mtype179.a(dtls.o)
 .debug_line    0x00000000000020ac      0x454 obj_cooja/mtype179.a(tinydtls-crypto)
 .debug_line    0x0000000000002500      0x254 obj_cooja/mtype179.a(hmac.o)
 .debug_line    0x0000000000002754      0x2d7 obj_cooja/mtype179.a(netq.o)
 .debug_line    0x0000000000002a2b       0xf3 obj_cooja/mtype179.a(dtls_time.o)
 .debug_line    0x0000000000002b1e      0x1c5 obj_cooja/mtype179.a(peer.o)
 .debug_line    0x0000000000002ce3      0x11b obj_cooja/mtype179.a(session.o)
 .debug_line    0x0000000000002dfe      0x1da obj_cooja/mtype179.a(rijndael.o)
 .debug_line    0x0000000000002fd8      0x30a obj_cooja/mtype179.a(tinydtls-ccm.o)
 .debug_line    0x00000000000032e2      0x2bf obj_cooja/mtype179.a(sha2.o)
 .debug_line    0x00000000000035a1      0x25d obj_cooja/mtype179.a(debug.o)
 .debug_line    0x00000000000037fe       0xf4 obj_cooja/mtype179.a(simEnvChange.o)
 .debug_line    0x00000000000038f2      0x121 obj_cooja/mtype179.a(cooja_mt.o)
 .debug_line    0x0000000000003a13      0x182 obj_cooja/mtype179.a(cooja_mtarch.o)
 .debug_line    0x0000000000003b95       0xec obj_cooja/mtype179.a(rtimer-arch.o)
 .debug_line    0x0000000000003c81      0x168 obj_cooja/mtype179.a(beep.o)
 .debug_line    0x0000000000003de9      0x188 obj_cooja/mtype179.a(button-sensor.o)
 .debug_line    0x0000000000003f71       0xd2 obj_cooja/mtype179.a(leds-arch.o)
 .debug_line    0x0000000000004043       0x9e obj_cooja/mtype179.a(moteid.o)
 .debug_line    0x00000000000040e1      0x10c obj_cooja/mtype179.a(pir-sensor.o)
 .debug_line    0x00000000000041ed      0x133 obj_cooja/mtype179.a(rs232.o)
 .debug_line    0x0000000000004320      0x10c obj_cooja/mtype179.a(vib-sensor.o)
 .debug_line    0x000000000000442c      0x10e obj_cooja/mtype179.a(clock.o)
 .debug_line    0x000000000000453a      0x195 obj_cooja/mtype179.a(log.o)
 .debug_line    0x00000000000046cf      0x1ac obj_cooja/mtype179.a(cfs-cooja.o)
 .debug_line    0x000000000000487b      0x4cb obj_cooja/mtype179.a(cooja-radio.o)
 .debug_line    0x0000000000004d46      0x101 obj_cooja/mtype179.a(eeprom.o)
 .debug_line    0x0000000000004e47       0x60 obj_cooja/mtype179.a(random.o)
 .debug_line    0x0000000000004ea7      0x17c obj_cooja/mtype179.a(sensors.o)
 .debug_line    0x0000000000005023       0xc4 obj_cooja/mtype179.a(autostart.o)
 .debug_line    0x00000000000050e7      0x1f5 obj_cooja/mtype179.a(ctimer.o)
 .debug_line    0x00000000000052dc      0x26c obj_cooja/mtype179.a(etimer.o)
 .debug_line    0x0000000000005548      0x236 obj_cooja/mtype179.a(process.o)
 .debug_line    0x000000000000577e       0xf2 obj_cooja/mtype179.a(rtimer.o)
 .debug_line    0x0000000000005870       0xed obj_cooja/mtype179.a(timer.o)
 .debug_line    0x000000000000595d      0x13c obj_cooja/mtype179.a(serial-line.o)
 .debug_line    0x0000000000005a99       0x50 obj_cooja/mtype179.a(assert.o)
 .debug_line    0x0000000000005ae9      0x1a2 obj_cooja/mtype179.a(list.o)
 .debug_line    0x0000000000005c8b      0x10a obj_cooja/mtype179.a(memb.o)
 .debug_line    0x0000000000005d95       0xf1 obj_cooja/mtype179.a(ringbuf.o)
 .debug_line    0x0000000000005e86      0x8a9 obj_cooja/mtype179.a(sicslowpan.o)
 .debug_line    0x000000000000672f      0x3e2 obj_cooja/mtype179.a(uip-ds6-nbr.o)
 .debug_line    0x0000000000006b11      0x49f obj_cooja/mtype179.a(uip-ds6-route.o)
 .debug_line    0x0000000000006fb0      0x473 obj_cooja/mtype179.a(uip-ds6.o)
 .debug_line    0x0000000000007423      0x3c1 obj_cooja/mtype179.a(uip-nd6.o)
 .debug_line    0x00000000000077e4      0x890 obj_cooja/mtype179.a(uip6.o)
 .debug_line    0x0000000000008074      0x502 obj_cooja/mtype179.a(tcpip.o)
 .debug_line    0x0000000000008576       0xcb obj_cooja/mtype179.a(uip-debug.o)
 .debug_line    0x0000000000008641      0x1eb obj_cooja/mtype179.a(uip-packetqueue)
 .debug_line    0x000000000000882c      0x10b obj_cooja/mtype179.a(uip-udp-packet.)
 .debug_line    0x0000000000008937      0xbe7 obj_cooja/mtype179.a(rpl-dag.o)
 .debug_line    0x000000000000951e      0x374 obj_cooja/mtype179.a(rpl-ext-header.)
 .debug_line    0x0000000000009892      0x761 obj_cooja/mtype179.a(rpl-icmp6.o)
 .debug_line    0x0000000000009ff3      0x32f obj_cooja/mtype179.a(rpl-mrhof.o)
 .debug_line    0x000000000000a322      0x3d2 obj_cooja/mtype179.a(rpl-timers.o)
 .debug_line    0x000000000000a6f4      0x375 obj_cooja/mtype179.a(rpl.o)
 .debug_line    0x000000000000aa69      0x29a obj_cooja/mtype179.a(link-stats.o)
 .debug_line    0x000000000000ad03       0x9e obj_cooja/mtype179.a(linkaddr.o)
 .debug_line    0x000000000000ada1      0x383 obj_cooja/mtype179.a(nbr-table.o)
 .debug_line    0x000000000000b124      0x125 obj_cooja/mtype179.a(netstack.o)
 .debug_line    0x000000000000b249      0x225 obj_cooja/mtype179.a(packetbuf.o)
 .debug_line    0x000000000000b46e      0x1c6 obj_cooja/mtype179.a(queuebuf.o)
 .debug_line    0x000000000000b634      0x400 obj_cooja/mtype179.a(csma.o)
 .debug_line    0x000000000000ba34      0x1cd obj_cooja/mtype179.a(framer-802154.o)
 .debug_line    0x000000000000bc01       0x7e obj_cooja/mtype179.a(mac.o)
 .debug_line    0x000000000000bc7f      0x337 obj_cooja/mtype179.a(nullrdc.o)
 .debug_line    0x000000000000bfb6      0x13c obj_cooja/mtype179.a(nullsec.o)
 .debug_line    0x000000000000c0f2       0x9a obj_cooja/mtype179.a(watchdog.o)
 .debug_line    0x000000000000c18c       0x71 obj_cooja/mtype179.a(rimestats.o)
 .debug_line    0x000000000000c1fd       0xd1 obj_cooja/mtype179.a(stimer.o)
 .debug_line    0x000000000000c2ce      0x29a obj_cooja/mtype179.a(uip-icmp6.o)
 .debug_line    0x000000000000c568      0x2b5 obj_cooja/mtype179.a(rpl-nbr-policy.)
 .debug_line    0x000000000000c81d      0x366 obj_cooja/mtype179.a(frame802154.o)
 .debug_line    0x000000000000cb83      0x150 obj_cooja/mtype179.a(mac-sequence.o)

.debug_frame
 *(.debug_frame)

.debug_str      0x0000000000000000     0x8a42
 *(.debug_str)
 .debug_str     0x0000000000000000      0x990 sensor.co
                                        0xaa4 (size before relaxing)
 .debug_str     0x0000000000000990     0x17bc obj_cooja/mtype179.o
                                       0x1b06 (size before relaxing)
 .debug_str     0x000000000000214c      0xeca obj_cooja/mtype179.a(dtls.o)
                                       0x1721 (size before relaxing)
 .debug_str     0x0000000000003016      0x353 obj_cooja/mtype179.a(tinydtls-crypto)
                                        0x816 (size before relaxing)
 .debug_str     0x0000000000003369      0x112 obj_cooja/mtype179.a(hmac.o)
                                        0x373 (size before relaxing)
 .debug_str     0x000000000000347b       0xf3 obj_cooja/mtype179.a(netq.o)
                                        0x7a5 (size before relaxing)
 .debug_str     0x000000000000356e       0x53 obj_cooja/mtype179.a(dtls_time.o)
                                        0x1fc (size before relaxing)
 .debug_str     0x00000000000035c1       0x94 obj_cooja/mtype179.a(peer.o)
                                        0x6ea (size before relaxing)
 .debug_str     0x0000000000003655       0x4f obj_cooja/mtype179.a(session.o)
                                        0x21e (size before relaxing)
 .debug_str     0x00000000000036a4       0xae obj_cooja/mtype179.a(rijndael.o)
                                        0x1dc (size before relaxing)
 .debug_str     0x0000000000003752       0x83 obj_cooja/mtype179.a(tinydtls-ccm.o)
                                        0x281 (size before relaxing)
 .debug_str     0x00000000000037d5       0xe6 obj_cooja/mtype179.a(sha2.o)
                                        0x2d1 (size before relaxing)
 .debug_str     0x00000000000038bb       0xee obj_cooja/mtype179.a(debug.o)
                                        0x356 (size before relaxing)
 .debug_str     0x00000000000039a9       0x2e obj_cooja/mtype179.a(simEnvChange.o)
                                        0x1f7 (size before relaxing)
 .debug_str     0x00000000000039d7       0x8b obj_cooja/mtype179.a(cooja_mt.o)
                                        0x224 (size before relaxing)
 .debug_str     0x0000000000003a62       0xfb obj_cooja/mtype179.a(cooja_mtarch.o)
                                        0x2a1 (size before relaxing)
 .debug_str     0x0000000000003b5d       0xea obj_cooja/mtype179.a(rtimer-arch.o)
                                        0x21b (size before relaxing)
 .debug_str     0x0000000000003c47       0xc4 obj_cooja/mtype179.a(beep.o)
                                        0x238 (size before relaxing)
 .debug_str     0x0000000000003d0b       0x70 obj_cooja/mtype179.a(button-sensor.o)
                                        0x268 (size before relaxing)
 .debug_str     0x0000000000003d7b       0x68 obj_cooja/mtype179.a(leds-arch.o)
                                        0x203 (size before relaxing)
 .debug_str     0x0000000000003de3       0x47 obj_cooja/mtype179.a(moteid.o)
                                        0x1ee (size before relaxing)
 .debug_str     0x0000000000003e2a       0x55 obj_cooja/mtype179.a(pir-sensor.o)
                                        0x225 (size before relaxing)
 .debug_str     0x0000000000003e7f       0xc1 obj_cooja/mtype179.a(rs232.o)
                                        0x282 (size before relaxing)
 .debug_str     0x0000000000003f40       0x55 obj_cooja/mtype179.a(vib-sensor.o)
                                        0x225 (size before relaxing)
 .debug_str     0x0000000000003f95       0x66 obj_cooja/mtype179.a(clock.o)
                                        0x21a (size before relaxing)
 .debug_str     0x0000000000003ffb       0xd1 obj_cooja/mtype179.a(log.o)
                                        0x2a8 (size before relaxing)
 .debug_str     0x00000000000040cc      0x111 obj_cooja/mtype179.a(cfs-cooja.o)
                                        0x2c4 (size before relaxing)
 .debug_str     0x00000000000041dd      0x732 obj_cooja/mtype179.a(cooja-radio.o)
                                        0xafe (size before relaxing)
 .debug_str     0x000000000000490f       0x99 obj_cooja/mtype179.a(eeprom.o)
                                        0x244 (size before relaxing)
 .debug_str     0x00000000000049a8       0x36 obj_cooja/mtype179.a(random.o)
                                        0x163 (size before relaxing)
 .debug_str     0x00000000000049de       0xa1 obj_cooja/mtype179.a(sensors.o)
                                        0x293 (size before relaxing)
 .debug_str     0x0000000000004a7f       0x40 obj_cooja/mtype179.a(autostart.o)
                                        0x1b6 (size before relaxing)
 .debug_str     0x0000000000004abf       0xd2 obj_cooja/mtype179.a(ctimer.o)
                                        0x2b7 (size before relaxing)
 .debug_str     0x0000000000004b91      0x158 obj_cooja/mtype179.a(etimer.o)
                                        0x32a (size before relaxing)
 .debug_str     0x0000000000004ce9      0x15c obj_cooja/mtype179.a(process.o)
                                        0x2f5 (size before relaxing)
 .debug_str     0x0000000000004e45       0xb3 obj_cooja/mtype179.a(rtimer.o)
                                        0x201 (size before relaxing)
 .debug_str     0x0000000000004ef8       0x1d obj_cooja/mtype179.a(timer.o)
                                        0x1a0 (size before relaxing)
 .debug_str     0x0000000000004f15       0xbf obj_cooja/mtype179.a(serial-line.o)
                                        0x27e (size before relaxing)
 .debug_str     0x0000000000004fd4       0x2e obj_cooja/mtype179.a(assert.o)
                                        0x15b (size before relaxing)
 .debug_str     0x0000000000005002       0xae obj_cooja/mtype179.a(list.o)
                                        0x15f (size before relaxing)
 .debug_str     0x00000000000050b0       0x62 obj_cooja/mtype179.a(memb.o)
                                        0x19a (size before relaxing)
 .debug_str     0x0000000000005112       0x62 obj_cooja/mtype179.a(ringbuf.o)
                                        0x1b3 (size before relaxing)
 .debug_str     0x0000000000005174      0x4b9 obj_cooja/mtype179.a(sicslowpan.o)
                                        0xa9c (size before relaxing)
 .debug_str     0x000000000000562d      0x3c2 obj_cooja/mtype179.a(uip-ds6-nbr.o)
                                        0x97f (size before relaxing)
 .debug_str     0x00000000000059ef      0x450 obj_cooja/mtype179.a(uip-ds6-route.o)
                                        0x949 (size before relaxing)
 .debug_str     0x0000000000005e3f      0x30f obj_cooja/mtype179.a(uip-ds6.o)
                                        0x674 (size before relaxing)
 .debug_str     0x000000000000614e      0x180 obj_cooja/mtype179.a(uip-nd6.o)
                                        0x64f (size before relaxing)
 .debug_str     0x00000000000062ce      0x340 obj_cooja/mtype179.a(uip6.o)
                                        0x7fa (size before relaxing)
 .debug_str     0x000000000000660e      0x40a obj_cooja/mtype179.a(tcpip.o)
                                        0xce9 (size before relaxing)
 .debug_str     0x0000000000006a18       0x3b obj_cooja/mtype179.a(uip-debug.o)
                                        0x194 (size before relaxing)
 .debug_str     0x0000000000006a53       0xfa obj_cooja/mtype179.a(uip-packetqueue)
                                        0x33d (size before relaxing)
 .debug_str     0x0000000000006b4d       0x71 obj_cooja/mtype179.a(uip-udp-packet.)
                                        0x28f (size before relaxing)
 .debug_str     0x0000000000006bbe      0x58f obj_cooja/mtype179.a(rpl-dag.o)
                                        0xdc9 (size before relaxing)
 .debug_str     0x000000000000714d       0xf8 obj_cooja/mtype179.a(rpl-ext-header.)
                                        0xba6 (size before relaxing)
 .debug_str     0x0000000000007245      0x239 obj_cooja/mtype179.a(rpl-icmp6.o)
                                        0xed4 (size before relaxing)
 .debug_str     0x000000000000747e       0x71 obj_cooja/mtype179.a(rpl-mrhof.o)
                                        0x63f (size before relaxing)
 .debug_str     0x00000000000074ef      0x1d6 obj_cooja/mtype179.a(rpl-timers.o)
                                        0x86e (size before relaxing)
 .debug_str     0x00000000000076c5       0xfa obj_cooja/mtype179.a(rpl.o)
                                        0x88f (size before relaxing)
 .debug_str     0x00000000000077bf       0xf3 obj_cooja/mtype179.a(link-stats.o)
                                        0x6d9 (size before relaxing)
 .debug_str     0x00000000000078b2       0x58 obj_cooja/mtype179.a(linkaddr.o)
                                        0x1b7 (size before relaxing)
 .debug_str     0x000000000000790a      0x2a5 obj_cooja/mtype179.a(nbr-table.o)
                                        0x589 (size before relaxing)
 .debug_str     0x0000000000007baf       0x2e obj_cooja/mtype179.a(netstack.o)
                                        0x33d (size before relaxing)
 .debug_str     0x0000000000007bdd      0x188 obj_cooja/mtype179.a(packetbuf.o)
                                        0x53d (size before relaxing)
 .debug_str     0x0000000000007d65      0x1a5 obj_cooja/mtype179.a(queuebuf.o)
                                        0x53c (size before relaxing)
 .debug_str     0x0000000000007f0a      0x207 obj_cooja/mtype179.a(csma.o)
                                        0x793 (size before relaxing)
 .debug_str     0x0000000000008111      0x218 obj_cooja/mtype179.a(framer-802154.o)
                                        0x61b (size before relaxing)
 .debug_str     0x0000000000008329       0x3d obj_cooja/mtype179.a(mac.o)
                                        0x1cb (size before relaxing)
 .debug_str     0x0000000000008366       0x86 obj_cooja/mtype179.a(nullrdc.o)
                                        0x97e (size before relaxing)
 .debug_str     0x00000000000083ec       0x25 obj_cooja/mtype179.a(nullsec.o)
                                        0x439 (size before relaxing)
 .debug_str     0x0000000000008411       0x77 obj_cooja/mtype179.a(watchdog.o)
                                        0x10d (size before relaxing)
 .debug_str     0x0000000000008488       0x26 obj_cooja/mtype179.a(rimestats.o)
                                        0x161 (size before relaxing)
 .debug_str     0x00000000000084ae       0x74 obj_cooja/mtype179.a(stimer.o)
                                        0x1a4 (size before relaxing)
 .debug_str     0x0000000000008522      0x1ef obj_cooja/mtype179.a(uip-icmp6.o)
                                        0x57e (size before relaxing)
 .debug_str     0x0000000000008711       0xd0 obj_cooja/mtype179.a(rpl-nbr-policy.)
                                        0x998 (size before relaxing)
 .debug_str     0x00000000000087e1      0x1f3 obj_cooja/mtype179.a(frame802154.o)
                                        0x571 (size before relaxing)
 .debug_str     0x00000000000089d4       0x6e obj_cooja/mtype179.a(mac-sequence.o)
                                        0x3ff (size before relaxing)

.debug_loc
 *(.debug_loc)

.debug_macinfo
 *(.debug_macinfo)

.debug_weaknames
 *(.debug_weaknames)

.debug_funcnames
 *(.debug_funcnames)

.debug_typenames
 *(.debug_typenames)

.debug_varnames
 *(.debug_varnames)

.debug_pubtypes
 *(.debug_pubtypes)

.debug_ranges   0x0000000000000000     0x1b98
 *(.debug_ranges)
 .debug_ranges  0x0000000000000000       0x70 sensor.co
 .debug_ranges  0x0000000000000070       0x58 obj_cooja/mtype179.o
 .debug_ranges  0x00000000000000c8      0x2f0 obj_cooja/mtype179.a(dtls.o)
 .debug_ranges  0x00000000000003b8       0xb8 obj_cooja/mtype179.a(tinydtls-crypto)
 .debug_ranges  0x0000000000000470       0x60 obj_cooja/mtype179.a(hmac.o)
 .debug_ranges  0x00000000000004d0       0x60 obj_cooja/mtype179.a(netq.o)
 .debug_ranges  0x0000000000000530       0x18 obj_cooja/mtype179.a(dtls_time.o)
 .debug_ranges  0x0000000000000548       0x28 obj_cooja/mtype179.a(peer.o)
 .debug_ranges  0x0000000000000570       0x18 obj_cooja/mtype179.a(session.o)
 .debug_ranges  0x0000000000000588       0x28 obj_cooja/mtype179.a(rijndael.o)
 .debug_ranges  0x00000000000005b0       0x50 obj_cooja/mtype179.a(tinydtls-ccm.o)
 .debug_ranges  0x0000000000000600       0x38 obj_cooja/mtype179.a(sha2.o)
 .debug_ranges  0x0000000000000638       0x58 obj_cooja/mtype179.a(debug.o)
 .debug_ranges  0x0000000000000690       0x18 obj_cooja/mtype179.a(simEnvChange.o)
 .debug_ranges  0x00000000000006a8       0x38 obj_cooja/mtype179.a(cooja_mt.o)
 .debug_ranges  0x00000000000006e0       0x50 obj_cooja/mtype179.a(cooja_mtarch.o)
 .debug_ranges  0x0000000000000730       0x38 obj_cooja/mtype179.a(rtimer-arch.o)
 .debug_ranges  0x0000000000000768       0x60 obj_cooja/mtype179.a(beep.o)
 .debug_ranges  0x00000000000007c8       0x30 obj_cooja/mtype179.a(button-sensor.o)
 .debug_ranges  0x00000000000007f8       0x30 obj_cooja/mtype179.a(leds-arch.o)
 .debug_ranges  0x0000000000000828       0x18 obj_cooja/mtype179.a(moteid.o)
 .debug_ranges  0x0000000000000840       0x30 obj_cooja/mtype179.a(pir-sensor.o)
 .debug_ranges  0x0000000000000870       0x48 obj_cooja/mtype179.a(rs232.o)
 .debug_ranges  0x00000000000008b8       0x30 obj_cooja/mtype179.a(vib-sensor.o)
 .debug_ranges  0x00000000000008e8       0x38 obj_cooja/mtype179.a(clock.o)
 .debug_ranges  0x0000000000000920       0x50 obj_cooja/mtype179.a(log.o)
 .debug_ranges  0x0000000000000970       0x60 obj_cooja/mtype179.a(cfs-cooja.o)
 .debug_ranges  0x00000000000009d0       0xe0 obj_cooja/mtype179.a(cooja-radio.o)
 .debug_ranges  0x0000000000000ab0       0x30 obj_cooja/mtype179.a(eeprom.o)
 .debug_ranges  0x0000000000000ae0       0x18 obj_cooja/mtype179.a(random.o)
 .debug_ranges  0x0000000000000af8       0x38 obj_cooja/mtype179.a(sensors.o)
 .debug_ranges  0x0000000000000b30       0x18 obj_cooja/mtype179.a(autostart.o)
 .debug_ranges  0x0000000000000b48       0x48 obj_cooja/mtype179.a(ctimer.o)
 .debug_ranges  0x0000000000000b90       0x80 obj_cooja/mtype179.a(etimer.o)
 .debug_ranges  0x0000000000000c10       0x78 obj_cooja/mtype179.a(process.o)
 .debug_ranges  0x0000000000000c88       0x20 obj_cooja/mtype179.a(rtimer.o)
 .debug_ranges  0x0000000000000ca8       0x30 obj_cooja/mtype179.a(timer.o)
 .debug_ranges  0x0000000000000cd8       0x20 obj_cooja/mtype179.a(serial-line.o)
 .debug_ranges  0x0000000000000cf8       0x10 obj_cooja/mtype179.a(assert.o)
 .debug_ranges  0x0000000000000d08       0x68 obj_cooja/mtype179.a(list.o)
 .debug_ranges  0x0000000000000d70       0x30 obj_cooja/mtype179.a(memb.o)
 .debug_ranges  0x0000000000000da0       0x30 obj_cooja/mtype179.a(ringbuf.o)
 .debug_ranges  0x0000000000000dd0       0xd0 obj_cooja/mtype179.a(sicslowpan.o)
 .debug_ranges  0x0000000000000ea0       0x80 obj_cooja/mtype179.a(uip-ds6-nbr.o)
 .debug_ranges  0x0000000000000f20       0xb8 obj_cooja/mtype179.a(uip-ds6-route.o)
 .debug_ranges  0x0000000000000fd8       0xb8 obj_cooja/mtype179.a(uip-ds6.o)
 .debug_ranges  0x0000000000001090       0x38 obj_cooja/mtype179.a(uip-nd6.o)
 .debug_ranges  0x00000000000010c8       0xa0 obj_cooja/mtype179.a(uip6.o)
 .debug_ranges  0x0000000000001168       0xa0 obj_cooja/mtype179.a(tcpip.o)
 .debug_ranges  0x0000000000001208       0x10 obj_cooja/mtype179.a(uip-debug.o)
 .debug_ranges  0x0000000000001218       0x40 obj_cooja/mtype179.a(uip-packetqueue)
 .debug_ranges  0x0000000000001258       0x18 obj_cooja/mtype179.a(uip-udp-packet.)
 .debug_ranges  0x0000000000001270      0x1c8 obj_cooja/mtype179.a(rpl-dag.o)
 .debug_ranges  0x0000000000001438       0x38 obj_cooja/mtype179.a(rpl-ext-header.)
 .debug_ranges  0x0000000000001470       0xb0 obj_cooja/mtype179.a(rpl-icmp6.o)
 .debug_ranges  0x0000000000001520       0x50 obj_cooja/mtype179.a(rpl-mrhof.o)
 .debug_ranges  0x0000000000001570       0x90 obj_cooja/mtype179.a(rpl-timers.o)
 .debug_ranges  0x0000000000001600       0x58 obj_cooja/mtype179.a(rpl.o)
 .debug_ranges  0x0000000000001658       0x48 obj_cooja/mtype179.a(link-stats.o)
 .debug_ranges  0x00000000000016a0       0x20 obj_cooja/mtype179.a(linkaddr.o)
 .debug_ranges  0x00000000000016c0       0xb0 obj_cooja/mtype179.a(nbr-table.o)
 .debug_ranges  0x0000000000001770       0x10 obj_cooja/mtype179.a(netstack.o)
 .debug_ranges  0x0000000000001780       0x90 obj_cooja/mtype179.a(packetbuf.o)
 .debug_ranges  0x0000000000001810       0x70 obj_cooja/mtype179.a(queuebuf.o)
 .debug_ranges  0x0000000000001880       0xa8 obj_cooja/mtype179.a(csma.o)
 .debug_ranges  0x0000000000001928       0x48 obj_cooja/mtype179.a(framer-802154.o)
 .debug_ranges  0x0000000000001970       0x10 obj_cooja/mtype179.a(mac.o)
 .debug_ranges  0x0000000000001980       0x60 obj_cooja/mtype179.a(nullrdc.o)
 .debug_ranges  0x00000000000019e0       0x28 obj_cooja/mtype179.a(nullsec.o)
 .debug_ranges  0x0000000000001a08       0x30 obj_cooja/mtype179.a(watchdog.o)
 .debug_ranges  0x0000000000001a38       0x38 obj_cooja/mtype179.a(stimer.o)
 .debug_ranges  0x0000000000001a70       0x58 obj_cooja/mtype179.a(uip-icmp6.o)
 .debug_ranges  0x0000000000001ac8       0x38 obj_cooja/mtype179.a(rpl-nbr-policy.)
 .debug_ranges  0x0000000000001b00       0x70 obj_cooja/mtype179.a(frame802154.o)
 .debug_ranges  0x0000000000001b70       0x28 obj_cooja/mtype179.a(mac-sequence.o)

.debug_macro
 *(.debug_macro)

.gnu.attributes
 *(.gnu.attributes)

/DISCARD/
 *(.note.GNU-stack)
 *(.gnu_debuglink)
 *(.gnu.lto_*)
OUTPUT(obj_cooja/mtype179.cooja elf32-i386)
