Archive member included to satisfy reference by file (symbol)

obj_cooja/mtype645.a(dtls.o)  sensor.co (dtls_init)
obj_cooja/mtype645.a(tinydtls-crypto)
                              obj_cooja/mtype645.a(dtls.o) (dtls_crypto_init)
obj_cooja/mtype645.a(hmac.o)  obj_cooja/mtype645.a(dtls.o) (dtls_hmac_update)
obj_cooja/mtype645.a(netq.o)  obj_cooja/mtype645.a(dtls.o) (netq_init)
obj_cooja/mtype645.a(dtls_time.o)
                              obj_cooja/mtype645.a(dtls.o) (dtls_clock_init)
obj_cooja/mtype645.a(peer.o)  obj_cooja/mtype645.a(dtls.o) (peer_init)
obj_cooja/mtype645.a(session.o)
                              obj_cooja/mtype645.a(dtls.o) (dtls_session_equals)
obj_cooja/mtype645.a(rijndael.o)
                              obj_cooja/mtype645.a(tinydtls-crypto) (rijndael_set_key_enc_only)
obj_cooja/mtype645.a(tinydtls-ccm.o)
                              obj_cooja/mtype645.a(tinydtls-crypto) (dtls_ccm_encrypt_message)
obj_cooja/mtype645.a(sha2.o)  obj_cooja/mtype645.a(dtls.o) (SHA256_Init)
obj_cooja/mtype645.a(debug.o)
                              sensor.co (dtls_set_log_level)
obj_cooja/mtype645.a(simEnvChange.o)
                              obj_cooja/mtype645.o (simDontFallAsleep)
obj_cooja/mtype645.a(cooja_mt.o)
                              obj_cooja/mtype645.o (cooja_mt_start)
obj_cooja/mtype645.a(cooja_mtarch.o)
                              obj_cooja/mtype645.a(cooja_mt.o) (cooja_mtarch_init)
obj_cooja/mtype645.a(rtimer-arch.o)
                              obj_cooja/mtype645.o (rtimer_arch_check)
obj_cooja/mtype645.a(beep.o)  obj_cooja/mtype645.o (beep_interface)
obj_cooja/mtype645.a(button-sensor.o)
                              obj_cooja/mtype645.o (button_interface)
obj_cooja/mtype645.a(leds-arch.o)
                              obj_cooja/mtype645.o (leds_interface)
obj_cooja/mtype645.a(moteid.o)
                              obj_cooja/mtype645.o (moteid_interface)
obj_cooja/mtype645.a(pir-sensor.o)
                              obj_cooja/mtype645.o (pir_interface)
obj_cooja/mtype645.a(rs232.o)
                              obj_cooja/mtype645.o (rs232_interface)
obj_cooja/mtype645.a(vib-sensor.o)
                              obj_cooja/mtype645.o (vib_interface)
obj_cooja/mtype645.a(clock.o)
                              obj_cooja/mtype645.o (clock_interface)
obj_cooja/mtype645.a(log.o)   obj_cooja/mtype645.o (simlog_interface)
obj_cooja/mtype645.a(cfs-cooja.o)
                              obj_cooja/mtype645.o (cfs_interface)
obj_cooja/mtype645.a(cooja-radio.o)
                              obj_cooja/mtype645.o (radio_interface)
obj_cooja/mtype645.a(eeprom.o)
                              obj_cooja/mtype645.o (eeprom_interface)
obj_cooja/mtype645.a(random.o)
                              obj_cooja/mtype645.a(moteid.o) (random_init)
obj_cooja/mtype645.a(sensors.o)
                              obj_cooja/mtype645.o (sensors_process)
obj_cooja/mtype645.a(autostart.o)
                              obj_cooja/mtype645.o (autostart_start)
obj_cooja/mtype645.a(ctimer.o)
                              obj_cooja/mtype645.o (ctimer_init)
obj_cooja/mtype645.a(etimer.o)
                              obj_cooja/mtype645.o (etimer_process)
obj_cooja/mtype645.a(process.o)
                              obj_cooja/mtype645.a(dtls.o) (process_current)
obj_cooja/mtype645.a(rtimer.o)
                              obj_cooja/mtype645.a(rtimer-arch.o) (rtimer_run_next)
obj_cooja/mtype645.a(timer.o)
                              obj_cooja/mtype645.a(button-sensor.o) (timer_set)
obj_cooja/mtype645.a(serial-line.o)
                              obj_cooja/mtype645.a(rs232.o) (serial_line_input_byte)
obj_cooja/mtype645.a(assert.o)
                              obj_cooja/mtype645.a(dtls.o) (_xassert)
obj_cooja/mtype645.a(list.o)  obj_cooja/mtype645.a(dtls.o) (list_init)
obj_cooja/mtype645.a(memb.o)  obj_cooja/mtype645.a(tinydtls-crypto) (memb_init)
obj_cooja/mtype645.a(ringbuf.o)
                              obj_cooja/mtype645.a(serial-line.o) (ringbuf_init)
obj_cooja/mtype645.a(sicslowpan.o)
                              obj_cooja/mtype645.o (sicslowpan_driver)
obj_cooja/mtype645.a(uip-ds6-nbr.o)
                              obj_cooja/mtype645.a(sicslowpan.o) (uip_ds6_link_neighbor_callback)
obj_cooja/mtype645.a(uip-ds6-route.o)
                              obj_cooja/mtype645.a(uip-ds6-nbr.o) (uip_ds6_defrt_lookup)
obj_cooja/mtype645.a(uip-ds6.o)
                              sensor.co (uip_ds6_if)
obj_cooja/mtype645.a(uip-nd6.o)
                              obj_cooja/mtype645.a(uip-ds6-nbr.o) (uip_nd6_ns_output)
obj_cooja/mtype645.a(uip6.o)  sensor.co (uip_lladdr)
obj_cooja/mtype645.a(resolv.o)
                              sensor.co (resolv_process)
obj_cooja/mtype645.a(tcpip.o)
                              sensor.co (tcpip_event)
obj_cooja/mtype645.a(uip-debug.o)
                              sensor.co (uip_debug_ipaddr_print)
obj_cooja/mtype645.a(uip-nameserver.)
                              obj_cooja/mtype645.a(resolv.o) (uip_nameserver_get)
obj_cooja/mtype645.a(uip-packetqueue)
                              obj_cooja/mtype645.a(uip-ds6-nbr.o) (uip_packetqueue_new)
obj_cooja/mtype645.a(uip-udp-packet.)
                              sensor.co (uip_udp_packet_send)
obj_cooja/mtype645.a(rpl-dag.o)
                              obj_cooja/mtype645.a(tcpip.o) (rpl_repair_root)
obj_cooja/mtype645.a(rpl-ext-header.)
                              obj_cooja/mtype645.a(uip6.o) (rpl_verify_hbh_header)
obj_cooja/mtype645.a(rpl-icmp6.o)
                              obj_cooja/mtype645.a(rpl-dag.o) (rpl_icmp6_update_nbr_table)
obj_cooja/mtype645.a(rpl-mrhof.o)
                              obj_cooja/mtype645.a(rpl-dag.o) (rpl_mrhof)
obj_cooja/mtype645.a(rpl-timers.o)
                              obj_cooja/mtype645.a(rpl-dag.o) (rpl_reset_dio_timer)
obj_cooja/mtype645.a(rpl.o)   obj_cooja/mtype645.a(rpl-icmp6.o) (rpl_get_mode)
obj_cooja/mtype645.a(link-stats.o)
                              obj_cooja/mtype645.a(rpl-dag.o) (link_stats_from_lladdr)
obj_cooja/mtype645.a(linkaddr.o)
                              obj_cooja/mtype645.o (linkaddr_node_addr)
obj_cooja/mtype645.a(nbr-table.o)
                              obj_cooja/mtype645.a(uip-ds6-nbr.o) (nbr_table_register)
obj_cooja/mtype645.a(netstack.o)
                              obj_cooja/mtype645.o (netstack_init)
obj_cooja/mtype645.a(packetbuf.o)
                              obj_cooja/mtype645.a(cooja-radio.o) (packetbuf_attrs)
obj_cooja/mtype645.a(queuebuf.o)
                              obj_cooja/mtype645.o (queuebuf_init)
obj_cooja/mtype645.a(csma.o)  obj_cooja/mtype645.o (csma_driver)
obj_cooja/mtype645.a(framer-802154.o)
                              obj_cooja/mtype645.a(sicslowpan.o) (framer_802154)
obj_cooja/mtype645.a(mac.o)   obj_cooja/mtype645.a(csma.o) (mac_call_sent_callback)
obj_cooja/mtype645.a(nullrdc.o)
                              obj_cooja/mtype645.o (nullrdc_driver)
obj_cooja/mtype645.a(nullsec.o)
                              obj_cooja/mtype645.a(sicslowpan.o) (nullsec_driver)
obj_cooja/mtype645.a(watchdog.o)
                              obj_cooja/mtype645.a(sicslowpan.o) (watchdog_periodic)
obj_cooja/mtype645.a(rimestats.o)
                              obj_cooja/mtype645.a(cooja-radio.o) (rimestats)
obj_cooja/mtype645.a(stimer.o)
                              obj_cooja/mtype645.a(uip-ds6-nbr.o) (stimer_set)
obj_cooja/mtype645.a(uip-icmp6.o)
                              obj_cooja/mtype645.a(uip6.o) (uip_icmp6_input)
obj_cooja/mtype645.a(rpl-nbr-policy.)
                              obj_cooja/mtype645.a(nbr-table.o) (rpl_nbr_policy_find_removable)
obj_cooja/mtype645.a(frame802154.o)
                              obj_cooja/mtype645.a(framer-802154.o) (frame802154_get_pan_id)
obj_cooja/mtype645.a(mac-sequence.o)
                              obj_cooja/mtype645.a(nullrdc.o) (mac_sequence_is_duplicate)

Allocating common symbols
Common symbol       size              file

default_instance    0x4               obj_cooja/mtype645.a(rpl-dag.o)
simButtonIsActive   0x1               obj_cooja/mtype645.a(button-sensor.o)
simButtonIsDown     0x1               obj_cooja/mtype645.a(button-sensor.o)
cfs_buf             0x1e              sensor.co
simOutDataBuffer    0x80              obj_cooja/mtype645.a(cooja-radio.o)
uip_ds6_prefix_list
                    0x60              obj_cooja/mtype645.a(uip-ds6.o)
linkaddr_node_addr  0x8               obj_cooja/mtype645.a(linkaddr.o)
simSerialReceivingFlag
                    0x1               obj_cooja/mtype645.a(rs232.o)
simEEPROMData       0x400             obj_cooja/mtype645.a(eeprom.o)
periodic_timer      0x20              obj_cooja/mtype645.a(link-stats.o)
simLoggedLength     0x4               obj_cooja/mtype645.a(log.o)
simSerialReceivingLength
                    0x4               obj_cooja/mtype645.a(rs232.o)
simEtimerPending    0x4               obj_cooja/mtype645.a(simEnvChange.o)
uip_slen            0x2               obj_cooja/mtype645.a(uip6.o)
fd                  0x4               sensor.co
uip_ds6_timer_periodic
                    0x10              obj_cooja/mtype645.a(uip-ds6.o)
uip_acc32           0x4               obj_cooja/mtype645.a(uip6.o)
uip_conns           0xc0              obj_cooja/mtype645.a(uip6.o)
simVibChanged       0x1               obj_cooja/mtype645.a(vib-sensor.o)
rimestats           0x48              obj_cooja/mtype645.a(rimestats.o)
simRtimerPending    0x4               obj_cooja/mtype645.a(rtimer-arch.o)
uip_ds6_netif_addr_list_offset
                    0x1               obj_cooja/mtype645.a(uip-ds6.o)
uip_lladdr          0x8               obj_cooja/mtype645.a(uip6.o)
instance_table      0x154             obj_cooja/mtype645.a(rpl-dag.o)
simProcessRunValue  0x4               obj_cooja/mtype645.a(simEnvChange.o)
serial_line_event_message
                    0x1               obj_cooja/mtype645.a(serial-line.o)
uip_appdata         0x4               obj_cooja/mtype645.a(uip6.o)
resolv_event_found  0x1               obj_cooja/mtype645.a(resolv.o)
referenceVar        0x4               obj_cooja/mtype645.o
simCurrentTime      0x4               obj_cooja/mtype645.a(clock.o)
simVibIsActive      0x1               obj_cooja/mtype645.a(vib-sensor.o)
uip_ds6_if          0xf8              obj_cooja/mtype645.a(uip-ds6.o)
uip_flags           0x1               obj_cooja/mtype645.a(uip6.o)
uip_ds6_timer_ra    0x8               obj_cooja/mtype645.a(uip-ds6.o)
simSerialReceivingData
                    0x800             obj_cooja/mtype645.a(rs232.o)
simLoggedFlag       0x1               obj_cooja/mtype645.a(log.o)
packetbuf_attrs     0x1e              obj_cooja/mtype645.a(packetbuf.o)
uip_ds6_addr_size   0x1               obj_cooja/mtype645.a(uip-ds6.o)
uip_aligned_buf     0x640             obj_cooja/mtype645.a(uip6.o)
simRtimerCurrentTicks
                    0x8               obj_cooja/mtype645.a(rtimer-arch.o)
simRandomSeed       0x4               obj_cooja/mtype645.a(moteid.o)
simLoggedData       0x400             obj_cooja/mtype645.a(log.o)
simLedsValue        0x1               obj_cooja/mtype645.a(leds-arch.o)
simEtimerNextExpirationTime
                    0x4               obj_cooja/mtype645.a(simEnvChange.o)
uip_listenports     0x10              obj_cooja/mtype645.a(uip6.o)
uip_len             0x2               obj_cooja/mtype645.a(uip6.o)
simButtonChanged    0x1               obj_cooja/mtype645.a(button-sensor.o)
simRtimerNextExpirationTime
                    0x8               obj_cooja/mtype645.a(rtimer-arch.o)
simPirIsActive      0x1               obj_cooja/mtype645.a(pir-sensor.o)
simInDataBuffer     0x80              obj_cooja/mtype645.a(cooja-radio.o)
simPirChanged       0x1               obj_cooja/mtype645.a(pir-sensor.o)
simBeeped           0x1               obj_cooja/mtype645.a(beep.o)
tcpip_event         0x1               obj_cooja/mtype645.a(tcpip.o)
uip_sappdata        0x4               obj_cooja/mtype645.a(uip6.o)
sensors_event       0x1               obj_cooja/mtype645.a(sensors.o)
dtls_clock_offset   0x4               obj_cooja/mtype645.a(dtls_time.o)
uip_udp_conns       0x180             obj_cooja/mtype645.a(uip6.o)
packetbuf_addrs     0x10              obj_cooja/mtype645.a(packetbuf.o)
uip_udp_conn        0x4               obj_cooja/mtype645.a(uip6.o)
simMoteIDChanged    0x1               obj_cooja/mtype645.a(moteid.o)
sensors_flags       0x4               obj_cooja/mtype645.o
uip_next_hdr        0x4               obj_cooja/mtype645.a(uip6.o)
simMoteID           0x4               obj_cooja/mtype645.a(moteid.o)
uip_conn            0x4               obj_cooja/mtype645.a(uip6.o)

Discarded input sections

 .note.GNU-stack
                0x0000000000000000        0x0 /usr/lib/gcc/i686-linux-gnu/4.8/../../../i386-linux-gnu/crti.o
 .gnu_debuglink
                0x0000000000000000        0xc /usr/lib/gcc/i686-linux-gnu/4.8/../../../i386-linux-gnu/crti.o
 .group         0x0000000000000000        0x8 /usr/lib/gcc/i686-linux-gnu/4.8/crtbeginS.o
 .text.__x86.get_pc_thunk.bx
                0x0000000000000000        0x4 /usr/lib/gcc/i686-linux-gnu/4.8/crtbeginS.o
 .note.GNU-stack
                0x0000000000000000        0x0 /usr/lib/gcc/i686-linux-gnu/4.8/crtbeginS.o
 .note.GNU-stack
                0x0000000000000000        0x0 sensor.co
 .note.GNU-stack
                0x0000000000000000        0x0 obj_cooja/mtype645.o
 .note.GNU-stack
                0x0000000000000000        0x0 obj_cooja/mtype645.a(dtls.o)
 .note.GNU-stack
                0x0000000000000000        0x0 obj_cooja/mtype645.a(tinydtls-crypto)
 .note.GNU-stack
                0x0000000000000000        0x0 obj_cooja/mtype645.a(hmac.o)
 .note.GNU-stack
                0x0000000000000000        0x0 obj_cooja/mtype645.a(netq.o)
 .note.GNU-stack
                0x0000000000000000        0x0 obj_cooja/mtype645.a(dtls_time.o)
 .note.GNU-stack
                0x0000000000000000        0x0 obj_cooja/mtype645.a(peer.o)
 .note.GNU-stack
                0x0000000000000000        0x0 obj_cooja/mtype645.a(session.o)
 .note.GNU-stack
                0x0000000000000000        0x0 obj_cooja/mtype645.a(rijndael.o)
 .note.GNU-stack
                0x0000000000000000        0x0 obj_cooja/mtype645.a(tinydtls-ccm.o)
 .note.GNU-stack
                0x0000000000000000        0x0 obj_cooja/mtype645.a(sha2.o)
 .note.GNU-stack
                0x0000000000000000        0x0 obj_cooja/mtype645.a(debug.o)
 .note.GNU-stack
                0x0000000000000000        0x0 obj_cooja/mtype645.a(simEnvChange.o)
 .note.GNU-stack
                0x0000000000000000        0x0 obj_cooja/mtype645.a(cooja_mt.o)
 .note.GNU-stack
                0x0000000000000000        0x0 obj_cooja/mtype645.a(cooja_mtarch.o)
 .note.GNU-stack
                0x0000000000000000        0x0 obj_cooja/mtype645.a(rtimer-arch.o)
 .note.GNU-stack
                0x0000000000000000        0x0 obj_cooja/mtype645.a(beep.o)
 .note.GNU-stack
                0x0000000000000000        0x0 obj_cooja/mtype645.a(button-sensor.o)
 .note.GNU-stack
                0x0000000000000000        0x0 obj_cooja/mtype645.a(leds-arch.o)
 .note.GNU-stack
                0x0000000000000000        0x0 obj_cooja/mtype645.a(moteid.o)
 .note.GNU-stack
                0x0000000000000000        0x0 obj_cooja/mtype645.a(pir-sensor.o)
 .note.GNU-stack
                0x0000000000000000        0x0 obj_cooja/mtype645.a(rs232.o)
 .note.GNU-stack
                0x0000000000000000        0x0 obj_cooja/mtype645.a(vib-sensor.o)
 .note.GNU-stack
                0x0000000000000000        0x0 obj_cooja/mtype645.a(clock.o)
 .note.GNU-stack
                0x0000000000000000        0x0 obj_cooja/mtype645.a(log.o)
 .note.GNU-stack
                0x0000000000000000        0x0 obj_cooja/mtype645.a(cfs-cooja.o)
 .note.GNU-stack
                0x0000000000000000        0x0 obj_cooja/mtype645.a(cooja-radio.o)
 .note.GNU-stack
                0x0000000000000000        0x0 obj_cooja/mtype645.a(eeprom.o)
 .note.GNU-stack
                0x0000000000000000        0x0 obj_cooja/mtype645.a(random.o)
 .note.GNU-stack
                0x0000000000000000        0x0 obj_cooja/mtype645.a(sensors.o)
 .note.GNU-stack
                0x0000000000000000        0x0 obj_cooja/mtype645.a(autostart.o)
 .note.GNU-stack
                0x0000000000000000        0x0 obj_cooja/mtype645.a(ctimer.o)
 .note.GNU-stack
                0x0000000000000000        0x0 obj_cooja/mtype645.a(etimer.o)
 .note.GNU-stack
                0x0000000000000000        0x0 obj_cooja/mtype645.a(process.o)
 .note.GNU-stack
                0x0000000000000000        0x0 obj_cooja/mtype645.a(rtimer.o)
 .note.GNU-stack
                0x0000000000000000        0x0 obj_cooja/mtype645.a(timer.o)
 .note.GNU-stack
                0x0000000000000000        0x0 obj_cooja/mtype645.a(serial-line.o)
 .note.GNU-stack
                0x0000000000000000        0x0 obj_cooja/mtype645.a(assert.o)
 .note.GNU-stack
                0x0000000000000000        0x0 obj_cooja/mtype645.a(list.o)
 .note.GNU-stack
                0x0000000000000000        0x0 obj_cooja/mtype645.a(memb.o)
 .note.GNU-stack
                0x0000000000000000        0x0 obj_cooja/mtype645.a(ringbuf.o)
 .note.GNU-stack
                0x0000000000000000        0x0 obj_cooja/mtype645.a(sicslowpan.o)
 .note.GNU-stack
                0x0000000000000000        0x0 obj_cooja/mtype645.a(uip-ds6-nbr.o)
 .note.GNU-stack
                0x0000000000000000        0x0 obj_cooja/mtype645.a(uip-ds6-route.o)
 .note.GNU-stack
                0x0000000000000000        0x0 obj_cooja/mtype645.a(uip-ds6.o)
 .note.GNU-stack
                0x0000000000000000        0x0 obj_cooja/mtype645.a(uip-nd6.o)
 .note.GNU-stack
                0x0000000000000000        0x0 obj_cooja/mtype645.a(uip6.o)
 .note.GNU-stack
                0x0000000000000000        0x0 obj_cooja/mtype645.a(resolv.o)
 .note.GNU-stack
                0x0000000000000000        0x0 obj_cooja/mtype645.a(tcpip.o)
 .note.GNU-stack
                0x0000000000000000        0x0 obj_cooja/mtype645.a(uip-debug.o)
 .note.GNU-stack
                0x0000000000000000        0x0 obj_cooja/mtype645.a(uip-nameserver.)
 .note.GNU-stack
                0x0000000000000000        0x0 obj_cooja/mtype645.a(uip-packetqueue)
 .note.GNU-stack
                0x0000000000000000        0x0 obj_cooja/mtype645.a(uip-udp-packet.)
 .note.GNU-stack
                0x0000000000000000        0x0 obj_cooja/mtype645.a(rpl-dag.o)
 .note.GNU-stack
                0x0000000000000000        0x0 obj_cooja/mtype645.a(rpl-ext-header.)
 .note.GNU-stack
                0x0000000000000000        0x0 obj_cooja/mtype645.a(rpl-icmp6.o)
 .note.GNU-stack
                0x0000000000000000        0x0 obj_cooja/mtype645.a(rpl-mrhof.o)
 .note.GNU-stack
                0x0000000000000000        0x0 obj_cooja/mtype645.a(rpl-timers.o)
 .note.GNU-stack
                0x0000000000000000        0x0 obj_cooja/mtype645.a(rpl.o)
 .note.GNU-stack
                0x0000000000000000        0x0 obj_cooja/mtype645.a(link-stats.o)
 .note.GNU-stack
                0x0000000000000000        0x0 obj_cooja/mtype645.a(linkaddr.o)
 .note.GNU-stack
                0x0000000000000000        0x0 obj_cooja/mtype645.a(nbr-table.o)
 .note.GNU-stack
                0x0000000000000000        0x0 obj_cooja/mtype645.a(netstack.o)
 .note.GNU-stack
                0x0000000000000000        0x0 obj_cooja/mtype645.a(packetbuf.o)
 .note.GNU-stack
                0x0000000000000000        0x0 obj_cooja/mtype645.a(queuebuf.o)
 .note.GNU-stack
                0x0000000000000000        0x0 obj_cooja/mtype645.a(csma.o)
 .note.GNU-stack
                0x0000000000000000        0x0 obj_cooja/mtype645.a(framer-802154.o)
 .note.GNU-stack
                0x0000000000000000        0x0 obj_cooja/mtype645.a(mac.o)
 .note.GNU-stack
                0x0000000000000000        0x0 obj_cooja/mtype645.a(nullrdc.o)
 .note.GNU-stack
                0x0000000000000000        0x0 obj_cooja/mtype645.a(nullsec.o)
 .note.GNU-stack
                0x0000000000000000        0x0 obj_cooja/mtype645.a(watchdog.o)
 .note.GNU-stack
                0x0000000000000000        0x0 obj_cooja/mtype645.a(rimestats.o)
 .note.GNU-stack
                0x0000000000000000        0x0 obj_cooja/mtype645.a(stimer.o)
 .note.GNU-stack
                0x0000000000000000        0x0 obj_cooja/mtype645.a(uip-icmp6.o)
 .note.GNU-stack
                0x0000000000000000        0x0 obj_cooja/mtype645.a(rpl-nbr-policy.)
 .note.GNU-stack
                0x0000000000000000        0x0 obj_cooja/mtype645.a(frame802154.o)
 .note.GNU-stack
                0x0000000000000000        0x0 obj_cooja/mtype645.a(mac-sequence.o)
 .note.GNU-stack
                0x0000000000000000        0x0 /usr/lib/gcc/i686-linux-gnu/4.8/crtendS.o
 .note.GNU-stack
                0x0000000000000000        0x0 /usr/lib/gcc/i686-linux-gnu/4.8/../../../i386-linux-gnu/crtn.o
 .gnu_debuglink
                0x0000000000000000        0xc /usr/lib/gcc/i686-linux-gnu/4.8/../../../i386-linux-gnu/crtn.o

Memory Configuration

Name             Origin             Length             Attributes
*default*        0x0000000000000000 0xffffffffffffffff

Linker script and memory map

LOAD /usr/lib/gcc/i686-linux-gnu/4.8/../../../i386-linux-gnu/crti.o
LOAD /usr/lib/gcc/i686-linux-gnu/4.8/crtbeginS.o
LOAD sensor.co
LOAD obj_cooja/mtype645.o
LOAD obj_cooja/mtype645.a
LOAD /usr/lib/gcc/i686-linux-gnu/4.8/libgcc.a
LOAD /usr/lib/gcc/i686-linux-gnu/4.8/libgcc_s.so
LOAD /usr/lib/gcc/i686-linux-gnu/4.8/../../../i386-linux-gnu/libc.so
START GROUP
LOAD /lib/i386-linux-gnu/libc.so.6
LOAD /usr/lib/i386-linux-gnu/libc_nonshared.a
LOAD /lib/i386-linux-gnu/ld-linux.so.2
END GROUP
LOAD /usr/lib/gcc/i686-linux-gnu/4.8/libgcc.a
LOAD /usr/lib/gcc/i686-linux-gnu/4.8/libgcc_s.so
LOAD /usr/lib/gcc/i686-linux-gnu/4.8/crtendS.o
LOAD /usr/lib/gcc/i686-linux-gnu/4.8/../../../i386-linux-gnu/crtn.o
                0x0000000000000114                . = (0x0 + SIZEOF_HEADERS)

.note.gnu.build-id
                0x0000000000000114       0x24
 *(.note.gnu.build-id)
 .note.gnu.build-id
                0x0000000000000114       0x24 /usr/lib/gcc/i686-linux-gnu/4.8/../../../i386-linux-gnu/crti.o

.hash
 *(.hash)

.gnu.hash       0x0000000000000138     0x13c8
 *(.gnu.hash)
 .gnu.hash      0x0000000000000138     0x13c8 /usr/lib/gcc/i686-linux-gnu/4.8/../../../i386-linux-gnu/crti.o

.dynsym         0x0000000000001500     0x27c0
 *(.dynsym)
 .dynsym        0x0000000000001500     0x27c0 /usr/lib/gcc/i686-linux-gnu/4.8/../../../i386-linux-gnu/crti.o

.dynstr         0x0000000000003cc0     0x2928
 *(.dynstr)
 .dynstr        0x0000000000003cc0     0x2928 /usr/lib/gcc/i686-linux-gnu/4.8/../../../i386-linux-gnu/crti.o

.gnu.version    0x00000000000065e8      0x4f8
 *(.gnu.version)
 .gnu.version   0x00000000000065e8      0x4f8 /usr/lib/gcc/i686-linux-gnu/4.8/../../../i386-linux-gnu/crti.o

.gnu.version_d  0x0000000000006ae0        0x0
 *(.gnu.version_d)
 .gnu.version_d
                0x0000000000000000        0x0 /usr/lib/gcc/i686-linux-gnu/4.8/../../../i386-linux-gnu/crti.o

.gnu.version_r  0x0000000000006ae0       0x40
 *(.gnu.version_r)
 .gnu.version_r
                0x0000000000006ae0       0x40 /usr/lib/gcc/i686-linux-gnu/4.8/../../../i386-linux-gnu/crti.o

.rel.dyn        0x0000000000006b20     0xab28
 *(.rel.init)
 .rel.init      0x0000000000000000        0x0 /usr/lib/gcc/i686-linux-gnu/4.8/../../../i386-linux-gnu/crti.o
 *(.rel.text .rel.text.* .rel.gnu.linkonce.t.*)
 .rel.text      0x0000000000000000        0x0 /usr/lib/gcc/i686-linux-gnu/4.8/../../../i386-linux-gnu/crti.o
 .rel.text.read_from_peer
                0x0000000000006b20       0xd0 /usr/lib/gcc/i686-linux-gnu/4.8/../../../i386-linux-gnu/crti.o
 .rel.text.send_to_peer
                0x0000000000006bf0       0x48 /usr/lib/gcc/i686-linux-gnu/4.8/../../../i386-linux-gnu/crti.o
 .rel.text.get_psk_info
                0x0000000000006c38       0x50 /usr/lib/gcc/i686-linux-gnu/4.8/../../../i386-linux-gnu/crti.o
 .rel.text.print_local_addresses
                0x0000000000006c88       0x40 /usr/lib/gcc/i686-linux-gnu/4.8/../../../i386-linux-gnu/crti.o
 .rel.text.dtls_handle_read
                0x0000000000006cc8       0x80 /usr/lib/gcc/i686-linux-gnu/4.8/../../../i386-linux-gnu/crti.o
 .rel.text.cfs_prepare_data
                0x0000000000006d48       0xc8 /usr/lib/gcc/i686-linux-gnu/4.8/../../../i386-linux-gnu/crti.o
 .rel.text.dtls_complete
                0x0000000000006e10       0x20 /usr/lib/gcc/i686-linux-gnu/4.8/../../../i386-linux-gnu/crti.o
 .rel.text.init_dtls
                0x0000000000006e30       0x60 /usr/lib/gcc/i686-linux-gnu/4.8/../../../i386-linux-gnu/crti.o
 .rel.text.process_thread_udp_server_process
                0x0000000000006e90       0x78 /usr/lib/gcc/i686-linux-gnu/4.8/../../../i386-linux-gnu/crti.o
 .rel.text.print_processes
                0x0000000000006f08       0x28 /usr/lib/gcc/i686-linux-gnu/4.8/../../../i386-linux-gnu/crti.o
 .rel.text.rtimer_thread_loop
                0x0000000000006f30       0x10 /usr/lib/gcc/i686-linux-gnu/4.8/../../../i386-linux-gnu/crti.o
 .rel.text.set_rime_addr
                0x0000000000006f40       0x58 /usr/lib/gcc/i686-linux-gnu/4.8/../../../i386-linux-gnu/crti.o
 .rel.text.contiki_init
                0x0000000000006f98      0x1d0 /usr/lib/gcc/i686-linux-gnu/4.8/../../../i386-linux-gnu/crti.o
 .rel.text.process_run_thread_loop
                0x0000000000007168       0x70 /usr/lib/gcc/i686-linux-gnu/4.8/../../../i386-linux-gnu/crti.o
 .rel.text.Java_org_contikios_cooja_corecomm_Lib2_init
                0x00000000000071d8       0x30 /usr/lib/gcc/i686-linux-gnu/4.8/../../../i386-linux-gnu/crti.o
 .rel.text.Java_org_contikios_cooja_corecomm_Lib2_getMemory
                0x0000000000007208        0x8 /usr/lib/gcc/i686-linux-gnu/4.8/../../../i386-linux-gnu/crti.o
 .rel.text.Java_org_contikios_cooja_corecomm_Lib2_setMemory
                0x0000000000007210       0x10 /usr/lib/gcc/i686-linux-gnu/4.8/../../../i386-linux-gnu/crti.o
 .rel.text.Java_org_contikios_cooja_corecomm_Lib2_tick
                0x0000000000007220       0x70 /usr/lib/gcc/i686-linux-gnu/4.8/../../../i386-linux-gnu/crti.o
 .rel.text.Java_org_contikios_cooja_corecomm_Lib2_setReferenceAddress
                0x0000000000007290       0x10 /usr/lib/gcc/i686-linux-gnu/4.8/../../../i386-linux-gnu/crti.o
 .rel.text.dtls_hash_init
                0x00000000000072a0       0x18 /usr/lib/gcc/i686-linux-gnu/4.8/../../../i386-linux-gnu/crti.o
 .rel.text.dtls_hash_update
                0x00000000000072b8       0x10 /usr/lib/gcc/i686-linux-gnu/4.8/../../../i386-linux-gnu/crti.o
 .rel.text.dtls_hash_finalize
                0x00000000000072c8       0x10 /usr/lib/gcc/i686-linux-gnu/4.8/../../../i386-linux-gnu/crti.o
 .rel.text.dtls_security_params_next
                0x00000000000072d8       0x10 /usr/lib/gcc/i686-linux-gnu/4.8/../../../i386-linux-gnu/crti.o
 .rel.text.dtls_security_params_free_other
                0x00000000000072e8        0x8 /usr/lib/gcc/i686-linux-gnu/4.8/../../../i386-linux-gnu/crti.o
 .rel.text.dtls_prng
                0x00000000000072f0       0x18 /usr/lib/gcc/i686-linux-gnu/4.8/../../../i386-linux-gnu/crti.o
 .rel.text.malloc_context
                0x0000000000007308        0x8 /usr/lib/gcc/i686-linux-gnu/4.8/../../../i386-linux-gnu/crti.o
 .rel.text.dtls_init
                0x0000000000007310       0x20 /usr/lib/gcc/i686-linux-gnu/4.8/../../../i386-linux-gnu/crti.o
 .rel.text.dtls_get_peer
                0x0000000000007330       0x18 /usr/lib/gcc/i686-linux-gnu/4.8/../../../i386-linux-gnu/crti.o
 .rel.text.dtls_add_peer
                0x0000000000007348        0x8 /usr/lib/gcc/i686-linux-gnu/4.8/../../../i386-linux-gnu/crti.o
 .rel.text.dtls_write
                0x0000000000007350       0x20 /usr/lib/gcc/i686-linux-gnu/4.8/../../../i386-linux-gnu/crti.o
 .rel.text.dtls_create_cookie
                0x0000000000007370       0x40 /usr/lib/gcc/i686-linux-gnu/4.8/../../../i386-linux-gnu/crti.o
 .rel.text.dtls_set_record_header
                0x00000000000073b0       0x10 /usr/lib/gcc/i686-linux-gnu/4.8/../../../i386-linux-gnu/crti.o
 .rel.text.dtls_set_handshake_header
                0x00000000000073c0        0x8 /usr/lib/gcc/i686-linux-gnu/4.8/../../../i386-linux-gnu/crti.o
 .rel.text.dtls_debug_keyblock
                0x00000000000073c8       0x70 /usr/lib/gcc/i686-linux-gnu/4.8/../../../i386-linux-gnu/crti.o
 .rel.text.dtls_handshake_type_to_name
                0x0000000000007438       0x68 /usr/lib/gcc/i686-linux-gnu/4.8/../../../i386-linux-gnu/crti.o
 .rel.text.calculate_key_block
                0x00000000000074a0       0xb8 /usr/lib/gcc/i686-linux-gnu/4.8/../../../i386-linux-gnu/crti.o
 .rel.text.dtls_check_tls_extension
                0x0000000000007558       0x30 /usr/lib/gcc/i686-linux-gnu/4.8/../../../i386-linux-gnu/crti.o
 .rel.text.dtls_update_parameters
                0x0000000000007588       0x48 /usr/lib/gcc/i686-linux-gnu/4.8/../../../i386-linux-gnu/crti.o
 .rel.text.check_client_keyexchange
                0x00000000000075d0       0x38 /usr/lib/gcc/i686-linux-gnu/4.8/../../../i386-linux-gnu/crti.o
 .rel.text.update_hs_hash
                0x0000000000007608       0x10 /usr/lib/gcc/i686-linux-gnu/4.8/../../../i386-linux-gnu/crti.o
 .rel.text.copy_hs_hash
                0x0000000000007618        0x8 /usr/lib/gcc/i686-linux-gnu/4.8/../../../i386-linux-gnu/crti.o
 .rel.text.clear_hs_hash
                0x0000000000007620       0x20 /usr/lib/gcc/i686-linux-gnu/4.8/../../../i386-linux-gnu/crti.o
 .rel.text.check_finished
                0x0000000000007640       0x58 /usr/lib/gcc/i686-linux-gnu/4.8/../../../i386-linux-gnu/crti.o
 .rel.text.dtls_prepare_record
                0x0000000000007698      0x130 /usr/lib/gcc/i686-linux-gnu/4.8/../../../i386-linux-gnu/crti.o
 .rel.text.dtls_send_handshake_msg_hash
                0x00000000000077c8       0x18 /usr/lib/gcc/i686-linux-gnu/4.8/../../../i386-linux-gnu/crti.o
 .rel.text.dtls_encrypt_data
                0x00000000000077e0       0x20 /usr/lib/gcc/i686-linux-gnu/4.8/../../../i386-linux-gnu/crti.o
 .rel.text.dtls_encrypt_x
                0x0000000000007800       0x10 /usr/lib/gcc/i686-linux-gnu/4.8/../../../i386-linux-gnu/crti.o
 .rel.text.dtls_prepare_record_x
                0x0000000000007810       0x80 /usr/lib/gcc/i686-linux-gnu/4.8/../../../i386-linux-gnu/crti.o
 .rel.text.dtls_send_multi
                0x0000000000007890       0x98 /usr/lib/gcc/i686-linux-gnu/4.8/../../../i386-linux-gnu/crti.o
 .rel.text.dtls_close
                0x0000000000007928       0x30 /usr/lib/gcc/i686-linux-gnu/4.8/../../../i386-linux-gnu/crti.o
 .rel.text.dtls_destroy_peer
                0x0000000000007958       0x28 /usr/lib/gcc/i686-linux-gnu/4.8/../../../i386-linux-gnu/crti.o
 .rel.text.dtls_verify_peer
                0x0000000000007980       0xa0 /usr/lib/gcc/i686-linux-gnu/4.8/../../../i386-linux-gnu/crti.o
 .rel.text.dtls_send_server_hello
                0x0000000000007a20       0x30 /usr/lib/gcc/i686-linux-gnu/4.8/../../../i386-linux-gnu/crti.o
 .rel.text.dtls_send_server_key_exchange_psk
                0x0000000000007a50       0x40 /usr/lib/gcc/i686-linux-gnu/4.8/../../../i386-linux-gnu/crti.o
 .rel.text.dtls_send_server_hello_msgs
                0x0000000000007a90       0x48 /usr/lib/gcc/i686-linux-gnu/4.8/../../../i386-linux-gnu/crti.o
 .rel.text.dtls_send_client_key_exchange
                0x0000000000007ad8       0x60 /usr/lib/gcc/i686-linux-gnu/4.8/../../../i386-linux-gnu/crti.o
 .rel.text.dtls_send_finished
                0x0000000000007b38       0x38 /usr/lib/gcc/i686-linux-gnu/4.8/../../../i386-linux-gnu/crti.o
 .rel.text.dtls_send_client_hello
                0x0000000000007b70       0x50 /usr/lib/gcc/i686-linux-gnu/4.8/../../../i386-linux-gnu/crti.o
 .rel.text.check_server_hello
                0x0000000000007bc0       0x38 /usr/lib/gcc/i686-linux-gnu/4.8/../../../i386-linux-gnu/crti.o
 .rel.text.check_server_hello_verify_request
                0x0000000000007bf8       0x10 /usr/lib/gcc/i686-linux-gnu/4.8/../../../i386-linux-gnu/crti.o
 .rel.text.check_server_key_exchange_psk
                0x0000000000007c08       0x48 /usr/lib/gcc/i686-linux-gnu/4.8/../../../i386-linux-gnu/crti.o
 .rel.text.check_certificate_request
                0x0000000000007c50       0x60 /usr/lib/gcc/i686-linux-gnu/4.8/../../../i386-linux-gnu/crti.o
 .rel.text.check_server_hellodone
                0x0000000000007cb0       0x28 /usr/lib/gcc/i686-linux-gnu/4.8/../../../i386-linux-gnu/crti.o
 .rel.text.decrypt_verify
                0x0000000000007cd8       0xc8 /usr/lib/gcc/i686-linux-gnu/4.8/../../../i386-linux-gnu/crti.o
 .rel.text.dtls_renegotiate
                0x0000000000007da0       0x20 /usr/lib/gcc/i686-linux-gnu/4.8/../../../i386-linux-gnu/crti.o
 .rel.text.handle_handshake_msg
                0x0000000000007dc0      0x150 /usr/lib/gcc/i686-linux-gnu/4.8/../../../i386-linux-gnu/crti.o
 .rel.text.handle_handshake
                0x0000000000007f10       0xe8 /usr/lib/gcc/i686-linux-gnu/4.8/../../../i386-linux-gnu/crti.o
 .rel.text.handle_ccs
                0x0000000000007ff8       0x10 /usr/lib/gcc/i686-linux-gnu/4.8/../../../i386-linux-gnu/crti.o
 .rel.text.handle_alert
                0x0000000000008008       0x48 /usr/lib/gcc/i686-linux-gnu/4.8/../../../i386-linux-gnu/crti.o
 .rel.text.dtls_alert_send_from_err
                0x0000000000008050       0x10 /usr/lib/gcc/i686-linux-gnu/4.8/../../../i386-linux-gnu/crti.o
 .rel.text.dtls_handle_message
                0x0000000000008060      0x180 /usr/lib/gcc/i686-linux-gnu/4.8/../../../i386-linux-gnu/crti.o
 .rel.text.dtls_new_context
                0x00000000000081e0       0x70 /usr/lib/gcc/i686-linux-gnu/4.8/../../../i386-linux-gnu/crti.o
 .rel.text.dtls_free_context
                0x0000000000008250       0x20 /usr/lib/gcc/i686-linux-gnu/4.8/../../../i386-linux-gnu/crti.o
 .rel.text.dtls_connect_peer
                0x0000000000008270       0x50 /usr/lib/gcc/i686-linux-gnu/4.8/../../../i386-linux-gnu/crti.o
 .rel.text.dtls_connect
                0x00000000000082c0       0x38 /usr/lib/gcc/i686-linux-gnu/4.8/../../../i386-linux-gnu/crti.o
 .rel.text.dtls_retransmit
                0x00000000000082f8       0x98 /usr/lib/gcc/i686-linux-gnu/4.8/../../../i386-linux-gnu/crti.o
 .rel.text.dtls_stop_retransmission
                0x0000000000008390       0x30 /usr/lib/gcc/i686-linux-gnu/4.8/../../../i386-linux-gnu/crti.o
 .rel.text.dtls_check_retransmit
                0x00000000000083c0       0x20 /usr/lib/gcc/i686-linux-gnu/4.8/../../../i386-linux-gnu/crti.o
 .rel.text.process_thread_dtls_retransmit_process
                0x00000000000083e0       0xb0 /usr/lib/gcc/i686-linux-gnu/4.8/../../../i386-linux-gnu/crti.o
 .rel.text.dtls_cipher_context_get
                0x0000000000008490        0x8 /usr/lib/gcc/i686-linux-gnu/4.8/../../../i386-linux-gnu/crti.o
 .rel.text.dtls_crypto_init
                0x0000000000008498       0x20 /usr/lib/gcc/i686-linux-gnu/4.8/../../../i386-linux-gnu/crti.o
 .rel.text.dtls_handshake_malloc
                0x00000000000084b8       0x10 /usr/lib/gcc/i686-linux-gnu/4.8/../../../i386-linux-gnu/crti.o
 .rel.text.dtls_handshake_dealloc
                0x00000000000084c8       0x10 /usr/lib/gcc/i686-linux-gnu/4.8/../../../i386-linux-gnu/crti.o
 .rel.text.dtls_security_malloc
                0x00000000000084d8       0x10 /usr/lib/gcc/i686-linux-gnu/4.8/../../../i386-linux-gnu/crti.o
 .rel.text.dtls_security_dealloc
                0x00000000000084e8       0x10 /usr/lib/gcc/i686-linux-gnu/4.8/../../../i386-linux-gnu/crti.o
 .rel.text.dtls_handshake_new
                0x00000000000084f8       0x28 /usr/lib/gcc/i686-linux-gnu/4.8/../../../i386-linux-gnu/crti.o
 .rel.text.dtls_handshake_free
                0x0000000000008520        0x8 /usr/lib/gcc/i686-linux-gnu/4.8/../../../i386-linux-gnu/crti.o
 .rel.text.dtls_security_new
                0x0000000000008528       0x18 /usr/lib/gcc/i686-linux-gnu/4.8/../../../i386-linux-gnu/crti.o
 .rel.text.dtls_p_hash
                0x0000000000008540       0xd0 /usr/lib/gcc/i686-linux-gnu/4.8/../../../i386-linux-gnu/crti.o
 .rel.text.dtls_prf
                0x0000000000008610       0x10 /usr/lib/gcc/i686-linux-gnu/4.8/../../../i386-linux-gnu/crti.o
 .rel.text.dtls_prf_custom
                0x0000000000008620       0x18 /usr/lib/gcc/i686-linux-gnu/4.8/../../../i386-linux-gnu/crti.o
 .rel.text.dtls_mac
                0x0000000000008638       0x38 /usr/lib/gcc/i686-linux-gnu/4.8/../../../i386-linux-gnu/crti.o
 .rel.text.dtls_ccm_encrypt
                0x0000000000008670       0x18 /usr/lib/gcc/i686-linux-gnu/4.8/../../../i386-linux-gnu/crti.o
 .rel.text.dtls_ccm_decrypt
                0x0000000000008688       0x18 /usr/lib/gcc/i686-linux-gnu/4.8/../../../i386-linux-gnu/crti.o
 .rel.text.dtls_psk_pre_master_secret
                0x00000000000086a0       0x18 /usr/lib/gcc/i686-linux-gnu/4.8/../../../i386-linux-gnu/crti.o
 .rel.text.dtls_encrypt
                0x00000000000086b8       0x20 /usr/lib/gcc/i686-linux-gnu/4.8/../../../i386-linux-gnu/crti.o
 .rel.text.dtls_decrypt
                0x00000000000086d8       0x20 /usr/lib/gcc/i686-linux-gnu/4.8/../../../i386-linux-gnu/crti.o
 .rel.text.dtls_hmac_context_new
                0x00000000000086f8       0x10 /usr/lib/gcc/i686-linux-gnu/4.8/../../../i386-linux-gnu/crti.o
 .rel.text.dtls_hmac_context_free
                0x0000000000008708       0x10 /usr/lib/gcc/i686-linux-gnu/4.8/../../../i386-linux-gnu/crti.o
 .rel.text.dtls_hmac_storage_init
                0x0000000000008718       0x10 /usr/lib/gcc/i686-linux-gnu/4.8/../../../i386-linux-gnu/crti.o
 .rel.text.dtls_hmac_update
                0x0000000000008728       0x10 /usr/lib/gcc/i686-linux-gnu/4.8/../../../i386-linux-gnu/crti.o
 .rel.text.dtls_hmac_new
                0x0000000000008738        0x8 /usr/lib/gcc/i686-linux-gnu/4.8/../../../i386-linux-gnu/crti.o
 .rel.text.dtls_hmac_init
                0x0000000000008740       0x28 /usr/lib/gcc/i686-linux-gnu/4.8/../../../i386-linux-gnu/crti.o
 .rel.text.dtls_hmac_finalize
                0x0000000000008768       0x28 /usr/lib/gcc/i686-linux-gnu/4.8/../../../i386-linux-gnu/crti.o
 .rel.text.netq_malloc_node
                0x0000000000008790       0x10 /usr/lib/gcc/i686-linux-gnu/4.8/../../../i386-linux-gnu/crti.o
 .rel.text.netq_free_node
                0x00000000000087a0       0x10 /usr/lib/gcc/i686-linux-gnu/4.8/../../../i386-linux-gnu/crti.o
 .rel.text.netq_init
                0x00000000000087b0       0x10 /usr/lib/gcc/i686-linux-gnu/4.8/../../../i386-linux-gnu/crti.o
 .rel.text.netq_insert_node
                0x00000000000087c0       0x48 /usr/lib/gcc/i686-linux-gnu/4.8/../../../i386-linux-gnu/crti.o
 .rel.text.netq_head
                0x0000000000008808        0x8 /usr/lib/gcc/i686-linux-gnu/4.8/../../../i386-linux-gnu/crti.o
 .rel.text.netq_next
                0x0000000000008810        0x8 /usr/lib/gcc/i686-linux-gnu/4.8/../../../i386-linux-gnu/crti.o
 .rel.text.netq_remove
                0x0000000000008818        0x8 /usr/lib/gcc/i686-linux-gnu/4.8/../../../i386-linux-gnu/crti.o
 .rel.text.netq_pop_first
                0x0000000000008820        0x8 /usr/lib/gcc/i686-linux-gnu/4.8/../../../i386-linux-gnu/crti.o
 .rel.text.netq_node_new
                0x0000000000008828       0x18 /usr/lib/gcc/i686-linux-gnu/4.8/../../../i386-linux-gnu/crti.o
 .rel.text.netq_delete_all
                0x0000000000008840        0x8 /usr/lib/gcc/i686-linux-gnu/4.8/../../../i386-linux-gnu/crti.o
 .rel.text.dtls_clock_init
                0x0000000000008848       0x10 /usr/lib/gcc/i686-linux-gnu/4.8/../../../i386-linux-gnu/crti.o
 .rel.text.dtls_ticks
                0x0000000000008858        0x8 /usr/lib/gcc/i686-linux-gnu/4.8/../../../i386-linux-gnu/crti.o
 .rel.text.peer_init
                0x0000000000008860       0x10 /usr/lib/gcc/i686-linux-gnu/4.8/../../../i386-linux-gnu/crti.o
 .rel.text.dtls_malloc_peer
                0x0000000000008870       0x10 /usr/lib/gcc/i686-linux-gnu/4.8/../../../i386-linux-gnu/crti.o
 .rel.text.dtls_free_peer
                0x0000000000008880       0x28 /usr/lib/gcc/i686-linux-gnu/4.8/../../../i386-linux-gnu/crti.o
 .rel.text.dtls_new_peer
                0x00000000000088a8       0x30 /usr/lib/gcc/i686-linux-gnu/4.8/../../../i386-linux-gnu/crti.o
 .rel.text.dtls_session_init
                0x00000000000088d8       0x18 /usr/lib/gcc/i686-linux-gnu/4.8/../../../i386-linux-gnu/crti.o
 .rel.text.dtls_session_equals
                0x00000000000088f0       0x28 /usr/lib/gcc/i686-linux-gnu/4.8/../../../i386-linux-gnu/crti.o
 .rel.text.rijndaelKeySetupEnc
                0x0000000000008918       0x98 /usr/lib/gcc/i686-linux-gnu/4.8/../../../i386-linux-gnu/crti.o
 .rel.text.rijndaelEncrypt
                0x00000000000089b0      0x180 /usr/lib/gcc/i686-linux-gnu/4.8/../../../i386-linux-gnu/crti.o
 .rel.text.rijndael_set_key_enc_only
                0x0000000000008b30        0x8 /usr/lib/gcc/i686-linux-gnu/4.8/../../../i386-linux-gnu/crti.o
 .rel.text.rijndael_encrypt
                0x0000000000008b38        0x8 /usr/lib/gcc/i686-linux-gnu/4.8/../../../i386-linux-gnu/crti.o
 .rel.text.block0
                0x0000000000008b40        0x8 /usr/lib/gcc/i686-linux-gnu/4.8/../../../i386-linux-gnu/crti.o
 .rel.text.add_auth_data
                0x0000000000008b48       0x50 /usr/lib/gcc/i686-linux-gnu/4.8/../../../i386-linux-gnu/crti.o
 .rel.text.encrypt
                0x0000000000008b98       0x38 /usr/lib/gcc/i686-linux-gnu/4.8/../../../i386-linux-gnu/crti.o
 .rel.text.mac  0x0000000000008bd0        0x8 /usr/lib/gcc/i686-linux-gnu/4.8/../../../i386-linux-gnu/crti.o
 .rel.text.dtls_ccm_encrypt_message
                0x0000000000008bd8       0x28 /usr/lib/gcc/i686-linux-gnu/4.8/../../../i386-linux-gnu/crti.o
 .rel.text.dtls_ccm_decrypt_message
                0x0000000000008c00       0x28 /usr/lib/gcc/i686-linux-gnu/4.8/../../../i386-linux-gnu/crti.o
 .rel.text.SHA256_Init
                0x0000000000008c28       0x18 /usr/lib/gcc/i686-linux-gnu/4.8/../../../i386-linux-gnu/crti.o
 .rel.text.SHA256_Transform
                0x0000000000008c40       0x10 /usr/lib/gcc/i686-linux-gnu/4.8/../../../i386-linux-gnu/crti.o
 .rel.text.SHA256_Update
                0x0000000000008c50       0x38 /usr/lib/gcc/i686-linux-gnu/4.8/../../../i386-linux-gnu/crti.o
 .rel.text.SHA256_Final
                0x0000000000008c88       0x48 /usr/lib/gcc/i686-linux-gnu/4.8/../../../i386-linux-gnu/crti.o
 .rel.text.SHA256_End
                0x0000000000008cd0       0x40 /usr/lib/gcc/i686-linux-gnu/4.8/../../../i386-linux-gnu/crti.o
 .rel.text.SHA256_Data
                0x0000000000008d10       0x20 /usr/lib/gcc/i686-linux-gnu/4.8/../../../i386-linux-gnu/crti.o
 .rel.text.dtls_package_name
                0x0000000000008d30        0x8 /usr/lib/gcc/i686-linux-gnu/4.8/../../../i386-linux-gnu/crti.o
 .rel.text.dtls_package_version
                0x0000000000008d38        0x8 /usr/lib/gcc/i686-linux-gnu/4.8/../../../i386-linux-gnu/crti.o
 .rel.text.dtls_get_log_level
                0x0000000000008d40        0x8 /usr/lib/gcc/i686-linux-gnu/4.8/../../../i386-linux-gnu/crti.o
 .rel.text.dtls_set_log_level
                0x0000000000008d48        0x8 /usr/lib/gcc/i686-linux-gnu/4.8/../../../i386-linux-gnu/crti.o
 .rel.text.dsrv_print_addr
                0x0000000000008d50       0x20 /usr/lib/gcc/i686-linux-gnu/4.8/../../../i386-linux-gnu/crti.o
 .rel.text.hexdump
                0x0000000000008d70       0x40 /usr/lib/gcc/i686-linux-gnu/4.8/../../../i386-linux-gnu/crti.o
 .rel.text.dump
                0x0000000000008db0       0x10 /usr/lib/gcc/i686-linux-gnu/4.8/../../../i386-linux-gnu/crti.o
 .rel.text.dtls_dsrv_log_addr
                0x0000000000008dc0       0x18 /usr/lib/gcc/i686-linux-gnu/4.8/../../../i386-linux-gnu/crti.o
 .rel.text.dtls_dsrv_hexdump_log
                0x0000000000008dd8       0xc8 /usr/lib/gcc/i686-linux-gnu/4.8/../../../i386-linux-gnu/crti.o
 .rel.text.doActionsBeforeTick
                0x0000000000008ea0       0x10 /usr/lib/gcc/i686-linux-gnu/4.8/../../../i386-linux-gnu/crti.o
 .rel.text.doActionsAfterTick
                0x0000000000008eb0       0x10 /usr/lib/gcc/i686-linux-gnu/4.8/../../../i386-linux-gnu/crti.o
 .rel.text.cooja_mt_init
                0x0000000000008ec0        0x8 /usr/lib/gcc/i686-linux-gnu/4.8/../../../i386-linux-gnu/crti.o
 .rel.text.cooja_mt_remove
                0x0000000000008ec8        0x8 /usr/lib/gcc/i686-linux-gnu/4.8/../../../i386-linux-gnu/crti.o
 .rel.text.cooja_mt_start
                0x0000000000008ed0        0x8 /usr/lib/gcc/i686-linux-gnu/4.8/../../../i386-linux-gnu/crti.o
 .rel.text.cooja_mt_exec
                0x0000000000008ed8       0x10 /usr/lib/gcc/i686-linux-gnu/4.8/../../../i386-linux-gnu/crti.o
 .rel.text.cooja_mt_exit
                0x0000000000008ee8       0x18 /usr/lib/gcc/i686-linux-gnu/4.8/../../../i386-linux-gnu/crti.o
 .rel.text.cooja_mt_yield
                0x0000000000008f00       0x18 /usr/lib/gcc/i686-linux-gnu/4.8/../../../i386-linux-gnu/crti.o
 .rel.text.cooja_mtarch_start
                0x0000000000008f18        0x8 /usr/lib/gcc/i686-linux-gnu/4.8/../../../i386-linux-gnu/crti.o
 .rel.text.cooja_sw
                0x0000000000008f20        0x8 /usr/lib/gcc/i686-linux-gnu/4.8/../../../i386-linux-gnu/crti.o
 .rel.text.cooja_mtarch_exec
                0x0000000000008f28       0x18 /usr/lib/gcc/i686-linux-gnu/4.8/../../../i386-linux-gnu/crti.o
 .rel.text.cooja_mtarch_yield
                0x0000000000008f40        0x8 /usr/lib/gcc/i686-linux-gnu/4.8/../../../i386-linux-gnu/crti.o
 .rel.text.rtimer_arch_init
                0x0000000000008f48       0x18 /usr/lib/gcc/i686-linux-gnu/4.8/../../../i386-linux-gnu/crti.o
 .rel.text.rtimer_arch_schedule
                0x0000000000008f60       0x18 /usr/lib/gcc/i686-linux-gnu/4.8/../../../i386-linux-gnu/crti.o
 .rel.text.rtimer_arch_next
                0x0000000000008f78       0x10 /usr/lib/gcc/i686-linux-gnu/4.8/../../../i386-linux-gnu/crti.o
 .rel.text.rtimer_arch_pending
                0x0000000000008f88        0x8 /usr/lib/gcc/i686-linux-gnu/4.8/../../../i386-linux-gnu/crti.o
 .rel.text.rtimer_arch_check
                0x0000000000008f90       0x30 /usr/lib/gcc/i686-linux-gnu/4.8/../../../i386-linux-gnu/crti.o
 .rel.text.rtimer_arch_now
                0x0000000000008fc0       0x10 /usr/lib/gcc/i686-linux-gnu/4.8/../../../i386-linux-gnu/crti.o
 .rel.text.beep_alarm
                0x0000000000008fd0        0x8 /usr/lib/gcc/i686-linux-gnu/4.8/../../../i386-linux-gnu/crti.o
 .rel.text.beep_beep
                0x0000000000008fd8        0x8 /usr/lib/gcc/i686-linux-gnu/4.8/../../../i386-linux-gnu/crti.o
 .rel.text.beep
                0x0000000000008fe0        0x8 /usr/lib/gcc/i686-linux-gnu/4.8/../../../i386-linux-gnu/crti.o
 .rel.text.beep_down
                0x0000000000008fe8        0x8 /usr/lib/gcc/i686-linux-gnu/4.8/../../../i386-linux-gnu/crti.o
 .rel.text.beep_on
                0x0000000000008ff0        0x8 /usr/lib/gcc/i686-linux-gnu/4.8/../../../i386-linux-gnu/crti.o
 .rel.text.beep_off
                0x0000000000008ff8        0x8 /usr/lib/gcc/i686-linux-gnu/4.8/../../../i386-linux-gnu/crti.o
 .rel.text.beep_spinup
                0x0000000000009000        0x8 /usr/lib/gcc/i686-linux-gnu/4.8/../../../i386-linux-gnu/crti.o
 .rel.text.beep_quick
                0x0000000000009008        0x8 /usr/lib/gcc/i686-linux-gnu/4.8/../../../i386-linux-gnu/crti.o
 .rel.text.beep_long
                0x0000000000009010        0x8 /usr/lib/gcc/i686-linux-gnu/4.8/../../../i386-linux-gnu/crti.o
 .rel.text.value
                0x0000000000009018       0x28 /usr/lib/gcc/i686-linux-gnu/4.8/../../../i386-linux-gnu/crti.o
 .rel.text.configure
                0x0000000000009040       0x40 /usr/lib/gcc/i686-linux-gnu/4.8/../../../i386-linux-gnu/crti.o
 .rel.text.status
                0x0000000000009080       0x18 /usr/lib/gcc/i686-linux-gnu/4.8/../../../i386-linux-gnu/crti.o
 .rel.text.doInterfaceActionsBeforeTick
                0x0000000000009098      0x188 /usr/lib/gcc/i686-linux-gnu/4.8/../../../i386-linux-gnu/crti.o
 .rel.text.leds_arch_init
                0x0000000000009220        0x8 /usr/lib/gcc/i686-linux-gnu/4.8/../../../i386-linux-gnu/crti.o
 .rel.text.leds_arch_get
                0x0000000000009228        0x8 /usr/lib/gcc/i686-linux-gnu/4.8/../../../i386-linux-gnu/crti.o
 .rel.text.leds_arch_set
                0x0000000000009230       0x10 /usr/lib/gcc/i686-linux-gnu/4.8/../../../i386-linux-gnu/crti.o
 .rel.text.rs232_set_input
                0x0000000000009240        0x8 /usr/lib/gcc/i686-linux-gnu/4.8/../../../i386-linux-gnu/crti.o
 .rel.text.rs232_send
                0x0000000000009248       0x10 /usr/lib/gcc/i686-linux-gnu/4.8/../../../i386-linux-gnu/crti.o
 .rel.text.rs232_print
                0x0000000000009258       0x10 /usr/lib/gcc/i686-linux-gnu/4.8/../../../i386-linux-gnu/crti.o
 .rel.text.slip_arch_writeb
                0x0000000000009268        0x8 /usr/lib/gcc/i686-linux-gnu/4.8/../../../i386-linux-gnu/crti.o
 .rel.text.clock_time
                0x0000000000009270        0x8 /usr/lib/gcc/i686-linux-gnu/4.8/../../../i386-linux-gnu/crti.o
 .rel.text.clock_seconds
                0x0000000000009278        0x8 /usr/lib/gcc/i686-linux-gnu/4.8/../../../i386-linux-gnu/crti.o
 .rel.text.simlog_char
                0x0000000000009280       0x30 /usr/lib/gcc/i686-linux-gnu/4.8/../../../i386-linux-gnu/crti.o
 .rel.text.simlog
                0x00000000000092b0       0x50 /usr/lib/gcc/i686-linux-gnu/4.8/../../../i386-linux-gnu/crti.o
 .rel.text.log_message
                0x0000000000009300       0x10 /usr/lib/gcc/i686-linux-gnu/4.8/../../../i386-linux-gnu/crti.o
 .rel.text.log_set_putchar_with_slip
                0x0000000000009310        0x8 /usr/lib/gcc/i686-linux-gnu/4.8/../../../i386-linux-gnu/crti.o
 .rel.text.putchar
                0x0000000000009318       0x50 /usr/lib/gcc/i686-linux-gnu/4.8/../../../i386-linux-gnu/crti.o
 .rel.text.puts
                0x0000000000009368       0x10 /usr/lib/gcc/i686-linux-gnu/4.8/../../../i386-linux-gnu/crti.o
 .rel.text.printf
                0x0000000000009378       0x20 /usr/lib/gcc/i686-linux-gnu/4.8/../../../i386-linux-gnu/crti.o
 .rel.text.cfs_open
                0x0000000000009398       0x48 /usr/lib/gcc/i686-linux-gnu/4.8/../../../i386-linux-gnu/crti.o
 .rel.text.cfs_close
                0x00000000000093e0        0x8 /usr/lib/gcc/i686-linux-gnu/4.8/../../../i386-linux-gnu/crti.o
 .rel.text.cfs_read
                0x00000000000093e8       0x70 /usr/lib/gcc/i686-linux-gnu/4.8/../../../i386-linux-gnu/crti.o
 .rel.text.cfs_write
                0x0000000000009458       0xb0 /usr/lib/gcc/i686-linux-gnu/4.8/../../../i386-linux-gnu/crti.o
 .rel.text.cfs_seek
                0x0000000000009508       0x68 /usr/lib/gcc/i686-linux-gnu/4.8/../../../i386-linux-gnu/crti.o
 .rel.text.cfs_remove
                0x0000000000009570       0x10 /usr/lib/gcc/i686-linux-gnu/4.8/../../../i386-linux-gnu/crti.o
 .rel.text.packetbuf_set_attr
                0x0000000000009580       0x30 /usr/lib/gcc/i686-linux-gnu/4.8/../../../i386-linux-gnu/crti.o
 .rel.text.set_send_on_cca
                0x00000000000095b0        0x8 /usr/lib/gcc/i686-linux-gnu/4.8/../../../i386-linux-gnu/crti.o
 .rel.text.set_frame_filtering
                0x00000000000095b8        0x8 /usr/lib/gcc/i686-linux-gnu/4.8/../../../i386-linux-gnu/crti.o
 .rel.text.set_auto_ack
                0x00000000000095c0        0x8 /usr/lib/gcc/i686-linux-gnu/4.8/../../../i386-linux-gnu/crti.o
 .rel.text.set_poll_mode
                0x00000000000095c8        0x8 /usr/lib/gcc/i686-linux-gnu/4.8/../../../i386-linux-gnu/crti.o
 .rel.text.radio_set_channel
                0x00000000000095d0        0x8 /usr/lib/gcc/i686-linux-gnu/4.8/../../../i386-linux-gnu/crti.o
 .rel.text.radio_set_txpower
                0x00000000000095d8        0x8 /usr/lib/gcc/i686-linux-gnu/4.8/../../../i386-linux-gnu/crti.o
 .rel.text.radio_signal_strength_last
                0x00000000000095e0        0x8 /usr/lib/gcc/i686-linux-gnu/4.8/../../../i386-linux-gnu/crti.o
 .rel.text.radio_signal_strength_current
                0x00000000000095e8        0x8 /usr/lib/gcc/i686-linux-gnu/4.8/../../../i386-linux-gnu/crti.o
 .rel.text.radio_LQI
                0x00000000000095f0        0x8 /usr/lib/gcc/i686-linux-gnu/4.8/../../../i386-linux-gnu/crti.o
 .rel.text.radio_on
                0x00000000000095f8        0x8 /usr/lib/gcc/i686-linux-gnu/4.8/../../../i386-linux-gnu/crti.o
 .rel.text.radio_off
                0x0000000000009600        0x8 /usr/lib/gcc/i686-linux-gnu/4.8/../../../i386-linux-gnu/crti.o
 .rel.text.radio_read
                0x0000000000009608       0x68 /usr/lib/gcc/i686-linux-gnu/4.8/../../../i386-linux-gnu/crti.o
 .rel.text.channel_clear
                0x0000000000009670        0x8 /usr/lib/gcc/i686-linux-gnu/4.8/../../../i386-linux-gnu/crti.o
 .rel.text.radio_send
                0x0000000000009678       0x78 /usr/lib/gcc/i686-linux-gnu/4.8/../../../i386-linux-gnu/crti.o
 .rel.text.prepare_packet
                0x00000000000096f0        0x8 /usr/lib/gcc/i686-linux-gnu/4.8/../../../i386-linux-gnu/crti.o
 .rel.text.transmit_packet
                0x00000000000096f8       0x10 /usr/lib/gcc/i686-linux-gnu/4.8/../../../i386-linux-gnu/crti.o
 .rel.text.receiving_packet
                0x0000000000009708        0x8 /usr/lib/gcc/i686-linux-gnu/4.8/../../../i386-linux-gnu/crti.o
 .rel.text.pending_packet
                0x0000000000009710       0x10 /usr/lib/gcc/i686-linux-gnu/4.8/../../../i386-linux-gnu/crti.o
 .rel.text.process_thread_cooja_radio_process
                0x0000000000009720       0x28 /usr/lib/gcc/i686-linux-gnu/4.8/../../../i386-linux-gnu/crti.o
 .rel.text.init
                0x0000000000009748       0x60 /usr/lib/gcc/i686-linux-gnu/4.8/../../../i386-linux-gnu/crti.o
 .rel.text.get_value
                0x00000000000097a8       0x30 /usr/lib/gcc/i686-linux-gnu/4.8/../../../i386-linux-gnu/crti.o
 .rel.text.set_value
                0x00000000000097d8        0x8 /usr/lib/gcc/i686-linux-gnu/4.8/../../../i386-linux-gnu/crti.o
 .rel.text.get_object
                0x00000000000097e0       0x10 /usr/lib/gcc/i686-linux-gnu/4.8/../../../i386-linux-gnu/crti.o
 .rel.text.eeprom_read
                0x00000000000097f0       0x28 /usr/lib/gcc/i686-linux-gnu/4.8/../../../i386-linux-gnu/crti.o
 .rel.text.eeprom_write
                0x0000000000009818       0x28 /usr/lib/gcc/i686-linux-gnu/4.8/../../../i386-linux-gnu/crti.o
 .rel.text.random_init
                0x0000000000009840        0x8 /usr/lib/gcc/i686-linux-gnu/4.8/../../../i386-linux-gnu/crti.o
 .rel.text.random_rand
                0x0000000000009848        0x8 /usr/lib/gcc/i686-linux-gnu/4.8/../../../i386-linux-gnu/crti.o
 .rel.text.get_sensor_index
                0x0000000000009850       0x10 /usr/lib/gcc/i686-linux-gnu/4.8/../../../i386-linux-gnu/crti.o
 .rel.text.sensors_first
                0x0000000000009860        0x8 /usr/lib/gcc/i686-linux-gnu/4.8/../../../i386-linux-gnu/crti.o
 .rel.text.sensors_next
                0x0000000000009868        0x8 /usr/lib/gcc/i686-linux-gnu/4.8/../../../i386-linux-gnu/crti.o
 .rel.text.sensors_changed
                0x0000000000009870       0x20 /usr/lib/gcc/i686-linux-gnu/4.8/../../../i386-linux-gnu/crti.o
 .rel.text.sensors_find
                0x0000000000009890       0x28 /usr/lib/gcc/i686-linux-gnu/4.8/../../../i386-linux-gnu/crti.o
 .rel.text.process_thread_sensors_process
                0x00000000000098b8      0x108 /usr/lib/gcc/i686-linux-gnu/4.8/../../../i386-linux-gnu/crti.o
 .rel.text.autostart_start
                0x00000000000099c0        0x8 /usr/lib/gcc/i686-linux-gnu/4.8/../../../i386-linux-gnu/crti.o
 .rel.text.autostart_exit
                0x00000000000099c8        0x8 /usr/lib/gcc/i686-linux-gnu/4.8/../../../i386-linux-gnu/crti.o
 .rel.text.process_thread_ctimer_process
                0x00000000000099d0       0x58 /usr/lib/gcc/i686-linux-gnu/4.8/../../../i386-linux-gnu/crti.o
 .rel.text.ctimer_init
                0x0000000000009a28       0x28 /usr/lib/gcc/i686-linux-gnu/4.8/../../../i386-linux-gnu/crti.o
 .rel.text.ctimer_set
                0x0000000000009a50       0x10 /usr/lib/gcc/i686-linux-gnu/4.8/../../../i386-linux-gnu/crti.o
 .rel.text.ctimer_set_with_process
                0x0000000000009a60       0x40 /usr/lib/gcc/i686-linux-gnu/4.8/../../../i386-linux-gnu/crti.o
 .rel.text.ctimer_reset
                0x0000000000009aa0       0x40 /usr/lib/gcc/i686-linux-gnu/4.8/../../../i386-linux-gnu/crti.o
 .rel.text.ctimer_restart
                0x0000000000009ae0       0x40 /usr/lib/gcc/i686-linux-gnu/4.8/../../../i386-linux-gnu/crti.o
 .rel.text.ctimer_stop
                0x0000000000009b20       0x20 /usr/lib/gcc/i686-linux-gnu/4.8/../../../i386-linux-gnu/crti.o
 .rel.text.ctimer_expired
                0x0000000000009b40       0x20 /usr/lib/gcc/i686-linux-gnu/4.8/../../../i386-linux-gnu/crti.o
 .rel.text.update_time
                0x0000000000009b60       0x28 /usr/lib/gcc/i686-linux-gnu/4.8/../../../i386-linux-gnu/crti.o
 .rel.text.process_thread_etimer_process
                0x0000000000009b88       0x60 /usr/lib/gcc/i686-linux-gnu/4.8/../../../i386-linux-gnu/crti.o
 .rel.text.etimer_request_poll
                0x0000000000009be8       0x10 /usr/lib/gcc/i686-linux-gnu/4.8/../../../i386-linux-gnu/crti.o
 .rel.text.add_timer
                0x0000000000009bf8       0x30 /usr/lib/gcc/i686-linux-gnu/4.8/../../../i386-linux-gnu/crti.o
 .rel.text.etimer_set
                0x0000000000009c28        0x8 /usr/lib/gcc/i686-linux-gnu/4.8/../../../i386-linux-gnu/crti.o
 .rel.text.etimer_reset_with_new_interval
                0x0000000000009c30        0x8 /usr/lib/gcc/i686-linux-gnu/4.8/../../../i386-linux-gnu/crti.o
 .rel.text.etimer_reset
                0x0000000000009c38        0x8 /usr/lib/gcc/i686-linux-gnu/4.8/../../../i386-linux-gnu/crti.o
 .rel.text.etimer_restart
                0x0000000000009c40        0x8 /usr/lib/gcc/i686-linux-gnu/4.8/../../../i386-linux-gnu/crti.o
 .rel.text.etimer_pending
                0x0000000000009c48        0x8 /usr/lib/gcc/i686-linux-gnu/4.8/../../../i386-linux-gnu/crti.o
 .rel.text.etimer_next_expiration_time
                0x0000000000009c50       0x10 /usr/lib/gcc/i686-linux-gnu/4.8/../../../i386-linux-gnu/crti.o
 .rel.text.etimer_stop
                0x0000000000009c60       0x20 /usr/lib/gcc/i686-linux-gnu/4.8/../../../i386-linux-gnu/crti.o
 .rel.text.process_alloc_event
                0x0000000000009c80       0x10 /usr/lib/gcc/i686-linux-gnu/4.8/../../../i386-linux-gnu/crti.o
 .rel.text.process_start
                0x0000000000009c90       0x20 /usr/lib/gcc/i686-linux-gnu/4.8/../../../i386-linux-gnu/crti.o
 .rel.text.exit_process
                0x0000000000009cb0       0x50 /usr/lib/gcc/i686-linux-gnu/4.8/../../../i386-linux-gnu/crti.o
 .rel.text.call_process
                0x0000000000009d00        0x8 /usr/lib/gcc/i686-linux-gnu/4.8/../../../i386-linux-gnu/crti.o
 .rel.text.process_exit
                0x0000000000009d08        0x8 /usr/lib/gcc/i686-linux-gnu/4.8/../../../i386-linux-gnu/crti.o
 .rel.text.process_init
                0x0000000000009d10       0x38 /usr/lib/gcc/i686-linux-gnu/4.8/../../../i386-linux-gnu/crti.o
 .rel.text.do_poll
                0x0000000000009d48       0x10 /usr/lib/gcc/i686-linux-gnu/4.8/../../../i386-linux-gnu/crti.o
 .rel.text.do_event
                0x0000000000009d58       0x68 /usr/lib/gcc/i686-linux-gnu/4.8/../../../i386-linux-gnu/crti.o
 .rel.text.process_run
                0x0000000000009dc0       0x18 /usr/lib/gcc/i686-linux-gnu/4.8/../../../i386-linux-gnu/crti.o
 .rel.text.process_nevents
                0x0000000000009dd8       0x10 /usr/lib/gcc/i686-linux-gnu/4.8/../../../i386-linux-gnu/crti.o
 .rel.text.process_post
                0x0000000000009de8       0x40 /usr/lib/gcc/i686-linux-gnu/4.8/../../../i386-linux-gnu/crti.o
 .rel.text.process_post_synch
                0x0000000000009e28       0x10 /usr/lib/gcc/i686-linux-gnu/4.8/../../../i386-linux-gnu/crti.o
 .rel.text.process_poll
                0x0000000000009e38        0x8 /usr/lib/gcc/i686-linux-gnu/4.8/../../../i386-linux-gnu/crti.o
 .rel.text.rtimer_init
                0x0000000000009e40        0x8 /usr/lib/gcc/i686-linux-gnu/4.8/../../../i386-linux-gnu/crti.o
 .rel.text.rtimer_set
                0x0000000000009e48       0x18 /usr/lib/gcc/i686-linux-gnu/4.8/../../../i386-linux-gnu/crti.o
 .rel.text.rtimer_run_next
                0x0000000000009e60       0x30 /usr/lib/gcc/i686-linux-gnu/4.8/../../../i386-linux-gnu/crti.o
 .rel.text.timer_set
                0x0000000000009e90        0x8 /usr/lib/gcc/i686-linux-gnu/4.8/../../../i386-linux-gnu/crti.o
 .rel.text.timer_restart
                0x0000000000009e98        0x8 /usr/lib/gcc/i686-linux-gnu/4.8/../../../i386-linux-gnu/crti.o
 .rel.text.timer_expired
                0x0000000000009ea0        0x8 /usr/lib/gcc/i686-linux-gnu/4.8/../../../i386-linux-gnu/crti.o
 .rel.text.timer_remaining
                0x0000000000009ea8        0x8 /usr/lib/gcc/i686-linux-gnu/4.8/../../../i386-linux-gnu/crti.o
 .rel.text.serial_line_input_byte
                0x0000000000009eb0       0x48 /usr/lib/gcc/i686-linux-gnu/4.8/../../../i386-linux-gnu/crti.o
 .rel.text.process_thread_serial_line_process
                0x0000000000009ef8       0x90 /usr/lib/gcc/i686-linux-gnu/4.8/../../../i386-linux-gnu/crti.o
 .rel.text.serial_line_init
                0x0000000000009f88       0x28 /usr/lib/gcc/i686-linux-gnu/4.8/../../../i386-linux-gnu/crti.o
 .rel.text._xassert
                0x0000000000009fb0       0x10 /usr/lib/gcc/i686-linux-gnu/4.8/../../../i386-linux-gnu/crti.o
 .rel.text.list_add
                0x0000000000009fc0       0x10 /usr/lib/gcc/i686-linux-gnu/4.8/../../../i386-linux-gnu/crti.o
 .rel.text.list_push
                0x0000000000009fd0        0x8 /usr/lib/gcc/i686-linux-gnu/4.8/../../../i386-linux-gnu/crti.o
 .rel.text.list_insert
                0x0000000000009fd8        0x8 /usr/lib/gcc/i686-linux-gnu/4.8/../../../i386-linux-gnu/crti.o
 .rel.text.memb_init
                0x0000000000009fe0       0x10 /usr/lib/gcc/i686-linux-gnu/4.8/../../../i386-linux-gnu/crti.o
 .rel.text.packetbuf_attr
                0x0000000000009ff0       0x28 /usr/lib/gcc/i686-linux-gnu/4.8/../../../i386-linux-gnu/crti.o
 .rel.text.packetbuf_set_addr
                0x000000000000a018       0x30 /usr/lib/gcc/i686-linux-gnu/4.8/../../../i386-linux-gnu/crti.o
 .rel.text.packetbuf_addr
                0x000000000000a048       0x40 /usr/lib/gcc/i686-linux-gnu/4.8/../../../i386-linux-gnu/crti.o
 .rel.text.clear_fragments
                0x000000000000a088       0x20 /usr/lib/gcc/i686-linux-gnu/4.8/../../../i386-linux-gnu/crti.o
 .rel.text.timeout_fragments
                0x000000000000a0a8       0x18 /usr/lib/gcc/i686-linux-gnu/4.8/../../../i386-linux-gnu/crti.o
 .rel.text.store_fragment
                0x000000000000a0c0       0x68 /usr/lib/gcc/i686-linux-gnu/4.8/../../../i386-linux-gnu/crti.o
 .rel.text.add_fragment
                0x000000000000a128       0x80 /usr/lib/gcc/i686-linux-gnu/4.8/../../../i386-linux-gnu/crti.o
 .rel.text.copy_frags2uip
                0x000000000000a1a8       0x58 /usr/lib/gcc/i686-linux-gnu/4.8/../../../i386-linux-gnu/crti.o
 .rel.text.rime_sniffer_add
                0x000000000000a200        0x8 /usr/lib/gcc/i686-linux-gnu/4.8/../../../i386-linux-gnu/crti.o
 .rel.text.rime_sniffer_remove
                0x000000000000a208        0x8 /usr/lib/gcc/i686-linux-gnu/4.8/../../../i386-linux-gnu/crti.o
 .rel.text.set_packet_attrs
                0x000000000000a210       0x60 /usr/lib/gcc/i686-linux-gnu/4.8/../../../i386-linux-gnu/crti.o
 .rel.text.addr_context_lookup_by_prefix
                0x000000000000a270       0x20 /usr/lib/gcc/i686-linux-gnu/4.8/../../../i386-linux-gnu/crti.o
 .rel.text.addr_context_lookup_by_number
                0x000000000000a290       0x18 /usr/lib/gcc/i686-linux-gnu/4.8/../../../i386-linux-gnu/crti.o
 .rel.text.compress_addr_64
                0x000000000000a2a8       0x40 /usr/lib/gcc/i686-linux-gnu/4.8/../../../i386-linux-gnu/crti.o
 .rel.text.uncompress_addr
                0x000000000000a2e8       0x38 /usr/lib/gcc/i686-linux-gnu/4.8/../../../i386-linux-gnu/crti.o
 .rel.text.compress_hdr_iphc
                0x000000000000a320      0x5f8 /usr/lib/gcc/i686-linux-gnu/4.8/../../../i386-linux-gnu/crti.o
 .rel.text.uncompress_hdr_iphc
                0x000000000000a918      0x2f0 /usr/lib/gcc/i686-linux-gnu/4.8/../../../i386-linux-gnu/crti.o
 .rel.text.compress_hdr_ipv6
                0x000000000000ac08       0x58 /usr/lib/gcc/i686-linux-gnu/4.8/../../../i386-linux-gnu/crti.o
 .rel.text.packet_sent
                0x000000000000ac60       0x38 /usr/lib/gcc/i686-linux-gnu/4.8/../../../i386-linux-gnu/crti.o
 .rel.text.send_packet
                0x000000000000ac98      0x120 /usr/lib/gcc/i686-linux-gnu/4.8/../../../i386-linux-gnu/crti.o
 .rel.text.output
                0x000000000000adb8      0x2c8 /usr/lib/gcc/i686-linux-gnu/4.8/../../../i386-linux-gnu/crti.o
 .rel.text.input
                0x000000000000b080      0x200 /usr/lib/gcc/i686-linux-gnu/4.8/../../../i386-linux-gnu/crti.o
 .rel.text.sicslowpan_init
                0x000000000000b280       0x38 /usr/lib/gcc/i686-linux-gnu/4.8/../../../i386-linux-gnu/crti.o
 .rel.text.sicslowpan_get_last_rssi
                0x000000000000b2b8        0x8 /usr/lib/gcc/i686-linux-gnu/4.8/../../../i386-linux-gnu/crti.o
 .rel.text.uip_ds6_neighbors_init
                0x000000000000b2c0       0x20 /usr/lib/gcc/i686-linux-gnu/4.8/../../../i386-linux-gnu/crti.o
 .rel.text.uip_ds6_nbr_add
                0x000000000000b2e0       0x38 /usr/lib/gcc/i686-linux-gnu/4.8/../../../i386-linux-gnu/crti.o
 .rel.text.uip_ds6_nbr_rm
                0x000000000000b318       0x20 /usr/lib/gcc/i686-linux-gnu/4.8/../../../i386-linux-gnu/crti.o
 .rel.text.uip_ds6_nbr_get_ll
                0x000000000000b338       0x10 /usr/lib/gcc/i686-linux-gnu/4.8/../../../i386-linux-gnu/crti.o
 .rel.text.uip_ds6_nbr_num
                0x000000000000b348       0x20 /usr/lib/gcc/i686-linux-gnu/4.8/../../../i386-linux-gnu/crti.o
 .rel.text.uip_ds6_nbr_lookup
                0x000000000000b368       0x28 /usr/lib/gcc/i686-linux-gnu/4.8/../../../i386-linux-gnu/crti.o
 .rel.text.uip_ds6_nbr_ll_lookup
                0x000000000000b390       0x10 /usr/lib/gcc/i686-linux-gnu/4.8/../../../i386-linux-gnu/crti.o
 .rel.text.uip_ds6_nbr_ipaddr_from_lladdr
                0x000000000000b3a0        0x8 /usr/lib/gcc/i686-linux-gnu/4.8/../../../i386-linux-gnu/crti.o
 .rel.text.uip_ds6_nbr_lladdr_from_ipaddr
                0x000000000000b3a8       0x10 /usr/lib/gcc/i686-linux-gnu/4.8/../../../i386-linux-gnu/crti.o
 .rel.text.uip_ds6_link_neighbor_callback
                0x000000000000b3b8       0x20 /usr/lib/gcc/i686-linux-gnu/4.8/../../../i386-linux-gnu/crti.o
 .rel.text.uip_ds6_neighbor_periodic
                0x000000000000b3d8       0xb8 /usr/lib/gcc/i686-linux-gnu/4.8/../../../i386-linux-gnu/crti.o
 .rel.text.uip_ds6_nbr_refresh_reachable_state
                0x000000000000b490       0x10 /usr/lib/gcc/i686-linux-gnu/4.8/../../../i386-linux-gnu/crti.o
 .rel.text.uip_ds6_get_least_lifetime_neighbor
                0x000000000000b4a0       0x30 /usr/lib/gcc/i686-linux-gnu/4.8/../../../i386-linux-gnu/crti.o
 .rel.text.call_route_callback
                0x000000000000b4d0       0x30 /usr/lib/gcc/i686-linux-gnu/4.8/../../../i386-linux-gnu/crti.o
 .rel.text.uip_ds6_notification_add
                0x000000000000b500       0x10 /usr/lib/gcc/i686-linux-gnu/4.8/../../../i386-linux-gnu/crti.o
 .rel.text.uip_ds6_notification_rm
                0x000000000000b510       0x10 /usr/lib/gcc/i686-linux-gnu/4.8/../../../i386-linux-gnu/crti.o
 .rel.text.uip_ds6_route_init
                0x000000000000b520       0x68 /usr/lib/gcc/i686-linux-gnu/4.8/../../../i386-linux-gnu/crti.o
 .rel.text.uip_ds6_route_nexthop_lladdr
                0x000000000000b588       0x10 /usr/lib/gcc/i686-linux-gnu/4.8/../../../i386-linux-gnu/crti.o
 .rel.text.uip_ds6_route_nexthop
                0x000000000000b598        0x8 /usr/lib/gcc/i686-linux-gnu/4.8/../../../i386-linux-gnu/crti.o
 .rel.text.uip_ds6_route_head
                0x000000000000b5a0       0x10 /usr/lib/gcc/i686-linux-gnu/4.8/../../../i386-linux-gnu/crti.o
 .rel.text.uip_ds6_route_next
                0x000000000000b5b0        0x8 /usr/lib/gcc/i686-linux-gnu/4.8/../../../i386-linux-gnu/crti.o
 .rel.text.uip_ds6_route_is_nexthop
                0x000000000000b5b8       0x18 /usr/lib/gcc/i686-linux-gnu/4.8/../../../i386-linux-gnu/crti.o
 .rel.text.uip_ds6_route_num_routes
                0x000000000000b5d0        0x8 /usr/lib/gcc/i686-linux-gnu/4.8/../../../i386-linux-gnu/crti.o
 .rel.text.uip_ds6_route_lookup
                0x000000000000b5d8       0x48 /usr/lib/gcc/i686-linux-gnu/4.8/../../../i386-linux-gnu/crti.o
 .rel.text.uip_ds6_route_add
                0x000000000000b620       0xd0 /usr/lib/gcc/i686-linux-gnu/4.8/../../../i386-linux-gnu/crti.o
 .rel.text.uip_ds6_route_rm
                0x000000000000b6f0       0x80 /usr/lib/gcc/i686-linux-gnu/4.8/../../../i386-linux-gnu/crti.o
 .rel.text.rm_routelist
                0x000000000000b770       0x28 /usr/lib/gcc/i686-linux-gnu/4.8/../../../i386-linux-gnu/crti.o
 .rel.text.uip_ds6_route_rm_by_nexthop
                0x000000000000b798       0x18 /usr/lib/gcc/i686-linux-gnu/4.8/../../../i386-linux-gnu/crti.o
 .rel.text.uip_ds6_defrt_head
                0x000000000000b7b0       0x10 /usr/lib/gcc/i686-linux-gnu/4.8/../../../i386-linux-gnu/crti.o
 .rel.text.uip_ds6_defrt_add
                0x000000000000b7c0       0x30 /usr/lib/gcc/i686-linux-gnu/4.8/../../../i386-linux-gnu/crti.o
 .rel.text.uip_ds6_defrt_rm
                0x000000000000b7f0       0x38 /usr/lib/gcc/i686-linux-gnu/4.8/../../../i386-linux-gnu/crti.o
 .rel.text.uip_ds6_defrt_lookup
                0x000000000000b828       0x20 /usr/lib/gcc/i686-linux-gnu/4.8/../../../i386-linux-gnu/crti.o
 .rel.text.uip_ds6_defrt_choose
                0x000000000000b848       0x20 /usr/lib/gcc/i686-linux-gnu/4.8/../../../i386-linux-gnu/crti.o
 .rel.text.uip_ds6_defrt_periodic
                0x000000000000b868       0x38 /usr/lib/gcc/i686-linux-gnu/4.8/../../../i386-linux-gnu/crti.o
 .rel.text.uip_ds6_init
                0x000000000000b8a0      0x180 /usr/lib/gcc/i686-linux-gnu/4.8/../../../i386-linux-gnu/crti.o
 .rel.text.uip_ds6_periodic
                0x000000000000ba20       0x80 /usr/lib/gcc/i686-linux-gnu/4.8/../../../i386-linux-gnu/crti.o
 .rel.text.uip_ds6_list_loop
                0x000000000000baa0        0x8 /usr/lib/gcc/i686-linux-gnu/4.8/../../../i386-linux-gnu/crti.o
 .rel.text.uip_ds6_prefix_add
                0x000000000000baa8       0x58 /usr/lib/gcc/i686-linux-gnu/4.8/../../../i386-linux-gnu/crti.o
 .rel.text.uip_ds6_prefix_lookup
                0x000000000000bb00       0x20 /usr/lib/gcc/i686-linux-gnu/4.8/../../../i386-linux-gnu/crti.o
 .rel.text.uip_ds6_is_addr_onlink
                0x000000000000bb20       0x50 /usr/lib/gcc/i686-linux-gnu/4.8/../../../i386-linux-gnu/crti.o
 .rel.text.uip_ds6_addr_add
                0x000000000000bb70       0xc8 /usr/lib/gcc/i686-linux-gnu/4.8/../../../i386-linux-gnu/crti.o
 .rel.text.uip_ds6_addr_rm
                0x000000000000bc38       0x88 /usr/lib/gcc/i686-linux-gnu/4.8/../../../i386-linux-gnu/crti.o
 .rel.text.uip_ds6_addr_lookup
                0x000000000000bcc0       0x20 /usr/lib/gcc/i686-linux-gnu/4.8/../../../i386-linux-gnu/crti.o
 .rel.text.uip_ds6_get_link_local
                0x000000000000bce0       0x58 /usr/lib/gcc/i686-linux-gnu/4.8/../../../i386-linux-gnu/crti.o
 .rel.text.uip_ds6_get_global
                0x000000000000bd38       0x58 /usr/lib/gcc/i686-linux-gnu/4.8/../../../i386-linux-gnu/crti.o
 .rel.text.uip_ds6_maddr_add
                0x000000000000bd90       0x30 /usr/lib/gcc/i686-linux-gnu/4.8/../../../i386-linux-gnu/crti.o
 .rel.text.uip_ds6_maddr_lookup
                0x000000000000bdc0       0x20 /usr/lib/gcc/i686-linux-gnu/4.8/../../../i386-linux-gnu/crti.o
 .rel.text.uip_ds6_aaddr_add
                0x000000000000bde0       0x30 /usr/lib/gcc/i686-linux-gnu/4.8/../../../i386-linux-gnu/crti.o
 .rel.text.uip_ds6_aaddr_lookup
                0x000000000000be10       0x20 /usr/lib/gcc/i686-linux-gnu/4.8/../../../i386-linux-gnu/crti.o
 .rel.text.uip_ds6_select_src
                0x000000000000be30       0x70 /usr/lib/gcc/i686-linux-gnu/4.8/../../../i386-linux-gnu/crti.o
 .rel.text.uip_ds6_set_addr_iid
                0x000000000000bea0        0x8 /usr/lib/gcc/i686-linux-gnu/4.8/../../../i386-linux-gnu/crti.o
 .rel.text.uip_ds6_compute_reachable_time
                0x000000000000bea8       0x30 /usr/lib/gcc/i686-linux-gnu/4.8/../../../i386-linux-gnu/crti.o
 .rel.text.extract_lladdr_from_llao_aligned
                0x000000000000bed8       0x18 /usr/lib/gcc/i686-linux-gnu/4.8/../../../i386-linux-gnu/crti.o
 .rel.text.create_llao
                0x000000000000bef0       0x18 /usr/lib/gcc/i686-linux-gnu/4.8/../../../i386-linux-gnu/crti.o
 .rel.text.ns_input
                0x000000000000bf08      0x388 /usr/lib/gcc/i686-linux-gnu/4.8/../../../i386-linux-gnu/crti.o
 .rel.text.uip_nd6_ns_output
                0x000000000000c290      0x1e8 /usr/lib/gcc/i686-linux-gnu/4.8/../../../i386-linux-gnu/crti.o
 .rel.text.na_input
                0x000000000000c478      0x280 /usr/lib/gcc/i686-linux-gnu/4.8/../../../i386-linux-gnu/crti.o
 .rel.text.uip_nd6_init
                0x000000000000c6f8       0x20 /usr/lib/gcc/i686-linux-gnu/4.8/../../../i386-linux-gnu/crti.o
 .rel.text.uip_add32
                0x000000000000c718       0x98 /usr/lib/gcc/i686-linux-gnu/4.8/../../../i386-linux-gnu/crti.o
 .rel.text.uip_chksum
                0x000000000000c7b0        0x8 /usr/lib/gcc/i686-linux-gnu/4.8/../../../i386-linux-gnu/crti.o
 .rel.text.upper_layer_chksum
                0x000000000000c7b8       0x38 /usr/lib/gcc/i686-linux-gnu/4.8/../../../i386-linux-gnu/crti.o
 .rel.text.uip_init
                0x000000000000c7f0       0x38 /usr/lib/gcc/i686-linux-gnu/4.8/../../../i386-linux-gnu/crti.o
 .rel.text.uip_connect
                0x000000000000c828       0x70 /usr/lib/gcc/i686-linux-gnu/4.8/../../../i386-linux-gnu/crti.o
 .rel.text.remove_ext_hdr
                0x000000000000c898       0x98 /usr/lib/gcc/i686-linux-gnu/4.8/../../../i386-linux-gnu/crti.o
 .rel.text.uip_udp_new
                0x000000000000c930       0x68 /usr/lib/gcc/i686-linux-gnu/4.8/../../../i386-linux-gnu/crti.o
 .rel.text.uip_unlisten
                0x000000000000c998       0x10 /usr/lib/gcc/i686-linux-gnu/4.8/../../../i386-linux-gnu/crti.o
 .rel.text.uip_listen
                0x000000000000c9a8       0x10 /usr/lib/gcc/i686-linux-gnu/4.8/../../../i386-linux-gnu/crti.o
 .rel.text.uip_add_rcv_nxt
                0x000000000000c9b8       0x50 /usr/lib/gcc/i686-linux-gnu/4.8/../../../i386-linux-gnu/crti.o
 .rel.text.ext_hdr_options_process
                0x000000000000ca08      0x108 /usr/lib/gcc/i686-linux-gnu/4.8/../../../i386-linux-gnu/crti.o
 .rel.text.uip_process
                0x000000000000cb10      0xf70 /usr/lib/gcc/i686-linux-gnu/4.8/../../../i386-linux-gnu/crti.o
 .rel.text.uip_send
                0x000000000000da80       0x60 /usr/lib/gcc/i686-linux-gnu/4.8/../../../i386-linux-gnu/crti.o
 .rel.text.dns_name_isequal
                0x000000000000dae0       0x10 /usr/lib/gcc/i686-linux-gnu/4.8/../../../i386-linux-gnu/crti.o
 .rel.text.mdns_announce_requested
                0x000000000000daf0        0x8 /usr/lib/gcc/i686-linux-gnu/4.8/../../../i386-linux-gnu/crti.o
 .rel.text.start_name_collision_check
                0x000000000000daf8       0x20 /usr/lib/gcc/i686-linux-gnu/4.8/../../../i386-linux-gnu/crti.o
 .rel.text.mdns_write_announce_records
                0x000000000000db18       0x28 /usr/lib/gcc/i686-linux-gnu/4.8/../../../i386-linux-gnu/crti.o
 .rel.text.mdns_prep_host_announce_packet
                0x000000000000db40       0x50 /usr/lib/gcc/i686-linux-gnu/4.8/../../../i386-linux-gnu/crti.o
 .rel.text.try_next_server
                0x000000000000db90        0x8 /usr/lib/gcc/i686-linux-gnu/4.8/../../../i386-linux-gnu/crti.o
 .rel.text.check_entries
                0x000000000000db98       0xc0 /usr/lib/gcc/i686-linux-gnu/4.8/../../../i386-linux-gnu/crti.o
 .rel.text.newdata
                0x000000000000dc58      0x180 /usr/lib/gcc/i686-linux-gnu/4.8/../../../i386-linux-gnu/crti.o
 .rel.text.resolv_set_hostname
                0x000000000000ddd8       0x88 /usr/lib/gcc/i686-linux-gnu/4.8/../../../i386-linux-gnu/crti.o
 .rel.text.resolv_get_hostname
                0x000000000000de60        0x8 /usr/lib/gcc/i686-linux-gnu/4.8/../../../i386-linux-gnu/crti.o
 .rel.text.process_thread_mdns_probe_process
                0x000000000000de68       0x98 /usr/lib/gcc/i686-linux-gnu/4.8/../../../i386-linux-gnu/crti.o
 .rel.text.process_thread_resolv_process
                0x000000000000df00      0x130 /usr/lib/gcc/i686-linux-gnu/4.8/../../../i386-linux-gnu/crti.o
 .rel.text.remove_trailing_dots
                0x000000000000e030       0x30 /usr/lib/gcc/i686-linux-gnu/4.8/../../../i386-linux-gnu/crti.o
 .rel.text.resolv_query
                0x000000000000e060       0xb8 /usr/lib/gcc/i686-linux-gnu/4.8/../../../i386-linux-gnu/crti.o
 .rel.text.resolv_lookup
                0x000000000000e118       0x20 /usr/lib/gcc/i686-linux-gnu/4.8/../../../i386-linux-gnu/crti.o
 .rel.text.resolv_found
                0x000000000000e138       0xd8 /usr/lib/gcc/i686-linux-gnu/4.8/../../../i386-linux-gnu/crti.o
 .rel.text.tcpip_output
                0x000000000000e210       0x10 /usr/lib/gcc/i686-linux-gnu/4.8/../../../i386-linux-gnu/crti.o
 .rel.text.tcpip_set_outputfunc
                0x000000000000e220        0x8 /usr/lib/gcc/i686-linux-gnu/4.8/../../../i386-linux-gnu/crti.o
 .rel.text.start_periodic_tcp_timer
                0x000000000000e228       0x20 /usr/lib/gcc/i686-linux-gnu/4.8/../../../i386-linux-gnu/crti.o
 .rel.text.check_for_tcp_syn
                0x000000000000e248       0x10 /usr/lib/gcc/i686-linux-gnu/4.8/../../../i386-linux-gnu/crti.o
 .rel.text.packet_input
                0x000000000000e258       0x98 /usr/lib/gcc/i686-linux-gnu/4.8/../../../i386-linux-gnu/crti.o
 .rel.text.tcp_connect
                0x000000000000e2f0       0x18 /usr/lib/gcc/i686-linux-gnu/4.8/../../../i386-linux-gnu/crti.o
 .rel.text.tcp_unlisten
                0x000000000000e308       0x18 /usr/lib/gcc/i686-linux-gnu/4.8/../../../i386-linux-gnu/crti.o
 .rel.text.tcp_listen
                0x000000000000e320       0x18 /usr/lib/gcc/i686-linux-gnu/4.8/../../../i386-linux-gnu/crti.o
 .rel.text.tcp_attach
                0x000000000000e338        0x8 /usr/lib/gcc/i686-linux-gnu/4.8/../../../i386-linux-gnu/crti.o
 .rel.text.udp_attach
                0x000000000000e340        0x8 /usr/lib/gcc/i686-linux-gnu/4.8/../../../i386-linux-gnu/crti.o
 .rel.text.udp_new
                0x000000000000e348       0x10 /usr/lib/gcc/i686-linux-gnu/4.8/../../../i386-linux-gnu/crti.o
 .rel.text.udp_broadcast_new
                0x000000000000e358       0x10 /usr/lib/gcc/i686-linux-gnu/4.8/../../../i386-linux-gnu/crti.o
 .rel.text.eventhandler
                0x000000000000e368       0xd8 /usr/lib/gcc/i686-linux-gnu/4.8/../../../i386-linux-gnu/crti.o
 .rel.text.tcpip_input
                0x000000000000e440       0x20 /usr/lib/gcc/i686-linux-gnu/4.8/../../../i386-linux-gnu/crti.o
 .rel.text.tcpip_ipv6_output
                0x000000000000e460      0x290 /usr/lib/gcc/i686-linux-gnu/4.8/../../../i386-linux-gnu/crti.o
 .rel.text.tcpip_poll_udp
                0x000000000000e6f0       0x10 /usr/lib/gcc/i686-linux-gnu/4.8/../../../i386-linux-gnu/crti.o
 .rel.text.tcpip_poll_tcp
                0x000000000000e700       0x10 /usr/lib/gcc/i686-linux-gnu/4.8/../../../i386-linux-gnu/crti.o
 .rel.text.tcpip_uipcall
                0x000000000000e710       0x40 /usr/lib/gcc/i686-linux-gnu/4.8/../../../i386-linux-gnu/crti.o
 .rel.text.process_thread_tcpip_process
                0x000000000000e750       0x48 /usr/lib/gcc/i686-linux-gnu/4.8/../../../i386-linux-gnu/crti.o
 .rel.text.uip_debug_ipaddr_print
                0x000000000000e798       0x50 /usr/lib/gcc/i686-linux-gnu/4.8/../../../i386-linux-gnu/crti.o
 .rel.text.uip_nameserver_update
                0x000000000000e7e8       0x28 /usr/lib/gcc/i686-linux-gnu/4.8/../../../i386-linux-gnu/crti.o
 .rel.text.uip_nameserver_get
                0x000000000000e810        0x8 /usr/lib/gcc/i686-linux-gnu/4.8/../../../i386-linux-gnu/crti.o
 .rel.text.uip_nameserver_next_expiration
                0x000000000000e818        0x8 /usr/lib/gcc/i686-linux-gnu/4.8/../../../i386-linux-gnu/crti.o
 .rel.text.uip_nameserver_count
                0x000000000000e820       0x40 /usr/lib/gcc/i686-linux-gnu/4.8/../../../i386-linux-gnu/crti.o
 .rel.text.packet_timedout
                0x000000000000e860       0x10 /usr/lib/gcc/i686-linux-gnu/4.8/../../../i386-linux-gnu/crti.o
 .rel.text.uip_packetqueue_alloc
                0x000000000000e870       0x20 /usr/lib/gcc/i686-linux-gnu/4.8/../../../i386-linux-gnu/crti.o
 .rel.text.uip_packetqueue_free
                0x000000000000e890       0x18 /usr/lib/gcc/i686-linux-gnu/4.8/../../../i386-linux-gnu/crti.o
 .rel.text.uip_udp_packet_send
                0x000000000000e8a8       0x38 /usr/lib/gcc/i686-linux-gnu/4.8/../../../i386-linux-gnu/crti.o
 .rel.text.uip_udp_packet_sendto
                0x000000000000e8e0       0x10 /usr/lib/gcc/i686-linux-gnu/4.8/../../../i386-linux-gnu/crti.o
 .rel.text.rpl_print_neighbor_list
                0x000000000000e8f0       0xc8 /usr/lib/gcc/i686-linux-gnu/4.8/../../../i386-linux-gnu/crti.o
 .rel.text.rpl_get_nbr
                0x000000000000e9b8       0x18 /usr/lib/gcc/i686-linux-gnu/4.8/../../../i386-linux-gnu/crti.o
 .rel.text.nbr_callback
                0x000000000000e9d0        0x8 /usr/lib/gcc/i686-linux-gnu/4.8/../../../i386-linux-gnu/crti.o
 .rel.text.rpl_dag_init
                0x000000000000e9d8       0x18 /usr/lib/gcc/i686-linux-gnu/4.8/../../../i386-linux-gnu/crti.o
 .rel.text.rpl_get_parent
                0x000000000000e9f0       0x10 /usr/lib/gcc/i686-linux-gnu/4.8/../../../i386-linux-gnu/crti.o
 .rel.text.rpl_get_parent_rank
                0x000000000000ea00       0x10 /usr/lib/gcc/i686-linux-gnu/4.8/../../../i386-linux-gnu/crti.o
 .rel.text.rpl_get_parent_lladdr
                0x000000000000ea10       0x10 /usr/lib/gcc/i686-linux-gnu/4.8/../../../i386-linux-gnu/crti.o
 .rel.text.rpl_get_parent_ipaddr
                0x000000000000ea20       0x10 /usr/lib/gcc/i686-linux-gnu/4.8/../../../i386-linux-gnu/crti.o
 .rel.text.rpl_get_parent_link_stats
                0x000000000000ea30       0x10 /usr/lib/gcc/i686-linux-gnu/4.8/../../../i386-linux-gnu/crti.o
 .rel.text.rpl_parent_is_fresh
                0x000000000000ea40       0x10 /usr/lib/gcc/i686-linux-gnu/4.8/../../../i386-linux-gnu/crti.o
 .rel.text.rpl_parent_is_reachable
                0x000000000000ea50       0x10 /usr/lib/gcc/i686-linux-gnu/4.8/../../../i386-linux-gnu/crti.o
 .rel.text.rpl_set_preferred_parent
                0x000000000000ea60       0x20 /usr/lib/gcc/i686-linux-gnu/4.8/../../../i386-linux-gnu/crti.o
 .rel.text.remove_parents
                0x000000000000ea80       0x28 /usr/lib/gcc/i686-linux-gnu/4.8/../../../i386-linux-gnu/crti.o
 .rel.text.nullify_parents
                0x000000000000eaa8       0x28 /usr/lib/gcc/i686-linux-gnu/4.8/../../../i386-linux-gnu/crti.o
 .rel.text.get_dag
                0x000000000000ead0       0x10 /usr/lib/gcc/i686-linux-gnu/4.8/../../../i386-linux-gnu/crti.o
 .rel.text.rpl_set_root
                0x000000000000eae0       0x48 /usr/lib/gcc/i686-linux-gnu/4.8/../../../i386-linux-gnu/crti.o
 .rel.text.rpl_repair_root
                0x000000000000eb28       0x10 /usr/lib/gcc/i686-linux-gnu/4.8/../../../i386-linux-gnu/crti.o
 .rel.text.set_ip_from_prefix
                0x000000000000eb38       0x20 /usr/lib/gcc/i686-linux-gnu/4.8/../../../i386-linux-gnu/crti.o
 .rel.text.check_prefix
                0x000000000000eb58       0x30 /usr/lib/gcc/i686-linux-gnu/4.8/../../../i386-linux-gnu/crti.o
 .rel.text.rpl_set_prefix
                0x000000000000eb88       0x20 /usr/lib/gcc/i686-linux-gnu/4.8/../../../i386-linux-gnu/crti.o
 .rel.text.rpl_set_default_route
                0x000000000000eba8       0x10 /usr/lib/gcc/i686-linux-gnu/4.8/../../../i386-linux-gnu/crti.o
 .rel.text.rpl_alloc_instance
                0x000000000000ebb8       0x18 /usr/lib/gcc/i686-linux-gnu/4.8/../../../i386-linux-gnu/crti.o
 .rel.text.rpl_alloc_dag
                0x000000000000ebd0       0x18 /usr/lib/gcc/i686-linux-gnu/4.8/../../../i386-linux-gnu/crti.o
 .rel.text.rpl_set_default_instance
                0x000000000000ebe8        0x8 /usr/lib/gcc/i686-linux-gnu/4.8/../../../i386-linux-gnu/crti.o
 .rel.text.rpl_get_default_instance
                0x000000000000ebf0        0x8 /usr/lib/gcc/i686-linux-gnu/4.8/../../../i386-linux-gnu/crti.o
 .rel.text.rpl_free_instance
                0x000000000000ebf8       0x40 /usr/lib/gcc/i686-linux-gnu/4.8/../../../i386-linux-gnu/crti.o
 .rel.text.rpl_free_dag
                0x000000000000ec38        0x8 /usr/lib/gcc/i686-linux-gnu/4.8/../../../i386-linux-gnu/crti.o
 .rel.text.rpl_add_parent
                0x000000000000ec40       0x18 /usr/lib/gcc/i686-linux-gnu/4.8/../../../i386-linux-gnu/crti.o
 .rel.text.find_parent_any_dag_any_instance
                0x000000000000ec58       0x20 /usr/lib/gcc/i686-linux-gnu/4.8/../../../i386-linux-gnu/crti.o
 .rel.text.rpl_select_dag
                0x000000000000ec78       0x48 /usr/lib/gcc/i686-linux-gnu/4.8/../../../i386-linux-gnu/crti.o
 .rel.text.best_parent
                0x000000000000ecc0       0x30 /usr/lib/gcc/i686-linux-gnu/4.8/../../../i386-linux-gnu/crti.o
 .rel.text.rpl_select_parent
                0x000000000000ecf0       0x18 /usr/lib/gcc/i686-linux-gnu/4.8/../../../i386-linux-gnu/crti.o
 .rel.text.rpl_remove_parent
                0x000000000000ed08       0x18 /usr/lib/gcc/i686-linux-gnu/4.8/../../../i386-linux-gnu/crti.o
 .rel.text.rpl_nullify_parent
                0x000000000000ed20       0x10 /usr/lib/gcc/i686-linux-gnu/4.8/../../../i386-linux-gnu/crti.o
 .rel.text.rpl_move_parent
                0x000000000000ed30       0x18 /usr/lib/gcc/i686-linux-gnu/4.8/../../../i386-linux-gnu/crti.o
 .rel.text.rpl_has_downward_route
                0x000000000000ed48       0x10 /usr/lib/gcc/i686-linux-gnu/4.8/../../../i386-linux-gnu/crti.o
 .rel.text.rpl_get_dag
                0x000000000000ed58       0x30 /usr/lib/gcc/i686-linux-gnu/4.8/../../../i386-linux-gnu/crti.o
 .rel.text.rpl_get_any_dag
                0x000000000000ed88       0x18 /usr/lib/gcc/i686-linux-gnu/4.8/../../../i386-linux-gnu/crti.o
 .rel.text.rpl_get_instance
                0x000000000000eda0       0x18 /usr/lib/gcc/i686-linux-gnu/4.8/../../../i386-linux-gnu/crti.o
 .rel.text.rpl_find_of
                0x000000000000edb8       0x10 /usr/lib/gcc/i686-linux-gnu/4.8/../../../i386-linux-gnu/crti.o
 .rel.text.rpl_join_instance
                0x000000000000edc8       0x58 /usr/lib/gcc/i686-linux-gnu/4.8/../../../i386-linux-gnu/crti.o
 .rel.text.rpl_add_dag
                0x000000000000ee20       0x50 /usr/lib/gcc/i686-linux-gnu/4.8/../../../i386-linux-gnu/crti.o
 .rel.text.global_repair
                0x000000000000ee70       0x18 /usr/lib/gcc/i686-linux-gnu/4.8/../../../i386-linux-gnu/crti.o
 .rel.text.rpl_local_repair
                0x000000000000ee88        0x8 /usr/lib/gcc/i686-linux-gnu/4.8/../../../i386-linux-gnu/crti.o
 .rel.text.rpl_recalculate_ranks
                0x000000000000ee90       0x28 /usr/lib/gcc/i686-linux-gnu/4.8/../../../i386-linux-gnu/crti.o
 .rel.text.rpl_process_parent_event
                0x000000000000eeb8       0x40 /usr/lib/gcc/i686-linux-gnu/4.8/../../../i386-linux-gnu/crti.o
 .rel.text.add_nbr_from_dio
                0x000000000000eef8        0x8 /usr/lib/gcc/i686-linux-gnu/4.8/../../../i386-linux-gnu/crti.o
 .rel.text.rpl_process_dio
                0x000000000000ef00       0x78 /usr/lib/gcc/i686-linux-gnu/4.8/../../../i386-linux-gnu/crti.o
 .rel.text.rpl_verify_hbh_header
                0x000000000000ef78      0x108 /usr/lib/gcc/i686-linux-gnu/4.8/../../../i386-linux-gnu/crti.o
 .rel.text.update_hbh_header
                0x000000000000f080      0x138 /usr/lib/gcc/i686-linux-gnu/4.8/../../../i386-linux-gnu/crti.o
 .rel.text.insert_hbh_header
                0x000000000000f1b8      0x128 /usr/lib/gcc/i686-linux-gnu/4.8/../../../i386-linux-gnu/crti.o
 .rel.text.rpl_remove_header
                0x000000000000f2e0       0xc8 /usr/lib/gcc/i686-linux-gnu/4.8/../../../i386-linux-gnu/crti.o
 .rel.text.rpl_update_header
                0x000000000000f3a8       0x80 /usr/lib/gcc/i686-linux-gnu/4.8/../../../i386-linux-gnu/crti.o
 .rel.text.prepare_for_dao_fwd
                0x000000000000f428       0x38 /usr/lib/gcc/i686-linux-gnu/4.8/../../../i386-linux-gnu/crti.o
 .rel.text.get_global_addr
                0x000000000000f460       0x30 /usr/lib/gcc/i686-linux-gnu/4.8/../../../i386-linux-gnu/crti.o
 .rel.text.rpl_icmp6_update_nbr_table
                0x000000000000f490       0x10 /usr/lib/gcc/i686-linux-gnu/4.8/../../../i386-linux-gnu/crti.o
 .rel.text.dis_input
                0x000000000000f4a0       0x48 /usr/lib/gcc/i686-linux-gnu/4.8/../../../i386-linux-gnu/crti.o
 .rel.text.dis_output
                0x000000000000f4e8       0x20 /usr/lib/gcc/i686-linux-gnu/4.8/../../../i386-linux-gnu/crti.o
 .rel.text.dio_input
                0x000000000000f508       0x58 /usr/lib/gcc/i686-linux-gnu/4.8/../../../i386-linux-gnu/crti.o
 .rel.text.dio_output
                0x000000000000f560       0x40 /usr/lib/gcc/i686-linux-gnu/4.8/../../../i386-linux-gnu/crti.o
 .rel.text.dao_input_storing
                0x000000000000f5a0      0x120 /usr/lib/gcc/i686-linux-gnu/4.8/../../../i386-linux-gnu/crti.o
 .rel.text.dao_input
                0x000000000000f6c0       0x28 /usr/lib/gcc/i686-linux-gnu/4.8/../../../i386-linux-gnu/crti.o
 .rel.text.dao_output
                0x000000000000f6e8       0x38 /usr/lib/gcc/i686-linux-gnu/4.8/../../../i386-linux-gnu/crti.o
 .rel.text.dao_output_target
                0x000000000000f720        0x8 /usr/lib/gcc/i686-linux-gnu/4.8/../../../i386-linux-gnu/crti.o
 .rel.text.dao_output_target_seq
                0x000000000000f728       0x48 /usr/lib/gcc/i686-linux-gnu/4.8/../../../i386-linux-gnu/crti.o
 .rel.text.dao_ack_input
                0x000000000000f770       0x10 /usr/lib/gcc/i686-linux-gnu/4.8/../../../i386-linux-gnu/crti.o
 .rel.text.rpl_icmp6_register_handlers
                0x000000000000f780       0x40 /usr/lib/gcc/i686-linux-gnu/4.8/../../../i386-linux-gnu/crti.o
 .rel.text.parent_link_metric
                0x000000000000f7c0        0x8 /usr/lib/gcc/i686-linux-gnu/4.8/../../../i386-linux-gnu/crti.o
 .rel.text.handle_periodic_timer
                0x000000000000f7c8       0x68 /usr/lib/gcc/i686-linux-gnu/4.8/../../../i386-linux-gnu/crti.o
 .rel.text.new_dio_interval
                0x000000000000f830       0x18 /usr/lib/gcc/i686-linux-gnu/4.8/../../../i386-linux-gnu/crti.o
 .rel.text.handle_dio_timer
                0x000000000000f848       0x40 /usr/lib/gcc/i686-linux-gnu/4.8/../../../i386-linux-gnu/crti.o
 .rel.text.rpl_reset_periodic_timer
                0x000000000000f888       0x28 /usr/lib/gcc/i686-linux-gnu/4.8/../../../i386-linux-gnu/crti.o
 .rel.text.set_dao_lifetime_timer
                0x000000000000f8b0       0x20 /usr/lib/gcc/i686-linux-gnu/4.8/../../../i386-linux-gnu/crti.o
 .rel.text.handle_dao_timer
                0x000000000000f8d0       0x38 /usr/lib/gcc/i686-linux-gnu/4.8/../../../i386-linux-gnu/crti.o
 .rel.text.schedule_dao
                0x000000000000f908       0x30 /usr/lib/gcc/i686-linux-gnu/4.8/../../../i386-linux-gnu/crti.o
 .rel.text.rpl_cancel_dao
                0x000000000000f938       0x10 /usr/lib/gcc/i686-linux-gnu/4.8/../../../i386-linux-gnu/crti.o
 .rel.text.handle_unicast_dio_timer
                0x000000000000f948       0x10 /usr/lib/gcc/i686-linux-gnu/4.8/../../../i386-linux-gnu/crti.o
 .rel.text.rpl_schedule_unicast_dio_immediately
                0x000000000000f958       0x10 /usr/lib/gcc/i686-linux-gnu/4.8/../../../i386-linux-gnu/crti.o
 .rel.text.get_probing_delay
                0x000000000000f968       0x10 /usr/lib/gcc/i686-linux-gnu/4.8/../../../i386-linux-gnu/crti.o
 .rel.text.get_probing_target
                0x000000000000f978       0x70 /usr/lib/gcc/i686-linux-gnu/4.8/../../../i386-linux-gnu/crti.o
 .rel.text.handle_probing_timer
                0x000000000000f9e8       0x28 /usr/lib/gcc/i686-linux-gnu/4.8/../../../i386-linux-gnu/crti.o
 .rel.text.rpl_schedule_probing
                0x000000000000fa10       0x18 /usr/lib/gcc/i686-linux-gnu/4.8/../../../i386-linux-gnu/crti.o
 .rel.text.rpl_get_mode
                0x000000000000fa28        0x8 /usr/lib/gcc/i686-linux-gnu/4.8/../../../i386-linux-gnu/crti.o
 .rel.text.rpl_set_mode
                0x000000000000fa30       0x68 /usr/lib/gcc/i686-linux-gnu/4.8/../../../i386-linux-gnu/crti.o
 .rel.text.rpl_purge_routes
                0x000000000000fa98       0x50 /usr/lib/gcc/i686-linux-gnu/4.8/../../../i386-linux-gnu/crti.o
 .rel.text.rpl_remove_routes
                0x000000000000fae8       0x20 /usr/lib/gcc/i686-linux-gnu/4.8/../../../i386-linux-gnu/crti.o
 .rel.text.rpl_remove_routes_by_nexthop
                0x000000000000fb08       0x20 /usr/lib/gcc/i686-linux-gnu/4.8/../../../i386-linux-gnu/crti.o
 .rel.text.rpl_add_route
                0x000000000000fb28        0x8 /usr/lib/gcc/i686-linux-gnu/4.8/../../../i386-linux-gnu/crti.o
 .rel.text.rpl_link_neighbor_callback
                0x000000000000fb30       0x20 /usr/lib/gcc/i686-linux-gnu/4.8/../../../i386-linux-gnu/crti.o
 .rel.text.rpl_ipv6_neighbor_callback
                0x000000000000fb50       0x10 /usr/lib/gcc/i686-linux-gnu/4.8/../../../i386-linux-gnu/crti.o
 .rel.text.rpl_purge_dags
                0x000000000000fb60       0x10 /usr/lib/gcc/i686-linux-gnu/4.8/../../../i386-linux-gnu/crti.o
 .rel.text.rpl_init
                0x000000000000fb70       0x30 /usr/lib/gcc/i686-linux-gnu/4.8/../../../i386-linux-gnu/crti.o
 .rel.text.link_stats_from_lladdr
                0x000000000000fba0       0x10 /usr/lib/gcc/i686-linux-gnu/4.8/../../../i386-linux-gnu/crti.o
 .rel.text.link_stats_is_fresh
                0x000000000000fbb0        0x8 /usr/lib/gcc/i686-linux-gnu/4.8/../../../i386-linux-gnu/crti.o
 .rel.text.link_stats_packet_sent
                0x000000000000fbb8       0x30 /usr/lib/gcc/i686-linux-gnu/4.8/../../../i386-linux-gnu/crti.o
 .rel.text.link_stats_input_callback
                0x000000000000fbe8       0x20 /usr/lib/gcc/i686-linux-gnu/4.8/../../../i386-linux-gnu/crti.o
 .rel.text.periodic
                0x000000000000fc08       0x30 /usr/lib/gcc/i686-linux-gnu/4.8/../../../i386-linux-gnu/crti.o
 .rel.text.link_stats_init
                0x000000000000fc38       0x28 /usr/lib/gcc/i686-linux-gnu/4.8/../../../i386-linux-gnu/crti.o
 .rel.text.linkaddr_copy
                0x000000000000fc60        0x8 /usr/lib/gcc/i686-linux-gnu/4.8/../../../i386-linux-gnu/crti.o
 .rel.text.linkaddr_cmp
                0x000000000000fc68        0x8 /usr/lib/gcc/i686-linux-gnu/4.8/../../../i386-linux-gnu/crti.o
 .rel.text.linkaddr_set_node_addr
                0x000000000000fc70       0x10 /usr/lib/gcc/i686-linux-gnu/4.8/../../../i386-linux-gnu/crti.o
 .rel.text.key_from_index
                0x000000000000fc80        0x8 /usr/lib/gcc/i686-linux-gnu/4.8/../../../i386-linux-gnu/crti.o
 .rel.text.index_from_key
                0x000000000000fc88        0x8 /usr/lib/gcc/i686-linux-gnu/4.8/../../../i386-linux-gnu/crti.o
 .rel.text.index_from_lladdr
                0x000000000000fc90       0x28 /usr/lib/gcc/i686-linux-gnu/4.8/../../../i386-linux-gnu/crti.o
 .rel.text.remove_key
                0x000000000000fcb8       0x48 /usr/lib/gcc/i686-linux-gnu/4.8/../../../i386-linux-gnu/crti.o
 .rel.text.nbr_table_allocate
                0x000000000000fd00       0x50 /usr/lib/gcc/i686-linux-gnu/4.8/../../../i386-linux-gnu/crti.o
 .rel.text.nbr_table_register
                0x000000000000fd50       0x20 /usr/lib/gcc/i686-linux-gnu/4.8/../../../i386-linux-gnu/crti.o
 .rel.text.nbr_table_head
                0x000000000000fd70       0x20 /usr/lib/gcc/i686-linux-gnu/4.8/../../../i386-linux-gnu/crti.o
 .rel.text.nbr_table_next
                0x000000000000fd90       0x10 /usr/lib/gcc/i686-linux-gnu/4.8/../../../i386-linux-gnu/crti.o
 .rel.text.nbr_table_add_lladdr
                0x000000000000fda0       0x30 /usr/lib/gcc/i686-linux-gnu/4.8/../../../i386-linux-gnu/crti.o
 .rel.text.nbr_table_get_from_lladdr
                0x000000000000fdd0        0x8 /usr/lib/gcc/i686-linux-gnu/4.8/../../../i386-linux-gnu/crti.o
 .rel.text.nbr_table_remove
                0x000000000000fdd8       0x10 /usr/lib/gcc/i686-linux-gnu/4.8/../../../i386-linux-gnu/crti.o
 .rel.text.nbr_table_lock
                0x000000000000fde8        0x8 /usr/lib/gcc/i686-linux-gnu/4.8/../../../i386-linux-gnu/crti.o
 .rel.text.nbr_table_unlock
                0x000000000000fdf0        0x8 /usr/lib/gcc/i686-linux-gnu/4.8/../../../i386-linux-gnu/crti.o
 .rel.text.nbr_table_update_lladdr
                0x000000000000fdf8        0x8 /usr/lib/gcc/i686-linux-gnu/4.8/../../../i386-linux-gnu/crti.o
 .rel.text.netstack_init
                0x000000000000fe00       0x28 /usr/lib/gcc/i686-linux-gnu/4.8/../../../i386-linux-gnu/crti.o
 .rel.text.packetbuf_clear
                0x000000000000fe28       0x28 /usr/lib/gcc/i686-linux-gnu/4.8/../../../i386-linux-gnu/crti.o
 .rel.text.packetbuf_copyfrom
                0x000000000000fe50       0x20 /usr/lib/gcc/i686-linux-gnu/4.8/../../../i386-linux-gnu/crti.o
 .rel.text.packetbuf_compact
                0x000000000000fe70       0x38 /usr/lib/gcc/i686-linux-gnu/4.8/../../../i386-linux-gnu/crti.o
 .rel.text.packetbuf_copyto
                0x000000000000fea8       0x58 /usr/lib/gcc/i686-linux-gnu/4.8/../../../i386-linux-gnu/crti.o
 .rel.text.packetbuf_hdralloc
                0x000000000000ff00       0x30 /usr/lib/gcc/i686-linux-gnu/4.8/../../../i386-linux-gnu/crti.o
 .rel.text.packetbuf_hdrreduce
                0x000000000000ff30       0x28 /usr/lib/gcc/i686-linux-gnu/4.8/../../../i386-linux-gnu/crti.o
 .rel.text.packetbuf_set_datalen
                0x000000000000ff58        0x8 /usr/lib/gcc/i686-linux-gnu/4.8/../../../i386-linux-gnu/crti.o
 .rel.text.packetbuf_dataptr
                0x000000000000ff60       0x10 /usr/lib/gcc/i686-linux-gnu/4.8/../../../i386-linux-gnu/crti.o
 .rel.text.packetbuf_hdrptr
                0x000000000000ff70        0x8 /usr/lib/gcc/i686-linux-gnu/4.8/../../../i386-linux-gnu/crti.o
 .rel.text.packetbuf_datalen
                0x000000000000ff78        0x8 /usr/lib/gcc/i686-linux-gnu/4.8/../../../i386-linux-gnu/crti.o
 .rel.text.packetbuf_hdrlen
                0x000000000000ff80       0x10 /usr/lib/gcc/i686-linux-gnu/4.8/../../../i386-linux-gnu/crti.o
 .rel.text.packetbuf_totlen
                0x000000000000ff90       0x10 /usr/lib/gcc/i686-linux-gnu/4.8/../../../i386-linux-gnu/crti.o
 .rel.text.packetbuf_remaininglen
                0x000000000000ffa0        0x8 /usr/lib/gcc/i686-linux-gnu/4.8/../../../i386-linux-gnu/crti.o
 .rel.text.packetbuf_attr_clear
                0x000000000000ffa8       0x28 /usr/lib/gcc/i686-linux-gnu/4.8/../../../i386-linux-gnu/crti.o
 .rel.text.packetbuf_attr_copyto
                0x000000000000ffd0       0x30 /usr/lib/gcc/i686-linux-gnu/4.8/../../../i386-linux-gnu/crti.o
 .rel.text.packetbuf_attr_copyfrom
                0x0000000000010000       0x30 /usr/lib/gcc/i686-linux-gnu/4.8/../../../i386-linux-gnu/crti.o
 .rel.text.packetbuf_holds_broadcast
                0x0000000000010030       0x18 /usr/lib/gcc/i686-linux-gnu/4.8/../../../i386-linux-gnu/crti.o
 .rel.text.queuebuf_init
                0x0000000000010048       0x20 /usr/lib/gcc/i686-linux-gnu/4.8/../../../i386-linux-gnu/crti.o
 .rel.text.queuebuf_numfree
                0x0000000000010068       0x10 /usr/lib/gcc/i686-linux-gnu/4.8/../../../i386-linux-gnu/crti.o
 .rel.text.queuebuf_new_from_packetbuf
                0x0000000000010078       0x40 /usr/lib/gcc/i686-linux-gnu/4.8/../../../i386-linux-gnu/crti.o
 .rel.text.queuebuf_update_attr_from_packetbuf
                0x00000000000100b8        0x8 /usr/lib/gcc/i686-linux-gnu/4.8/../../../i386-linux-gnu/crti.o
 .rel.text.queuebuf_update_from_packetbuf
                0x00000000000100c0       0x10 /usr/lib/gcc/i686-linux-gnu/4.8/../../../i386-linux-gnu/crti.o
 .rel.text.queuebuf_free
                0x00000000000100d0       0x30 /usr/lib/gcc/i686-linux-gnu/4.8/../../../i386-linux-gnu/crti.o
 .rel.text.queuebuf_to_packetbuf
                0x0000000000010100       0x20 /usr/lib/gcc/i686-linux-gnu/4.8/../../../i386-linux-gnu/crti.o
 .rel.text.queuebuf_dataptr
                0x0000000000010120       0x10 /usr/lib/gcc/i686-linux-gnu/4.8/../../../i386-linux-gnu/crti.o
 .rel.text.neighbor_queue_from_addr
                0x0000000000010130       0x20 /usr/lib/gcc/i686-linux-gnu/4.8/../../../i386-linux-gnu/crti.o
 .rel.text.backoff_period
                0x0000000000010150        0x8 /usr/lib/gcc/i686-linux-gnu/4.8/../../../i386-linux-gnu/crti.o
 .rel.text.transmit_packet_list
                0x0000000000010158       0x18 /usr/lib/gcc/i686-linux-gnu/4.8/../../../i386-linux-gnu/crti.o
 .rel.text.schedule_transmission
                0x0000000000010170       0x18 /usr/lib/gcc/i686-linux-gnu/4.8/../../../i386-linux-gnu/crti.o
 .rel.text.free_packet
                0x0000000000010188       0x60 /usr/lib/gcc/i686-linux-gnu/4.8/../../../i386-linux-gnu/crti.o
 .rel.text.tx_done
                0x00000000000101e8        0x8 /usr/lib/gcc/i686-linux-gnu/4.8/../../../i386-linux-gnu/crti.o
 .rel.text.rexmit
                0x00000000000101f0        0x8 /usr/lib/gcc/i686-linux-gnu/4.8/../../../i386-linux-gnu/crti.o
 .rel.text.input_packet
                0x00000000000101f8        0x8 /usr/lib/gcc/i686-linux-gnu/4.8/../../../i386-linux-gnu/crti.o
 .rel.text.on   0x0000000000010200       0x10 /usr/lib/gcc/i686-linux-gnu/4.8/../../../i386-linux-gnu/crti.o
 .rel.text.off  0x0000000000010210       0x18 /usr/lib/gcc/i686-linux-gnu/4.8/../../../i386-linux-gnu/crti.o
 .rel.text.channel_check_interval
                0x0000000000010228       0x10 /usr/lib/gcc/i686-linux-gnu/4.8/../../../i386-linux-gnu/crti.o
 .rel.text.create_frame
                0x0000000000010238       0xc0 /usr/lib/gcc/i686-linux-gnu/4.8/../../../i386-linux-gnu/crti.o
 .rel.text.parse
                0x00000000000102f8       0x38 /usr/lib/gcc/i686-linux-gnu/4.8/../../../i386-linux-gnu/crti.o
 .rel.text.send_one_packet
                0x0000000000010330       0xd0 /usr/lib/gcc/i686-linux-gnu/4.8/../../../i386-linux-gnu/crti.o
 .rel.text.send_list
                0x0000000000010400        0x8 /usr/lib/gcc/i686-linux-gnu/4.8/../../../i386-linux-gnu/crti.o
 .rel.text.send
                0x0000000000010408        0x8 /usr/lib/gcc/i686-linux-gnu/4.8/../../../i386-linux-gnu/crti.o
 .rel.text.stimer_set
                0x0000000000010410        0x8 /usr/lib/gcc/i686-linux-gnu/4.8/../../../i386-linux-gnu/crti.o
 .rel.text.stimer_restart
                0x0000000000010418        0x8 /usr/lib/gcc/i686-linux-gnu/4.8/../../../i386-linux-gnu/crti.o
 .rel.text.stimer_expired
                0x0000000000010420        0x8 /usr/lib/gcc/i686-linux-gnu/4.8/../../../i386-linux-gnu/crti.o
 .rel.text.stimer_remaining
                0x0000000000010428        0x8 /usr/lib/gcc/i686-linux-gnu/4.8/../../../i386-linux-gnu/crti.o
 .rel.text.stimer_elapsed
                0x0000000000010430        0x8 /usr/lib/gcc/i686-linux-gnu/4.8/../../../i386-linux-gnu/crti.o
 .rel.text.input_handler_lookup
                0x0000000000010438       0x18 /usr/lib/gcc/i686-linux-gnu/4.8/../../../i386-linux-gnu/crti.o
 .rel.text.uip_icmp6_register_input_handler
                0x0000000000010450       0x10 /usr/lib/gcc/i686-linux-gnu/4.8/../../../i386-linux-gnu/crti.o
 .rel.text.echo_request_input
                0x0000000000010460      0x160 /usr/lib/gcc/i686-linux-gnu/4.8/../../../i386-linux-gnu/crti.o
 .rel.text.uip_icmp6_error_output
                0x00000000000105c0      0x250 /usr/lib/gcc/i686-linux-gnu/4.8/../../../i386-linux-gnu/crti.o
 .rel.text.uip_icmp6_send
                0x0000000000010810       0xc0 /usr/lib/gcc/i686-linux-gnu/4.8/../../../i386-linux-gnu/crti.o
 .rel.text.echo_reply_input
                0x00000000000108d0       0xd0 /usr/lib/gcc/i686-linux-gnu/4.8/../../../i386-linux-gnu/crti.o
 .rel.text.uip_icmp6_echo_reply_callback_add
                0x00000000000109a0       0x10 /usr/lib/gcc/i686-linux-gnu/4.8/../../../i386-linux-gnu/crti.o
 .rel.text.uip_icmp6_echo_reply_callback_rm
                0x00000000000109b0       0x10 /usr/lib/gcc/i686-linux-gnu/4.8/../../../i386-linux-gnu/crti.o
 .rel.text.uip_icmp6_init
                0x00000000000109c0       0x20 /usr/lib/gcc/i686-linux-gnu/4.8/../../../i386-linux-gnu/crti.o
 .rel.text.update_nbr
                0x00000000000109e0       0xe0 /usr/lib/gcc/i686-linux-gnu/4.8/../../../i386-linux-gnu/crti.o
 .rel.text.find_removable_dis
                0x0000000000010ac0       0x10 /usr/lib/gcc/i686-linux-gnu/4.8/../../../i386-linux-gnu/crti.o
 .rel.text.find_removable_dio
                0x0000000000010ad0       0x18 /usr/lib/gcc/i686-linux-gnu/4.8/../../../i386-linux-gnu/crti.o
 .rel.text.find_removable_dao
                0x0000000000010ae8       0x10 /usr/lib/gcc/i686-linux-gnu/4.8/../../../i386-linux-gnu/crti.o
 .rel.text.rpl_nbr_policy_find_removable
                0x0000000000010af8       0x30 /usr/lib/gcc/i686-linux-gnu/4.8/../../../i386-linux-gnu/crti.o
 .rel.text.frame802154_get_pan_id
                0x0000000000010b28        0x8 /usr/lib/gcc/i686-linux-gnu/4.8/../../../i386-linux-gnu/crti.o
 .rel.text.frame802154_set_pan_id
                0x0000000000010b30        0x8 /usr/lib/gcc/i686-linux-gnu/4.8/../../../i386-linux-gnu/crti.o
 .rel.text.frame802154_check_dest_panid
                0x0000000000010b38       0x10 /usr/lib/gcc/i686-linux-gnu/4.8/../../../i386-linux-gnu/crti.o
 .rel.text.frame802154_extract_linkaddr
                0x0000000000010b48       0x40 /usr/lib/gcc/i686-linux-gnu/4.8/../../../i386-linux-gnu/crti.o
 .rel.text.field_len
                0x0000000000010b88       0x10 /usr/lib/gcc/i686-linux-gnu/4.8/../../../i386-linux-gnu/crti.o
 .rel.text.frame802154_create
                0x0000000000010b98        0x8 /usr/lib/gcc/i686-linux-gnu/4.8/../../../i386-linux-gnu/crti.o
 .rel.text.frame802154_parse
                0x0000000000010ba0       0x50 /usr/lib/gcc/i686-linux-gnu/4.8/../../../i386-linux-gnu/crti.o
 .rel.text.mac_sequence_is_duplicate
                0x0000000000010bf0       0x28 /usr/lib/gcc/i686-linux-gnu/4.8/../../../i386-linux-gnu/crti.o
 .rel.text.mac_sequence_register_seqno
                0x0000000000010c18       0x48 /usr/lib/gcc/i686-linux-gnu/4.8/../../../i386-linux-gnu/crti.o
 *(.rel.fini)
 .rel.fini      0x0000000000000000        0x0 /usr/lib/gcc/i686-linux-gnu/4.8/../../../i386-linux-gnu/crti.o
 *(.rel.rodata .rel.rodata.* .rel.gnu.linkonce.r.*)
 .rel.rodata    0x0000000000010c60      0x638 /usr/lib/gcc/i686-linux-gnu/4.8/../../../i386-linux-gnu/crti.o
 *(.rel.data.rel.ro .rel.data.rel.ro.* .rel.gnu.linkonce.d.rel.ro.*)
 *(.rel.data .rel.data.* .rel.gnu.linkonce.d.*)
 .rel.data.rel  0x0000000000011298        0x8 /usr/lib/gcc/i686-linux-gnu/4.8/../../../i386-linux-gnu/crti.o
 .rel.data      0x00000000000112a0      0x370 /usr/lib/gcc/i686-linux-gnu/4.8/../../../i386-linux-gnu/crti.o
 *(.rel.tdata .rel.tdata.* .rel.gnu.linkonce.td.*)
 *(.rel.tbss .rel.tbss.* .rel.gnu.linkonce.tb.*)
 *(.rel.ctors)
 *(.rel.dtors)
 *(.rel.got)
 .rel.got       0x0000000000011610       0x28 /usr/lib/gcc/i686-linux-gnu/4.8/../../../i386-linux-gnu/crti.o
 *(.rel.bss .rel.bss.* .rel.gnu.linkonce.b.*)
 *(.rel.ifunc)
 .rel.ifunc     0x0000000000000000        0x0 /usr/lib/gcc/i686-linux-gnu/4.8/../../../i386-linux-gnu/crti.o
 .rel.fini_array
                0x0000000000011638        0x8 /usr/lib/gcc/i686-linux-gnu/4.8/../../../i386-linux-gnu/crti.o
 .rel.init_array
                0x0000000000011640        0x8 /usr/lib/gcc/i686-linux-gnu/4.8/../../../i386-linux-gnu/crti.o

.rel.plt        0x0000000000011648       0x10
 *(.rel.plt)
 .rel.plt       0x0000000000011648       0x10 /usr/lib/gcc/i686-linux-gnu/4.8/../../../i386-linux-gnu/crti.o
 *(.rel.iplt)

.init           0x0000000000011658       0x23
 *(SORT(.init))
 .init          0x0000000000011658       0x1e /usr/lib/gcc/i686-linux-gnu/4.8/../../../i386-linux-gnu/crti.o
                0x0000000000011658                _init
 .init          0x0000000000011676        0x5 /usr/lib/gcc/i686-linux-gnu/4.8/../../../i386-linux-gnu/crtn.o

.plt            0x0000000000011680       0x30
 *(.plt)
 .plt           0x0000000000011680       0x30 /usr/lib/gcc/i686-linux-gnu/4.8/../../../i386-linux-gnu/crti.o
 *(.iplt)

.text           0x00000000000116b0    0x20f57
 *(.text.unlikely .text.*_unlikely .text.unlikely.*)
 *(.text.exit .text.exit.*)
 *(.text.startup .text.startup.*)
 *(.text.hot .text.hot.*)
 *(.text .stub .text.* .gnu.linkonce.t.*)
 .text          0x00000000000116b0        0x0 /usr/lib/gcc/i686-linux-gnu/4.8/../../../i386-linux-gnu/crti.o
 .gnu.linkonce.t.__x86.get_pc_thunk.bx
                0x00000000000116b0        0x4 /usr/lib/gcc/i686-linux-gnu/4.8/../../../i386-linux-gnu/crti.o
                0x00000000000116b0                __x86.get_pc_thunk.bx
 *fill*         0x00000000000116b4        0xc 
 .text          0x00000000000116c0      0x11b /usr/lib/gcc/i686-linux-gnu/4.8/crtbeginS.o
 .text          0x00000000000117db        0x0 sensor.co
 .text.dtls_alert_create
                0x00000000000117db       0x10 sensor.co
 .text.dtls_alert_fatal_create
                0x00000000000117eb       0x1b sensor.co
 .text.dtls_set_handler
                0x0000000000011806        0xe sensor.co
 .text.read_from_peer
                0x0000000000011814      0x1ef sensor.co
 .text.send_to_peer
                0x0000000000011a03       0xcd sensor.co
 .text.get_psk_info
                0x0000000000011ad0      0x15e sensor.co
 .text.print_local_addresses
                0x0000000000011c2e       0x80 sensor.co
 .text.dtls_handle_read
                0x0000000000011cae      0x105 sensor.co
 .text.cfs_prepare_data
                0x0000000000011db3      0x1b0 sensor.co
                0x0000000000011db3                cfs_prepare_data
 .text.dtls_complete
                0x0000000000011f63       0x44 sensor.co
 .text.init_dtls
                0x0000000000011fa7       0x7c sensor.co
                0x0000000000011fa7                init_dtls
 .text.process_thread_udp_server_process
                0x0000000000012023      0x147 sensor.co
 .text          0x000000000001216a        0x0 obj_cooja/mtype645.o
 .text.print_processes
                0x000000000001216a       0x47 obj_cooja/mtype645.o
 .text.rtimer_thread_loop
                0x00000000000121b1       0x12 obj_cooja/mtype645.o
 .text.set_rime_addr
                0x00000000000121c3       0xdd obj_cooja/mtype645.o
 .text.contiki_init
                0x00000000000122a0      0x385 obj_cooja/mtype645.o
                0x00000000000122a0                contiki_init
 .text.process_run_thread_loop
                0x0000000000012625       0x6a obj_cooja/mtype645.o
 .text.Java_org_contikios_cooja_corecomm_Lib2_init
                0x000000000001268f       0x40 obj_cooja/mtype645.o
                0x000000000001268f                Java_org_contikios_cooja_corecomm_Lib2_init
 .text.Java_org_contikios_cooja_corecomm_Lib2_getMemory
                0x00000000000126cf       0x40 obj_cooja/mtype645.o
                0x00000000000126cf                Java_org_contikios_cooja_corecomm_Lib2_getMemory
 .text.Java_org_contikios_cooja_corecomm_Lib2_setMemory
                0x000000000001270f       0x77 obj_cooja/mtype645.o
                0x000000000001270f                Java_org_contikios_cooja_corecomm_Lib2_setMemory
 .text.Java_org_contikios_cooja_corecomm_Lib2_tick
                0x0000000000012786       0x5f obj_cooja/mtype645.o
                0x0000000000012786                Java_org_contikios_cooja_corecomm_Lib2_tick
 .text.Java_org_contikios_cooja_corecomm_Lib2_setReferenceAddress
                0x00000000000127e5       0x12 obj_cooja/mtype645.o
                0x00000000000127e5                Java_org_contikios_cooja_corecomm_Lib2_setReferenceAddress
 .text          0x00000000000127f7        0x0 obj_cooja/mtype645.a(dtls.o)
 .text.equals   0x00000000000127f7       0x44 obj_cooja/mtype645.a(dtls.o)
 .text.check_stack
                0x000000000001283b        0x5 obj_cooja/mtype645.a(dtls.o)
 .text.dtls_int_to_uint8
                0x0000000000012840       0x1c obj_cooja/mtype645.a(dtls.o)
 .text.dtls_int_to_uint16
                0x000000000001285c       0x2f obj_cooja/mtype645.a(dtls.o)
 .text.dtls_int_to_uint24
                0x000000000001288b       0x30 obj_cooja/mtype645.a(dtls.o)
 .text.dtls_int_to_uint32
                0x00000000000128bb       0x3e obj_cooja/mtype645.a(dtls.o)
 .text.dtls_int_to_uint48
                0x00000000000128f9       0x89 obj_cooja/mtype645.a(dtls.o)
 .text.dtls_uint8_to_int
                0x0000000000012982        0xb obj_cooja/mtype645.a(dtls.o)
 .text.dtls_uint16_to_int
                0x000000000001298d       0x21 obj_cooja/mtype645.a(dtls.o)
 .text.dtls_uint24_to_int
                0x00000000000129ae       0x32 obj_cooja/mtype645.a(dtls.o)
 .text.dtls_hash_init
                0x00000000000129e0       0x13 obj_cooja/mtype645.a(dtls.o)
 .text.dtls_hash_update
                0x00000000000129f3       0x21 obj_cooja/mtype645.a(dtls.o)
 .text.dtls_hash_finalize
                0x0000000000012a14       0x1f obj_cooja/mtype645.a(dtls.o)
 .text.dtls_security_params_epoch
                0x0000000000012a33       0x58 obj_cooja/mtype645.a(dtls.o)
 .text.dtls_security_params
                0x0000000000012a8b        0xb obj_cooja/mtype645.a(dtls.o)
 .text.dtls_security_params_next
                0x0000000000012a96       0x59 obj_cooja/mtype645.a(dtls.o)
 .text.dtls_security_params_free_other
                0x0000000000012aef       0x50 obj_cooja/mtype645.a(dtls.o)
 .text.dtls_security_params_switch
                0x0000000000012b3f       0x26 obj_cooja/mtype645.a(dtls.o)
 .text.dtls_alert_create
                0x0000000000012b65       0x10 obj_cooja/mtype645.a(dtls.o)
 .text.dtls_alert_fatal_create
                0x0000000000012b75       0x1b obj_cooja/mtype645.a(dtls.o)
 .text.dtls_prng
                0x0000000000012b90       0x52 obj_cooja/mtype645.a(dtls.o)
 .text.dtls_prng_init
                0x0000000000012be2        0xf obj_cooja/mtype645.a(dtls.o)
 .text.malloc_context
                0x0000000000012bf1        0xa obj_cooja/mtype645.a(dtls.o)
 .text.free_context
                0x0000000000012bfb        0x5 obj_cooja/mtype645.a(dtls.o)
 .text.dtls_init
                0x0000000000012c00       0x1c obj_cooja/mtype645.a(dtls.o)
                0x0000000000012c00                dtls_init
 .text.dtls_send
                0x0000000000012c1c       0x5e obj_cooja/mtype645.a(dtls.o)
 .text.dtls_get_peer
                0x0000000000012c7a       0x57 obj_cooja/mtype645.a(dtls.o)
                0x0000000000012c7a                dtls_get_peer
 .text.dtls_add_peer
                0x0000000000012cd1       0x1d obj_cooja/mtype645.a(dtls.o)
 .text.dtls_write
                0x0000000000012cee       0x94 obj_cooja/mtype645.a(dtls.o)
                0x0000000000012cee                dtls_write
 .text.dtls_get_cookie
                0x0000000000012d82       0xd8 obj_cooja/mtype645.a(dtls.o)
 .text.dtls_create_cookie
                0x0000000000012e5a      0x233 obj_cooja/mtype645.a(dtls.o)
 .text.is_record
                0x000000000001308d       0x58 obj_cooja/mtype645.a(dtls.o)
 .text.dtls_set_record_header
                0x00000000000130e5       0xd9 obj_cooja/mtype645.a(dtls.o)
 .text.dtls_set_handshake_header
                0x00000000000131be       0xc8 obj_cooja/mtype645.a(dtls.o)
 .text.is_tls_ecdhe_ecdsa_with_aes_128_ccm_8
                0x0000000000013286        0xa obj_cooja/mtype645.a(dtls.o)
 .text.is_tls_psk_with_aes_128_ccm_8
                0x0000000000013290       0x12 obj_cooja/mtype645.a(dtls.o)
 .text.is_psk_supported
                0x00000000000132a2       0x2e obj_cooja/mtype645.a(dtls.o)
 .text.is_rpk_supported
                0x00000000000132d0        0xa obj_cooja/mtype645.a(dtls.o)
 .text.is_cert_supported
                0x00000000000132da        0xa obj_cooja/mtype645.a(dtls.o)
 .text.known_cipher
                0x00000000000132e4       0x7c obj_cooja/mtype645.a(dtls.o)
 .text.dtls_debug_keyblock
                0x0000000000013360      0x130 obj_cooja/mtype645.a(dtls.o)
 .text.dtls_handshake_type_to_name
                0x0000000000013490       0x6c obj_cooja/mtype645.a(dtls.o)
 .text.calculate_key_block
                0x00000000000134fc      0x39e obj_cooja/mtype645.a(dtls.o)
 .text.dtls_check_tls_extension
                0x000000000001389a      0x1a0 obj_cooja/mtype645.a(dtls.o)
 .text.dtls_update_parameters
                0x0000000000013a3a      0x376 obj_cooja/mtype645.a(dtls.o)
 .text.check_client_keyexchange
                0x0000000000013db0       0xd5 obj_cooja/mtype645.a(dtls.o)
 .text.update_hs_hash
                0x0000000000013e85       0x51 obj_cooja/mtype645.a(dtls.o)
 .text.copy_hs_hash
                0x0000000000013ed6       0x28 obj_cooja/mtype645.a(dtls.o)
 .text.finalize_hs_hash
                0x0000000000013efe       0x20 obj_cooja/mtype645.a(dtls.o)
 .text.clear_hs_hash
                0x0000000000013f1e       0x3f obj_cooja/mtype645.a(dtls.o)
 .text.check_finished
                0x0000000000013f5d      0x1ef obj_cooja/mtype645.a(dtls.o)
 .text.dtls_prepare_record
                0x000000000001414c      0x550 obj_cooja/mtype645.a(dtls.o)
 .text.dtls_send_handshake_msg_hash
                0x000000000001469c      0x172 obj_cooja/mtype645.a(dtls.o)
 .text.dtls_send_handshake_msg
                0x000000000001480e       0x48 obj_cooja/mtype645.a(dtls.o)
 .text.dtls_encrypt_data
                0x0000000000014856       0xc1 obj_cooja/mtype645.a(dtls.o)
                0x0000000000014856                dtls_encrypt_data
 .text.dtls_encrypt_x
                0x0000000000014917       0x8c obj_cooja/mtype645.a(dtls.o)
 .text.dtls_prepare_record_x
                0x00000000000149a3      0x3c4 obj_cooja/mtype645.a(dtls.o)
 .text.dtls_send_multi
                0x0000000000014d67      0x42f obj_cooja/mtype645.a(dtls.o)
 .text.dtls_send_alert
                0x0000000000015196       0x42 obj_cooja/mtype645.a(dtls.o)
 .text.dtls_close
                0x00000000000151d8       0x8c obj_cooja/mtype645.a(dtls.o)
                0x00000000000151d8                dtls_close
 .text.dtls_destroy_peer
                0x0000000000015264       0x77 obj_cooja/mtype645.a(dtls.o)
 .text.dtls_verify_peer
                0x00000000000152db      0x26d obj_cooja/mtype645.a(dtls.o)
 .text.dtls_send_server_hello
                0x0000000000015548      0x1ab obj_cooja/mtype645.a(dtls.o)
 .text.dtls_send_server_key_exchange_psk
                0x00000000000156f3      0x103 obj_cooja/mtype645.a(dtls.o)
 .text.dtls_send_server_hello_done
                0x00000000000157f6       0x32 obj_cooja/mtype645.a(dtls.o)
 .text.dtls_send_server_hello_msgs
                0x0000000000015828      0x16b obj_cooja/mtype645.a(dtls.o)
 .text.dtls_send_ccs
                0x0000000000015993       0x35 obj_cooja/mtype645.a(dtls.o)
 .text.dtls_send_client_key_exchange
                0x00000000000159c8      0x231 obj_cooja/mtype645.a(dtls.o)
 .text.dtls_send_finished
                0x0000000000015bf9      0x182 obj_cooja/mtype645.a(dtls.o)
 .text.dtls_send_client_hello
                0x0000000000015d7b      0x631 obj_cooja/mtype645.a(dtls.o)
 .text.check_server_hello
                0x00000000000163ac      0x1db obj_cooja/mtype645.a(dtls.o)
 .text.check_server_hello_verify_request
                0x0000000000016587       0x67 obj_cooja/mtype645.a(dtls.o)
 .text.check_server_key_exchange_psk
                0x00000000000165ee      0x109 obj_cooja/mtype645.a(dtls.o)
 .text.check_certificate_request
                0x00000000000166f7      0x1f7 obj_cooja/mtype645.a(dtls.o)
 .text.check_server_hellodone
                0x00000000000168ee       0xf3 obj_cooja/mtype645.a(dtls.o)
 .text.decrypt_verify
                0x00000000000169e1      0x35a obj_cooja/mtype645.a(dtls.o)
 .text.dtls_send_hello_request
                0x0000000000016d3b       0x44 obj_cooja/mtype645.a(dtls.o)
 .text.dtls_renegotiate
                0x0000000000016d7f       0xf6 obj_cooja/mtype645.a(dtls.o)
                0x0000000000016d7f                dtls_renegotiate
 .text.handle_handshake_msg
                0x0000000000016e75      0x7b9 obj_cooja/mtype645.a(dtls.o)
 .text.handle_handshake
                0x000000000001762e      0x424 obj_cooja/mtype645.a(dtls.o)
 .text.handle_ccs
                0x0000000000017a52       0xa8 obj_cooja/mtype645.a(dtls.o)
 .text.handle_alert
                0x0000000000017afa      0x194 obj_cooja/mtype645.a(dtls.o)
 .text.dtls_alert_send_from_err
                0x0000000000017c8e       0xe0 obj_cooja/mtype645.a(dtls.o)
 .text.dtls_handle_message
                0x0000000000017d6e      0x665 obj_cooja/mtype645.a(dtls.o)
                0x0000000000017d6e                dtls_handle_message
 .text.dtls_new_context
                0x00000000000183d3      0x12b obj_cooja/mtype645.a(dtls.o)
                0x00000000000183d3                dtls_new_context
 .text.dtls_free_context
                0x00000000000184fe       0x68 obj_cooja/mtype645.a(dtls.o)
                0x00000000000184fe                dtls_free_context
 .text.dtls_connect_peer
                0x0000000000018566      0x13b obj_cooja/mtype645.a(dtls.o)
                0x0000000000018566                dtls_connect_peer
 .text.dtls_connect
                0x00000000000186a1      0x114 obj_cooja/mtype645.a(dtls.o)
                0x00000000000186a1                dtls_connect
 .text.dtls_retransmit
                0x00000000000187b5      0x32f obj_cooja/mtype645.a(dtls.o)
 .text.dtls_stop_retransmission
                0x0000000000018ae4       0x84 obj_cooja/mtype645.a(dtls.o)
 .text.dtls_check_retransmit
                0x0000000000018b68       0x81 obj_cooja/mtype645.a(dtls.o)
                0x0000000000018b68                dtls_check_retransmit
 .text.process_thread_dtls_retransmit_process
                0x0000000000018be9      0x1aa obj_cooja/mtype645.a(dtls.o)
 .text.change_sequence
                0x0000000000018d93       0x43 obj_cooja/mtype645.a(dtls.o)
                0x0000000000018d93                change_sequence
 .text          0x0000000000018dd6        0x0 obj_cooja/mtype645.a(tinydtls-crypto)
 .text.dtls_int_to_uint16
                0x0000000000018dd6       0x2f obj_cooja/mtype645.a(tinydtls-crypto)
 .text.dtls_hash_init
                0x0000000000018e05       0x13 obj_cooja/mtype645.a(tinydtls-crypto)
 .text.dtls_cipher_context_get
                0x0000000000018e18        0xa obj_cooja/mtype645.a(tinydtls-crypto)
 .text.dtls_cipher_context_release
                0x0000000000018e22        0x5 obj_cooja/mtype645.a(tinydtls-crypto)
 .text.dtls_crypto_init
                0x0000000000018e27       0x20 obj_cooja/mtype645.a(tinydtls-crypto)
                0x0000000000018e27                dtls_crypto_init
 .text.dtls_handshake_malloc
                0x0000000000018e47       0x14 obj_cooja/mtype645.a(tinydtls-crypto)
 .text.dtls_handshake_dealloc
                0x0000000000018e5b       0x1b obj_cooja/mtype645.a(tinydtls-crypto)
 .text.dtls_security_malloc
                0x0000000000018e76       0x14 obj_cooja/mtype645.a(tinydtls-crypto)
 .text.dtls_security_dealloc
                0x0000000000018e8a       0x1b obj_cooja/mtype645.a(tinydtls-crypto)
 .text.dtls_handshake_new
                0x0000000000018ea5       0x67 obj_cooja/mtype645.a(tinydtls-crypto)
                0x0000000000018ea5                dtls_handshake_new
 .text.dtls_handshake_free
                0x0000000000018f0c       0x29 obj_cooja/mtype645.a(tinydtls-crypto)
                0x0000000000018f0c                dtls_handshake_free
 .text.dtls_security_new
                0x0000000000018f35       0x60 obj_cooja/mtype645.a(tinydtls-crypto)
                0x0000000000018f35                dtls_security_new
 .text.dtls_security_free
                0x0000000000018f95       0x1b obj_cooja/mtype645.a(tinydtls-crypto)
                0x0000000000018f95                dtls_security_free
 .text.dtls_p_hash
                0x0000000000018fb0      0x2fa obj_cooja/mtype645.a(tinydtls-crypto)
                0x0000000000018fb0                dtls_p_hash
 .text.dtls_prf
                0x00000000000192aa       0x74 obj_cooja/mtype645.a(tinydtls-crypto)
                0x00000000000192aa                dtls_prf
 .text.dtls_prf_custom
                0x000000000001931e       0xd4 obj_cooja/mtype645.a(tinydtls-crypto)
                0x000000000001931e                dtls_prf_custom
 .text.dtls_mac
                0x00000000000193f2       0xb3 obj_cooja/mtype645.a(tinydtls-crypto)
                0x00000000000193f2                dtls_mac
 .text.dtls_ccm_encrypt
                0x00000000000194a5       0x66 obj_cooja/mtype645.a(tinydtls-crypto)
 .text.dtls_ccm_decrypt
                0x000000000001950b       0x66 obj_cooja/mtype645.a(tinydtls-crypto)
 .text.dtls_psk_pre_master_secret
                0x0000000000019571       0x9a obj_cooja/mtype645.a(tinydtls-crypto)
                0x0000000000019571                dtls_psk_pre_master_secret
 .text.dtls_encrypt
                0x000000000001960b       0xa6 obj_cooja/mtype645.a(tinydtls-crypto)
                0x000000000001960b                dtls_encrypt
 .text.dtls_decrypt
                0x00000000000196b1       0xa6 obj_cooja/mtype645.a(tinydtls-crypto)
                0x00000000000196b1                dtls_decrypt
 .text          0x0000000000019757        0x0 obj_cooja/mtype645.a(hmac.o)
 .text.dtls_hash_init
                0x0000000000019757       0x13 obj_cooja/mtype645.a(hmac.o)
 .text.dtls_hash_update
                0x000000000001976a       0x21 obj_cooja/mtype645.a(hmac.o)
 .text.dtls_hash_finalize
                0x000000000001978b       0x1f obj_cooja/mtype645.a(hmac.o)
 .text.dtls_hmac_context_new
                0x00000000000197aa       0x14 obj_cooja/mtype645.a(hmac.o)
 .text.dtls_hmac_context_free
                0x00000000000197be       0x1b obj_cooja/mtype645.a(hmac.o)
 .text.dtls_hmac_storage_init
                0x00000000000197d9       0x14 obj_cooja/mtype645.a(hmac.o)
                0x00000000000197d9                dtls_hmac_storage_init
 .text.dtls_hmac_update
                0x00000000000197ed       0x3e obj_cooja/mtype645.a(hmac.o)
                0x00000000000197ed                dtls_hmac_update
 .text.dtls_hmac_new
                0x000000000001982b       0x32 obj_cooja/mtype645.a(hmac.o)
                0x000000000001982b                dtls_hmac_new
 .text.dtls_hmac_init
                0x000000000001985d      0x11b obj_cooja/mtype645.a(hmac.o)
                0x000000000001985d                dtls_hmac_init
 .text.dtls_hmac_free
                0x0000000000019978       0x19 obj_cooja/mtype645.a(hmac.o)
                0x0000000000019978                dtls_hmac_free
 .text.dtls_hmac_finalize
                0x0000000000019991       0xde obj_cooja/mtype645.a(hmac.o)
                0x0000000000019991                dtls_hmac_finalize
 .text          0x0000000000019a6f        0x0 obj_cooja/mtype645.a(netq.o)
 .text.netq_malloc_node
                0x0000000000019a6f       0x14 obj_cooja/mtype645.a(netq.o)
 .text.netq_free_node
                0x0000000000019a83       0x1b obj_cooja/mtype645.a(netq.o)
 .text.netq_init
                0x0000000000019a9e       0x14 obj_cooja/mtype645.a(netq.o)
                0x0000000000019a9e                netq_init
 .text.netq_insert_node
                0x0000000000019ab2       0xb7 obj_cooja/mtype645.a(netq.o)
                0x0000000000019ab2                netq_insert_node
 .text.netq_head
                0x0000000000019b69       0x20 obj_cooja/mtype645.a(netq.o)
                0x0000000000019b69                netq_head
 .text.netq_next
                0x0000000000019b89       0x20 obj_cooja/mtype645.a(netq.o)
                0x0000000000019b89                netq_next
 .text.netq_remove
                0x0000000000019ba9       0x28 obj_cooja/mtype645.a(netq.o)
                0x0000000000019ba9                netq_remove
 .text.netq_pop_first
                0x0000000000019bd1       0x20 obj_cooja/mtype645.a(netq.o)
                0x0000000000019bd1                netq_pop_first
 .text.netq_node_new
                0x0000000000019bf1       0x4c obj_cooja/mtype645.a(netq.o)
                0x0000000000019bf1                netq_node_new
 .text.netq_node_free
                0x0000000000019c3d       0x19 obj_cooja/mtype645.a(netq.o)
                0x0000000000019c3d                netq_node_free
 .text.netq_delete_all
                0x0000000000019c56       0x2f obj_cooja/mtype645.a(netq.o)
                0x0000000000019c56                netq_delete_all
 .text          0x0000000000019c85        0x0 obj_cooja/mtype645.a(dtls_time.o)
 .text.dtls_clock_init
                0x0000000000019c85       0x12 obj_cooja/mtype645.a(dtls_time.o)
                0x0000000000019c85                dtls_clock_init
 .text.dtls_ticks
                0x0000000000019c97       0x12 obj_cooja/mtype645.a(dtls_time.o)
                0x0000000000019c97                dtls_ticks
 .text          0x0000000000019ca9        0x0 obj_cooja/mtype645.a(peer.o)
 .text.peer_init
                0x0000000000019ca9       0x14 obj_cooja/mtype645.a(peer.o)
                0x0000000000019ca9                peer_init
 .text.dtls_malloc_peer
                0x0000000000019cbd       0x14 obj_cooja/mtype645.a(peer.o)
 .text.dtls_free_peer
                0x0000000000019cd1       0x45 obj_cooja/mtype645.a(peer.o)
                0x0000000000019cd1                dtls_free_peer
 .text.dtls_new_peer
                0x0000000000019d16       0x93 obj_cooja/mtype645.a(peer.o)
                0x0000000000019d16                dtls_new_peer
 .text          0x0000000000019da9        0x0 obj_cooja/mtype645.a(session.o)
 .text.dtls_session_init
                0x0000000000019da9       0x43 obj_cooja/mtype645.a(session.o)
                0x0000000000019da9                dtls_session_init
 .text.dtls_session_equals
                0x0000000000019dec       0x9f obj_cooja/mtype645.a(session.o)
                0x0000000000019dec                dtls_session_equals
 .text          0x0000000000019e8b        0x0 obj_cooja/mtype645.a(rijndael.o)
 .text.rijndaelKeySetupEnc
                0x0000000000019e8b      0x610 obj_cooja/mtype645.a(rijndael.o)
                0x0000000000019e8b                rijndaelKeySetupEnc
 .text.rijndaelEncrypt
                0x000000000001a49b      0x613 obj_cooja/mtype645.a(rijndael.o)
                0x000000000001a49b                rijndaelEncrypt
 .text.rijndael_set_key_enc_only
                0x000000000001aaae       0x41 obj_cooja/mtype645.a(rijndael.o)
                0x000000000001aaae                rijndael_set_key_enc_only
 .text.rijndael_encrypt
                0x000000000001aaef       0x2d obj_cooja/mtype645.a(rijndael.o)
                0x000000000001aaef                rijndael_encrypt
 .text          0x000000000001ab1c        0x0 obj_cooja/mtype645.a(tinydtls-ccm.o)
 .text.memxor   0x000000000001ab1c       0x2f obj_cooja/mtype645.a(tinydtls-ccm.o)
 .text.equals   0x000000000001ab4b       0x44 obj_cooja/mtype645.a(tinydtls-ccm.o)
 .text.dtls_int_to_uint16
                0x000000000001ab8f       0x2f obj_cooja/mtype645.a(tinydtls-ccm.o)
 .text.block0   0x000000000001abbe       0x82 obj_cooja/mtype645.a(tinydtls-ccm.o)
 .text.add_auth_data
                0x000000000001ac40      0x1c0 obj_cooja/mtype645.a(tinydtls-ccm.o)
 .text.encrypt  0x000000000001ae00       0xc3 obj_cooja/mtype645.a(tinydtls-ccm.o)
 .text.mac      0x000000000001aec3       0x5d obj_cooja/mtype645.a(tinydtls-ccm.o)
 .text.dtls_ccm_encrypt_message
                0x000000000001af20      0x298 obj_cooja/mtype645.a(tinydtls-ccm.o)
                0x000000000001af20                dtls_ccm_encrypt_message
 .text.dtls_ccm_decrypt_message
                0x000000000001b1b8      0x2b2 obj_cooja/mtype645.a(tinydtls-ccm.o)
                0x000000000001b1b8                dtls_ccm_decrypt_message
 .text          0x000000000001b46a        0x0 obj_cooja/mtype645.a(sha2.o)
 .text.SHA256_Init
                0x000000000001b46a       0x5a obj_cooja/mtype645.a(sha2.o)
                0x000000000001b46a                SHA256_Init
 .text.SHA256_Transform
                0x000000000001b4c4      0x3c3 obj_cooja/mtype645.a(sha2.o)
                0x000000000001b4c4                SHA256_Transform
 .text.SHA256_Update
                0x000000000001b887      0x1b6 obj_cooja/mtype645.a(sha2.o)
                0x000000000001b887                SHA256_Update
 .text.SHA256_Final
                0x000000000001ba3d      0x2a4 obj_cooja/mtype645.a(sha2.o)
                0x000000000001ba3d                SHA256_Final
 .text.SHA256_End
                0x000000000001bce1      0x109 obj_cooja/mtype645.a(sha2.o)
                0x000000000001bce1                SHA256_End
 .text.SHA256_Data
                0x000000000001bdea       0x69 obj_cooja/mtype645.a(sha2.o)
                0x000000000001bdea                SHA256_Data
 .text          0x000000000001be53        0x0 obj_cooja/mtype645.a(debug.o)
 .text.dtls_package_name
                0x000000000001be53        0xa obj_cooja/mtype645.a(debug.o)
                0x000000000001be53                dtls_package_name
 .text.dtls_package_version
                0x000000000001be5d        0xa obj_cooja/mtype645.a(debug.o)
                0x000000000001be5d                dtls_package_version
 .text.dtls_get_log_level
                0x000000000001be67        0xa obj_cooja/mtype645.a(debug.o)
                0x000000000001be67                dtls_get_log_level
 .text.dtls_set_log_level
                0x000000000001be71        0xd obj_cooja/mtype645.a(debug.o)
                0x000000000001be71                dtls_set_log_level
 .text.print_timestamp
                0x000000000001be7e        0xa obj_cooja/mtype645.a(debug.o)
 .text.dsrv_print_addr
                0x000000000001be88      0x190 obj_cooja/mtype645.a(debug.o)
 .text.hexdump  0x000000000001c018       0x8c obj_cooja/mtype645.a(debug.o)
                0x000000000001c018                hexdump
 .text.dump     0x000000000001c0a4       0x36 obj_cooja/mtype645.a(debug.o)
                0x000000000001c0a4                dump
 .text.dtls_dsrv_log_addr
                0x000000000001c0da       0x76 obj_cooja/mtype645.a(debug.o)
                0x000000000001c0da                dtls_dsrv_log_addr
 .text.dtls_dsrv_hexdump_log
                0x000000000001c150      0x16a obj_cooja/mtype645.a(debug.o)
                0x000000000001c150                dtls_dsrv_hexdump_log
 .text          0x000000000001c2ba        0x0 obj_cooja/mtype645.a(simEnvChange.o)
 .text.doActionsBeforeTick
                0x000000000001c2ba       0x31 obj_cooja/mtype645.a(simEnvChange.o)
                0x000000000001c2ba                doActionsBeforeTick
 .text.doActionsAfterTick
                0x000000000001c2eb       0x32 obj_cooja/mtype645.a(simEnvChange.o)
                0x000000000001c2eb                doActionsAfterTick
 .text          0x000000000001c31d        0x0 obj_cooja/mtype645.a(cooja_mt.o)
 .text.cooja_mt_init
                0x000000000001c31d        0xd obj_cooja/mtype645.a(cooja_mt.o)
                0x000000000001c31d                cooja_mt_init
 .text.cooja_mt_remove
                0x000000000001c32a        0xd obj_cooja/mtype645.a(cooja_mt.o)
                0x000000000001c32a                cooja_mt_remove
 .text.cooja_mt_start
                0x000000000001c337       0x2d obj_cooja/mtype645.a(cooja_mt.o)
                0x000000000001c337                cooja_mt_start
 .text.cooja_mt_exec
                0x000000000001c364       0x31 obj_cooja/mtype645.a(cooja_mt.o)
                0x000000000001c364                cooja_mt_exec
 .text.cooja_mt_exit
                0x000000000001c395       0x22 obj_cooja/mtype645.a(cooja_mt.o)
                0x000000000001c395                cooja_mt_exit
 .text.cooja_mt_yield
                0x000000000001c3b7       0x22 obj_cooja/mtype645.a(cooja_mt.o)
                0x000000000001c3b7                cooja_mt_yield
 .text          0x000000000001c3d9        0x0 obj_cooja/mtype645.a(cooja_mtarch.o)
 .text.cooja_mtarch_init
                0x000000000001c3d9        0x5 obj_cooja/mtype645.a(cooja_mtarch.o)
                0x000000000001c3d9                cooja_mtarch_init
 .text.cooja_mtarch_start
                0x000000000001c3de       0x7b obj_cooja/mtype645.a(cooja_mtarch.o)
                0x000000000001c3de                cooja_mtarch_start
 .text.cooja_sw
                0x000000000001c459       0x22 obj_cooja/mtype645.a(cooja_mtarch.o)
                0x000000000001c459                cooja_sw
 .text.cooja_mtarch_exec
                0x000000000001c47b       0x1c obj_cooja/mtype645.a(cooja_mtarch.o)
                0x000000000001c47b                cooja_mtarch_exec
 .text.cooja_mtarch_remove
                0x000000000001c497        0x5 obj_cooja/mtype645.a(cooja_mtarch.o)
                0x000000000001c497                cooja_mtarch_remove
 .text.cooja_mtarch_yield
                0x000000000001c49c        0xa obj_cooja/mtype645.a(cooja_mtarch.o)
                0x000000000001c49c                cooja_mtarch_yield
 .text.cooja_mtarch_pstop
                0x000000000001c4a6        0x5 obj_cooja/mtype645.a(cooja_mtarch.o)
                0x000000000001c4a6                cooja_mtarch_pstop
 .text.cooja_mtarch_pstart
                0x000000000001c4ab        0x5 obj_cooja/mtype645.a(cooja_mtarch.o)
                0x000000000001c4ab                cooja_mtarch_pstart
 .text.cooja_mtarch_stack_usage
                0x000000000001c4b0       0x3e obj_cooja/mtype645.a(cooja_mtarch.o)
                0x000000000001c4b0                cooja_mtarch_stack_usage
 .text          0x000000000001c4ee        0x0 obj_cooja/mtype645.a(rtimer-arch.o)
 .text.rtimer_arch_init
                0x000000000001c4ee       0x23 obj_cooja/mtype645.a(rtimer-arch.o)
                0x000000000001c4ee                rtimer_arch_init
 .text.rtimer_arch_schedule
                0x000000000001c511       0x2f obj_cooja/mtype645.a(rtimer-arch.o)
                0x000000000001c511                rtimer_arch_schedule
 .text.rtimer_arch_next
                0x000000000001c540       0x10 obj_cooja/mtype645.a(rtimer-arch.o)
                0x000000000001c540                rtimer_arch_next
 .text.rtimer_arch_pending
                0x000000000001c550        0xa obj_cooja/mtype645.a(rtimer-arch.o)
                0x000000000001c550                rtimer_arch_pending
 .text.rtimer_arch_check
                0x000000000001c55a       0x47 obj_cooja/mtype645.a(rtimer-arch.o)
                0x000000000001c55a                rtimer_arch_check
 .text.rtimer_arch_now
                0x000000000001c5a1       0x10 obj_cooja/mtype645.a(rtimer-arch.o)
                0x000000000001c5a1                rtimer_arch_now
 .text          0x000000000001c5b1        0x0 obj_cooja/mtype645.a(beep.o)
 .text.beep_alarm
                0x000000000001c5b1        0xc obj_cooja/mtype645.a(beep.o)
                0x000000000001c5b1                beep_alarm
 .text.beep_beep
                0x000000000001c5bd        0xc obj_cooja/mtype645.a(beep.o)
                0x000000000001c5bd                beep_beep
 .text.beep     0x000000000001c5c9        0xc obj_cooja/mtype645.a(beep.o)
                0x000000000001c5c9                beep
 .text.beep_down
                0x000000000001c5d5        0xc obj_cooja/mtype645.a(beep.o)
                0x000000000001c5d5                beep_down
 .text.beep_on  0x000000000001c5e1        0xc obj_cooja/mtype645.a(beep.o)
                0x000000000001c5e1                beep_on
 .text.beep_off
                0x000000000001c5ed        0xc obj_cooja/mtype645.a(beep.o)
                0x000000000001c5ed                beep_off
 .text.beep_spinup
                0x000000000001c5f9        0xc obj_cooja/mtype645.a(beep.o)
                0x000000000001c5f9                beep_spinup
 .text.beep_quick
                0x000000000001c605        0xc obj_cooja/mtype645.a(beep.o)
                0x000000000001c605                beep_quick
 .text.beep_long
                0x000000000001c611        0xc obj_cooja/mtype645.a(beep.o)
                0x000000000001c611                beep_long
 .text.doInterfaceActionsBeforeTick
                0x000000000001c61d        0x5 obj_cooja/mtype645.a(beep.o)
 .text.doInterfaceActionsAfterTick
                0x000000000001c622        0x5 obj_cooja/mtype645.a(beep.o)
 .text          0x000000000001c627        0x0 obj_cooja/mtype645.a(button-sensor.o)
 .text.value    0x000000000001c627       0x2f obj_cooja/mtype645.a(button-sensor.o)
 .text.configure
                0x000000000001c656       0x50 obj_cooja/mtype645.a(button-sensor.o)
 .text.status   0x000000000001c6a6       0x1f obj_cooja/mtype645.a(button-sensor.o)
 .text.doInterfaceActionsBeforeTick
                0x000000000001c6c5       0x60 obj_cooja/mtype645.a(button-sensor.o)
 .text.doInterfaceActionsAfterTick
                0x000000000001c725        0x5 obj_cooja/mtype645.a(button-sensor.o)
 .text          0x000000000001c72a        0x0 obj_cooja/mtype645.a(leds-arch.o)
 .text.leds_arch_init
                0x000000000001c72a        0xc obj_cooja/mtype645.a(leds-arch.o)
                0x000000000001c72a                leds_arch_init
 .text.leds_arch_get
                0x000000000001c736        0xc obj_cooja/mtype645.a(leds-arch.o)
                0x000000000001c736                leds_arch_get
 .text.leds_arch_set
                0x000000000001c742       0x23 obj_cooja/mtype645.a(leds-arch.o)
                0x000000000001c742                leds_arch_set
 .text.doInterfaceActionsBeforeTick
                0x000000000001c765        0x5 obj_cooja/mtype645.a(leds-arch.o)
 .text.doInterfaceActionsAfterTick
                0x000000000001c76a        0x5 obj_cooja/mtype645.a(leds-arch.o)
 .text          0x000000000001c76f        0x0 obj_cooja/mtype645.a(moteid.o)
 .text.doInterfaceActionsBeforeTick
                0x000000000001c76f       0x2a obj_cooja/mtype645.a(moteid.o)
 .text.doInterfaceActionsAfterTick
                0x000000000001c799        0x5 obj_cooja/mtype645.a(moteid.o)
 .text          0x000000000001c79e        0x0 obj_cooja/mtype645.a(pir-sensor.o)
 .text.value    0x000000000001c79e        0xf obj_cooja/mtype645.a(pir-sensor.o)
 .text.configure
                0x000000000001c7ad       0x3a obj_cooja/mtype645.a(pir-sensor.o)
 .text.status   0x000000000001c7e7       0x23 obj_cooja/mtype645.a(pir-sensor.o)
 .text.doInterfaceActionsBeforeTick
                0x000000000001c80a       0x40 obj_cooja/mtype645.a(pir-sensor.o)
 .text.doInterfaceActionsAfterTick
                0x000000000001c84a        0x5 obj_cooja/mtype645.a(pir-sensor.o)
 .text          0x000000000001c84f        0x0 obj_cooja/mtype645.a(rs232.o)
 .text.rs232_init
                0x000000000001c84f        0x5 obj_cooja/mtype645.a(rs232.o)
                0x000000000001c84f                rs232_init
 .text.rs232_set_speed
                0x000000000001c854        0xe obj_cooja/mtype645.a(rs232.o)
                0x000000000001c854                rs232_set_speed
 .text.rs232_set_input
                0x000000000001c862        0xd obj_cooja/mtype645.a(rs232.o)
                0x000000000001c862                rs232_set_input
 .text.rs232_send
                0x000000000001c86f       0x22 obj_cooja/mtype645.a(rs232.o)
                0x000000000001c86f                rs232_send
 .text.rs232_print
                0x000000000001c891       0x1b obj_cooja/mtype645.a(rs232.o)
                0x000000000001c891                rs232_print
 .text.slip_arch_writeb
                0x000000000001c8ac       0x1d obj_cooja/mtype645.a(rs232.o)
                0x000000000001c8ac                slip_arch_writeb
 .text.doInterfaceActionsBeforeTick
                0x000000000001c8c9       0xb2 obj_cooja/mtype645.a(rs232.o)
 .text.doInterfaceActionsAfterTick
                0x000000000001c97b        0x5 obj_cooja/mtype645.a(rs232.o)
 .text          0x000000000001c980        0x0 obj_cooja/mtype645.a(vib-sensor.o)
 .text.value    0x000000000001c980        0xf obj_cooja/mtype645.a(vib-sensor.o)
 .text.configure
                0x000000000001c98f       0x3a obj_cooja/mtype645.a(vib-sensor.o)
 .text.status   0x000000000001c9c9       0x23 obj_cooja/mtype645.a(vib-sensor.o)
 .text.doInterfaceActionsBeforeTick
                0x000000000001c9ec       0x40 obj_cooja/mtype645.a(vib-sensor.o)
 .text.doInterfaceActionsAfterTick
                0x000000000001ca2c        0x5 obj_cooja/mtype645.a(vib-sensor.o)
 .text          0x000000000001ca31        0x0 obj_cooja/mtype645.a(clock.o)
 .text.clock_init
                0x000000000001ca31        0x5 obj_cooja/mtype645.a(clock.o)
                0x000000000001ca31                clock_init
 .text.clock_time
                0x000000000001ca36        0xa obj_cooja/mtype645.a(clock.o)
                0x000000000001ca36                clock_time
 .text.clock_seconds
                0x000000000001ca40       0x16 obj_cooja/mtype645.a(clock.o)
                0x000000000001ca40                clock_seconds
 .text.clock_delay
                0x000000000001ca56        0x5 obj_cooja/mtype645.a(clock.o)
                0x000000000001ca56                clock_delay
 .text.doInterfaceActionsBeforeTick
                0x000000000001ca5b        0x5 obj_cooja/mtype645.a(clock.o)
 .text.doInterfaceActionsAfterTick
                0x000000000001ca60        0x5 obj_cooja/mtype645.a(clock.o)
 .text          0x000000000001ca65        0x0 obj_cooja/mtype645.a(log.o)
 .text.simlog_char
                0x000000000001ca65       0x42 obj_cooja/mtype645.a(log.o)
                0x000000000001ca65                simlog_char
 .text.simlog   0x000000000001caa7       0x6d obj_cooja/mtype645.a(log.o)
                0x000000000001caa7                simlog
 .text.log_message
                0x000000000001cb14       0x1e obj_cooja/mtype645.a(log.o)
                0x000000000001cb14                log_message
 .text.doInterfaceActionsBeforeTick
                0x000000000001cb32        0x5 obj_cooja/mtype645.a(log.o)
 .text.doInterfaceActionsAfterTick
                0x000000000001cb37        0x5 obj_cooja/mtype645.a(log.o)
 .text.log_set_putchar_with_slip
                0x000000000001cb3c        0xd obj_cooja/mtype645.a(log.o)
                0x000000000001cb3c                log_set_putchar_with_slip
 .text.putchar  0x000000000001cb49       0x84 obj_cooja/mtype645.a(log.o)
                0x000000000001cb49                log_putchar
 .text.puts     0x000000000001cbcd       0x24 obj_cooja/mtype645.a(log.o)
                0x000000000001cbcd                log_puts
 .text.printf   0x000000000001cbf1       0x61 obj_cooja/mtype645.a(log.o)
                0x000000000001cbf1                log_printf
 .text          0x000000000001cc52        0x0 obj_cooja/mtype645.a(cfs-cooja.o)
 .text.cfs_open
                0x000000000001cc52       0x69 obj_cooja/mtype645.a(cfs-cooja.o)
                0x000000000001cc52                cfs_open
 .text.cfs_close
                0x000000000001ccbb        0xc obj_cooja/mtype645.a(cfs-cooja.o)
                0x000000000001ccbb                cfs_close
 .text.cfs_read
                0x000000000001ccc7       0x9e obj_cooja/mtype645.a(cfs-cooja.o)
                0x000000000001ccc7                cfs_read
 .text.cfs_write
                0x000000000001cd65       0xdd obj_cooja/mtype645.a(cfs-cooja.o)
                0x000000000001cd65                cfs_write
 .text.cfs_seek
                0x000000000001ce42       0x88 obj_cooja/mtype645.a(cfs-cooja.o)
                0x000000000001ce42                cfs_seek
 .text.cfs_remove
                0x000000000001ceca       0x29 obj_cooja/mtype645.a(cfs-cooja.o)
                0x000000000001ceca                cfs_remove
 .text.cfs_opendir
                0x000000000001cef3        0xa obj_cooja/mtype645.a(cfs-cooja.o)
                0x000000000001cef3                cfs_opendir
 .text.cfs_readdir
                0x000000000001cefd        0xa obj_cooja/mtype645.a(cfs-cooja.o)
                0x000000000001cefd                cfs_readdir
 .text.cfs_closedir
                0x000000000001cf07        0x5 obj_cooja/mtype645.a(cfs-cooja.o)
                0x000000000001cf07                cfs_closedir
 .text.doInterfaceActionsBeforeTick
                0x000000000001cf0c        0x5 obj_cooja/mtype645.a(cfs-cooja.o)
 .text.doInterfaceActionsAfterTick
                0x000000000001cf11        0x5 obj_cooja/mtype645.a(cfs-cooja.o)
 .text          0x000000000001cf16        0x0 obj_cooja/mtype645.a(cooja-radio.o)
 .text.packetbuf_set_attr
                0x000000000001cf16       0x2a obj_cooja/mtype645.a(cooja-radio.o)
 .text.set_send_on_cca
                0x000000000001cf40       0x17 obj_cooja/mtype645.a(cooja-radio.o)
 .text.set_frame_filtering
                0x000000000001cf57        0xd obj_cooja/mtype645.a(cooja-radio.o)
 .text.set_auto_ack
                0x000000000001cf64        0xd obj_cooja/mtype645.a(cooja-radio.o)
 .text.set_poll_mode
                0x000000000001cf71        0xd obj_cooja/mtype645.a(cooja-radio.o)
 .text.radio_set_channel
                0x000000000001cf7e        0xd obj_cooja/mtype645.a(cooja-radio.o)
                0x000000000001cf7e                radio_set_channel
 .text.radio_set_txpower
                0x000000000001cf8b       0x17 obj_cooja/mtype645.a(cooja-radio.o)
                0x000000000001cf8b                radio_set_txpower
 .text.radio_signal_strength_last
                0x000000000001cfa2        0xa obj_cooja/mtype645.a(cooja-radio.o)
                0x000000000001cfa2                radio_signal_strength_last
 .text.radio_signal_strength_current
                0x000000000001cfac        0xa obj_cooja/mtype645.a(cooja-radio.o)
                0x000000000001cfac                radio_signal_strength_current
 .text.radio_LQI
                0x000000000001cfb6        0xa obj_cooja/mtype645.a(cooja-radio.o)
                0x000000000001cfb6                radio_LQI
 .text.radio_on
                0x000000000001cfc0       0x11 obj_cooja/mtype645.a(cooja-radio.o)
 .text.radio_off
                0x000000000001cfd1       0x11 obj_cooja/mtype645.a(cooja-radio.o)
 .text.doInterfaceActionsBeforeTick
                0x000000000001cfe2       0x4b obj_cooja/mtype645.a(cooja-radio.o)
 .text.doInterfaceActionsAfterTick
                0x000000000001d02d        0x5 obj_cooja/mtype645.a(cooja-radio.o)
 .text.radio_read
                0x000000000001d032       0xb7 obj_cooja/mtype645.a(cooja-radio.o)
 .text.channel_clear
                0x000000000001d0e9       0x1b obj_cooja/mtype645.a(cooja-radio.o)
 .text.radio_send
                0x000000000001d104       0xda obj_cooja/mtype645.a(cooja-radio.o)
 .text.prepare_packet
                0x000000000001d1de       0x1c obj_cooja/mtype645.a(cooja-radio.o)
 .text.transmit_packet
                0x000000000001d1fa       0x3a obj_cooja/mtype645.a(cooja-radio.o)
 .text.receiving_packet
                0x000000000001d234        0xf obj_cooja/mtype645.a(cooja-radio.o)
 .text.pending_packet
                0x000000000001d243       0x25 obj_cooja/mtype645.a(cooja-radio.o)
 .text.process_thread_cooja_radio_process
                0x000000000001d268       0x9f obj_cooja/mtype645.a(cooja-radio.o)
 .text.init     0x000000000001d307       0x21 obj_cooja/mtype645.a(cooja-radio.o)
 .text.get_value
                0x000000000001d328       0xdc obj_cooja/mtype645.a(cooja-radio.o)
 .text.set_value
                0x000000000001d404      0x104 obj_cooja/mtype645.a(cooja-radio.o)
 .text.get_object
                0x000000000001d508       0x3d obj_cooja/mtype645.a(cooja-radio.o)
 .text.set_object
                0x000000000001d545        0xa obj_cooja/mtype645.a(cooja-radio.o)
 .text          0x000000000001d54f        0x0 obj_cooja/mtype645.a(eeprom.o)
 .text.eeprom_init
                0x000000000001d54f        0x5 obj_cooja/mtype645.a(eeprom.o)
                0x000000000001d54f                eeprom_init
 .text.eeprom_read
                0x000000000001d554       0x70 obj_cooja/mtype645.a(eeprom.o)
                0x000000000001d554                eeprom_read
 .text.eeprom_write
                0x000000000001d5c4       0x70 obj_cooja/mtype645.a(eeprom.o)
                0x000000000001d5c4                eeprom_write
 .text.doInterfaceActionsBeforeTick
                0x000000000001d634        0x5 obj_cooja/mtype645.a(eeprom.o)
 .text.doInterfaceActionsAfterTick
                0x000000000001d639        0x5 obj_cooja/mtype645.a(eeprom.o)
 .text          0x000000000001d63e        0x0 obj_cooja/mtype645.a(random.o)
 .text.random_init
                0x000000000001d63e       0x1b obj_cooja/mtype645.a(random.o)
                0x000000000001d63e                random_init
 .text.random_rand
                0x000000000001d659        0xd obj_cooja/mtype645.a(random.o)
                0x000000000001d659                random_rand
 .text          0x000000000001d666        0x0 obj_cooja/mtype645.a(sensors.o)
 .text.get_sensor_index
                0x000000000001d666       0x3b obj_cooja/mtype645.a(sensors.o)
 .text.sensors_first
                0x000000000001d6a1        0xa obj_cooja/mtype645.a(sensors.o)
                0x000000000001d6a1                sensors_first
 .text.sensors_next
                0x000000000001d6ab       0x1d obj_cooja/mtype645.a(sensors.o)
                0x000000000001d6ab                sensors_next
 .text.sensors_changed
                0x000000000001d6c8       0x2f obj_cooja/mtype645.a(sensors.o)
                0x000000000001d6c8                sensors_changed
 .text.sensors_find
                0x000000000001d6f7       0x6b obj_cooja/mtype645.a(sensors.o)
                0x000000000001d6f7                sensors_find
 .text.process_thread_sensors_process
                0x000000000001d762      0x1a5 obj_cooja/mtype645.a(sensors.o)
 .text          0x000000000001d907        0x0 obj_cooja/mtype645.a(autostart.o)
 .text.autostart_start
                0x000000000001d907       0x4b obj_cooja/mtype645.a(autostart.o)
                0x000000000001d907                autostart_start
 .text.autostart_exit
                0x000000000001d952       0x43 obj_cooja/mtype645.a(autostart.o)
                0x000000000001d952                autostart_exit
 .text          0x000000000001d995        0x0 obj_cooja/mtype645.a(ctimer.o)
 .text.process_thread_ctimer_process
                0x000000000001d995      0x117 obj_cooja/mtype645.a(ctimer.o)
 .text.ctimer_init
                0x000000000001daac       0x30 obj_cooja/mtype645.a(ctimer.o)
                0x000000000001daac                ctimer_init
 .text.ctimer_set
                0x000000000001dadc       0x31 obj_cooja/mtype645.a(ctimer.o)
                0x000000000001dadc                ctimer_set
 .text.ctimer_set_with_process
                0x000000000001db0d       0x7c obj_cooja/mtype645.a(ctimer.o)
                0x000000000001db0d                ctimer_set_with_process
 .text.ctimer_reset
                0x000000000001db89       0x4f obj_cooja/mtype645.a(ctimer.o)
                0x000000000001db89                ctimer_reset
 .text.ctimer_restart
                0x000000000001dbd8       0x4f obj_cooja/mtype645.a(ctimer.o)
                0x000000000001dbd8                ctimer_restart
 .text.ctimer_stop
                0x000000000001dc27       0x4b obj_cooja/mtype645.a(ctimer.o)
                0x000000000001dc27                ctimer_stop
 .text.ctimer_expired
                0x000000000001dc72       0x57 obj_cooja/mtype645.a(ctimer.o)
                0x000000000001dc72                ctimer_expired
 .text          0x000000000001dcc9        0x0 obj_cooja/mtype645.a(etimer.o)
 .text.update_time
                0x000000000001dcc9       0x8f obj_cooja/mtype645.a(etimer.o)
 .text.process_thread_etimer_process
                0x000000000001dd58      0x184 obj_cooja/mtype645.a(etimer.o)
 .text.etimer_request_poll
                0x000000000001dedc       0x14 obj_cooja/mtype645.a(etimer.o)
                0x000000000001dedc                etimer_request_poll
 .text.add_timer
                0x000000000001def0       0x70 obj_cooja/mtype645.a(etimer.o)
 .text.etimer_set
                0x000000000001df60       0x25 obj_cooja/mtype645.a(etimer.o)
                0x000000000001df60                etimer_set
 .text.etimer_reset_with_new_interval
                0x000000000001df85       0x27 obj_cooja/mtype645.a(etimer.o)
                0x000000000001df85                etimer_reset_with_new_interval
 .text.etimer_reset
                0x000000000001dfac       0x1e obj_cooja/mtype645.a(etimer.o)
                0x000000000001dfac                etimer_reset
 .text.etimer_restart
                0x000000000001dfca       0x1e obj_cooja/mtype645.a(etimer.o)
                0x000000000001dfca                etimer_restart
 .text.etimer_adjust
                0x000000000001dfe8       0x1c obj_cooja/mtype645.a(etimer.o)
                0x000000000001dfe8                etimer_adjust
 .text.etimer_expired
                0x000000000001e004       0x13 obj_cooja/mtype645.a(etimer.o)
                0x000000000001e004                etimer_expired
 .text.etimer_expiration_time
                0x000000000001e017       0x12 obj_cooja/mtype645.a(etimer.o)
                0x000000000001e017                etimer_expiration_time
 .text.etimer_start_time
                0x000000000001e029        0xa obj_cooja/mtype645.a(etimer.o)
                0x000000000001e029                etimer_start_time
 .text.etimer_pending
                0x000000000001e033       0x12 obj_cooja/mtype645.a(etimer.o)
                0x000000000001e033                etimer_pending
 .text.etimer_next_expiration_time
                0x000000000001e045       0x1a obj_cooja/mtype645.a(etimer.o)
                0x000000000001e045                etimer_next_expiration_time
 .text.etimer_stop
                0x000000000001e05f       0x75 obj_cooja/mtype645.a(etimer.o)
                0x000000000001e05f                etimer_stop
 .text          0x000000000001e0d4        0x0 obj_cooja/mtype645.a(process.o)
 .text.process_alloc_event
                0x000000000001e0d4       0x15 obj_cooja/mtype645.a(process.o)
                0x000000000001e0d4                process_alloc_event
 .text.process_start
                0x000000000001e0e9       0x6f obj_cooja/mtype645.a(process.o)
                0x000000000001e0e9                process_start
 .text.exit_process
                0x000000000001e158       0xea obj_cooja/mtype645.a(process.o)
 .text.call_process
                0x000000000001e242       0x90 obj_cooja/mtype645.a(process.o)
 .text.process_exit
                0x000000000001e2d2       0x1c obj_cooja/mtype645.a(process.o)
                0x000000000001e2d2                process_exit
 .text.process_init
                0x000000000001e2ee       0x33 obj_cooja/mtype645.a(process.o)
                0x000000000001e2ee                process_init
 .text.do_poll  0x000000000001e321       0x5b obj_cooja/mtype645.a(process.o)
 .text.do_event
                0x000000000001e37c      0x114 obj_cooja/mtype645.a(process.o)
 .text.process_run
                0x000000000001e490       0x33 obj_cooja/mtype645.a(process.o)
                0x000000000001e490                process_run
 .text.process_nevents
                0x000000000001e4c3       0x1b obj_cooja/mtype645.a(process.o)
                0x000000000001e4c3                process_nevents
 .text.process_post
                0x000000000001e4de       0x95 obj_cooja/mtype645.a(process.o)
                0x000000000001e4de                process_post
 .text.process_post_synch
                0x000000000001e573       0x38 obj_cooja/mtype645.a(process.o)
                0x000000000001e573                process_post_synch
 .text.process_poll
                0x000000000001e5ab       0x2f obj_cooja/mtype645.a(process.o)
                0x000000000001e5ab                process_poll
 .text.process_is_running
                0x000000000001e5da       0x14 obj_cooja/mtype645.a(process.o)
                0x000000000001e5da                process_is_running
 .text          0x000000000001e5ee        0x0 obj_cooja/mtype645.a(rtimer.o)
 .text.rtimer_init
                0x000000000001e5ee        0xd obj_cooja/mtype645.a(rtimer.o)
                0x000000000001e5ee                rtimer_init
 .text.rtimer_set
                0x000000000001e5fb       0x7c obj_cooja/mtype645.a(rtimer.o)
                0x000000000001e5fb                rtimer_set
 .text.rtimer_run_next
                0x000000000001e677       0x5d obj_cooja/mtype645.a(rtimer.o)
                0x000000000001e677                rtimer_run_next
 .text          0x000000000001e6d4        0x0 obj_cooja/mtype645.a(timer.o)
 .text.timer_set
                0x000000000001e6d4       0x1b obj_cooja/mtype645.a(timer.o)
                0x000000000001e6d4                timer_set
 .text.timer_reset
                0x000000000001e6ef       0x17 obj_cooja/mtype645.a(timer.o)
                0x000000000001e6ef                timer_reset
 .text.timer_restart
                0x000000000001e706       0x12 obj_cooja/mtype645.a(timer.o)
                0x000000000001e706                timer_restart
 .text.timer_expired
                0x000000000001e718       0x29 obj_cooja/mtype645.a(timer.o)
                0x000000000001e718                timer_expired
 .text.timer_remaining
                0x000000000001e741       0x24 obj_cooja/mtype645.a(timer.o)
                0x000000000001e741                timer_remaining
 .text          0x000000000001e765        0x0 obj_cooja/mtype645.a(serial-line.o)
 .text.serial_line_input_byte
                0x000000000001e765       0x7d obj_cooja/mtype645.a(serial-line.o)
                0x000000000001e765                serial_line_input_byte
 .text.process_thread_serial_line_process
                0x000000000001e7e2      0x146 obj_cooja/mtype645.a(serial-line.o)
 .text.serial_line_init
                0x000000000001e928       0x38 obj_cooja/mtype645.a(serial-line.o)
                0x000000000001e928                serial_line_init
 .text          0x000000000001e960        0x0 obj_cooja/mtype645.a(assert.o)
 .text._xassert
                0x000000000001e960       0x22 obj_cooja/mtype645.a(assert.o)
                0x000000000001e960                _xassert
 .text          0x000000000001e982        0x0 obj_cooja/mtype645.a(list.o)
 .text.list_init
                0x000000000001e982        0xe obj_cooja/mtype645.a(list.o)
                0x000000000001e982                list_init
 .text.list_head
                0x000000000001e990        0xa obj_cooja/mtype645.a(list.o)
                0x000000000001e990                list_head
 .text.list_copy
                0x000000000001e99a        0xf obj_cooja/mtype645.a(list.o)
                0x000000000001e99a                list_copy
 .text.list_tail
                0x000000000001e9a9       0x36 obj_cooja/mtype645.a(list.o)
                0x000000000001e9a9                list_tail
 .text.list_add
                0x000000000001e9df       0x49 obj_cooja/mtype645.a(list.o)
                0x000000000001e9df                list_add
 .text.list_push
                0x000000000001ea28       0x2c obj_cooja/mtype645.a(list.o)
                0x000000000001ea28                list_push
 .text.list_chop
                0x000000000001ea54       0x6a obj_cooja/mtype645.a(list.o)
                0x000000000001ea54                list_chop
 .text.list_pop
                0x000000000001eabe       0x28 obj_cooja/mtype645.a(list.o)
                0x000000000001eabe                list_pop
 .text.list_remove
                0x000000000001eae6       0x67 obj_cooja/mtype645.a(list.o)
                0x000000000001eae6                list_remove
 .text.list_length
                0x000000000001eb4d       0x2e obj_cooja/mtype645.a(list.o)
                0x000000000001eb4d                list_length
 .text.list_insert
                0x000000000001eb7b       0x34 obj_cooja/mtype645.a(list.o)
                0x000000000001eb7b                list_insert
 .text.list_item_next
                0x000000000001ebaf       0x17 obj_cooja/mtype645.a(list.o)
                0x000000000001ebaf                list_item_next
 .text          0x000000000001ebc6        0x0 obj_cooja/mtype645.a(memb.o)
 .text.memb_init
                0x000000000001ebc6       0x5e obj_cooja/mtype645.a(memb.o)
                0x000000000001ebc6                memb_init
 .text.memb_alloc
                0x000000000001ec24       0x65 obj_cooja/mtype645.a(memb.o)
                0x000000000001ec24                memb_alloc
 .text.memb_free
                0x000000000001ec89       0x7b obj_cooja/mtype645.a(memb.o)
                0x000000000001ec89                memb_free
 .text.memb_inmemb
                0x000000000001ed04       0x3f obj_cooja/mtype645.a(memb.o)
                0x000000000001ed04                memb_inmemb
 .text.memb_numfree
                0x000000000001ed43       0x44 obj_cooja/mtype645.a(memb.o)
                0x000000000001ed43                memb_numfree
 .text          0x000000000001ed87        0x0 obj_cooja/mtype645.a(ringbuf.o)
 .text.ringbuf_init
                0x000000000001ed87       0x31 obj_cooja/mtype645.a(ringbuf.o)
                0x000000000001ed87                ringbuf_init
 .text.ringbuf_put
                0x000000000001edb8       0x7e obj_cooja/mtype645.a(ringbuf.o)
                0x000000000001edb8                ringbuf_put
 .text.ringbuf_get
                0x000000000001ee36       0x6d obj_cooja/mtype645.a(ringbuf.o)
                0x000000000001ee36                ringbuf_get
 .text.ringbuf_size
                0x000000000001eea3       0x12 obj_cooja/mtype645.a(ringbuf.o)
                0x000000000001eea3                ringbuf_size
 .text.ringbuf_elements
                0x000000000001eeb5       0x27 obj_cooja/mtype645.a(ringbuf.o)
                0x000000000001eeb5                ringbuf_elements
 .text          0x000000000001eedc        0x0 obj_cooja/mtype645.a(sicslowpan.o)
 .text.packetbuf_set_attr
                0x000000000001eedc       0x2a obj_cooja/mtype645.a(sicslowpan.o)
 .text.packetbuf_attr
                0x000000000001ef06       0x1a obj_cooja/mtype645.a(sicslowpan.o)
 .text.packetbuf_set_addr
                0x000000000001ef20       0x32 obj_cooja/mtype645.a(sicslowpan.o)
 .text.packetbuf_addr
                0x000000000001ef52       0x1d obj_cooja/mtype645.a(sicslowpan.o)
 .text.clear_fragments
                0x000000000001ef6f       0x79 obj_cooja/mtype645.a(sicslowpan.o)
 .text.timeout_fragments
                0x000000000001efe8       0x75 obj_cooja/mtype645.a(sicslowpan.o)
 .text.store_fragment
                0x000000000001f05d       0xe8 obj_cooja/mtype645.a(sicslowpan.o)
 .text.add_fragment
                0x000000000001f145      0x23e obj_cooja/mtype645.a(sicslowpan.o)
 .text.copy_frags2uip
                0x000000000001f383       0xe3 obj_cooja/mtype645.a(sicslowpan.o)
 .text.rime_sniffer_add
                0x000000000001f466        0xd obj_cooja/mtype645.a(sicslowpan.o)
                0x000000000001f466                rime_sniffer_add
 .text.rime_sniffer_remove
                0x000000000001f473        0xf obj_cooja/mtype645.a(sicslowpan.o)
                0x000000000001f473                rime_sniffer_remove
 .text.set_packet_attrs
                0x000000000001f482       0xe9 obj_cooja/mtype645.a(sicslowpan.o)
 .text.addr_context_lookup_by_prefix
                0x000000000001f56b       0x7a obj_cooja/mtype645.a(sicslowpan.o)
 .text.addr_context_lookup_by_number
                0x000000000001f5e5       0x6a obj_cooja/mtype645.a(sicslowpan.o)
 .text.compress_addr_64
                0x000000000001f64f      0x16c obj_cooja/mtype645.a(sicslowpan.o)
 .text.uncompress_addr
                0x000000000001f7bb      0x120 obj_cooja/mtype645.a(sicslowpan.o)
 .text.compress_hdr_iphc
                0x000000000001f8db      0x994 obj_cooja/mtype645.a(sicslowpan.o)
 .text.uncompress_hdr_iphc
                0x000000000002026f      0x7dd obj_cooja/mtype645.a(sicslowpan.o)
 .text.compress_hdr_ipv6
                0x0000000000020a4c       0x68 obj_cooja/mtype645.a(sicslowpan.o)
 .text.packet_sent
                0x0000000000020ab4       0x3b obj_cooja/mtype645.a(sicslowpan.o)
 .text.send_packet
                0x0000000000020aef       0x36 obj_cooja/mtype645.a(sicslowpan.o)
 .text.output   0x0000000000020b25      0x49d obj_cooja/mtype645.a(sicslowpan.o)
 .text.input    0x0000000000020fc2      0x458 obj_cooja/mtype645.a(sicslowpan.o)
 .text.sicslowpan_init
                0x000000000002141a       0x57 obj_cooja/mtype645.a(sicslowpan.o)
                0x000000000002141a                sicslowpan_init
 .text.sicslowpan_get_last_rssi
                0x0000000000021471        0xa obj_cooja/mtype645.a(sicslowpan.o)
                0x0000000000021471                sicslowpan_get_last_rssi
 .text          0x000000000002147b        0x0 obj_cooja/mtype645.a(uip-ds6-nbr.o)
 .text.packetbuf_addr
                0x000000000002147b       0x1d obj_cooja/mtype645.a(uip-ds6-nbr.o)
 .text.uip_ds6_neighbors_init
                0x0000000000021498       0x22 obj_cooja/mtype645.a(uip-ds6-nbr.o)
                0x0000000000021498                uip_ds6_neighbors_init
 .text.uip_ds6_nbr_add
                0x00000000000214ba       0xe2 obj_cooja/mtype645.a(uip-ds6-nbr.o)
                0x00000000000214ba                uip_ds6_nbr_add
 .text.uip_ds6_nbr_rm
                0x000000000002159c       0x42 obj_cooja/mtype645.a(uip-ds6-nbr.o)
                0x000000000002159c                uip_ds6_nbr_rm
 .text.uip_ds6_nbr_get_ipaddr
                0x00000000000215de       0x15 obj_cooja/mtype645.a(uip-ds6-nbr.o)
                0x00000000000215de                uip_ds6_nbr_get_ipaddr
 .text.uip_ds6_nbr_get_ll
                0x00000000000215f3       0x1c obj_cooja/mtype645.a(uip-ds6-nbr.o)
                0x00000000000215f3                uip_ds6_nbr_get_ll
 .text.uip_ds6_nbr_num
                0x000000000002160f       0x45 obj_cooja/mtype645.a(uip-ds6-nbr.o)
                0x000000000002160f                uip_ds6_nbr_num
 .text.uip_ds6_nbr_lookup
                0x0000000000021654       0x65 obj_cooja/mtype645.a(uip-ds6-nbr.o)
                0x0000000000021654                uip_ds6_nbr_lookup
 .text.uip_ds6_nbr_ll_lookup
                0x00000000000216b9       0x1c obj_cooja/mtype645.a(uip-ds6-nbr.o)
                0x00000000000216b9                uip_ds6_nbr_ll_lookup
 .text.uip_ds6_nbr_ipaddr_from_lladdr
                0x00000000000216d5       0x26 obj_cooja/mtype645.a(uip-ds6-nbr.o)
                0x00000000000216d5                uip_ds6_nbr_ipaddr_from_lladdr
 .text.uip_ds6_nbr_lladdr_from_ipaddr
                0x00000000000216fb       0x2e obj_cooja/mtype645.a(uip-ds6-nbr.o)
                0x00000000000216fb                uip_ds6_nbr_lladdr_from_ipaddr
 .text.uip_ds6_link_neighbor_callback
                0x0000000000021729       0x62 obj_cooja/mtype645.a(uip-ds6-nbr.o)
                0x0000000000021729                uip_ds6_link_neighbor_callback
 .text.uip_ds6_neighbor_periodic
                0x000000000002178b      0x244 obj_cooja/mtype645.a(uip-ds6-nbr.o)
                0x000000000002178b                uip_ds6_neighbor_periodic
 .text.uip_ds6_nbr_refresh_reachable_state
                0x00000000000219cf       0x40 obj_cooja/mtype645.a(uip-ds6-nbr.o)
                0x00000000000219cf                uip_ds6_nbr_refresh_reachable_state
 .text.uip_ds6_get_least_lifetime_neighbor
                0x0000000000021a0f       0x7b obj_cooja/mtype645.a(uip-ds6-nbr.o)
                0x0000000000021a0f                uip_ds6_get_least_lifetime_neighbor
 .text          0x0000000000021a8a        0x0 obj_cooja/mtype645.a(uip-ds6-route.o)
 .text.call_route_callback
                0x0000000000021a8a       0x77 obj_cooja/mtype645.a(uip-ds6-route.o)
 .text.uip_ds6_notification_add
                0x0000000000021b01       0x31 obj_cooja/mtype645.a(uip-ds6-route.o)
                0x0000000000021b01                uip_ds6_notification_add
 .text.uip_ds6_notification_rm
                0x0000000000021b32       0x1c obj_cooja/mtype645.a(uip-ds6-route.o)
                0x0000000000021b32                uip_ds6_notification_rm
 .text.uip_ds6_route_init
                0x0000000000021b4e       0x5c obj_cooja/mtype645.a(uip-ds6-route.o)
                0x0000000000021b4e                uip_ds6_route_init
 .text.uip_ds6_route_nexthop_lladdr
                0x0000000000021baa       0x2c obj_cooja/mtype645.a(uip-ds6-route.o)
 .text.uip_ds6_route_nexthop
                0x0000000000021bd6       0x28 obj_cooja/mtype645.a(uip-ds6-route.o)
                0x0000000000021bd6                uip_ds6_route_nexthop
 .text.uip_ds6_route_head
                0x0000000000021bfe       0x15 obj_cooja/mtype645.a(uip-ds6-route.o)
                0x0000000000021bfe                uip_ds6_route_head
 .text.uip_ds6_route_next
                0x0000000000021c13       0x26 obj_cooja/mtype645.a(uip-ds6-route.o)
                0x0000000000021c13                uip_ds6_route_next
 .text.uip_ds6_route_is_nexthop
                0x0000000000021c39       0x3f obj_cooja/mtype645.a(uip-ds6-route.o)
                0x0000000000021c39                uip_ds6_route_is_nexthop
 .text.uip_ds6_route_num_routes
                0x0000000000021c78        0xa obj_cooja/mtype645.a(uip-ds6-route.o)
                0x0000000000021c78                uip_ds6_route_num_routes
 .text.uip_ds6_route_lookup
                0x0000000000021c82       0xc2 obj_cooja/mtype645.a(uip-ds6-route.o)
                0x0000000000021c82                uip_ds6_route_lookup
 .text.uip_ds6_route_add
                0x0000000000021d44      0x236 obj_cooja/mtype645.a(uip-ds6-route.o)
                0x0000000000021d44                uip_ds6_route_add
 .text.uip_ds6_route_rm
                0x0000000000021f7a      0x11d obj_cooja/mtype645.a(uip-ds6-route.o)
                0x0000000000021f7a                uip_ds6_route_rm
 .text.rm_routelist
                0x0000000000022097       0x64 obj_cooja/mtype645.a(uip-ds6-route.o)
 .text.rm_routelist_callback
                0x00000000000220fb       0x13 obj_cooja/mtype645.a(uip-ds6-route.o)
 .text.uip_ds6_route_rm_by_nexthop
                0x000000000002210e       0x38 obj_cooja/mtype645.a(uip-ds6-route.o)
                0x000000000002210e                uip_ds6_route_rm_by_nexthop
 .text.uip_ds6_defrt_head
                0x0000000000022146       0x15 obj_cooja/mtype645.a(uip-ds6-route.o)
                0x0000000000022146                uip_ds6_defrt_head
 .text.uip_ds6_defrt_add
                0x000000000002215b       0xb1 obj_cooja/mtype645.a(uip-ds6-route.o)
                0x000000000002215b                uip_ds6_defrt_add
 .text.uip_ds6_defrt_rm
                0x000000000002220c       0x7f obj_cooja/mtype645.a(uip-ds6-route.o)
                0x000000000002220c                uip_ds6_defrt_rm
 .text.uip_ds6_defrt_lookup
                0x000000000002228b       0x59 obj_cooja/mtype645.a(uip-ds6-route.o)
                0x000000000002228b                uip_ds6_defrt_lookup
 .text.uip_ds6_defrt_choose
                0x00000000000222e4       0x6b obj_cooja/mtype645.a(uip-ds6-route.o)
                0x00000000000222e4                uip_ds6_defrt_choose
 .text.uip_ds6_defrt_periodic
                0x000000000002234f       0x68 obj_cooja/mtype645.a(uip-ds6-route.o)
                0x000000000002234f                uip_ds6_defrt_periodic
 .text          0x00000000000223b7        0x0 obj_cooja/mtype645.a(uip-ds6.o)
 .text.uip_ds6_init
                0x00000000000223b7      0x1d3 obj_cooja/mtype645.a(uip-ds6.o)
                0x00000000000223b7                uip_ds6_init
 .text.uip_ds6_periodic
                0x000000000002258a       0x7e obj_cooja/mtype645.a(uip-ds6.o)
                0x000000000002258a                uip_ds6_periodic
 .text.uip_ds6_list_loop
                0x0000000000022608       0xa7 obj_cooja/mtype645.a(uip-ds6.o)
                0x0000000000022608                uip_ds6_list_loop
 .text.uip_ds6_prefix_add
                0x00000000000226af       0xbe obj_cooja/mtype645.a(uip-ds6.o)
                0x00000000000226af                uip_ds6_prefix_add
 .text.uip_ds6_prefix_rm
                0x000000000002276d       0x12 obj_cooja/mtype645.a(uip-ds6.o)
                0x000000000002276d                uip_ds6_prefix_rm
 .text.uip_ds6_prefix_lookup
                0x000000000002277f       0x51 obj_cooja/mtype645.a(uip-ds6.o)
                0x000000000002277f                uip_ds6_prefix_lookup
 .text.uip_ds6_is_addr_onlink
                0x00000000000227d0       0x74 obj_cooja/mtype645.a(uip-ds6.o)
                0x00000000000227d0                uip_ds6_is_addr_onlink
 .text.uip_ds6_addr_add
                0x0000000000022844      0x12e obj_cooja/mtype645.a(uip-ds6.o)
                0x0000000000022844                uip_ds6_addr_add
 .text.uip_ds6_addr_rm
                0x0000000000022972       0xa0 obj_cooja/mtype645.a(uip-ds6.o)
                0x0000000000022972                uip_ds6_addr_rm
 .text.uip_ds6_addr_lookup
                0x0000000000022a12       0x4b obj_cooja/mtype645.a(uip-ds6.o)
                0x0000000000022a12                uip_ds6_addr_lookup
 .text.uip_ds6_get_link_local
                0x0000000000022a5d       0x7f obj_cooja/mtype645.a(uip-ds6.o)
                0x0000000000022a5d                uip_ds6_get_link_local
 .text.uip_ds6_get_global
                0x0000000000022adc       0x7f obj_cooja/mtype645.a(uip-ds6.o)
                0x0000000000022adc                uip_ds6_get_global
 .text.uip_ds6_maddr_add
                0x0000000000022b5b       0x72 obj_cooja/mtype645.a(uip-ds6.o)
                0x0000000000022b5b                uip_ds6_maddr_add
 .text.uip_ds6_maddr_rm
                0x0000000000022bcd       0x12 obj_cooja/mtype645.a(uip-ds6.o)
                0x0000000000022bcd                uip_ds6_maddr_rm
 .text.uip_ds6_maddr_lookup
                0x0000000000022bdf       0x4b obj_cooja/mtype645.a(uip-ds6.o)
                0x0000000000022bdf                uip_ds6_maddr_lookup
 .text.uip_ds6_aaddr_add
                0x0000000000022c2a       0x72 obj_cooja/mtype645.a(uip-ds6.o)
                0x0000000000022c2a                uip_ds6_aaddr_add
 .text.uip_ds6_aaddr_rm
                0x0000000000022c9c       0x12 obj_cooja/mtype645.a(uip-ds6.o)
                0x0000000000022c9c                uip_ds6_aaddr_rm
 .text.uip_ds6_aaddr_lookup
                0x0000000000022cae       0x4b obj_cooja/mtype645.a(uip-ds6.o)
                0x0000000000022cae                uip_ds6_aaddr_lookup
 .text.uip_ds6_select_src
                0x0000000000022cf9      0x145 obj_cooja/mtype645.a(uip-ds6.o)
                0x0000000000022cf9                uip_ds6_select_src
 .text.uip_ds6_set_addr_iid
                0x0000000000022e3e       0x37 obj_cooja/mtype645.a(uip-ds6.o)
                0x0000000000022e3e                uip_ds6_set_addr_iid
 .text.get_match_length
                0x0000000000022e75       0x92 obj_cooja/mtype645.a(uip-ds6.o)
                0x0000000000022e75                get_match_length
 .text.uip_ds6_compute_reachable_time
                0x0000000000022f07       0x4c obj_cooja/mtype645.a(uip-ds6.o)
                0x0000000000022f07                uip_ds6_compute_reachable_time
 .text          0x0000000000022f53        0x0 obj_cooja/mtype645.a(uip-nd6.o)
 .text.extract_lladdr_from_llao_aligned
                0x0000000000022f53       0x42 obj_cooja/mtype645.a(uip-nd6.o)
 .text.create_llao
                0x0000000000022f95       0x54 obj_cooja/mtype645.a(uip-nd6.o)
 .text.ns_input
                0x0000000000022fe9      0x602 obj_cooja/mtype645.a(uip-nd6.o)
 .text.uip_nd6_ns_output
                0x00000000000235eb      0x2ff obj_cooja/mtype645.a(uip-nd6.o)
                0x00000000000235eb                uip_nd6_ns_output
 .text.na_input
                0x00000000000238ea      0x430 obj_cooja/mtype645.a(uip-nd6.o)
 .text.uip_nd6_init
                0x0000000000023d1a       0x20 obj_cooja/mtype645.a(uip-nd6.o)
                0x0000000000023d1a                uip_nd6_init
 .text          0x0000000000023d3a        0x0 obj_cooja/mtype645.a(uip6.o)
 .text.uip_add32
                0x0000000000023d3a       0xea obj_cooja/mtype645.a(uip6.o)
                0x0000000000023d3a                uip_add32
 .text.chksum   0x0000000000023e24       0xaf obj_cooja/mtype645.a(uip6.o)
 .text.uip_chksum
                0x0000000000023ed3       0x35 obj_cooja/mtype645.a(uip6.o)
                0x0000000000023ed3                uip_chksum
 .text.upper_layer_chksum
                0x0000000000023f08       0xb9 obj_cooja/mtype645.a(uip6.o)
 .text.uip_icmp6chksum
                0x0000000000023fc1       0x14 obj_cooja/mtype645.a(uip6.o)
                0x0000000000023fc1                uip_icmp6chksum
 .text.uip_tcpchksum
                0x0000000000023fd5       0x14 obj_cooja/mtype645.a(uip6.o)
                0x0000000000023fd5                uip_tcpchksum
 .text.uip_udpchksum
                0x0000000000023fe9       0x14 obj_cooja/mtype645.a(uip6.o)
                0x0000000000023fe9                uip_udpchksum
 .text.uip_init
                0x0000000000023ffd       0x8b obj_cooja/mtype645.a(uip6.o)
                0x0000000000023ffd                uip_init
 .text.uip_connect
                0x0000000000024088      0x181 obj_cooja/mtype645.a(uip6.o)
                0x0000000000024088                uip_connect
 .text.remove_ext_hdr
                0x0000000000024209       0xd5 obj_cooja/mtype645.a(uip6.o)
                0x0000000000024209                remove_ext_hdr
 .text.uip_udp_new
                0x00000000000242de      0x127 obj_cooja/mtype645.a(uip6.o)
                0x00000000000242de                uip_udp_new
 .text.uip_unlisten
                0x0000000000024405       0x42 obj_cooja/mtype645.a(uip6.o)
                0x0000000000024405                uip_unlisten
 .text.uip_listen
                0x0000000000024447       0x43 obj_cooja/mtype645.a(uip6.o)
                0x0000000000024447                uip_listen
 .text.uip_add_rcv_nxt
                0x000000000002448a       0x64 obj_cooja/mtype645.a(uip6.o)
 .text.ext_hdr_options_process
                0x00000000000244ee      0x1fd obj_cooja/mtype645.a(uip6.o)
 .text.uip_process
                0x00000000000246eb     0x1ca1 obj_cooja/mtype645.a(uip6.o)
                0x00000000000246eb                uip_process
 .text.uip_htons
                0x000000000002638c       0x22 obj_cooja/mtype645.a(uip6.o)
                0x000000000002638c                uip_htons
 .text.uip_htonl
                0x00000000000263ae       0x40 obj_cooja/mtype645.a(uip6.o)
                0x00000000000263ae                uip_htonl
 .text.uip_send
                0x00000000000263ee       0xaa obj_cooja/mtype645.a(uip6.o)
                0x00000000000263ee                uip_send
 .text          0x0000000000026498        0x0 obj_cooja/mtype645.a(resolv.o)
 .text.decode_name
                0x0000000000026498       0xe8 obj_cooja/mtype645.a(resolv.o)
 .text.dns_name_isequal
                0x0000000000026580      0x119 obj_cooja/mtype645.a(resolv.o)
 .text.skip_name
                0x0000000000026699       0x48 obj_cooja/mtype645.a(resolv.o)
 .text.encode_name
                0x00000000000266e1       0x73 obj_cooja/mtype645.a(resolv.o)
 .text.mdns_announce_requested
                0x0000000000026754        0xf obj_cooja/mtype645.a(resolv.o)
 .text.start_name_collision_check
                0x0000000000026763       0x27 obj_cooja/mtype645.a(resolv.o)
 .text.mdns_write_announce_records
                0x000000000002678a      0x155 obj_cooja/mtype645.a(resolv.o)
 .text.mdns_prep_host_announce_packet
                0x00000000000268df       0xf5 obj_cooja/mtype645.a(resolv.o)
 .text.try_next_server
                0x00000000000269d4       0x48 obj_cooja/mtype645.a(resolv.o)
 .text.check_entries
                0x0000000000026a1c      0x311 obj_cooja/mtype645.a(resolv.o)
 .text.newdata  0x0000000000026d2d      0x545 obj_cooja/mtype645.a(resolv.o)
 .text.resolv_set_hostname
                0x0000000000027272       0xa9 obj_cooja/mtype645.a(resolv.o)
                0x0000000000027272                resolv_set_hostname
 .text.resolv_get_hostname
                0x000000000002731b        0xa obj_cooja/mtype645.a(resolv.o)
                0x000000000002731b                resolv_get_hostname
 .text.process_thread_mdns_probe_process
                0x0000000000027325      0x178 obj_cooja/mtype645.a(resolv.o)
 .text.process_thread_resolv_process
                0x000000000002749d      0x1f6 obj_cooja/mtype645.a(resolv.o)
 .text.init     0x0000000000027693       0x2e obj_cooja/mtype645.a(resolv.o)
 .text.remove_trailing_dots
                0x00000000000276c1       0x7b obj_cooja/mtype645.a(resolv.o)
 .text.resolv_query
                0x000000000002773c      0x22e obj_cooja/mtype645.a(resolv.o)
                0x000000000002773c                resolv_query
 .text.resolv_lookup
                0x000000000002796a       0xcc obj_cooja/mtype645.a(resolv.o)
                0x000000000002796a                resolv_lookup
 .text.resolv_found
                0x0000000000027a36      0x1da obj_cooja/mtype645.a(resolv.o)
 .text          0x0000000000027c10        0x0 obj_cooja/mtype645.a(tcpip.o)
 .text.tcpip_output
                0x0000000000027c10       0x2e obj_cooja/mtype645.a(tcpip.o)
                0x0000000000027c10                tcpip_output
 .text.tcpip_set_outputfunc
                0x0000000000027c3e        0xd obj_cooja/mtype645.a(tcpip.o)
                0x0000000000027c3e                tcpip_set_outputfunc
 .text.start_periodic_tcp_timer
                0x0000000000027c4b       0x24 obj_cooja/mtype645.a(tcpip.o)
 .text.check_for_tcp_syn
                0x0000000000027c6f       0x2d obj_cooja/mtype645.a(tcpip.o)
 .text.packet_input
                0x0000000000027c9c       0x36 obj_cooja/mtype645.a(tcpip.o)
 .text.tcp_connect
                0x0000000000027cd2       0x55 obj_cooja/mtype645.a(tcpip.o)
                0x0000000000027cd2                tcp_connect
 .text.tcp_unlisten
                0x0000000000027d27       0x5b obj_cooja/mtype645.a(tcpip.o)
                0x0000000000027d27                tcp_unlisten
 .text.tcp_listen
                0x0000000000027d82       0x59 obj_cooja/mtype645.a(tcpip.o)
                0x0000000000027d82                tcp_listen
 .text.tcp_attach
                0x0000000000027ddb       0x25 obj_cooja/mtype645.a(tcpip.o)
                0x0000000000027ddb                tcp_attach
 .text.udp_attach
                0x0000000000027e00       0x25 obj_cooja/mtype645.a(tcpip.o)
                0x0000000000027e00                udp_attach
 .text.udp_new  0x0000000000027e25       0x52 obj_cooja/mtype645.a(tcpip.o)
                0x0000000000027e25                udp_new
 .text.udp_broadcast_new
                0x0000000000027e77       0x92 obj_cooja/mtype645.a(tcpip.o)
                0x0000000000027e77                udp_broadcast_new
 .text.eventhandler
                0x0000000000027f09      0x1e2 obj_cooja/mtype645.a(tcpip.o)
 .text.tcpip_input
                0x00000000000280eb       0x34 obj_cooja/mtype645.a(tcpip.o)
                0x00000000000280eb                tcpip_input
 .text.tcpip_ipv6_output
                0x000000000002811f      0x4b5 obj_cooja/mtype645.a(tcpip.o)
                0x000000000002811f                tcpip_ipv6_output
 .text.tcpip_poll_udp
                0x00000000000285d4       0x23 obj_cooja/mtype645.a(tcpip.o)
                0x00000000000285d4                tcpip_poll_udp
 .text.tcpip_poll_tcp
                0x00000000000285f7       0x23 obj_cooja/mtype645.a(tcpip.o)
                0x00000000000285f7                tcpip_poll_tcp
 .text.tcpip_uipcall
                0x000000000002861a       0xbd obj_cooja/mtype645.a(tcpip.o)
                0x000000000002861a                tcpip_uipcall
 .text.process_thread_tcpip_process
                0x00000000000286d7       0xb7 obj_cooja/mtype645.a(tcpip.o)
 .text          0x000000000002878e        0x0 obj_cooja/mtype645.a(uip-debug.o)
 .text.uip_debug_ipaddr_print
                0x000000000002878e      0x162 obj_cooja/mtype645.a(uip-debug.o)
                0x000000000002878e                uip_debug_ipaddr_print
 .text          0x00000000000288f0        0x0 obj_cooja/mtype645.a(uip-nameserver.)
 .text.uip_nameserver_update
                0x00000000000288f0       0x32 obj_cooja/mtype645.a(uip-nameserver.)
                0x00000000000288f0                uip_nameserver_update
 .text.uip_nameserver_get
                0x0000000000028922       0x20 obj_cooja/mtype645.a(uip-nameserver.)
                0x0000000000028922                uip_nameserver_get
 .text.uip_nameserver_next_expiration
                0x0000000000028942        0xa obj_cooja/mtype645.a(uip-nameserver.)
                0x0000000000028942                uip_nameserver_next_expiration
 .text.uip_nameserver_count
                0x000000000002894c       0x71 obj_cooja/mtype645.a(uip-nameserver.)
                0x000000000002894c                uip_nameserver_count
 .text          0x00000000000289bd        0x0 obj_cooja/mtype645.a(uip-packetqueue)
 .text.packet_timedout
                0x00000000000289bd       0x2c obj_cooja/mtype645.a(uip-packetqueue)
 .text.uip_packetqueue_new
                0x00000000000289e9        0xe obj_cooja/mtype645.a(uip-packetqueue)
                0x00000000000289e9                uip_packetqueue_new
 .text.uip_packetqueue_alloc
                0x00000000000289f7       0x60 obj_cooja/mtype645.a(uip-packetqueue)
                0x00000000000289f7                uip_packetqueue_alloc
 .text.uip_packetqueue_free
                0x0000000000028a57       0x41 obj_cooja/mtype645.a(uip-packetqueue)
                0x0000000000028a57                uip_packetqueue_free
 .text.uip_packetqueue_buf
                0x0000000000028a98       0x1d obj_cooja/mtype645.a(uip-packetqueue)
                0x0000000000028a98                uip_packetqueue_buf
 .text.uip_packetqueue_buflen
                0x0000000000028ab5       0x21 obj_cooja/mtype645.a(uip-packetqueue)
                0x0000000000028ab5                uip_packetqueue_buflen
 .text.uip_packetqueue_set_buflen
                0x0000000000028ad6       0x28 obj_cooja/mtype645.a(uip-packetqueue)
                0x0000000000028ad6                uip_packetqueue_set_buflen
 .text          0x0000000000028afe        0x0 obj_cooja/mtype645.a(uip-udp-packet.)
 .text.uip_udp_packet_send
                0x0000000000028afe       0x5c obj_cooja/mtype645.a(uip-udp-packet.)
                0x0000000000028afe                uip_udp_packet_send
 .text.uip_udp_packet_sendto
                0x0000000000028b5a       0xd1 obj_cooja/mtype645.a(uip-udp-packet.)
                0x0000000000028b5a                uip_udp_packet_sendto
 .text          0x0000000000028c2b        0x0 obj_cooja/mtype645.a(rpl-dag.o)
 .text.rpl_print_neighbor_list
                0x0000000000028c2b      0x1e6 obj_cooja/mtype645.a(rpl-dag.o)
                0x0000000000028c2b                rpl_print_neighbor_list
 .text.rpl_get_nbr
                0x0000000000028e11       0x37 obj_cooja/mtype645.a(rpl-dag.o)
                0x0000000000028e11                rpl_get_nbr
 .text.nbr_callback
                0x0000000000028e48       0x13 obj_cooja/mtype645.a(rpl-dag.o)
 .text.rpl_dag_init
                0x0000000000028e5b       0x1d obj_cooja/mtype645.a(rpl-dag.o)
                0x0000000000028e5b                rpl_dag_init
 .text.rpl_get_parent
                0x0000000000028e78       0x22 obj_cooja/mtype645.a(rpl-dag.o)
                0x0000000000028e78                rpl_get_parent
 .text.rpl_get_parent_rank
                0x0000000000028e9a       0x33 obj_cooja/mtype645.a(rpl-dag.o)
                0x0000000000028e9a                rpl_get_parent_rank
 .text.rpl_get_parent_link_metric
                0x0000000000028ecd       0x57 obj_cooja/mtype645.a(rpl-dag.o)
                0x0000000000028ecd                rpl_get_parent_link_metric
 .text.rpl_rank_via_parent
                0x0000000000028f24       0x57 obj_cooja/mtype645.a(rpl-dag.o)
                0x0000000000028f24                rpl_rank_via_parent
 .text.rpl_get_parent_lladdr
                0x0000000000028f7b       0x1c obj_cooja/mtype645.a(rpl-dag.o)
                0x0000000000028f7b                rpl_get_parent_lladdr
 .text.rpl_get_parent_ipaddr
                0x0000000000028f97       0x21 obj_cooja/mtype645.a(rpl-dag.o)
                0x0000000000028f97                rpl_get_parent_ipaddr
 .text.rpl_get_parent_link_stats
                0x0000000000028fb8       0x21 obj_cooja/mtype645.a(rpl-dag.o)
                0x0000000000028fb8                rpl_get_parent_link_stats
 .text.rpl_parent_is_fresh
                0x0000000000028fd9       0x21 obj_cooja/mtype645.a(rpl-dag.o)
                0x0000000000028fd9                rpl_parent_is_fresh
 .text.rpl_parent_is_reachable
                0x0000000000028ffa       0x94 obj_cooja/mtype645.a(rpl-dag.o)
                0x0000000000028ffa                rpl_parent_is_reachable
 .text.rpl_set_preferred_parent
                0x000000000002908e       0x4d obj_cooja/mtype645.a(rpl-dag.o)
 .text.lollipop_greater_than
                0x00000000000290db       0x61 obj_cooja/mtype645.a(rpl-dag.o)
 .text.remove_parents
                0x000000000002913c       0x60 obj_cooja/mtype645.a(rpl-dag.o)
 .text.nullify_parents
                0x000000000002919c       0x60 obj_cooja/mtype645.a(rpl-dag.o)
 .text.should_refresh_routes
                0x00000000000291fc       0x5b obj_cooja/mtype645.a(rpl-dag.o)
 .text.acceptable_rank
                0x0000000000029257       0x8f obj_cooja/mtype645.a(rpl-dag.o)
 .text.get_dag  0x00000000000292e6       0x81 obj_cooja/mtype645.a(rpl-dag.o)
 .text.rpl_set_root
                0x0000000000029367      0x257 obj_cooja/mtype645.a(rpl-dag.o)
                0x0000000000029367                rpl_set_root
 .text.rpl_repair_root
                0x00000000000295be       0xd6 obj_cooja/mtype645.a(rpl-dag.o)
                0x00000000000295be                rpl_repair_root
 .text.set_ip_from_prefix
                0x0000000000029694       0x66 obj_cooja/mtype645.a(rpl-dag.o)
 .text.check_prefix
                0x00000000000296fa      0x100 obj_cooja/mtype645.a(rpl-dag.o)
 .text.rpl_set_prefix
                0x00000000000297fa       0xff obj_cooja/mtype645.a(rpl-dag.o)
                0x00000000000297fa                rpl_set_prefix
 .text.rpl_set_default_route
                0x00000000000298f9       0x6e obj_cooja/mtype645.a(rpl-dag.o)
                0x00000000000298f9                rpl_set_default_route
 .text.rpl_alloc_instance
                0x0000000000029967       0x93 obj_cooja/mtype645.a(rpl-dag.o)
                0x0000000000029967                rpl_alloc_instance
 .text.rpl_alloc_dag
                0x00000000000299fa       0xb1 obj_cooja/mtype645.a(rpl-dag.o)
                0x00000000000299fa                rpl_alloc_dag
 .text.rpl_set_default_instance
                0x0000000000029aab        0xd obj_cooja/mtype645.a(rpl-dag.o)
                0x0000000000029aab                rpl_set_default_instance
 .text.rpl_get_default_instance
                0x0000000000029ab8        0xa obj_cooja/mtype645.a(rpl-dag.o)
                0x0000000000029ab8                rpl_get_default_instance
 .text.rpl_free_instance
                0x0000000000029ac2       0xaf obj_cooja/mtype645.a(rpl-dag.o)
                0x0000000000029ac2                rpl_free_instance
 .text.rpl_free_dag
                0x0000000000029b71       0x81 obj_cooja/mtype645.a(rpl-dag.o)
                0x0000000000029b71                rpl_free_dag
 .text.rpl_add_parent
                0x0000000000029bf2       0x75 obj_cooja/mtype645.a(rpl-dag.o)
                0x0000000000029bf2                rpl_add_parent
 .text.find_parent_any_dag_any_instance
                0x0000000000029c67       0x38 obj_cooja/mtype645.a(rpl-dag.o)
 .text.rpl_find_parent
                0x0000000000029c9f       0x30 obj_cooja/mtype645.a(rpl-dag.o)
                0x0000000000029c9f                rpl_find_parent
 .text.find_parent_dag
                0x0000000000029ccf       0x28 obj_cooja/mtype645.a(rpl-dag.o)
 .text.rpl_find_parent_any_dag
                0x0000000000029cf7       0x3c obj_cooja/mtype645.a(rpl-dag.o)
                0x0000000000029cf7                rpl_find_parent_any_dag
 .text.rpl_select_dag
                0x0000000000029d33      0x322 obj_cooja/mtype645.a(rpl-dag.o)
                0x0000000000029d33                rpl_select_dag
 .text.best_parent
                0x000000000002a055       0xfd obj_cooja/mtype645.a(rpl-dag.o)
 .text.rpl_select_parent
                0x000000000002a152       0xda obj_cooja/mtype645.a(rpl-dag.o)
                0x000000000002a152                rpl_select_parent
 .text.rpl_remove_parent
                0x000000000002a22c       0x27 obj_cooja/mtype645.a(rpl-dag.o)
                0x000000000002a22c                rpl_remove_parent
 .text.rpl_nullify_parent
                0x000000000002a253       0xc1 obj_cooja/mtype645.a(rpl-dag.o)
                0x000000000002a253                rpl_nullify_parent
 .text.rpl_move_parent
                0x000000000002a314       0xb8 obj_cooja/mtype645.a(rpl-dag.o)
                0x000000000002a314                rpl_move_parent
 .text.rpl_has_downward_route
                0x000000000002a3cc       0x53 obj_cooja/mtype645.a(rpl-dag.o)
                0x000000000002a3cc                rpl_has_downward_route
 .text.rpl_get_dag
                0x000000000002a41f       0xec obj_cooja/mtype645.a(rpl-dag.o)
                0x000000000002a41f                rpl_get_dag
 .text.rpl_get_any_dag
                0x000000000002a50b       0x62 obj_cooja/mtype645.a(rpl-dag.o)
                0x000000000002a50b                rpl_get_any_dag
 .text.rpl_get_instance
                0x000000000002a56d       0x63 obj_cooja/mtype645.a(rpl-dag.o)
                0x000000000002a56d                rpl_get_instance
 .text.rpl_find_of
                0x000000000002a5d0       0x3d obj_cooja/mtype645.a(rpl-dag.o)
                0x000000000002a5d0                rpl_find_of
 .text.rpl_join_instance
                0x000000000002a60d      0x2c0 obj_cooja/mtype645.a(rpl-dag.o)
                0x000000000002a60d                rpl_join_instance
 .text.rpl_add_dag
                0x000000000002a8cd      0x27c obj_cooja/mtype645.a(rpl-dag.o)
                0x000000000002a8cd                rpl_add_dag
 .text.global_repair
                0x000000000002ab49      0x154 obj_cooja/mtype645.a(rpl-dag.o)
 .text.rpl_local_repair
                0x000000000002ac9d       0xd8 obj_cooja/mtype645.a(rpl-dag.o)
                0x000000000002ac9d                rpl_local_repair
 .text.rpl_recalculate_ranks
                0x000000000002ad75       0x86 obj_cooja/mtype645.a(rpl-dag.o)
                0x000000000002ad75                rpl_recalculate_ranks
 .text.rpl_process_parent_event
                0x000000000002adfb       0xfb obj_cooja/mtype645.a(rpl-dag.o)
                0x000000000002adfb                rpl_process_parent_event
 .text.add_nbr_from_dio
                0x000000000002aef6       0x32 obj_cooja/mtype645.a(rpl-dag.o)
 .text.rpl_process_dio
                0x000000000002af28      0x4da obj_cooja/mtype645.a(rpl-dag.o)
                0x000000000002af28                rpl_process_dio
 .text          0x000000000002b402        0x0 obj_cooja/mtype645.a(rpl-ext-header.)
 .text.packetbuf_addr
                0x000000000002b402       0x1d obj_cooja/mtype645.a(rpl-ext-header.)
 .text.rpl_verify_hbh_header
                0x000000000002b41f      0x2c8 obj_cooja/mtype645.a(rpl-ext-header.)
                0x000000000002b41f                rpl_verify_hbh_header
 .text.update_hbh_header
                0x000000000002b6e7      0x2b8 obj_cooja/mtype645.a(rpl-ext-header.)
 .text.insert_hbh_header
                0x000000000002b99f      0x203 obj_cooja/mtype645.a(rpl-ext-header.)
 .text.rpl_remove_header
                0x000000000002bba2      0x163 obj_cooja/mtype645.a(rpl-ext-header.)
                0x000000000002bba2                rpl_remove_header
 .text.rpl_update_header
                0x000000000002bd05       0xcc obj_cooja/mtype645.a(rpl-ext-header.)
                0x000000000002bd05                rpl_update_header
 .text          0x000000000002bdd1        0x0 obj_cooja/mtype645.a(rpl-icmp6.o)
 .text.packetbuf_addr
                0x000000000002bdd1       0x1d obj_cooja/mtype645.a(rpl-icmp6.o)
 .text.prepare_for_dao_fwd
                0x000000000002bdee       0x6c obj_cooja/mtype645.a(rpl-icmp6.o)
 .text.get_global_addr
                0x000000000002be5a       0xb3 obj_cooja/mtype645.a(rpl-icmp6.o)
 .text.get32    0x000000000002bf0d       0x57 obj_cooja/mtype645.a(rpl-icmp6.o)
 .text.set32    0x000000000002bf64       0x62 obj_cooja/mtype645.a(rpl-icmp6.o)
 .text.get16    0x000000000002bfc6       0x2b obj_cooja/mtype645.a(rpl-icmp6.o)
 .text.set16    0x000000000002bff1       0x3f obj_cooja/mtype645.a(rpl-icmp6.o)
 .text.rpl_icmp6_update_nbr_table
                0x000000000002c030       0x5b obj_cooja/mtype645.a(rpl-icmp6.o)
                0x000000000002c030                rpl_icmp6_update_nbr_table
 .text.dis_input
                0x000000000002c08b       0x95 obj_cooja/mtype645.a(rpl-icmp6.o)
 .text.dis_output
                0x000000000002c120       0xaf obj_cooja/mtype645.a(rpl-icmp6.o)
                0x000000000002c120                dis_output
 .text.dio_input
                0x000000000002c1cf      0x58a obj_cooja/mtype645.a(rpl-icmp6.o)
 .text.dio_output
                0x000000000002c759      0x622 obj_cooja/mtype645.a(rpl-icmp6.o)
                0x000000000002c759                dio_output
 .text.dao_input_storing
                0x000000000002cd7b      0x6d8 obj_cooja/mtype645.a(rpl-icmp6.o)
 .text.dao_input_nonstoring
                0x000000000002d453        0x5 obj_cooja/mtype645.a(rpl-icmp6.o)
 .text.dao_input
                0x000000000002d458       0x5f obj_cooja/mtype645.a(rpl-icmp6.o)
 .text.dao_output
                0x000000000002d4b7       0xbb obj_cooja/mtype645.a(rpl-icmp6.o)
                0x000000000002d4b7                dao_output
 .text.dao_output_target
                0x000000000002d572       0x36 obj_cooja/mtype645.a(rpl-icmp6.o)
                0x000000000002d572                dao_output_target
 .text.dao_output_target_seq
                0x000000000002d5a8      0x2ff obj_cooja/mtype645.a(rpl-icmp6.o)
 .text.dao_ack_input
                0x000000000002d8a7       0x15 obj_cooja/mtype645.a(rpl-icmp6.o)
 .text.dao_ack_output
                0x000000000002d8bc       0x14 obj_cooja/mtype645.a(rpl-icmp6.o)
                0x000000000002d8bc                dao_ack_output
 .text.rpl_icmp6_register_handlers
                0x000000000002d8d0       0x38 obj_cooja/mtype645.a(rpl-icmp6.o)
                0x000000000002d8d0                rpl_icmp6_register_handlers
 .text          0x000000000002d908        0x0 obj_cooja/mtype645.a(rpl-mrhof.o)
 .text.reset    0x000000000002d908        0x5 obj_cooja/mtype645.a(rpl-mrhof.o)
 .text.parent_link_metric
                0x000000000002d90d       0x29 obj_cooja/mtype645.a(rpl-mrhof.o)
 .text.parent_path_cost
                0x000000000002d936       0x6d obj_cooja/mtype645.a(rpl-mrhof.o)
 .text.rank_via_parent
                0x000000000002d9a3       0x72 obj_cooja/mtype645.a(rpl-mrhof.o)
 .text.parent_is_acceptable
                0x000000000002da15       0x42 obj_cooja/mtype645.a(rpl-mrhof.o)
 .text.parent_has_usable_link
                0x000000000002da57       0x23 obj_cooja/mtype645.a(rpl-mrhof.o)
 .text.best_parent
                0x000000000002da7a       0xf7 obj_cooja/mtype645.a(rpl-mrhof.o)
 .text.best_dag
                0x000000000002db71       0x75 obj_cooja/mtype645.a(rpl-mrhof.o)
 .text.update_metric_container
                0x000000000002dbe6        0xb obj_cooja/mtype645.a(rpl-mrhof.o)
 .text          0x000000000002dbf1        0x0 obj_cooja/mtype645.a(rpl-timers.o)
 .text.handle_periodic_timer
                0x000000000002dbf1       0x84 obj_cooja/mtype645.a(rpl-timers.o)
 .text.new_dio_interval
                0x000000000002dc75       0xca obj_cooja/mtype645.a(rpl-timers.o)
 .text.handle_dio_timer
                0x000000000002dd3f      0x12d obj_cooja/mtype645.a(rpl-timers.o)
 .text.rpl_reset_periodic_timer
                0x000000000002de6c       0x55 obj_cooja/mtype645.a(rpl-timers.o)
                0x000000000002de6c                rpl_reset_periodic_timer
 .text.rpl_reset_dio_timer
                0x000000000002dec1       0x48 obj_cooja/mtype645.a(rpl-timers.o)
                0x000000000002dec1                rpl_reset_dio_timer
 .text.set_dao_lifetime_timer
                0x000000000002df09       0x8c obj_cooja/mtype645.a(rpl-timers.o)
 .text.handle_dao_timer
                0x000000000002df95       0xb1 obj_cooja/mtype645.a(rpl-timers.o)
 .text.schedule_dao
                0x000000000002e046       0xa2 obj_cooja/mtype645.a(rpl-timers.o)
 .text.rpl_schedule_dao
                0x000000000002e0e8       0x1b obj_cooja/mtype645.a(rpl-timers.o)
                0x000000000002e0e8                rpl_schedule_dao
 .text.rpl_schedule_dao_immediately
                0x000000000002e103       0x1b obj_cooja/mtype645.a(rpl-timers.o)
                0x000000000002e103                rpl_schedule_dao_immediately
 .text.rpl_cancel_dao
                0x000000000002e11e       0x28 obj_cooja/mtype645.a(rpl-timers.o)
                0x000000000002e11e                rpl_cancel_dao
 .text.handle_unicast_dio_timer
                0x000000000002e146       0x3a obj_cooja/mtype645.a(rpl-timers.o)
 .text.rpl_schedule_unicast_dio_immediately
                0x000000000002e180       0x30 obj_cooja/mtype645.a(rpl-timers.o)
                0x000000000002e180                rpl_schedule_unicast_dio_immediately
 .text.get_probing_delay
                0x000000000002e1b0       0x7f obj_cooja/mtype645.a(rpl-timers.o)
                0x000000000002e1b0                get_probing_delay
 .text.get_probing_target
                0x000000000002e22f      0x18c obj_cooja/mtype645.a(rpl-timers.o)
                0x000000000002e22f                get_probing_target
 .text.handle_probing_timer
                0x000000000002e3bb       0x6b obj_cooja/mtype645.a(rpl-timers.o)
 .text.rpl_schedule_probing
                0x000000000002e426       0x3a obj_cooja/mtype645.a(rpl-timers.o)
                0x000000000002e426                rpl_schedule_probing
 .text          0x000000000002e460        0x0 obj_cooja/mtype645.a(rpl.o)
 .text.rpl_get_mode
                0x000000000002e460        0xa obj_cooja/mtype645.a(rpl.o)
                0x000000000002e460                rpl_get_mode
 .text.rpl_set_mode
                0x000000000002e46a       0x8e obj_cooja/mtype645.a(rpl.o)
                0x000000000002e46a                rpl_set_mode
 .text.rpl_purge_routes
                0x000000000002e4f8      0x105 obj_cooja/mtype645.a(rpl.o)
                0x000000000002e4f8                rpl_purge_routes
 .text.rpl_remove_routes
                0x000000000002e5fd       0x46 obj_cooja/mtype645.a(rpl.o)
                0x000000000002e5fd                rpl_remove_routes
 .text.rpl_remove_routes_by_nexthop
                0x000000000002e643       0x61 obj_cooja/mtype645.a(rpl.o)
                0x000000000002e643                rpl_remove_routes_by_nexthop
 .text.rpl_add_route
                0x000000000002e6a4       0x93 obj_cooja/mtype645.a(rpl.o)
                0x000000000002e6a4                rpl_add_route
 .text.rpl_link_neighbor_callback
                0x000000000002e737       0xca obj_cooja/mtype645.a(rpl.o)
                0x000000000002e737                rpl_link_neighbor_callback
 .text.rpl_ipv6_neighbor_callback
                0x000000000002e801       0x6f obj_cooja/mtype645.a(rpl.o)
                0x000000000002e801                rpl_ipv6_neighbor_callback
 .text.rpl_purge_dags
                0x000000000002e870       0xe2 obj_cooja/mtype645.a(rpl.o)
                0x000000000002e870                rpl_purge_dags
 .text.rpl_init
                0x000000000002e952       0x78 obj_cooja/mtype645.a(rpl.o)
                0x000000000002e952                rpl_init
 .text          0x000000000002e9ca        0x0 obj_cooja/mtype645.a(link-stats.o)
 .text.packetbuf_attr
                0x000000000002e9ca       0x1a obj_cooja/mtype645.a(link-stats.o)
 .text.link_stats_from_lladdr
                0x000000000002e9e4       0x1c obj_cooja/mtype645.a(link-stats.o)
                0x000000000002e9e4                link_stats_from_lladdr
 .text.link_stats_is_fresh
                0x000000000002ea00       0x39 obj_cooja/mtype645.a(link-stats.o)
                0x000000000002ea00                link_stats_is_fresh
 .text.guess_etx_from_rssi
                0x000000000002ea39       0x7c obj_cooja/mtype645.a(link-stats.o)
                0x000000000002ea39                guess_etx_from_rssi
 .text.link_stats_packet_sent
                0x000000000002eab5      0x10e obj_cooja/mtype645.a(link-stats.o)
                0x000000000002eab5                link_stats_packet_sent
 .text.link_stats_input_callback
                0x000000000002ebc3       0xaf obj_cooja/mtype645.a(link-stats.o)
                0x000000000002ebc3                link_stats_input_callback
 .text.periodic
                0x000000000002ec72       0x54 obj_cooja/mtype645.a(link-stats.o)
 .text.link_stats_init
                0x000000000002ecc6       0x41 obj_cooja/mtype645.a(link-stats.o)
                0x000000000002ecc6                link_stats_init
 .text          0x000000000002ed07        0x0 obj_cooja/mtype645.a(linkaddr.o)
 .text.linkaddr_copy
                0x000000000002ed07       0x22 obj_cooja/mtype645.a(linkaddr.o)
                0x000000000002ed07                linkaddr_copy
 .text.linkaddr_cmp
                0x000000000002ed29       0x2a obj_cooja/mtype645.a(linkaddr.o)
                0x000000000002ed29                linkaddr_cmp
 .text.linkaddr_set_node_addr
                0x000000000002ed53       0x1b obj_cooja/mtype645.a(linkaddr.o)
                0x000000000002ed53                linkaddr_set_node_addr
 .text          0x000000000002ed6e        0x0 obj_cooja/mtype645.a(nbr-table.o)
 .text.key_from_index
                0x000000000002ed6e       0x26 obj_cooja/mtype645.a(nbr-table.o)
 .text.item_from_index
                0x000000000002ed94       0x2a obj_cooja/mtype645.a(nbr-table.o)
 .text.index_from_key
                0x000000000002edbe       0x27 obj_cooja/mtype645.a(nbr-table.o)
 .text.index_from_item
                0x000000000002ede5       0x32 obj_cooja/mtype645.a(nbr-table.o)
 .text.item_from_key
                0x000000000002ee17       0x22 obj_cooja/mtype645.a(nbr-table.o)
 .text.key_from_item
                0x000000000002ee39       0x22 obj_cooja/mtype645.a(nbr-table.o)
 .text.index_from_lladdr
                0x000000000002ee5b       0x6c obj_cooja/mtype645.a(nbr-table.o)
 .text.nbr_get_bit
                0x000000000002eec7       0x54 obj_cooja/mtype645.a(nbr-table.o)
 .text.nbr_set_bit
                0x000000000002ef1b       0x98 obj_cooja/mtype645.a(nbr-table.o)
 .text.remove_key
                0x000000000002efb3       0xb7 obj_cooja/mtype645.a(nbr-table.o)
 .text.nbr_table_allocate
                0x000000000002f06a      0x173 obj_cooja/mtype645.a(nbr-table.o)
 .text.nbr_table_register
                0x000000000002f1dd       0x48 obj_cooja/mtype645.a(nbr-table.o)
                0x000000000002f1dd                nbr_table_register
 .text.nbr_table_head
                0x000000000002f225       0x5c obj_cooja/mtype645.a(nbr-table.o)
                0x000000000002f225                nbr_table_head
 .text.nbr_table_next
                0x000000000002f281       0x67 obj_cooja/mtype645.a(nbr-table.o)
                0x000000000002f281                nbr_table_next
 .text.nbr_table_add_lladdr
                0x000000000002f2e8       0xdc obj_cooja/mtype645.a(nbr-table.o)
                0x000000000002f2e8                nbr_table_add_lladdr
 .text.nbr_table_get_from_lladdr
                0x000000000002f3c4       0x4d obj_cooja/mtype645.a(nbr-table.o)
                0x000000000002f3c4                nbr_table_get_from_lladdr
 .text.nbr_table_remove
                0x000000000002f411       0x52 obj_cooja/mtype645.a(nbr-table.o)
                0x000000000002f411                nbr_table_remove
 .text.nbr_table_lock
                0x000000000002f463       0x2a obj_cooja/mtype645.a(nbr-table.o)
                0x000000000002f463                nbr_table_lock
 .text.nbr_table_unlock
                0x000000000002f48d       0x2a obj_cooja/mtype645.a(nbr-table.o)
                0x000000000002f48d                nbr_table_unlock
 .text.nbr_table_get_lladdr
                0x000000000002f4b7       0x30 obj_cooja/mtype645.a(nbr-table.o)
                0x000000000002f4b7                nbr_table_get_lladdr
 .text.nbr_table_update_lladdr
                0x000000000002f4e7       0x96 obj_cooja/mtype645.a(nbr-table.o)
                0x000000000002f4e7                nbr_table_update_lladdr
 .text          0x000000000002f57d        0x0 obj_cooja/mtype645.a(netstack.o)
 .text.netstack_init
                0x000000000002f57d       0x2b obj_cooja/mtype645.a(netstack.o)
                0x000000000002f57d                netstack_init
 .text          0x000000000002f5a8        0x0 obj_cooja/mtype645.a(packetbuf.o)
 .text.packetbuf_clear
                0x000000000002f5a8       0x2a obj_cooja/mtype645.a(packetbuf.o)
                0x000000000002f5a8                packetbuf_clear
 .text.packetbuf_copyfrom
                0x000000000002f5d2       0x52 obj_cooja/mtype645.a(packetbuf.o)
                0x000000000002f5d2                packetbuf_copyfrom
 .text.packetbuf_compact
                0x000000000002f624       0x7d obj_cooja/mtype645.a(packetbuf.o)
                0x000000000002f624                packetbuf_compact
 .text.packetbuf_copyto
                0x000000000002f6a1       0x97 obj_cooja/mtype645.a(packetbuf.o)
                0x000000000002f6a1                packetbuf_copyto
 .text.packetbuf_hdralloc
                0x000000000002f738       0x7d obj_cooja/mtype645.a(packetbuf.o)
                0x000000000002f738                packetbuf_hdralloc
 .text.packetbuf_hdrreduce
                0x000000000002f7b5       0x48 obj_cooja/mtype645.a(packetbuf.o)
                0x000000000002f7b5                packetbuf_hdrreduce
 .text.packetbuf_set_datalen
                0x000000000002f7fd       0x19 obj_cooja/mtype645.a(packetbuf.o)
                0x000000000002f7fd                packetbuf_set_datalen
 .text.packetbuf_dataptr
                0x000000000002f816       0x1d obj_cooja/mtype645.a(packetbuf.o)
                0x000000000002f816                packetbuf_dataptr
 .text.packetbuf_hdrptr
                0x000000000002f833        0xa obj_cooja/mtype645.a(packetbuf.o)
                0x000000000002f833                packetbuf_hdrptr
 .text.packetbuf_datalen
                0x000000000002f83d        0xc obj_cooja/mtype645.a(packetbuf.o)
                0x000000000002f83d                packetbuf_datalen
 .text.packetbuf_hdrlen
                0x000000000002f849       0x17 obj_cooja/mtype645.a(packetbuf.o)
                0x000000000002f849                packetbuf_hdrlen
 .text.packetbuf_totlen
                0x000000000002f860       0x16 obj_cooja/mtype645.a(packetbuf.o)
                0x000000000002f860                packetbuf_totlen
 .text.packetbuf_remaininglen
                0x000000000002f876       0x13 obj_cooja/mtype645.a(packetbuf.o)
                0x000000000002f876                packetbuf_remaininglen
 .text.packetbuf_attr_clear
                0x000000000002f889       0x52 obj_cooja/mtype645.a(packetbuf.o)
                0x000000000002f889                packetbuf_attr_clear
 .text.packetbuf_attr_copyto
                0x000000000002f8db       0x49 obj_cooja/mtype645.a(packetbuf.o)
                0x000000000002f8db                packetbuf_attr_copyto
 .text.packetbuf_attr_copyfrom
                0x000000000002f924       0x48 obj_cooja/mtype645.a(packetbuf.o)
                0x000000000002f924                packetbuf_attr_copyfrom
 .text.packetbuf_holds_broadcast
                0x000000000002f96c       0x1c obj_cooja/mtype645.a(packetbuf.o)
                0x000000000002f96c                packetbuf_holds_broadcast
 .text          0x000000000002f988        0x0 obj_cooja/mtype645.a(queuebuf.o)
 .text.queuebuf_load_to_ram
                0x000000000002f988        0xa obj_cooja/mtype645.a(queuebuf.o)
 .text.queuebuf_init
                0x000000000002f992       0x20 obj_cooja/mtype645.a(queuebuf.o)
                0x000000000002f992                queuebuf_init
 .text.queuebuf_numfree
                0x000000000002f9b2       0x14 obj_cooja/mtype645.a(queuebuf.o)
                0x000000000002f9b2                queuebuf_numfree
 .text.queuebuf_new_from_packetbuf
                0x000000000002f9c6       0x90 obj_cooja/mtype645.a(queuebuf.o)
                0x000000000002f9c6                queuebuf_new_from_packetbuf
 .text.queuebuf_update_attr_from_packetbuf
                0x000000000002fa56       0x33 obj_cooja/mtype645.a(queuebuf.o)
                0x000000000002fa56                queuebuf_update_attr_from_packetbuf
 .text.queuebuf_update_from_packetbuf
                0x000000000002fa89       0x4a obj_cooja/mtype645.a(queuebuf.o)
                0x000000000002fa89                queuebuf_update_from_packetbuf
 .text.queuebuf_free
                0x000000000002fad3       0x47 obj_cooja/mtype645.a(queuebuf.o)
                0x000000000002fad3                queuebuf_free
 .text.queuebuf_to_packetbuf
                0x000000000002fb1a       0x66 obj_cooja/mtype645.a(queuebuf.o)
                0x000000000002fb1a                queuebuf_to_packetbuf
 .text.queuebuf_dataptr
                0x000000000002fb80       0x37 obj_cooja/mtype645.a(queuebuf.o)
                0x000000000002fb80                queuebuf_dataptr
 .text.queuebuf_datalen
                0x000000000002fbb7       0x23 obj_cooja/mtype645.a(queuebuf.o)
                0x000000000002fbb7                queuebuf_datalen
 .text.queuebuf_addr
                0x000000000002fbda       0x32 obj_cooja/mtype645.a(queuebuf.o)
                0x000000000002fbda                queuebuf_addr
 .text.queuebuf_attr
                0x000000000002fc0c       0x2b obj_cooja/mtype645.a(queuebuf.o)
                0x000000000002fc0c                queuebuf_attr
 .text.queuebuf_debug_print
                0x000000000002fc37        0x5 obj_cooja/mtype645.a(queuebuf.o)
                0x000000000002fc37                queuebuf_debug_print
 .text          0x000000000002fc3c        0x0 obj_cooja/mtype645.a(csma.o)
 .text.packetbuf_set_attr
                0x000000000002fc3c       0x2a obj_cooja/mtype645.a(csma.o)
 .text.packetbuf_attr
                0x000000000002fc66       0x1a obj_cooja/mtype645.a(csma.o)
 .text.packetbuf_addr
                0x000000000002fc80       0x1d obj_cooja/mtype645.a(csma.o)
 .text.neighbor_queue_from_addr
                0x000000000002fc9d       0x51 obj_cooja/mtype645.a(csma.o)
 .text.backoff_period
                0x000000000002fcee       0x25 obj_cooja/mtype645.a(csma.o)
 .text.transmit_packet_list
                0x000000000002fd13       0x47 obj_cooja/mtype645.a(csma.o)
 .text.schedule_transmission
                0x000000000002fd5a       0x87 obj_cooja/mtype645.a(csma.o)
 .text.free_packet
                0x000000000002fde1       0xc0 obj_cooja/mtype645.a(csma.o)
 .text.tx_done  0x000000000002fea1       0x7c obj_cooja/mtype645.a(csma.o)
 .text.rexmit   0x000000000002ff1d       0x21 obj_cooja/mtype645.a(csma.o)
 .text.collision
                0x000000000002ff3e       0x85 obj_cooja/mtype645.a(csma.o)
 .text.noack    0x000000000002ffc3       0x6a obj_cooja/mtype645.a(csma.o)
 .text.tx_ok    0x000000000003002d       0x3b obj_cooja/mtype645.a(csma.o)
 .text.packet_sent
                0x0000000000030068      0x117 obj_cooja/mtype645.a(csma.o)
 .text.send_packet
                0x000000000003017f      0x274 obj_cooja/mtype645.a(csma.o)
 .text.input_packet
                0x00000000000303f3        0xf obj_cooja/mtype645.a(csma.o)
 .text.on       0x0000000000030402        0xf obj_cooja/mtype645.a(csma.o)
 .text.off      0x0000000000030411       0x15 obj_cooja/mtype645.a(csma.o)
 .text.channel_check_interval
                0x0000000000030426       0x1f obj_cooja/mtype645.a(csma.o)
 .text.init     0x0000000000030445       0x2c obj_cooja/mtype645.a(csma.o)
 .text          0x0000000000030471        0x0 obj_cooja/mtype645.a(framer-802154.o)
 .text.packetbuf_set_attr
                0x0000000000030471       0x2a obj_cooja/mtype645.a(framer-802154.o)
 .text.packetbuf_attr
                0x000000000003049b       0x1a obj_cooja/mtype645.a(framer-802154.o)
 .text.packetbuf_set_addr
                0x00000000000304b5       0x32 obj_cooja/mtype645.a(framer-802154.o)
 .text.packetbuf_addr
                0x00000000000304e7       0x1d obj_cooja/mtype645.a(framer-802154.o)
 .text.create_frame
                0x0000000000030504      0x1eb obj_cooja/mtype645.a(framer-802154.o)
 .text.hdr_length
                0x00000000000306ef       0x1c obj_cooja/mtype645.a(framer-802154.o)
 .text.create   0x000000000003070b       0x1c obj_cooja/mtype645.a(framer-802154.o)
 .text.parse    0x0000000000030727      0x143 obj_cooja/mtype645.a(framer-802154.o)
 .text          0x000000000003086a        0x0 obj_cooja/mtype645.a(mac.o)
 .text.mac_call_sent_callback
                0x000000000003086a       0x3c obj_cooja/mtype645.a(mac.o)
                0x000000000003086a                mac_call_sent_callback
 .text          0x00000000000308a6        0x0 obj_cooja/mtype645.a(nullrdc.o)
 .text.packetbuf_set_attr
                0x00000000000308a6       0x2a obj_cooja/mtype645.a(nullrdc.o)
 .text.packetbuf_set_addr
                0x00000000000308d0       0x32 obj_cooja/mtype645.a(nullrdc.o)
 .text.packetbuf_addr
                0x0000000000030902       0x1d obj_cooja/mtype645.a(nullrdc.o)
 .text.send_one_packet
                0x000000000003091f      0x1ec obj_cooja/mtype645.a(nullrdc.o)
 .text.send_packet
                0x0000000000030b0b       0x1a obj_cooja/mtype645.a(nullrdc.o)
 .text.send_list
                0x0000000000030b25       0x49 obj_cooja/mtype645.a(nullrdc.o)
 .text.packet_input
                0x0000000000030b6e      0x11a obj_cooja/mtype645.a(nullrdc.o)
 .text.on       0x0000000000030c88        0xf obj_cooja/mtype645.a(nullrdc.o)
 .text.off      0x0000000000030c97       0x1e obj_cooja/mtype645.a(nullrdc.o)
 .text.channel_check_interval
                0x0000000000030cb5        0xa obj_cooja/mtype645.a(nullrdc.o)
 .text.init     0x0000000000030cbf        0xd obj_cooja/mtype645.a(nullrdc.o)
 .text          0x0000000000030ccc        0x0 obj_cooja/mtype645.a(nullsec.o)
 .text.packetbuf_set_attr
                0x0000000000030ccc       0x2a obj_cooja/mtype645.a(nullsec.o)
 .text.init     0x0000000000030cf6        0x5 obj_cooja/mtype645.a(nullsec.o)
 .text.send     0x0000000000030cfb       0x30 obj_cooja/mtype645.a(nullsec.o)
 .text.input    0x0000000000030d2b        0xf obj_cooja/mtype645.a(nullsec.o)
 .text          0x0000000000030d3a        0x0 obj_cooja/mtype645.a(watchdog.o)
 .text.watchdog_init
                0x0000000000030d3a        0x5 obj_cooja/mtype645.a(watchdog.o)
                0x0000000000030d3a                watchdog_init
 .text.watchdog_start
                0x0000000000030d3f        0x5 obj_cooja/mtype645.a(watchdog.o)
                0x0000000000030d3f                watchdog_start
 .text.watchdog_periodic
                0x0000000000030d44        0x5 obj_cooja/mtype645.a(watchdog.o)
                0x0000000000030d44                watchdog_periodic
 .text.watchdog_stop
                0x0000000000030d49        0x5 obj_cooja/mtype645.a(watchdog.o)
                0x0000000000030d49                watchdog_stop
 .text.watchdog_reboot
                0x0000000000030d4e        0x5 obj_cooja/mtype645.a(watchdog.o)
                0x0000000000030d4e                watchdog_reboot
 .text          0x0000000000030d53        0x0 obj_cooja/mtype645.a(rimestats.o)
 .text          0x0000000000030d53        0x0 obj_cooja/mtype645.a(stimer.o)
 .text.stimer_set
                0x0000000000030d53       0x1b obj_cooja/mtype645.a(stimer.o)
                0x0000000000030d53                stimer_set
 .text.stimer_reset
                0x0000000000030d6e       0x17 obj_cooja/mtype645.a(stimer.o)
                0x0000000000030d6e                stimer_reset
 .text.stimer_restart
                0x0000000000030d85       0x12 obj_cooja/mtype645.a(stimer.o)
                0x0000000000030d85                stimer_restart
 .text.stimer_expired
                0x0000000000030d97       0x27 obj_cooja/mtype645.a(stimer.o)
                0x0000000000030d97                stimer_expired
 .text.stimer_remaining
                0x0000000000030dbe       0x24 obj_cooja/mtype645.a(stimer.o)
                0x0000000000030dbe                stimer_remaining
 .text.stimer_elapsed
                0x0000000000030de2       0x14 obj_cooja/mtype645.a(stimer.o)
                0x0000000000030de2                stimer_elapsed
 .text          0x0000000000030df6        0x0 obj_cooja/mtype645.a(uip-icmp6.o)
 .text.input_handler_lookup
                0x0000000000030df6       0x6e obj_cooja/mtype645.a(uip-icmp6.o)
 .text.uip_icmp6_input
                0x0000000000030e64       0x56 obj_cooja/mtype645.a(uip-icmp6.o)
                0x0000000000030e64                uip_icmp6_input
 .text.uip_icmp6_register_input_handler
                0x0000000000030eba       0x1c obj_cooja/mtype645.a(uip-icmp6.o)
                0x0000000000030eba                uip_icmp6_register_input_handler
 .text.echo_request_input
                0x0000000000030ed6      0x1c7 obj_cooja/mtype645.a(uip-icmp6.o)
 .text.uip_icmp6_error_output
                0x000000000003109d      0x340 obj_cooja/mtype645.a(uip-icmp6.o)
                0x000000000003109d                uip_icmp6_error_output
 .text.uip_icmp6_send
                0x00000000000313dd      0x107 obj_cooja/mtype645.a(uip-icmp6.o)
                0x00000000000313dd                uip_icmp6_send
 .text.echo_reply_input
                0x00000000000314e4      0x16d obj_cooja/mtype645.a(uip-icmp6.o)
 .text.uip_icmp6_echo_reply_callback_add
                0x0000000000031651       0x31 obj_cooja/mtype645.a(uip-icmp6.o)
                0x0000000000031651                uip_icmp6_echo_reply_callback_add
 .text.uip_icmp6_echo_reply_callback_rm
                0x0000000000031682       0x1c obj_cooja/mtype645.a(uip-icmp6.o)
                0x0000000000031682                uip_icmp6_echo_reply_callback_rm
 .text.uip_icmp6_init
                0x000000000003169e       0x20 obj_cooja/mtype645.a(uip-icmp6.o)
                0x000000000003169e                uip_icmp6_init
 .text          0x00000000000316be        0x0 obj_cooja/mtype645.a(rpl-nbr-policy.)
 .text.handle_periodic_timer
                0x00000000000316be       0x19 obj_cooja/mtype645.a(rpl-nbr-policy.)
 .text.update_nbr
                0x00000000000316d7      0x1b7 obj_cooja/mtype645.a(rpl-nbr-policy.)
 .text.find_removable_dis
                0x000000000003188e       0x25 obj_cooja/mtype645.a(rpl-nbr-policy.)
                0x000000000003188e                find_removable_dis
 .text.find_removable_dio
                0x00000000000318b3       0x81 obj_cooja/mtype645.a(rpl-nbr-policy.)
                0x00000000000318b3                find_removable_dio
 .text.find_removable_dao
                0x0000000000031934       0x50 obj_cooja/mtype645.a(rpl-nbr-policy.)
                0x0000000000031934                find_removable_dao
 .text.rpl_nbr_policy_find_removable
                0x0000000000031984       0x57 obj_cooja/mtype645.a(rpl-nbr-policy.)
                0x0000000000031984                rpl_nbr_policy_find_removable
 .text          0x00000000000319db        0x0 obj_cooja/mtype645.a(frame802154.o)
 .text.addr_len
                0x00000000000319db       0x31 obj_cooja/mtype645.a(frame802154.o)
 .text.frame802154_get_pan_id
                0x0000000000031a0c        0xc obj_cooja/mtype645.a(frame802154.o)
                0x0000000000031a0c                frame802154_get_pan_id
 .text.frame802154_set_pan_id
                0x0000000000031a18       0x19 obj_cooja/mtype645.a(frame802154.o)
                0x0000000000031a18                frame802154_set_pan_id
 .text.frame802154_has_panid
                0x0000000000031a31      0x1ad obj_cooja/mtype645.a(frame802154.o)
                0x0000000000031a31                frame802154_has_panid
 .text.frame802154_check_dest_panid
                0x0000000000031bde       0x6f obj_cooja/mtype645.a(frame802154.o)
                0x0000000000031bde                frame802154_check_dest_panid
 .text.frame802154_is_broadcast_addr
                0x0000000000031c4d       0x4d obj_cooja/mtype645.a(frame802154.o)
                0x0000000000031c4d                frame802154_is_broadcast_addr
 .text.frame802154_extract_linkaddr
                0x0000000000031c9a      0x148 obj_cooja/mtype645.a(frame802154.o)
                0x0000000000031c9a                frame802154_extract_linkaddr
 .text.field_len
                0x0000000000031de2       0xf8 obj_cooja/mtype645.a(frame802154.o)
 .text.frame802154_hdrlen
                0x0000000000031eda       0x51 obj_cooja/mtype645.a(frame802154.o)
                0x0000000000031eda                frame802154_hdrlen
 .text.frame802154_create_fcf
                0x0000000000031f2b       0xb7 obj_cooja/mtype645.a(frame802154.o)
                0x0000000000031f2b                frame802154_create_fcf
 .text.frame802154_create
                0x0000000000031fe2      0x14d obj_cooja/mtype645.a(frame802154.o)
                0x0000000000031fe2                frame802154_create
 .text.frame802154_parse_fcf
                0x000000000003212f       0xb9 obj_cooja/mtype645.a(frame802154.o)
                0x000000000003212f                frame802154_parse_fcf
 .text.frame802154_parse
                0x00000000000321e8      0x280 obj_cooja/mtype645.a(frame802154.o)
                0x00000000000321e8                frame802154_parse
 .text          0x0000000000032468        0x0 obj_cooja/mtype645.a(mac-sequence.o)
 .text.packetbuf_attr
                0x0000000000032468       0x1a obj_cooja/mtype645.a(mac-sequence.o)
 .text.packetbuf_addr
                0x0000000000032482       0x1d obj_cooja/mtype645.a(mac-sequence.o)
 .text.mac_sequence_is_duplicate
                0x000000000003249f       0x9e obj_cooja/mtype645.a(mac-sequence.o)
                0x000000000003249f                mac_sequence_is_duplicate
 .text.mac_sequence_register_seqno
                0x000000000003253d       0xca obj_cooja/mtype645.a(mac-sequence.o)
                0x000000000003253d                mac_sequence_register_seqno
 .text          0x0000000000032607        0x0 /usr/lib/gcc/i686-linux-gnu/4.8/crtendS.o
 .text          0x0000000000032607        0x0 /usr/lib/gcc/i686-linux-gnu/4.8/../../../i386-linux-gnu/crtn.o
 *(.gnu.warning)

.fini           0x0000000000032608       0x14
 *(SORT(.fini))
 .fini          0x0000000000032608        0xf /usr/lib/gcc/i686-linux-gnu/4.8/../../../i386-linux-gnu/crti.o
                0x0000000000032608                _fini
 .fini          0x0000000000032617        0x5 /usr/lib/gcc/i686-linux-gnu/4.8/../../../i386-linux-gnu/crtn.o
                0x000000000003261c                PROVIDE (__etext, .)
                0x000000000003261c                PROVIDE (_etext, .)
                0x000000000003261c                PROVIDE (etext, .)

.rodata         0x0000000000032620     0x3578
 *(.rodata .rodata.* .gnu.linkonce.r.*)
 .rodata        0x0000000000032620      0x214 sensor.co
                0x0000000000032694                autostart_processes
 .rodata        0x0000000000032834      0x133 obj_cooja/mtype645.o
 *fill*         0x0000000000032967        0x1 
 .rodata        0x0000000000032968     0x131a obj_cooja/mtype645.a(dtls.o)
 *fill*         0x0000000000033c82        0x2 
 .rodata        0x0000000000033c84       0xb5 obj_cooja/mtype645.a(tinydtls-crypto)
 *fill*         0x0000000000033d39        0x3 
 .rodata        0x0000000000033d3c       0x21 obj_cooja/mtype645.a(hmac.o)
 *fill*         0x0000000000033d5d        0x3 
 .rodata        0x0000000000033d60       0x38 obj_cooja/mtype645.a(netq.o)
 .rodata        0x0000000000033d98        0xe obj_cooja/mtype645.a(peer.o)
 *fill*         0x0000000000033da6        0x2 
 .rodata        0x0000000000033da8       0x24 obj_cooja/mtype645.a(session.o)
 *fill*         0x0000000000033dcc       0x14 
 .rodata        0x0000000000033de0     0x1428 obj_cooja/mtype645.a(rijndael.o)
 .rodata        0x0000000000035208       0x29 obj_cooja/mtype645.a(tinydtls-ccm.o)
 *fill*         0x0000000000035231        0xf 
 .rodata        0x0000000000035240      0x15a obj_cooja/mtype645.a(sha2.o)
 .rodata        0x000000000003539a       0x7e obj_cooja/mtype645.a(debug.o)
 .rodata        0x0000000000035418        0x8 obj_cooja/mtype645.a(beep.o)
                0x0000000000035418                beep_interface
 .rodata        0x0000000000035420       0x20 obj_cooja/mtype645.a(button-sensor.o)
                0x0000000000035420                button_interface
                0x0000000000035430                button_sensor
 .rodata        0x0000000000035440        0x8 obj_cooja/mtype645.a(leds-arch.o)
                0x0000000000035440                leds_interface
 .rodata        0x0000000000035448        0x8 obj_cooja/mtype645.a(moteid.o)
                0x0000000000035448                moteid_interface
 .rodata        0x0000000000035450       0x1c obj_cooja/mtype645.a(pir-sensor.o)
                0x0000000000035450                pir_interface
                0x000000000003545c                pir_sensor
 .rodata        0x000000000003546c        0xe obj_cooja/mtype645.a(rs232.o)
                0x000000000003546c                rs232_interface
 *fill*         0x000000000003547a        0x2 
 .rodata        0x000000000003547c       0x24 obj_cooja/mtype645.a(vib-sensor.o)
                0x000000000003547c                vib_interface
                0x0000000000035490                vib_sensor
 .rodata        0x00000000000354a0        0x8 obj_cooja/mtype645.a(clock.o)
                0x00000000000354a0                clock_interface
 .rodata        0x00000000000354a8        0x8 obj_cooja/mtype645.a(log.o)
                0x00000000000354a8                simlog_interface
 .rodata        0x00000000000354b0       0x2f obj_cooja/mtype645.a(cfs-cooja.o)
                0x00000000000354b0                cfs_interface
 *fill*         0x00000000000354df        0x1 
 .rodata        0x00000000000354e0       0x58 obj_cooja/mtype645.a(cooja-radio.o)
                0x00000000000354e0                radio_interface
                0x0000000000035500                cooja_radio_driver
 .rodata        0x0000000000035538        0x8 obj_cooja/mtype645.a(eeprom.o)
                0x0000000000035538                eeprom_interface
 .rodata        0x0000000000035540        0x8 obj_cooja/mtype645.a(sensors.o)
 .rodata        0x0000000000035548        0xf obj_cooja/mtype645.a(ctimer.o)
 .rodata        0x0000000000035557        0xc obj_cooja/mtype645.a(etimer.o)
 .rodata        0x0000000000035563        0xe obj_cooja/mtype645.a(serial-line.o)
 *fill*         0x0000000000035571        0x3 
 .rodata        0x0000000000035574       0x25 obj_cooja/mtype645.a(assert.o)
 *fill*         0x0000000000035599        0x3 
 .rodata        0x000000000003559c       0x2c obj_cooja/mtype645.a(sicslowpan.o)
                0x000000000003559c                unc_llconf
                0x00000000000355a0                unc_ctxconf
                0x00000000000355a4                unc_mxconf
                0x00000000000355a8                llprefix
                0x00000000000355bc                sicslowpan_driver
 .rodata        0x00000000000355c8      0x13c obj_cooja/mtype645.a(uip6.o)
 .rodata        0x0000000000035704      0x306 obj_cooja/mtype645.a(resolv.o)
 .rodata        0x0000000000035a0a       0x29 obj_cooja/mtype645.a(tcpip.o)
 .rodata        0x0000000000035a33       0x2a obj_cooja/mtype645.a(uip-debug.o)
 *fill*         0x0000000000035a5d        0x3 
 .rodata        0x0000000000035a60       0x89 obj_cooja/mtype645.a(rpl-dag.o)
 .rodata        0x0000000000035ae9        0x8 obj_cooja/mtype645.a(linkaddr.o)
                0x0000000000035ae9                linkaddr_null
 *fill*         0x0000000000035af1        0x3 
 .rodata        0x0000000000035af4       0x24 obj_cooja/mtype645.a(csma.o)
                0x0000000000035afc                csma_driver
 .rodata        0x0000000000035b18        0xc obj_cooja/mtype645.a(framer-802154.o)
                0x0000000000035b18                framer_802154
 *fill*         0x0000000000035b24       0x1c 
 .rodata        0x0000000000035b40       0x40 obj_cooja/mtype645.a(nullrdc.o)
                0x0000000000035b60                nullrdc_driver
 .rodata        0x0000000000035b80       0x18 obj_cooja/mtype645.a(nullsec.o)
                0x0000000000035b88                nullsec_driver

.rodata1
 *(.rodata1)

.eh_frame_hdr   0x0000000000035b98     0x1a0c
 *(.eh_frame_hdr)
 .eh_frame_hdr  0x0000000000035b98     0x1a0c sensor.co

.eh_frame       0x00000000000375a4     0x6ac8
 *(.eh_frame)
 .eh_frame      0x00000000000375a4       0x3c /usr/lib/gcc/i686-linux-gnu/4.8/../../../i386-linux-gnu/crti.o
                                         0x40 (size before relaxing)
 .eh_frame      0x00000000000375e0      0x198 sensor.co
                                        0x1b0 (size before relaxing)
 .eh_frame      0x0000000000037778      0x148 obj_cooja/mtype645.o
                                        0x160 (size before relaxing)
 .eh_frame      0x00000000000378c0      0xc58 obj_cooja/mtype645.a(dtls.o)
                                        0xc70 (size before relaxing)
 .eh_frame      0x0000000000038518      0x2c0 obj_cooja/mtype645.a(tinydtls-crypto)
                                        0x2d8 (size before relaxing)
 .eh_frame      0x00000000000387d8      0x160 obj_cooja/mtype645.a(hmac.o)
                                        0x178 (size before relaxing)
 .eh_frame      0x0000000000038938      0x160 obj_cooja/mtype645.a(netq.o)
                                        0x178 (size before relaxing)
 .eh_frame      0x0000000000038a98       0x40 obj_cooja/mtype645.a(dtls_time.o)
                                         0x58 (size before relaxing)
 .eh_frame      0x0000000000038ad8       0x80 obj_cooja/mtype645.a(peer.o)
                                         0x98 (size before relaxing)
 .eh_frame      0x0000000000038b58       0x40 obj_cooja/mtype645.a(session.o)
                                         0x58 (size before relaxing)
 .eh_frame      0x0000000000038b98       0x80 obj_cooja/mtype645.a(rijndael.o)
                                         0x98 (size before relaxing)
 .eh_frame      0x0000000000038c18      0x144 obj_cooja/mtype645.a(tinydtls-ccm.o)
                                        0x15c (size before relaxing)
 .eh_frame      0x0000000000038d5c       0xec obj_cooja/mtype645.a(sha2.o)
                                        0x104 (size before relaxing)
 .eh_frame      0x0000000000038e48      0x148 obj_cooja/mtype645.a(debug.o)
                                        0x160 (size before relaxing)
 .eh_frame      0x0000000000038f90       0x40 obj_cooja/mtype645.a(simEnvChange.o)
                                         0x58 (size before relaxing)
 .eh_frame      0x0000000000038fd0       0xc0 obj_cooja/mtype645.a(cooja_mt.o)
                                         0xd8 (size before relaxing)
 .eh_frame      0x0000000000039090      0x120 obj_cooja/mtype645.a(cooja_mtarch.o)
                                        0x138 (size before relaxing)
 .eh_frame      0x00000000000391b0       0xc8 obj_cooja/mtype645.a(rtimer-arch.o)
                                         0xe0 (size before relaxing)
 .eh_frame      0x0000000000039278      0x160 obj_cooja/mtype645.a(beep.o)
                                        0x178 (size before relaxing)
 .eh_frame      0x00000000000393d8       0xa0 obj_cooja/mtype645.a(button-sensor.o)
                                         0xb8 (size before relaxing)
 .eh_frame      0x0000000000039478       0xa0 obj_cooja/mtype645.a(leds-arch.o)
                                         0xb8 (size before relaxing)
 .eh_frame      0x0000000000039518       0x40 obj_cooja/mtype645.a(moteid.o)
                                         0x58 (size before relaxing)
 .eh_frame      0x0000000000039558       0xa0 obj_cooja/mtype645.a(pir-sensor.o)
                                         0xb8 (size before relaxing)
 .eh_frame      0x00000000000395f8      0x100 obj_cooja/mtype645.a(rs232.o)
                                        0x118 (size before relaxing)
 .eh_frame      0x00000000000396f8       0xa0 obj_cooja/mtype645.a(vib-sensor.o)
                                         0xb8 (size before relaxing)
 .eh_frame      0x0000000000039798       0xc0 obj_cooja/mtype645.a(clock.o)
                                         0xd8 (size before relaxing)
 .eh_frame      0x0000000000039858      0x120 obj_cooja/mtype645.a(log.o)
                                        0x138 (size before relaxing)
 .eh_frame      0x0000000000039978      0x160 obj_cooja/mtype645.a(cfs-cooja.o)
                                        0x178 (size before relaxing)
 .eh_frame      0x0000000000039ad8      0x360 obj_cooja/mtype645.a(cooja-radio.o)
                                        0x378 (size before relaxing)
 .eh_frame      0x0000000000039e38       0xa0 obj_cooja/mtype645.a(eeprom.o)
                                         0xb8 (size before relaxing)
 .eh_frame      0x0000000000039ed8       0x40 obj_cooja/mtype645.a(random.o)
                                         0x58 (size before relaxing)
 .eh_frame      0x0000000000039f18       0xc0 obj_cooja/mtype645.a(sensors.o)
                                         0xd8 (size before relaxing)
 .eh_frame      0x0000000000039fd8       0x40 obj_cooja/mtype645.a(autostart.o)
                                         0x58 (size before relaxing)
 .eh_frame      0x000000000003a018      0x100 obj_cooja/mtype645.a(ctimer.o)
                                        0x118 (size before relaxing)
 .eh_frame      0x000000000003a118      0x1e0 obj_cooja/mtype645.a(etimer.o)
                                        0x1f8 (size before relaxing)
 .eh_frame      0x000000000003a2f8      0x1c8 obj_cooja/mtype645.a(process.o)
                                        0x1e0 (size before relaxing)
 .eh_frame      0x000000000003a4c0       0x60 obj_cooja/mtype645.a(rtimer.o)
                                         0x78 (size before relaxing)
 .eh_frame      0x000000000003a520       0xa4 obj_cooja/mtype645.a(timer.o)
                                         0xbc (size before relaxing)
 .eh_frame      0x000000000003a5c4       0x60 obj_cooja/mtype645.a(serial-line.o)
                                         0x78 (size before relaxing)
 .eh_frame      0x000000000003a624       0x20 obj_cooja/mtype645.a(assert.o)
                                         0x38 (size before relaxing)
 .eh_frame      0x000000000003a644      0x180 obj_cooja/mtype645.a(list.o)
                                        0x198 (size before relaxing)
 .eh_frame      0x000000000003a7c4       0xa0 obj_cooja/mtype645.a(memb.o)
                                         0xb8 (size before relaxing)
 .eh_frame      0x000000000003a864       0xa0 obj_cooja/mtype645.a(ringbuf.o)
                                         0xb8 (size before relaxing)
 .eh_frame      0x000000000003a904      0x350 obj_cooja/mtype645.a(sicslowpan.o)
                                        0x368 (size before relaxing)
 .eh_frame      0x000000000003ac54      0x1e0 obj_cooja/mtype645.a(uip-ds6-nbr.o)
                                        0x1f8 (size before relaxing)
 .eh_frame      0x000000000003ae34      0x2c0 obj_cooja/mtype645.a(uip-ds6-route.o)
                                        0x2d8 (size before relaxing)
 .eh_frame      0x000000000003b0f4      0x2c8 obj_cooja/mtype645.a(uip-ds6.o)
                                        0x2e0 (size before relaxing)
 .eh_frame      0x000000000003b3bc       0xd8 obj_cooja/mtype645.a(uip-nd6.o)
                                         0xf0 (size before relaxing)
 .eh_frame      0x000000000003b494      0x27c obj_cooja/mtype645.a(uip6.o)
                                        0x294 (size before relaxing)
 .eh_frame      0x000000000003b710      0x2ac obj_cooja/mtype645.a(resolv.o)
                                        0x2c4 (size before relaxing)
 .eh_frame      0x000000000003b9bc      0x270 obj_cooja/mtype645.a(tcpip.o)
                                        0x288 (size before relaxing)
 .eh_frame      0x000000000003bc2c       0x28 obj_cooja/mtype645.a(uip-debug.o)
                                         0x40 (size before relaxing)
 .eh_frame      0x000000000003bc54       0x80 obj_cooja/mtype645.a(uip-nameserver.)
                                         0x98 (size before relaxing)
 .eh_frame      0x000000000003bcd4       0xe0 obj_cooja/mtype645.a(uip-packetqueue)
                                         0xf8 (size before relaxing)
 .eh_frame      0x000000000003bdb4       0x40 obj_cooja/mtype645.a(uip-udp-packet.)
                                         0x58 (size before relaxing)
 .eh_frame      0x000000000003bdf4      0x720 obj_cooja/mtype645.a(rpl-dag.o)
                                        0x738 (size before relaxing)
 .eh_frame      0x000000000003c514       0xc0 obj_cooja/mtype645.a(rpl-ext-header.)
                                         0xd8 (size before relaxing)
 .eh_frame      0x000000000003c5d4      0x2b8 obj_cooja/mtype645.a(rpl-icmp6.o)
                                        0x2d0 (size before relaxing)
 .eh_frame      0x000000000003c88c      0x124 obj_cooja/mtype645.a(rpl-mrhof.o)
                                        0x13c (size before relaxing)
 .eh_frame      0x000000000003c9b0      0x22c obj_cooja/mtype645.a(rpl-timers.o)
                                        0x244 (size before relaxing)
 .eh_frame      0x000000000003cbdc      0x140 obj_cooja/mtype645.a(rpl.o)
                                        0x158 (size before relaxing)
 .eh_frame      0x000000000003cd1c      0x100 obj_cooja/mtype645.a(link-stats.o)
                                        0x118 (size before relaxing)
 .eh_frame      0x000000000003ce1c       0x60 obj_cooja/mtype645.a(linkaddr.o)
                                         0x78 (size before relaxing)
 .eh_frame      0x000000000003ce7c      0x2ac obj_cooja/mtype645.a(nbr-table.o)
                                        0x2c4 (size before relaxing)
 .eh_frame      0x000000000003d128       0x20 obj_cooja/mtype645.a(netstack.o)
                                         0x38 (size before relaxing)
 .eh_frame      0x000000000003d148      0x234 obj_cooja/mtype645.a(packetbuf.o)
                                        0x24c (size before relaxing)
 .eh_frame      0x000000000003d37c      0x1a0 obj_cooja/mtype645.a(queuebuf.o)
                                        0x1b8 (size before relaxing)
 .eh_frame      0x000000000003d51c      0x28c obj_cooja/mtype645.a(csma.o)
                                        0x2a4 (size before relaxing)
 .eh_frame      0x000000000003d7a8      0x108 obj_cooja/mtype645.a(framer-802154.o)
                                        0x120 (size before relaxing)
 .eh_frame      0x000000000003d8b0       0x20 obj_cooja/mtype645.a(mac.o)
                                         0x38 (size before relaxing)
 .eh_frame      0x000000000003d8d0      0x16c obj_cooja/mtype645.a(nullrdc.o)
                                        0x184 (size before relaxing)
 .eh_frame      0x000000000003da3c       0x80 obj_cooja/mtype645.a(nullsec.o)
                                         0x98 (size before relaxing)
 .eh_frame      0x000000000003dabc       0xa0 obj_cooja/mtype645.a(watchdog.o)
                                         0xb8 (size before relaxing)
 .eh_frame      0x000000000003db5c       0xc4 obj_cooja/mtype645.a(stimer.o)
                                         0xdc (size before relaxing)
 .eh_frame      0x000000000003dc20      0x15c obj_cooja/mtype645.a(uip-icmp6.o)
                                        0x174 (size before relaxing)
 .eh_frame      0x000000000003dd7c       0xc0 obj_cooja/mtype645.a(rpl-nbr-policy.)
                                         0xd8 (size before relaxing)
 .eh_frame      0x000000000003de3c      0x1a4 obj_cooja/mtype645.a(frame802154.o)
                                        0x1bc (size before relaxing)
 .eh_frame      0x000000000003dfe0       0x88 obj_cooja/mtype645.a(mac-sequence.o)
                                         0xa0 (size before relaxing)
 .eh_frame      0x000000000003e068        0x4 /usr/lib/gcc/i686-linux-gnu/4.8/crtendS.o

.gcc_except_table
 *(.gcc_except_table .gcc_except_table.*)

.exception_ranges
 *(.exception_ranges .exception_ranges*)
                0x000000000003e06c                . = (ALIGN (0x1000) - ((0x1000 - .) & 0xfff))
                0x000000000003fef8                . = DATA_SEGMENT_ALIGN (0x1000, 0x1000)

.eh_frame
 *(.eh_frame)

.gcc_except_table
 *(.gcc_except_table .gcc_except_table.*)

.exception_ranges
 *(.exception_ranges .exception_ranges*)

.tdata
 *(.tdata .tdata.* .gnu.linkonce.td.*)

.tbss
 *(.tbss .tbss.* .gnu.linkonce.tb.*)
 *(.tcommon)

.preinit_array
 *(.preinit_array)

.init_array     0x000000000003fef8        0x4
 *(SORT(.init_array.*) SORT(.ctors.*))
 *(.init_array EXCLUDE_FILE(*crtend?.o *crtend.o *crtbegin?.o *crtbegin.o) .ctors)
 .init_array    0x000000000003fef8        0x4 /usr/lib/gcc/i686-linux-gnu/4.8/crtbeginS.o

.fini_array     0x000000000003fefc        0x4
 *(SORT(.fini_array.*) SORT(.dtors.*))
 *(.fini_array EXCLUDE_FILE(*crtend?.o *crtend.o *crtbegin?.o *crtbegin.o) .dtors)
 .fini_array    0x000000000003fefc        0x4 /usr/lib/gcc/i686-linux-gnu/4.8/crtbeginS.o

.ctors
 *crtbegin.o(.ctors)
 *crtbegin?.o(.ctors)
 *(EXCLUDE_FILE(*crtend?.o *crtend.o) .ctors)
 *(SORT(.ctors.*))
 *(.ctors)

.dtors
 *crtbegin.o(.dtors)
 *crtbegin?.o(.dtors)
 *(EXCLUDE_FILE(*crtend?.o *crtend.o) .dtors)
 *(SORT(.dtors.*))
 *(.dtors)

.jcr            0x000000000003ff00        0x4
 *(.jcr)
 .jcr           0x000000000003ff00        0x0 /usr/lib/gcc/i686-linux-gnu/4.8/crtbeginS.o
 .jcr           0x000000000003ff00        0x4 /usr/lib/gcc/i686-linux-gnu/4.8/crtendS.o

.data.rel.ro
 *(.data.rel.ro.local* .gnu.linkonce.d.rel.ro.local.*)
 *(.data.rel.ro .data.rel.ro.* .gnu.linkonce.d.rel.ro.*)

.dynamic        0x000000000003ff04       0xe8
 *(.dynamic)
 .dynamic       0x000000000003ff04       0xe8 /usr/lib/gcc/i686-linux-gnu/4.8/../../../i386-linux-gnu/crti.o
                0x000000000003ff04                _DYNAMIC

.got            0x000000000003ffec       0x14
 *(.got)
 .got           0x000000000003ffec       0x14 /usr/lib/gcc/i686-linux-gnu/4.8/../../../i386-linux-gnu/crti.o
 *(.igot)
                0x0000000000040ff4                . = DATA_SEGMENT_RELRO_END (., (SIZEOF (.got.plt) >= 0xc)?0xc:0x0)

.got.plt        0x0000000000040000       0x14
 *(.got.plt)
 .got.plt       0x0000000000040000       0x14 /usr/lib/gcc/i686-linux-gnu/4.8/../../../i386-linux-gnu/crti.o
                0x0000000000040000                _GLOBAL_OFFSET_TABLE_
 *(.igot.plt)

.data           0x0000000000040020      0x30e
 *(.data .data.* .gnu.linkonce.d.*)
 .data          0x0000000000040020        0x0 /usr/lib/gcc/i686-linux-gnu/4.8/../../../i386-linux-gnu/crti.o
 .data          0x0000000000040020        0x0 /usr/lib/gcc/i686-linux-gnu/4.8/crtbeginS.o
 .data.rel      0x0000000000040020        0x4 /usr/lib/gcc/i686-linux-gnu/4.8/crtbeginS.o
                0x0000000000040020                __dso_handle
 .data          0x0000000000040024       0x20 sensor.co
                0x0000000000040024                udp_server_process
 *fill*         0x0000000000040044       0x1c 
 .data          0x0000000000040060       0x44 obj_cooja/mtype645.o
                0x0000000000040060                simInterfaces
                0x0000000000040094                sensors
 .data          0x00000000000400a4       0x10 obj_cooja/mtype645.a(dtls.o)
                0x00000000000400a4                dtls_retransmit_process
 .data          0x00000000000400b4       0x18 obj_cooja/mtype645.a(tinydtls-crypto)
 .data          0x00000000000400cc        0xc obj_cooja/mtype645.a(hmac.o)
 .data          0x00000000000400d8        0xc obj_cooja/mtype645.a(netq.o)
 .data          0x00000000000400e4        0x0 obj_cooja/mtype645.a(dtls_time.o)
 .data          0x00000000000400e4        0xc obj_cooja/mtype645.a(peer.o)
 .data          0x00000000000400f0        0x0 obj_cooja/mtype645.a(session.o)
 .data          0x00000000000400f0        0x0 obj_cooja/mtype645.a(rijndael.o)
 .data          0x00000000000400f0        0x0 obj_cooja/mtype645.a(tinydtls-ccm.o)
 .data          0x00000000000400f0        0x4 obj_cooja/mtype645.a(sha2.o)
 .data          0x00000000000400f4       0x20 obj_cooja/mtype645.a(debug.o)
 .data          0x0000000000040114        0x0 obj_cooja/mtype645.a(simEnvChange.o)
 .data          0x0000000000040114        0x0 obj_cooja/mtype645.a(cooja_mt.o)
 .data          0x0000000000040114        0x0 obj_cooja/mtype645.a(cooja_mtarch.o)
 .data          0x0000000000040114        0x0 obj_cooja/mtype645.a(rtimer-arch.o)
 .data          0x0000000000040114        0x0 obj_cooja/mtype645.a(beep.o)
 .data          0x0000000000040114        0x0 obj_cooja/mtype645.a(button-sensor.o)
 .data          0x0000000000040114        0x0 obj_cooja/mtype645.a(leds-arch.o)
 .data          0x0000000000040114        0x0 obj_cooja/mtype645.a(moteid.o)
 .data          0x0000000000040114        0x0 obj_cooja/mtype645.a(pir-sensor.o)
 .data          0x0000000000040114        0x0 obj_cooja/mtype645.a(rs232.o)
 .data          0x0000000000040114        0x0 obj_cooja/mtype645.a(vib-sensor.o)
 .data          0x0000000000040114        0x0 obj_cooja/mtype645.a(clock.o)
 .data          0x0000000000040114        0x0 obj_cooja/mtype645.a(log.o)
 .data          0x0000000000040114        0x0 obj_cooja/mtype645.a(cfs-cooja.o)
 .data          0x0000000000040114       0x2c obj_cooja/mtype645.a(cooja-radio.o)
                0x0000000000040114                simRadioHWOn
                0x0000000000040118                simSignalStrength
                0x000000000004011c                simLastSignalStrength
                0x0000000000040120                simPower
                0x0000000000040124                simRadioChannel
                0x0000000000040128                simLQI
                0x0000000000040130                cooja_radio_process
 .data          0x0000000000040140        0x0 obj_cooja/mtype645.a(eeprom.o)
 .data          0x0000000000040140        0x0 obj_cooja/mtype645.a(random.o)
 .data          0x0000000000040140       0x10 obj_cooja/mtype645.a(sensors.o)
                0x0000000000040140                sensors_process
 .data          0x0000000000040150        0x0 obj_cooja/mtype645.a(autostart.o)
 .data          0x0000000000040150       0x14 obj_cooja/mtype645.a(ctimer.o)
                0x0000000000040154                ctimer_process
 .data          0x0000000000040164       0x10 obj_cooja/mtype645.a(etimer.o)
                0x0000000000040164                etimer_process
 .data          0x0000000000040174        0x0 obj_cooja/mtype645.a(process.o)
 .data          0x0000000000040174        0x0 obj_cooja/mtype645.a(rtimer.o)
 .data          0x0000000000040174        0x0 obj_cooja/mtype645.a(timer.o)
 .data          0x0000000000040174       0x10 obj_cooja/mtype645.a(serial-line.o)
                0x0000000000040174                serial_line_process
 .data          0x0000000000040184        0x0 obj_cooja/mtype645.a(assert.o)
 .data          0x0000000000040184        0x0 obj_cooja/mtype645.a(list.o)
 .data          0x0000000000040184        0x0 obj_cooja/mtype645.a(memb.o)
 .data          0x0000000000040184        0x0 obj_cooja/mtype645.a(ringbuf.o)
 .data          0x0000000000040184        0x0 obj_cooja/mtype645.a(sicslowpan.o)
 .data          0x0000000000040184       0x14 obj_cooja/mtype645.a(uip-ds6-nbr.o)
                0x0000000000040194                ds6_neighbors
 .data          0x0000000000040198       0x44 obj_cooja/mtype645.a(uip-ds6-route.o)
                0x00000000000401a8                nbr_routes
 .data          0x00000000000401dc        0x0 obj_cooja/mtype645.a(uip-ds6.o)
 .data          0x00000000000401dc       0x18 obj_cooja/mtype645.a(uip-nd6.o)
 .data          0x00000000000401f4        0x0 obj_cooja/mtype645.a(uip6.o)
 .data          0x00000000000401f4       0x20 obj_cooja/mtype645.a(resolv.o)
                0x00000000000401f4                resolv_process
                0x0000000000040204                mdns_probe_process
 .data          0x0000000000040214       0x10 obj_cooja/mtype645.a(tcpip.o)
                0x0000000000040214                tcpip_process
 .data          0x0000000000040224        0x0 obj_cooja/mtype645.a(uip-debug.o)
 .data          0x0000000000040224        0x0 obj_cooja/mtype645.a(uip-nameserver.)
 .data          0x0000000000040224        0xc obj_cooja/mtype645.a(uip-packetqueue)
 .data          0x0000000000040230        0x0 obj_cooja/mtype645.a(uip-udp-packet.)
 .data          0x0000000000040230       0x14 obj_cooja/mtype645.a(rpl-dag.o)
                0x0000000000040240                rpl_parents
 .data          0x0000000000040244        0x0 obj_cooja/mtype645.a(rpl-ext-header.)
 .data          0x0000000000040244       0x34 obj_cooja/mtype645.a(rpl-icmp6.o)
 *fill*         0x0000000000040278        0x8 
 .data          0x0000000000040280       0x24 obj_cooja/mtype645.a(rpl-mrhof.o)
                0x0000000000040280                rpl_mrhof
 .data          0x00000000000402a4        0x0 obj_cooja/mtype645.a(rpl-timers.o)
 .data          0x00000000000402a4        0x0 obj_cooja/mtype645.a(rpl.o)
 .data          0x00000000000402a4       0x14 obj_cooja/mtype645.a(link-stats.o)
 .data          0x00000000000402b8        0x0 obj_cooja/mtype645.a(linkaddr.o)
 .data          0x00000000000402b8       0x10 obj_cooja/mtype645.a(nbr-table.o)
 .data          0x00000000000402c8        0x0 obj_cooja/mtype645.a(netstack.o)
 .data          0x00000000000402c8        0x4 obj_cooja/mtype645.a(packetbuf.o)
 .data          0x00000000000402cc       0x18 obj_cooja/mtype645.a(queuebuf.o)
 .data          0x00000000000402e4       0x28 obj_cooja/mtype645.a(csma.o)
 .data          0x000000000004030c        0x0 obj_cooja/mtype645.a(framer-802154.o)
 .data          0x000000000004030c        0x0 obj_cooja/mtype645.a(mac.o)
 .data          0x000000000004030c        0x0 obj_cooja/mtype645.a(nullrdc.o)
 .data          0x000000000004030c        0x0 obj_cooja/mtype645.a(nullsec.o)
 .data          0x000000000004030c        0x0 obj_cooja/mtype645.a(watchdog.o)
 .data          0x000000000004030c        0x0 obj_cooja/mtype645.a(rimestats.o)
 .data          0x000000000004030c        0x0 obj_cooja/mtype645.a(stimer.o)
 .data          0x000000000004030c       0x20 obj_cooja/mtype645.a(uip-icmp6.o)
 .data          0x000000000004032c        0x0 obj_cooja/mtype645.a(rpl-nbr-policy.)
 .data          0x000000000004032c        0x2 obj_cooja/mtype645.a(frame802154.o)
 .data          0x000000000004032e        0x0 obj_cooja/mtype645.a(mac-sequence.o)
 .data          0x000000000004032e        0x0 /usr/lib/gcc/i686-linux-gnu/4.8/crtendS.o
 .data          0x000000000004032e        0x0 /usr/lib/gcc/i686-linux-gnu/4.8/../../../i386-linux-gnu/crtn.o

.tm_clone_table
                0x0000000000040330        0x0
 .tm_clone_table
                0x0000000000040330        0x0 /usr/lib/gcc/i686-linux-gnu/4.8/crtbeginS.o
 .tm_clone_table
                0x0000000000040330        0x0 /usr/lib/gcc/i686-linux-gnu/4.8/crtendS.o

.data1
 *(.data1)
                0x0000000000040330                _edata = .
                0x0000000000040330                PROVIDE (edata, .)
                0x0000000000040330                . = .
                0x0000000000040330                __bss_start = .

.bss            0x0000000000040340    0x12cc8
 *(.dynbss)
 .dynbss        0x0000000000000000        0x0 /usr/lib/gcc/i686-linux-gnu/4.8/../../../i386-linux-gnu/crti.o
 *(.bss .bss.* .gnu.linkonce.b.*)
 .bss           0x0000000000040340        0x0 /usr/lib/gcc/i686-linux-gnu/4.8/../../../i386-linux-gnu/crti.o
 .bss           0x0000000000040340        0x1 /usr/lib/gcc/i686-linux-gnu/4.8/crtbeginS.o
 *fill*         0x0000000000040341        0x3 
 .bss           0x0000000000040344       0x14 sensor.co
 *fill*         0x0000000000040358        0x8 
 .bss           0x0000000000040360     0x2030 obj_cooja/mtype645.o
 *fill*         0x0000000000042390       0x10 
 .bss           0x00000000000423a0      0x165 obj_cooja/mtype645.a(dtls.o)
 *fill*         0x0000000000042505       0x1b 
 .bss           0x0000000000042520      0x274 obj_cooja/mtype645.a(tinydtls-crypto)
 *fill*         0x0000000000042794        0xc 
 .bss           0x00000000000427a0      0x410 obj_cooja/mtype645.a(hmac.o)
 *fill*         0x0000000000042bb0       0x10 
 .bss           0x0000000000042bc0      0x470 obj_cooja/mtype645.a(netq.o)
 .bss           0x0000000000043030        0x0 obj_cooja/mtype645.a(dtls_time.o)
 *fill*         0x0000000000043030       0x10 
 .bss           0x0000000000043040       0x80 obj_cooja/mtype645.a(peer.o)
 .bss           0x00000000000430c0        0x0 obj_cooja/mtype645.a(session.o)
 .bss           0x00000000000430c0        0x0 obj_cooja/mtype645.a(rijndael.o)
 .bss           0x00000000000430c0        0x4 obj_cooja/mtype645.a(tinydtls-ccm.o)
 .bss           0x00000000000430c4        0x0 obj_cooja/mtype645.a(sha2.o)
 *fill*         0x00000000000430c4       0x1c 
 .bss           0x00000000000430e0       0x20 obj_cooja/mtype645.a(debug.o)
 .bss           0x0000000000043100        0x1 obj_cooja/mtype645.a(simEnvChange.o)
                0x0000000000043100                simDontFallAsleep
 *fill*         0x0000000000043101        0x3 
 .bss           0x0000000000043104        0x4 obj_cooja/mtype645.a(cooja_mt.o)
 .bss           0x0000000000043108        0x4 obj_cooja/mtype645.a(cooja_mtarch.o)
 .bss           0x000000000004310c        0x0 obj_cooja/mtype645.a(rtimer-arch.o)
 .bss           0x000000000004310c        0x0 obj_cooja/mtype645.a(beep.o)
 .bss           0x000000000004310c        0x8 obj_cooja/mtype645.a(button-sensor.o)
 .bss           0x0000000000043114        0x0 obj_cooja/mtype645.a(leds-arch.o)
 .bss           0x0000000000043114        0x0 obj_cooja/mtype645.a(moteid.o)
 .bss           0x0000000000043114        0x1 obj_cooja/mtype645.a(pir-sensor.o)
                0x0000000000043114                simPirValue
 *fill*         0x0000000000043115        0x3 
 .bss           0x0000000000043118        0x4 obj_cooja/mtype645.a(rs232.o)
 .bss           0x000000000004311c        0x1 obj_cooja/mtype645.a(vib-sensor.o)
                0x000000000004311c                simVibValue
 .bss           0x000000000004311d        0x0 obj_cooja/mtype645.a(clock.o)
 *fill*         0x000000000004311d        0x3 
 .bss           0x0000000000043120      0x420 obj_cooja/mtype645.a(log.o)
 .bss           0x0000000000043540      0xfc0 obj_cooja/mtype645.a(cfs-cooja.o)
                0x0000000000043540                simCFSData
                0x00000000000444e0                simCFSSize
                0x00000000000444e4                simCFSChanged
                0x00000000000444e8                simCFSRead
                0x00000000000444ec                simCFSWritten
 .bss           0x0000000000044500       0x24 obj_cooja/mtype645.a(cooja-radio.o)
                0x0000000000044500                simReceiving
                0x0000000000044504                simInSize
                0x0000000000044508                simLastPacketTimestamp
                0x0000000000044510                simOutSize
 .bss           0x0000000000044524        0xc obj_cooja/mtype645.a(eeprom.o)
                0x0000000000044524                simEEPROMChanged
                0x0000000000044528                simEEPROMRead
                0x000000000004452c                simEEPROMWritten
 .bss           0x0000000000044530        0x0 obj_cooja/mtype645.a(random.o)
 .bss           0x0000000000044530        0xc obj_cooja/mtype645.a(sensors.o)
 .bss           0x000000000004453c        0x0 obj_cooja/mtype645.a(autostart.o)
 .bss           0x000000000004453c        0x5 obj_cooja/mtype645.a(ctimer.o)
 *fill*         0x0000000000044541        0x3 
 .bss           0x0000000000044544        0x8 obj_cooja/mtype645.a(etimer.o)
 *fill*         0x000000000004454c       0x14 
 .bss           0x0000000000044560      0x1a1 obj_cooja/mtype645.a(process.o)
                0x0000000000044560                process_list
                0x0000000000044564                process_current
 *fill*         0x0000000000044701        0x3 
 .bss           0x0000000000044704        0x4 obj_cooja/mtype645.a(rtimer.o)
 .bss           0x0000000000044708        0x0 obj_cooja/mtype645.a(timer.o)
 *fill*         0x0000000000044708       0x18 
 .bss           0x0000000000044720      0x140 obj_cooja/mtype645.a(serial-line.o)
 .bss           0x0000000000044860        0x0 obj_cooja/mtype645.a(assert.o)
 .bss           0x0000000000044860        0x0 obj_cooja/mtype645.a(list.o)
 .bss           0x0000000000044860        0x0 obj_cooja/mtype645.a(memb.o)
 .bss           0x0000000000044860        0x0 obj_cooja/mtype645.a(ringbuf.o)
 .bss           0x0000000000044860      0x70c obj_cooja/mtype645.a(sicslowpan.o)
 *fill*         0x0000000000044f6c       0x14 
 .bss           0x0000000000044f80     0x3390 obj_cooja/mtype645.a(uip-ds6-nbr.o)
 *fill*         0x0000000000048310       0x10 
 .bss           0x0000000000048320     0x44a4 obj_cooja/mtype645.a(uip-ds6-route.o)
 .bss           0x000000000004c7c4       0x20 obj_cooja/mtype645.a(uip-ds6.o)
 .bss           0x000000000004c7e4       0x14 obj_cooja/mtype645.a(uip-nd6.o)
 .bss           0x000000000004c7f8        0xa obj_cooja/mtype645.a(uip6.o)
                0x000000000004c7f8                uip_ext_bitmap
                0x000000000004c7f9                uip_ext_len
                0x000000000004c7fa                uip_ext_opt_offset
 *fill*         0x000000000004c802       0x1e 
 .bss           0x000000000004c820      0x1a1 obj_cooja/mtype645.a(resolv.o)
 *fill*         0x000000000004c9c1       0x1f 
 .bss           0x000000000004c9e0       0x6a obj_cooja/mtype645.a(tcpip.o)
 .bss           0x000000000004ca4a        0x0 obj_cooja/mtype645.a(uip-debug.o)
 *fill*         0x000000000004ca4a        0x2 
 .bss           0x000000000004ca4c       0x14 obj_cooja/mtype645.a(uip-nameserver.)
 .bss           0x000000000004ca60      0xcf8 obj_cooja/mtype645.a(uip-packetqueue)
 .bss           0x000000000004d758        0x0 obj_cooja/mtype645.a(uip-udp-packet.)
 *fill*         0x000000000004d758        0x8 
 .bss           0x000000000004d760      0x960 obj_cooja/mtype645.a(rpl-dag.o)
 .bss           0x000000000004e0c0        0x0 obj_cooja/mtype645.a(rpl-ext-header.)
 .bss           0x000000000004e0c0        0x0 obj_cooja/mtype645.a(rpl-icmp6.o)
 .bss           0x000000000004e0c0        0x0 obj_cooja/mtype645.a(rpl-mrhof.o)
 .bss           0x000000000004e0c0       0x23 obj_cooja/mtype645.a(rpl-timers.o)
 *fill*         0x000000000004e0e3        0x1 
 .bss           0x000000000004e0e4        0x4 obj_cooja/mtype645.a(rpl.o)
 *fill*         0x000000000004e0e8       0x18 
 .bss           0x000000000004e100      0xe10 obj_cooja/mtype645.a(link-stats.o)
 .bss           0x000000000004ef10        0x0 obj_cooja/mtype645.a(linkaddr.o)
 *fill*         0x000000000004ef10       0x10 
 .bss           0x000000000004ef20     0x1214 obj_cooja/mtype645.a(nbr-table.o)
 .bss           0x0000000000050134        0x0 obj_cooja/mtype645.a(netstack.o)
 *fill*         0x0000000000050134        0xc 
 .bss           0x0000000000050140       0xa0 obj_cooja/mtype645.a(packetbuf.o)
 .bss           0x00000000000501e0      0xb80 obj_cooja/mtype645.a(queuebuf.o)
 .bss           0x0000000000050d60      0x248 obj_cooja/mtype645.a(csma.o)
 .bss           0x0000000000050fa8        0x2 obj_cooja/mtype645.a(framer-802154.o)
 .bss           0x0000000000050faa        0x0 obj_cooja/mtype645.a(mac.o)
 .bss           0x0000000000050faa        0x0 obj_cooja/mtype645.a(nullrdc.o)
 .bss           0x0000000000050faa        0x0 obj_cooja/mtype645.a(nullsec.o)
 .bss           0x0000000000050faa        0x0 obj_cooja/mtype645.a(watchdog.o)
 .bss           0x0000000000050faa        0x0 obj_cooja/mtype645.a(rimestats.o)
 .bss           0x0000000000050faa        0x0 obj_cooja/mtype645.a(stimer.o)
 *fill*         0x0000000000050faa        0x2 
 .bss           0x0000000000050fac       0x18 obj_cooja/mtype645.a(uip-icmp6.o)
 *fill*         0x0000000000050fc4       0x1c 
 .bss           0x0000000000050fe0       0x44 obj_cooja/mtype645.a(rpl-nbr-policy.)
 .bss           0x0000000000051024        0x0 obj_cooja/mtype645.a(frame802154.o)
 *fill*         0x0000000000051024       0x1c 
 .bss           0x0000000000051040      0x100 obj_cooja/mtype645.a(mac-sequence.o)
 .bss           0x0000000000051140        0x0 /usr/lib/gcc/i686-linux-gnu/4.8/crtendS.o
 .bss           0x0000000000051140        0x0 /usr/lib/gcc/i686-linux-gnu/4.8/../../../i386-linux-gnu/crtn.o
 *(COMMON)
 COMMON         0x0000000000051140       0x24 sensor.co
                0x0000000000051140                cfs_buf
                0x0000000000051160                fd
 COMMON         0x0000000000051164        0x8 obj_cooja/mtype645.o
                0x0000000000051164                referenceVar
                0x0000000000051168                sensors_flags
 COMMON         0x000000000005116c        0x4 obj_cooja/mtype645.a(dtls_time.o)
                0x000000000005116c                dtls_clock_offset
 COMMON         0x0000000000051170        0xc obj_cooja/mtype645.a(simEnvChange.o)
                0x0000000000051170                simEtimerPending
                0x0000000000051174                simProcessRunValue
                0x0000000000051178                simEtimerNextExpirationTime
 *fill*         0x000000000005117c        0x4 
 COMMON         0x0000000000051180       0x18 obj_cooja/mtype645.a(rtimer-arch.o)
                0x0000000000051180                simRtimerPending
                0x0000000000051188                simRtimerCurrentTicks
                0x0000000000051190                simRtimerNextExpirationTime
 COMMON         0x0000000000051198        0x1 obj_cooja/mtype645.a(beep.o)
                0x0000000000051198                simBeeped
 COMMON         0x0000000000051199        0x3 obj_cooja/mtype645.a(button-sensor.o)
                0x0000000000051199                simButtonIsActive
                0x000000000005119a                simButtonIsDown
                0x000000000005119b                simButtonChanged
 COMMON         0x000000000005119c        0x1 obj_cooja/mtype645.a(leds-arch.o)
                0x000000000005119c                simLedsValue
 *fill*         0x000000000005119d        0x3 
 COMMON         0x00000000000511a0        0xc obj_cooja/mtype645.a(moteid.o)
                0x00000000000511a0                simRandomSeed
                0x00000000000511a4                simMoteIDChanged
                0x00000000000511a8                simMoteID
 COMMON         0x00000000000511ac        0x2 obj_cooja/mtype645.a(pir-sensor.o)
                0x00000000000511ac                simPirIsActive
                0x00000000000511ad                simPirChanged
 *fill*         0x00000000000511ae       0x12 
 COMMON         0x00000000000511c0      0x820 obj_cooja/mtype645.a(rs232.o)
                0x00000000000511c0                simSerialReceivingFlag
                0x00000000000511c4                simSerialReceivingLength
                0x00000000000511e0                simSerialReceivingData
 COMMON         0x00000000000519e0        0x2 obj_cooja/mtype645.a(vib-sensor.o)
                0x00000000000519e0                simVibChanged
                0x00000000000519e1                simVibIsActive
 *fill*         0x00000000000519e2        0x2 
 COMMON         0x00000000000519e4        0x4 obj_cooja/mtype645.a(clock.o)
                0x00000000000519e4                simCurrentTime
 *fill*         0x00000000000519e8       0x18 
 COMMON         0x0000000000051a00      0x420 obj_cooja/mtype645.a(log.o)
                0x0000000000051a00                simLoggedLength
                0x0000000000051a04                simLoggedFlag
                0x0000000000051a20                simLoggedData
 COMMON         0x0000000000051e20      0x100 obj_cooja/mtype645.a(cooja-radio.o)
                0x0000000000051e20                simOutDataBuffer
                0x0000000000051ea0                simInDataBuffer
 COMMON         0x0000000000051f20      0x400 obj_cooja/mtype645.a(eeprom.o)
                0x0000000000051f20                simEEPROMData
 COMMON         0x0000000000052320        0x1 obj_cooja/mtype645.a(sensors.o)
                0x0000000000052320                sensors_event
 COMMON         0x0000000000052321        0x1 obj_cooja/mtype645.a(serial-line.o)
                0x0000000000052321                serial_line_event_message
 *fill*         0x0000000000052322       0x1e 
 COMMON         0x0000000000052340      0x181 obj_cooja/mtype645.a(uip-ds6.o)
                0x0000000000052340                uip_ds6_prefix_list
                0x00000000000523a0                uip_ds6_timer_periodic
                0x00000000000523b0                uip_ds6_netif_addr_list_offset
                0x00000000000523c0                uip_ds6_if
                0x00000000000524b8                uip_ds6_timer_ra
                0x00000000000524c0                uip_ds6_addr_size
 *fill*         0x00000000000524c1       0x1f 
 COMMON         0x00000000000524e0      0x8ec obj_cooja/mtype645.a(uip6.o)
                0x00000000000524e0                uip_slen
                0x00000000000524e2                uip_acc32
                0x0000000000052500                uip_conns
                0x00000000000525c0                uip_lladdr
                0x00000000000525c8                uip_appdata
                0x00000000000525cc                uip_flags
                0x00000000000525e0                uip_aligned_buf
                0x0000000000052c20                uip_listenports
                0x0000000000052c30                uip_len
                0x0000000000052c34                uip_sappdata
                0x0000000000052c40                uip_udp_conns
                0x0000000000052dc0                uip_udp_conn
                0x0000000000052dc4                uip_next_hdr
                0x0000000000052dc8                uip_conn
 COMMON         0x0000000000052dcc        0x1 obj_cooja/mtype645.a(resolv.o)
                0x0000000000052dcc                resolv_event_found
 COMMON         0x0000000000052dcd        0x1 obj_cooja/mtype645.a(tcpip.o)
                0x0000000000052dcd                tcpip_event
 *fill*         0x0000000000052dce       0x12 
 COMMON         0x0000000000052de0      0x174 obj_cooja/mtype645.a(rpl-dag.o)
                0x0000000000052de0                default_instance
                0x0000000000052e00                instance_table
 *fill*         0x0000000000052f54        0xc 
 COMMON         0x0000000000052f60       0x20 obj_cooja/mtype645.a(link-stats.o)
                0x0000000000052f60                periodic_timer
 COMMON         0x0000000000052f80        0x8 obj_cooja/mtype645.a(linkaddr.o)
                0x0000000000052f80                linkaddr_node_addr
 COMMON         0x0000000000052f88       0x2e obj_cooja/mtype645.a(packetbuf.o)
                0x0000000000052f88                packetbuf_attrs
                0x0000000000052fa6                packetbuf_addrs
 *fill*         0x0000000000052fb6        0xa 
 COMMON         0x0000000000052fc0       0x48 obj_cooja/mtype645.a(rimestats.o)
                0x0000000000052fc0                rimestats
                0x0000000000053008                . = ALIGN ((. != 0x0)?0x4:0x1)
                0x0000000000053008                . = ALIGN (0x4)
                0x0000000000053008                . = SEGMENT_START ("ldata-segment", .)
                0x0000000000053008                . = ALIGN (0x4)
                0x0000000000053008                _end = .
                0x0000000000053008                PROVIDE (end, .)
                0x0000000000053008                . = DATA_SEGMENT_END (.)

.stab
 *(.stab)

.stabstr
 *(.stabstr)

.stab.excl
 *(.stab.excl)

.stab.exclstr
 *(.stab.exclstr)

.stab.index
 *(.stab.index)

.stab.indexstr
 *(.stab.indexstr)

.comment        0x0000000000000000       0x29
 *(.comment)
 .comment       0x0000000000000000       0x29 /usr/lib/gcc/i686-linux-gnu/4.8/crtbeginS.o
                                         0x2a (size before relaxing)
 .comment       0x0000000000000000       0x2a sensor.co
 .comment       0x0000000000000000       0x2a obj_cooja/mtype645.o
 .comment       0x0000000000000000       0x2a obj_cooja/mtype645.a(dtls.o)
 .comment       0x0000000000000000       0x2a obj_cooja/mtype645.a(tinydtls-crypto)
 .comment       0x0000000000000000       0x2a obj_cooja/mtype645.a(hmac.o)
 .comment       0x0000000000000000       0x2a obj_cooja/mtype645.a(netq.o)
 .comment       0x0000000000000000       0x2a obj_cooja/mtype645.a(dtls_time.o)
 .comment       0x0000000000000000       0x2a obj_cooja/mtype645.a(peer.o)
 .comment       0x0000000000000000       0x2a obj_cooja/mtype645.a(session.o)
 .comment       0x0000000000000000       0x2a obj_cooja/mtype645.a(rijndael.o)
 .comment       0x0000000000000000       0x2a obj_cooja/mtype645.a(tinydtls-ccm.o)
 .comment       0x0000000000000000       0x2a obj_cooja/mtype645.a(sha2.o)
 .comment       0x0000000000000000       0x2a obj_cooja/mtype645.a(debug.o)
 .comment       0x0000000000000000       0x2a obj_cooja/mtype645.a(simEnvChange.o)
 .comment       0x0000000000000000       0x2a obj_cooja/mtype645.a(cooja_mt.o)
 .comment       0x0000000000000000       0x2a obj_cooja/mtype645.a(cooja_mtarch.o)
 .comment       0x0000000000000000       0x2a obj_cooja/mtype645.a(rtimer-arch.o)
 .comment       0x0000000000000000       0x2a obj_cooja/mtype645.a(beep.o)
 .comment       0x0000000000000000       0x2a obj_cooja/mtype645.a(button-sensor.o)
 .comment       0x0000000000000000       0x2a obj_cooja/mtype645.a(leds-arch.o)
 .comment       0x0000000000000000       0x2a obj_cooja/mtype645.a(moteid.o)
 .comment       0x0000000000000000       0x2a obj_cooja/mtype645.a(pir-sensor.o)
 .comment       0x0000000000000000       0x2a obj_cooja/mtype645.a(rs232.o)
 .comment       0x0000000000000000       0x2a obj_cooja/mtype645.a(vib-sensor.o)
 .comment       0x0000000000000000       0x2a obj_cooja/mtype645.a(clock.o)
 .comment       0x0000000000000000       0x2a obj_cooja/mtype645.a(log.o)
 .comment       0x0000000000000000       0x2a obj_cooja/mtype645.a(cfs-cooja.o)
 .comment       0x0000000000000000       0x2a obj_cooja/mtype645.a(cooja-radio.o)
 .comment       0x0000000000000000       0x2a obj_cooja/mtype645.a(eeprom.o)
 .comment       0x0000000000000000       0x2a obj_cooja/mtype645.a(random.o)
 .comment       0x0000000000000000       0x2a obj_cooja/mtype645.a(sensors.o)
 .comment       0x0000000000000000       0x2a obj_cooja/mtype645.a(autostart.o)
 .comment       0x0000000000000000       0x2a obj_cooja/mtype645.a(ctimer.o)
 .comment       0x0000000000000000       0x2a obj_cooja/mtype645.a(etimer.o)
 .comment       0x0000000000000000       0x2a obj_cooja/mtype645.a(process.o)
 .comment       0x0000000000000000       0x2a obj_cooja/mtype645.a(rtimer.o)
 .comment       0x0000000000000000       0x2a obj_cooja/mtype645.a(timer.o)
 .comment       0x0000000000000000       0x2a obj_cooja/mtype645.a(serial-line.o)
 .comment       0x0000000000000000       0x2a obj_cooja/mtype645.a(assert.o)
 .comment       0x0000000000000000       0x2a obj_cooja/mtype645.a(list.o)
 .comment       0x0000000000000000       0x2a obj_cooja/mtype645.a(memb.o)
 .comment       0x0000000000000000       0x2a obj_cooja/mtype645.a(ringbuf.o)
 .comment       0x0000000000000000       0x2a obj_cooja/mtype645.a(sicslowpan.o)
 .comment       0x0000000000000000       0x2a obj_cooja/mtype645.a(uip-ds6-nbr.o)
 .comment       0x0000000000000000       0x2a obj_cooja/mtype645.a(uip-ds6-route.o)
 .comment       0x0000000000000000       0x2a obj_cooja/mtype645.a(uip-ds6.o)
 .comment       0x0000000000000000       0x2a obj_cooja/mtype645.a(uip-nd6.o)
 .comment       0x0000000000000000       0x2a obj_cooja/mtype645.a(uip6.o)
 .comment       0x0000000000000000       0x2a obj_cooja/mtype645.a(resolv.o)
 .comment       0x0000000000000000       0x2a obj_cooja/mtype645.a(tcpip.o)
 .comment       0x0000000000000000       0x2a obj_cooja/mtype645.a(uip-debug.o)
 .comment       0x0000000000000000       0x2a obj_cooja/mtype645.a(uip-nameserver.)
 .comment       0x0000000000000000       0x2a obj_cooja/mtype645.a(uip-packetqueue)
 .comment       0x0000000000000000       0x2a obj_cooja/mtype645.a(uip-udp-packet.)
 .comment       0x0000000000000000       0x2a obj_cooja/mtype645.a(rpl-dag.o)
 .comment       0x0000000000000000       0x2a obj_cooja/mtype645.a(rpl-ext-header.)
 .comment       0x0000000000000000       0x2a obj_cooja/mtype645.a(rpl-icmp6.o)
 .comment       0x0000000000000000       0x2a obj_cooja/mtype645.a(rpl-mrhof.o)
 .comment       0x0000000000000000       0x2a obj_cooja/mtype645.a(rpl-timers.o)
 .comment       0x0000000000000000       0x2a obj_cooja/mtype645.a(rpl.o)
 .comment       0x0000000000000000       0x2a obj_cooja/mtype645.a(link-stats.o)
 .comment       0x0000000000000000       0x2a obj_cooja/mtype645.a(linkaddr.o)
 .comment       0x0000000000000000       0x2a obj_cooja/mtype645.a(nbr-table.o)
 .comment       0x0000000000000000       0x2a obj_cooja/mtype645.a(netstack.o)
 .comment       0x0000000000000000       0x2a obj_cooja/mtype645.a(packetbuf.o)
 .comment       0x0000000000000000       0x2a obj_cooja/mtype645.a(queuebuf.o)
 .comment       0x0000000000000000       0x2a obj_cooja/mtype645.a(csma.o)
 .comment       0x0000000000000000       0x2a obj_cooja/mtype645.a(framer-802154.o)
 .comment       0x0000000000000000       0x2a obj_cooja/mtype645.a(mac.o)
 .comment       0x0000000000000000       0x2a obj_cooja/mtype645.a(nullrdc.o)
 .comment       0x0000000000000000       0x2a obj_cooja/mtype645.a(nullsec.o)
 .comment       0x0000000000000000       0x2a obj_cooja/mtype645.a(watchdog.o)
 .comment       0x0000000000000000       0x2a obj_cooja/mtype645.a(rimestats.o)
 .comment       0x0000000000000000       0x2a obj_cooja/mtype645.a(stimer.o)
 .comment       0x0000000000000000       0x2a obj_cooja/mtype645.a(uip-icmp6.o)
 .comment       0x0000000000000000       0x2a obj_cooja/mtype645.a(rpl-nbr-policy.)
 .comment       0x0000000000000000       0x2a obj_cooja/mtype645.a(frame802154.o)
 .comment       0x0000000000000000       0x2a obj_cooja/mtype645.a(mac-sequence.o)
 .comment       0x0000000000000000       0x2a /usr/lib/gcc/i686-linux-gnu/4.8/crtendS.o

.debug
 *(.debug)

.line
 *(.line)

.debug_srcinfo
 *(.debug_srcinfo)

.debug_sfnames
 *(.debug_sfnames)

.debug_aranges  0x0000000000000000     0x2148
 *(.debug_aranges)
 .debug_aranges
                0x0000000000000000       0x78 sensor.co
 .debug_aranges
                0x0000000000000078       0x68 obj_cooja/mtype645.o
 .debug_aranges
                0x00000000000000e0      0x300 obj_cooja/mtype645.a(dtls.o)
 .debug_aranges
                0x00000000000003e0       0xc8 obj_cooja/mtype645.a(tinydtls-crypto)
 .debug_aranges
                0x00000000000004a8       0x70 obj_cooja/mtype645.a(hmac.o)
 .debug_aranges
                0x0000000000000518       0x70 obj_cooja/mtype645.a(netq.o)
 .debug_aranges
                0x0000000000000588       0x28 obj_cooja/mtype645.a(dtls_time.o)
 .debug_aranges
                0x00000000000005b0       0x38 obj_cooja/mtype645.a(peer.o)
 .debug_aranges
                0x00000000000005e8       0x28 obj_cooja/mtype645.a(session.o)
 .debug_aranges
                0x0000000000000610       0x38 obj_cooja/mtype645.a(rijndael.o)
 .debug_aranges
                0x0000000000000648       0x60 obj_cooja/mtype645.a(tinydtls-ccm.o)
 .debug_aranges
                0x00000000000006a8       0x48 obj_cooja/mtype645.a(sha2.o)
 .debug_aranges
                0x00000000000006f0       0x68 obj_cooja/mtype645.a(debug.o)
 .debug_aranges
                0x0000000000000758       0x28 obj_cooja/mtype645.a(simEnvChange.o)
 .debug_aranges
                0x0000000000000780       0x48 obj_cooja/mtype645.a(cooja_mt.o)
 .debug_aranges
                0x00000000000007c8       0x60 obj_cooja/mtype645.a(cooja_mtarch.o)
 .debug_aranges
                0x0000000000000828       0x48 obj_cooja/mtype645.a(rtimer-arch.o)
 .debug_aranges
                0x0000000000000870       0x70 obj_cooja/mtype645.a(beep.o)
 .debug_aranges
                0x00000000000008e0       0x40 obj_cooja/mtype645.a(button-sensor.o)
 .debug_aranges
                0x0000000000000920       0x40 obj_cooja/mtype645.a(leds-arch.o)
 .debug_aranges
                0x0000000000000960       0x28 obj_cooja/mtype645.a(moteid.o)
 .debug_aranges
                0x0000000000000988       0x40 obj_cooja/mtype645.a(pir-sensor.o)
 .debug_aranges
                0x00000000000009c8       0x58 obj_cooja/mtype645.a(rs232.o)
 .debug_aranges
                0x0000000000000a20       0x40 obj_cooja/mtype645.a(vib-sensor.o)
 .debug_aranges
                0x0000000000000a60       0x48 obj_cooja/mtype645.a(clock.o)
 .debug_aranges
                0x0000000000000aa8       0x60 obj_cooja/mtype645.a(log.o)
 .debug_aranges
                0x0000000000000b08       0x70 obj_cooja/mtype645.a(cfs-cooja.o)
 .debug_aranges
                0x0000000000000b78       0xf0 obj_cooja/mtype645.a(cooja-radio.o)
 .debug_aranges
                0x0000000000000c68       0x40 obj_cooja/mtype645.a(eeprom.o)
 .debug_aranges
                0x0000000000000ca8       0x28 obj_cooja/mtype645.a(random.o)
 .debug_aranges
                0x0000000000000cd0       0x48 obj_cooja/mtype645.a(sensors.o)
 .debug_aranges
                0x0000000000000d18       0x28 obj_cooja/mtype645.a(autostart.o)
 .debug_aranges
                0x0000000000000d40       0x58 obj_cooja/mtype645.a(ctimer.o)
 .debug_aranges
                0x0000000000000d98       0x90 obj_cooja/mtype645.a(etimer.o)
 .debug_aranges
                0x0000000000000e28       0x88 obj_cooja/mtype645.a(process.o)
 .debug_aranges
                0x0000000000000eb0       0x30 obj_cooja/mtype645.a(rtimer.o)
 .debug_aranges
                0x0000000000000ee0       0x40 obj_cooja/mtype645.a(timer.o)
 .debug_aranges
                0x0000000000000f20       0x30 obj_cooja/mtype645.a(serial-line.o)
 .debug_aranges
                0x0000000000000f50       0x20 obj_cooja/mtype645.a(assert.o)
 .debug_aranges
                0x0000000000000f70       0x78 obj_cooja/mtype645.a(list.o)
 .debug_aranges
                0x0000000000000fe8       0x40 obj_cooja/mtype645.a(memb.o)
 .debug_aranges
                0x0000000000001028       0x40 obj_cooja/mtype645.a(ringbuf.o)
 .debug_aranges
                0x0000000000001068       0xe0 obj_cooja/mtype645.a(sicslowpan.o)
 .debug_aranges
                0x0000000000001148       0x90 obj_cooja/mtype645.a(uip-ds6-nbr.o)
 .debug_aranges
                0x00000000000011d8       0xc8 obj_cooja/mtype645.a(uip-ds6-route.o)
 .debug_aranges
                0x00000000000012a0       0xc8 obj_cooja/mtype645.a(uip-ds6.o)
 .debug_aranges
                0x0000000000001368       0x48 obj_cooja/mtype645.a(uip-nd6.o)
 .debug_aranges
                0x00000000000013b0       0xb0 obj_cooja/mtype645.a(uip6.o)
 .debug_aranges
                0x0000000000001460       0xb8 obj_cooja/mtype645.a(resolv.o)
 .debug_aranges
                0x0000000000001518       0xb0 obj_cooja/mtype645.a(tcpip.o)
 .debug_aranges
                0x00000000000015c8       0x20 obj_cooja/mtype645.a(uip-debug.o)
 .debug_aranges
                0x00000000000015e8       0x38 obj_cooja/mtype645.a(uip-nameserver.)
 .debug_aranges
                0x0000000000001620       0x50 obj_cooja/mtype645.a(uip-packetqueue)
 .debug_aranges
                0x0000000000001670       0x28 obj_cooja/mtype645.a(uip-udp-packet.)
 .debug_aranges
                0x0000000000001698      0x1d8 obj_cooja/mtype645.a(rpl-dag.o)
 .debug_aranges
                0x0000000000001870       0x48 obj_cooja/mtype645.a(rpl-ext-header.)
 .debug_aranges
                0x00000000000018b8       0xc0 obj_cooja/mtype645.a(rpl-icmp6.o)
 .debug_aranges
                0x0000000000001978       0x60 obj_cooja/mtype645.a(rpl-mrhof.o)
 .debug_aranges
                0x00000000000019d8       0xa0 obj_cooja/mtype645.a(rpl-timers.o)
 .debug_aranges
                0x0000000000001a78       0x68 obj_cooja/mtype645.a(rpl.o)
 .debug_aranges
                0x0000000000001ae0       0x58 obj_cooja/mtype645.a(link-stats.o)
 .debug_aranges
                0x0000000000001b38       0x30 obj_cooja/mtype645.a(linkaddr.o)
 .debug_aranges
                0x0000000000001b68       0xc0 obj_cooja/mtype645.a(nbr-table.o)
 .debug_aranges
                0x0000000000001c28       0x20 obj_cooja/mtype645.a(netstack.o)
 .debug_aranges
                0x0000000000001c48       0xa0 obj_cooja/mtype645.a(packetbuf.o)
 .debug_aranges
                0x0000000000001ce8       0x80 obj_cooja/mtype645.a(queuebuf.o)
 .debug_aranges
                0x0000000000001d68       0xb8 obj_cooja/mtype645.a(csma.o)
 .debug_aranges
                0x0000000000001e20       0x58 obj_cooja/mtype645.a(framer-802154.o)
 .debug_aranges
                0x0000000000001e78       0x20 obj_cooja/mtype645.a(mac.o)
 .debug_aranges
                0x0000000000001e98       0x70 obj_cooja/mtype645.a(nullrdc.o)
 .debug_aranges
                0x0000000000001f08       0x38 obj_cooja/mtype645.a(nullsec.o)
 .debug_aranges
                0x0000000000001f40       0x40 obj_cooja/mtype645.a(watchdog.o)
 .debug_aranges
                0x0000000000001f80       0x18 obj_cooja/mtype645.a(rimestats.o)
 .debug_aranges
                0x0000000000001f98       0x48 obj_cooja/mtype645.a(stimer.o)
 .debug_aranges
                0x0000000000001fe0       0x68 obj_cooja/mtype645.a(uip-icmp6.o)
 .debug_aranges
                0x0000000000002048       0x48 obj_cooja/mtype645.a(rpl-nbr-policy.)
 .debug_aranges
                0x0000000000002090       0x80 obj_cooja/mtype645.a(frame802154.o)
 .debug_aranges
                0x0000000000002110       0x38 obj_cooja/mtype645.a(mac-sequence.o)

.debug_pubnames
 *(.debug_pubnames)

.debug_info     0x0000000000000000    0x2491d
 *(.debug_info .gnu.linkonce.wi.*)
 .debug_info    0x0000000000000000      0xf59 sensor.co
 .debug_info    0x0000000000000f59     0x36d8 obj_cooja/mtype645.o
 .debug_info    0x0000000000004631     0x3461 obj_cooja/mtype645.a(dtls.o)
 .debug_info    0x0000000000007a92      0xe43 obj_cooja/mtype645.a(tinydtls-crypto)
 .debug_info    0x00000000000088d5      0x4e9 obj_cooja/mtype645.a(hmac.o)
 .debug_info    0x0000000000008dbe      0x8d5 obj_cooja/mtype645.a(netq.o)
 .debug_info    0x0000000000009693      0x17e obj_cooja/mtype645.a(dtls_time.o)
 .debug_info    0x0000000000009811      0x6d1 obj_cooja/mtype645.a(peer.o)
 .debug_info    0x0000000000009ee2      0x22c obj_cooja/mtype645.a(session.o)
 .debug_info    0x000000000000a10e      0x37f obj_cooja/mtype645.a(rijndael.o)
 .debug_info    0x000000000000a48d      0x650 obj_cooja/mtype645.a(tinydtls-ccm.o)
 .debug_info    0x000000000000aadd      0x560 obj_cooja/mtype645.a(sha2.o)
 .debug_info    0x000000000000b03d      0x518 obj_cooja/mtype645.a(debug.o)
 .debug_info    0x000000000000b555      0x15a obj_cooja/mtype645.a(simEnvChange.o)
 .debug_info    0x000000000000b6af      0x1e2 obj_cooja/mtype645.a(cooja_mt.o)
 .debug_info    0x000000000000b891      0x2e7 obj_cooja/mtype645.a(cooja_mtarch.o)
 .debug_info    0x000000000000bb78      0x14a obj_cooja/mtype645.a(rtimer-arch.o)
 .debug_info    0x000000000000bcc2      0x1f3 obj_cooja/mtype645.a(beep.o)
 .debug_info    0x000000000000beb5      0x257 obj_cooja/mtype645.a(button-sensor.o)
 .debug_info    0x000000000000c10c      0x132 obj_cooja/mtype645.a(leds-arch.o)
 .debug_info    0x000000000000c23e      0x10a obj_cooja/mtype645.a(moteid.o)
 .debug_info    0x000000000000c348      0x216 obj_cooja/mtype645.a(pir-sensor.o)
 .debug_info    0x000000000000c55e      0x21e obj_cooja/mtype645.a(rs232.o)
 .debug_info    0x000000000000c77c      0x216 obj_cooja/mtype645.a(vib-sensor.o)
 .debug_info    0x000000000000c992      0x152 obj_cooja/mtype645.a(clock.o)
 .debug_info    0x000000000000cae4      0x2bb obj_cooja/mtype645.a(log.o)
 .debug_info    0x000000000000cd9f      0x3cf obj_cooja/mtype645.a(cfs-cooja.o)
 .debug_info    0x000000000000d16e      0xd1b obj_cooja/mtype645.a(cooja-radio.o)
 .debug_info    0x000000000000de89      0x1d5 obj_cooja/mtype645.a(eeprom.o)
 .debug_info    0x000000000000e05e       0xb3 obj_cooja/mtype645.a(random.o)
 .debug_info    0x000000000000e111      0x36d obj_cooja/mtype645.a(sensors.o)
 .debug_info    0x000000000000e47e      0x1a5 obj_cooja/mtype645.a(autostart.o)
 .debug_info    0x000000000000e623      0x46c obj_cooja/mtype645.a(ctimer.o)
 .debug_info    0x000000000000ea8f      0x49c obj_cooja/mtype645.a(etimer.o)
 .debug_info    0x000000000000ef2b      0x4ab obj_cooja/mtype645.a(process.o)
 .debug_info    0x000000000000f3d6      0x1b6 obj_cooja/mtype645.a(rtimer.o)
 .debug_info    0x000000000000f58c      0x16c obj_cooja/mtype645.a(timer.o)
 .debug_info    0x000000000000f6f8      0x2de obj_cooja/mtype645.a(serial-line.o)
 .debug_info    0x000000000000f9d6       0xb3 obj_cooja/mtype645.a(assert.o)
 .debug_info    0x000000000000fa89      0x2ed obj_cooja/mtype645.a(list.o)
 .debug_info    0x000000000000fd76      0x1d7 obj_cooja/mtype645.a(memb.o)
 .debug_info    0x000000000000ff4d      0x1aa obj_cooja/mtype645.a(ringbuf.o)
 .debug_info    0x00000000000100f7     0x105d obj_cooja/mtype645.a(sicslowpan.o)
 .debug_info    0x0000000000011154      0xb48 obj_cooja/mtype645.a(uip-ds6-nbr.o)
 .debug_info    0x0000000000011c9c      0xd6b obj_cooja/mtype645.a(uip-ds6-route.o)
 .debug_info    0x0000000000012a07      0xa4b obj_cooja/mtype645.a(uip-ds6.o)
 .debug_info    0x0000000000013452      0x97b obj_cooja/mtype645.a(uip-nd6.o)
 .debug_info    0x0000000000013dcd      0xe68 obj_cooja/mtype645.a(uip6.o)
 .debug_info    0x0000000000014c35     0x1075 obj_cooja/mtype645.a(resolv.o)
 .debug_info    0x0000000000015caa     0x1602 obj_cooja/mtype645.a(tcpip.o)
 .debug_info    0x00000000000172ac      0x13b obj_cooja/mtype645.a(uip-debug.o)
 .debug_info    0x00000000000173e7      0x243 obj_cooja/mtype645.a(uip-nameserver.)
 .debug_info    0x000000000001762a      0x470 obj_cooja/mtype645.a(uip-packetqueue)
 .debug_info    0x0000000000017a9a      0x37a obj_cooja/mtype645.a(uip-udp-packet.)
 .debug_info    0x0000000000017e14     0x1b58 obj_cooja/mtype645.a(rpl-dag.o)
 .debug_info    0x000000000001996c      0xf73 obj_cooja/mtype645.a(rpl-ext-header.)
 .debug_info    0x000000000001a8df     0x16db obj_cooja/mtype645.a(rpl-icmp6.o)
 .debug_info    0x000000000001bfba      0xa3d obj_cooja/mtype645.a(rpl-mrhof.o)
 .debug_info    0x000000000001c9f7      0xcc0 obj_cooja/mtype645.a(rpl-timers.o)
 .debug_info    0x000000000001d6b7      0xd0d obj_cooja/mtype645.a(rpl.o)
 .debug_info    0x000000000001e3c4      0x691 obj_cooja/mtype645.a(link-stats.o)
 .debug_info    0x000000000001ea55      0x165 obj_cooja/mtype645.a(linkaddr.o)
 .debug_info    0x000000000001ebba      0x969 obj_cooja/mtype645.a(nbr-table.o)
 .debug_info    0x000000000001f523      0x4b9 obj_cooja/mtype645.a(netstack.o)
 .debug_info    0x000000000001f9dc      0x48d obj_cooja/mtype645.a(packetbuf.o)
 .debug_info    0x000000000001fe69      0x57d obj_cooja/mtype645.a(queuebuf.o)
 .debug_info    0x00000000000203e6      0xc0d obj_cooja/mtype645.a(csma.o)
 .debug_info    0x0000000000020ff3      0x5ed obj_cooja/mtype645.a(framer-802154.o)
 .debug_info    0x00000000000215e0      0x112 obj_cooja/mtype645.a(mac.o)
 .debug_info    0x00000000000216f2      0xc3c obj_cooja/mtype645.a(nullrdc.o)
 .debug_info    0x000000000002232e      0x3aa obj_cooja/mtype645.a(nullsec.o)
 .debug_info    0x00000000000226d8       0x7b obj_cooja/mtype645.a(watchdog.o)
 .debug_info    0x0000000000022753      0x119 obj_cooja/mtype645.a(rimestats.o)
 .debug_info    0x000000000002286c      0x179 obj_cooja/mtype645.a(stimer.o)
 .debug_info    0x00000000000229e5      0x761 obj_cooja/mtype645.a(uip-icmp6.o)
 .debug_info    0x0000000000023146      0xdee obj_cooja/mtype645.a(rpl-nbr-policy.)
 .debug_info    0x0000000000023f34      0x72d obj_cooja/mtype645.a(frame802154.o)
 .debug_info    0x0000000000024661      0x2bc obj_cooja/mtype645.a(mac-sequence.o)

.debug_abbrev   0x0000000000000000     0x823c
 *(.debug_abbrev)
 .debug_abbrev  0x0000000000000000      0x2ef sensor.co
 .debug_abbrev  0x00000000000002ef      0x2b3 obj_cooja/mtype645.o
 .debug_abbrev  0x00000000000005a2      0x3b1 obj_cooja/mtype645.a(dtls.o)
 .debug_abbrev  0x0000000000000953      0x2b3 obj_cooja/mtype645.a(tinydtls-crypto)
 .debug_abbrev  0x0000000000000c06      0x19a obj_cooja/mtype645.a(hmac.o)
 .debug_abbrev  0x0000000000000da0      0x1d3 obj_cooja/mtype645.a(netq.o)
 .debug_abbrev  0x0000000000000f73      0x101 obj_cooja/mtype645.a(dtls_time.o)
 .debug_abbrev  0x0000000000001074      0x191 obj_cooja/mtype645.a(peer.o)
 .debug_abbrev  0x0000000000001205      0x126 obj_cooja/mtype645.a(session.o)
 .debug_abbrev  0x000000000000132b      0x12c obj_cooja/mtype645.a(rijndael.o)
 .debug_abbrev  0x0000000000001457      0x1a2 obj_cooja/mtype645.a(tinydtls-ccm.o)
 .debug_abbrev  0x00000000000015f9      0x165 obj_cooja/mtype645.a(sha2.o)
 .debug_abbrev  0x000000000000175e      0x1e0 obj_cooja/mtype645.a(debug.o)
 .debug_abbrev  0x000000000000193e       0xc3 obj_cooja/mtype645.a(simEnvChange.o)
 .debug_abbrev  0x0000000000001a01       0xe6 obj_cooja/mtype645.a(cooja_mt.o)
 .debug_abbrev  0x0000000000001ae7      0x147 obj_cooja/mtype645.a(cooja_mtarch.o)
 .debug_abbrev  0x0000000000001c2e       0xbd obj_cooja/mtype645.a(rtimer-arch.o)
 .debug_abbrev  0x0000000000001ceb       0xe3 obj_cooja/mtype645.a(beep.o)
 .debug_abbrev  0x0000000000001dce      0x11c obj_cooja/mtype645.a(button-sensor.o)
 .debug_abbrev  0x0000000000001eea       0xe1 obj_cooja/mtype645.a(leds-arch.o)
 .debug_abbrev  0x0000000000001fcb       0x9c obj_cooja/mtype645.a(moteid.o)
 .debug_abbrev  0x0000000000002067       0xe6 obj_cooja/mtype645.a(pir-sensor.o)
 .debug_abbrev  0x000000000000214d      0x14a obj_cooja/mtype645.a(rs232.o)
 .debug_abbrev  0x0000000000002297       0xe6 obj_cooja/mtype645.a(vib-sensor.o)
 .debug_abbrev  0x000000000000237d       0xee obj_cooja/mtype645.a(clock.o)
 .debug_abbrev  0x000000000000246b      0x141 obj_cooja/mtype645.a(log.o)
 .debug_abbrev  0x00000000000025ac      0x139 obj_cooja/mtype645.a(cfs-cooja.o)
 .debug_abbrev  0x00000000000026e5      0x324 obj_cooja/mtype645.a(cooja-radio.o)
 .debug_abbrev  0x0000000000002a09       0xf5 obj_cooja/mtype645.a(eeprom.o)
 .debug_abbrev  0x0000000000002afe       0x6d obj_cooja/mtype645.a(random.o)
 .debug_abbrev  0x0000000000002b6b      0x1c2 obj_cooja/mtype645.a(sensors.o)
 .debug_abbrev  0x0000000000002d2d       0xfb obj_cooja/mtype645.a(autostart.o)
 .debug_abbrev  0x0000000000002e28      0x1a1 obj_cooja/mtype645.a(ctimer.o)
 .debug_abbrev  0x0000000000002fc9      0x1f1 obj_cooja/mtype645.a(etimer.o)
 .debug_abbrev  0x00000000000031ba      0x244 obj_cooja/mtype645.a(process.o)
 .debug_abbrev  0x00000000000033fe      0x124 obj_cooja/mtype645.a(rtimer.o)
 .debug_abbrev  0x0000000000003522       0xf5 obj_cooja/mtype645.a(timer.o)
 .debug_abbrev  0x0000000000003617      0x190 obj_cooja/mtype645.a(serial-line.o)
 .debug_abbrev  0x00000000000037a7       0x61 obj_cooja/mtype645.a(assert.o)
 .debug_abbrev  0x0000000000003808      0x145 obj_cooja/mtype645.a(list.o)
 .debug_abbrev  0x000000000000394d       0xe4 obj_cooja/mtype645.a(memb.o)
 .debug_abbrev  0x0000000000003a31       0xdb obj_cooja/mtype645.a(ringbuf.o)
 .debug_abbrev  0x0000000000003b0c      0x290 obj_cooja/mtype645.a(sicslowpan.o)
 .debug_abbrev  0x0000000000003d9c      0x2cf obj_cooja/mtype645.a(uip-ds6-nbr.o)
 .debug_abbrev  0x000000000000406b      0x317 obj_cooja/mtype645.a(uip-ds6-route.o)
 .debug_abbrev  0x0000000000004382      0x23a obj_cooja/mtype645.a(uip-ds6.o)
 .debug_abbrev  0x00000000000045bc      0x27e obj_cooja/mtype645.a(uip-nd6.o)
 .debug_abbrev  0x000000000000483a      0x2c9 obj_cooja/mtype645.a(uip6.o)
 .debug_abbrev  0x0000000000004b03      0x2a4 obj_cooja/mtype645.a(resolv.o)
 .debug_abbrev  0x0000000000004da7      0x349 obj_cooja/mtype645.a(tcpip.o)
 .debug_abbrev  0x00000000000050f0       0xad obj_cooja/mtype645.a(uip-debug.o)
 .debug_abbrev  0x000000000000519d      0x142 obj_cooja/mtype645.a(uip-nameserver.)
 .debug_abbrev  0x00000000000052df      0x1d4 obj_cooja/mtype645.a(uip-packetqueue)
 .debug_abbrev  0x00000000000054b3      0x195 obj_cooja/mtype645.a(uip-udp-packet.)
 .debug_abbrev  0x0000000000005648      0x373 obj_cooja/mtype645.a(rpl-dag.o)
 .debug_abbrev  0x00000000000059bb      0x25f obj_cooja/mtype645.a(rpl-ext-header.)
 .debug_abbrev  0x0000000000005c1a      0x37a obj_cooja/mtype645.a(rpl-icmp6.o)
 .debug_abbrev  0x0000000000005f94      0x1c4 obj_cooja/mtype645.a(rpl-mrhof.o)
 .debug_abbrev  0x0000000000006158      0x283 obj_cooja/mtype645.a(rpl-timers.o)
 .debug_abbrev  0x00000000000063db      0x25a obj_cooja/mtype645.a(rpl.o)
 .debug_abbrev  0x0000000000006635      0x23f obj_cooja/mtype645.a(link-stats.o)
 .debug_abbrev  0x0000000000006874       0xd8 obj_cooja/mtype645.a(linkaddr.o)
 .debug_abbrev  0x000000000000694c      0x1f8 obj_cooja/mtype645.a(nbr-table.o)
 .debug_abbrev  0x0000000000006b44      0x111 obj_cooja/mtype645.a(netstack.o)
 .debug_abbrev  0x0000000000006c55      0x1d8 obj_cooja/mtype645.a(packetbuf.o)
 .debug_abbrev  0x0000000000006e2d      0x1ba obj_cooja/mtype645.a(queuebuf.o)
 .debug_abbrev  0x0000000000006fe7      0x2aa obj_cooja/mtype645.a(csma.o)
 .debug_abbrev  0x0000000000007291      0x195 obj_cooja/mtype645.a(framer-802154.o)
 .debug_abbrev  0x0000000000007426       0xa3 obj_cooja/mtype645.a(mac.o)
 .debug_abbrev  0x00000000000074c9      0x2a9 obj_cooja/mtype645.a(nullrdc.o)
 .debug_abbrev  0x0000000000007772      0x1ba obj_cooja/mtype645.a(nullsec.o)
 .debug_abbrev  0x000000000000792c       0x2c obj_cooja/mtype645.a(watchdog.o)
 .debug_abbrev  0x0000000000007958       0x59 obj_cooja/mtype645.a(rimestats.o)
 .debug_abbrev  0x00000000000079b1       0xd9 obj_cooja/mtype645.a(stimer.o)
 .debug_abbrev  0x0000000000007a8a      0x232 obj_cooja/mtype645.a(uip-icmp6.o)
 .debug_abbrev  0x0000000000007cbc      0x23c obj_cooja/mtype645.a(rpl-nbr-policy.)
 .debug_abbrev  0x0000000000007ef8      0x1fb obj_cooja/mtype645.a(frame802154.o)
 .debug_abbrev  0x00000000000080f3      0x149 obj_cooja/mtype645.a(mac-sequence.o)

.debug_line     0x0000000000000000     0xd505
 *(.debug_line .debug_line.* .debug_line_end)
 .debug_line    0x0000000000000000      0x3ee sensor.co
 .debug_line    0x00000000000003ee      0x4f5 obj_cooja/mtype645.o
 .debug_line    0x00000000000008e3     0x17b3 obj_cooja/mtype645.a(dtls.o)
 .debug_line    0x0000000000002096      0x454 obj_cooja/mtype645.a(tinydtls-crypto)
 .debug_line    0x00000000000024ea      0x254 obj_cooja/mtype645.a(hmac.o)
 .debug_line    0x000000000000273e      0x2d7 obj_cooja/mtype645.a(netq.o)
 .debug_line    0x0000000000002a15       0xf3 obj_cooja/mtype645.a(dtls_time.o)
 .debug_line    0x0000000000002b08      0x1c5 obj_cooja/mtype645.a(peer.o)
 .debug_line    0x0000000000002ccd      0x11b obj_cooja/mtype645.a(session.o)
 .debug_line    0x0000000000002de8      0x1da obj_cooja/mtype645.a(rijndael.o)
 .debug_line    0x0000000000002fc2      0x30a obj_cooja/mtype645.a(tinydtls-ccm.o)
 .debug_line    0x00000000000032cc      0x2bf obj_cooja/mtype645.a(sha2.o)
 .debug_line    0x000000000000358b      0x25d obj_cooja/mtype645.a(debug.o)
 .debug_line    0x00000000000037e8       0xf4 obj_cooja/mtype645.a(simEnvChange.o)
 .debug_line    0x00000000000038dc      0x121 obj_cooja/mtype645.a(cooja_mt.o)
 .debug_line    0x00000000000039fd      0x182 obj_cooja/mtype645.a(cooja_mtarch.o)
 .debug_line    0x0000000000003b7f       0xec obj_cooja/mtype645.a(rtimer-arch.o)
 .debug_line    0x0000000000003c6b      0x168 obj_cooja/mtype645.a(beep.o)
 .debug_line    0x0000000000003dd3      0x188 obj_cooja/mtype645.a(button-sensor.o)
 .debug_line    0x0000000000003f5b       0xd2 obj_cooja/mtype645.a(leds-arch.o)
 .debug_line    0x000000000000402d       0x9e obj_cooja/mtype645.a(moteid.o)
 .debug_line    0x00000000000040cb      0x10c obj_cooja/mtype645.a(pir-sensor.o)
 .debug_line    0x00000000000041d7      0x133 obj_cooja/mtype645.a(rs232.o)
 .debug_line    0x000000000000430a      0x10c obj_cooja/mtype645.a(vib-sensor.o)
 .debug_line    0x0000000000004416      0x10e obj_cooja/mtype645.a(clock.o)
 .debug_line    0x0000000000004524      0x195 obj_cooja/mtype645.a(log.o)
 .debug_line    0x00000000000046b9      0x1ac obj_cooja/mtype645.a(cfs-cooja.o)
 .debug_line    0x0000000000004865      0x4cb obj_cooja/mtype645.a(cooja-radio.o)
 .debug_line    0x0000000000004d30      0x101 obj_cooja/mtype645.a(eeprom.o)
 .debug_line    0x0000000000004e31       0x60 obj_cooja/mtype645.a(random.o)
 .debug_line    0x0000000000004e91      0x17c obj_cooja/mtype645.a(sensors.o)
 .debug_line    0x000000000000500d       0xc4 obj_cooja/mtype645.a(autostart.o)
 .debug_line    0x00000000000050d1      0x1f5 obj_cooja/mtype645.a(ctimer.o)
 .debug_line    0x00000000000052c6      0x26c obj_cooja/mtype645.a(etimer.o)
 .debug_line    0x0000000000005532      0x236 obj_cooja/mtype645.a(process.o)
 .debug_line    0x0000000000005768       0xf2 obj_cooja/mtype645.a(rtimer.o)
 .debug_line    0x000000000000585a       0xed obj_cooja/mtype645.a(timer.o)
 .debug_line    0x0000000000005947      0x13c obj_cooja/mtype645.a(serial-line.o)
 .debug_line    0x0000000000005a83       0x50 obj_cooja/mtype645.a(assert.o)
 .debug_line    0x0000000000005ad3      0x1a2 obj_cooja/mtype645.a(list.o)
 .debug_line    0x0000000000005c75      0x10a obj_cooja/mtype645.a(memb.o)
 .debug_line    0x0000000000005d7f       0xf1 obj_cooja/mtype645.a(ringbuf.o)
 .debug_line    0x0000000000005e70      0x8a9 obj_cooja/mtype645.a(sicslowpan.o)
 .debug_line    0x0000000000006719      0x3e2 obj_cooja/mtype645.a(uip-ds6-nbr.o)
 .debug_line    0x0000000000006afb      0x49f obj_cooja/mtype645.a(uip-ds6-route.o)
 .debug_line    0x0000000000006f9a      0x473 obj_cooja/mtype645.a(uip-ds6.o)
 .debug_line    0x000000000000740d      0x3c1 obj_cooja/mtype645.a(uip-nd6.o)
 .debug_line    0x00000000000077ce      0x890 obj_cooja/mtype645.a(uip6.o)
 .debug_line    0x000000000000805e      0x731 obj_cooja/mtype645.a(resolv.o)
 .debug_line    0x000000000000878f      0x502 obj_cooja/mtype645.a(tcpip.o)
 .debug_line    0x0000000000008c91       0xcb obj_cooja/mtype645.a(uip-debug.o)
 .debug_line    0x0000000000008d5c      0x117 obj_cooja/mtype645.a(uip-nameserver.)
 .debug_line    0x0000000000008e73      0x1eb obj_cooja/mtype645.a(uip-packetqueue)
 .debug_line    0x000000000000905e      0x10b obj_cooja/mtype645.a(uip-udp-packet.)
 .debug_line    0x0000000000009169      0xbe7 obj_cooja/mtype645.a(rpl-dag.o)
 .debug_line    0x0000000000009d50      0x374 obj_cooja/mtype645.a(rpl-ext-header.)
 .debug_line    0x000000000000a0c4      0x761 obj_cooja/mtype645.a(rpl-icmp6.o)
 .debug_line    0x000000000000a825      0x32f obj_cooja/mtype645.a(rpl-mrhof.o)
 .debug_line    0x000000000000ab54      0x3d2 obj_cooja/mtype645.a(rpl-timers.o)
 .debug_line    0x000000000000af26      0x375 obj_cooja/mtype645.a(rpl.o)
 .debug_line    0x000000000000b29b      0x29a obj_cooja/mtype645.a(link-stats.o)
 .debug_line    0x000000000000b535       0x9e obj_cooja/mtype645.a(linkaddr.o)
 .debug_line    0x000000000000b5d3      0x383 obj_cooja/mtype645.a(nbr-table.o)
 .debug_line    0x000000000000b956      0x125 obj_cooja/mtype645.a(netstack.o)
 .debug_line    0x000000000000ba7b      0x225 obj_cooja/mtype645.a(packetbuf.o)
 .debug_line    0x000000000000bca0      0x1c6 obj_cooja/mtype645.a(queuebuf.o)
 .debug_line    0x000000000000be66      0x400 obj_cooja/mtype645.a(csma.o)
 .debug_line    0x000000000000c266      0x1cd obj_cooja/mtype645.a(framer-802154.o)
 .debug_line    0x000000000000c433       0x7e obj_cooja/mtype645.a(mac.o)
 .debug_line    0x000000000000c4b1      0x337 obj_cooja/mtype645.a(nullrdc.o)
 .debug_line    0x000000000000c7e8      0x13c obj_cooja/mtype645.a(nullsec.o)
 .debug_line    0x000000000000c924       0x9a obj_cooja/mtype645.a(watchdog.o)
 .debug_line    0x000000000000c9be       0x71 obj_cooja/mtype645.a(rimestats.o)
 .debug_line    0x000000000000ca2f       0xd1 obj_cooja/mtype645.a(stimer.o)
 .debug_line    0x000000000000cb00      0x29a obj_cooja/mtype645.a(uip-icmp6.o)
 .debug_line    0x000000000000cd9a      0x2b5 obj_cooja/mtype645.a(rpl-nbr-policy.)
 .debug_line    0x000000000000d04f      0x366 obj_cooja/mtype645.a(frame802154.o)
 .debug_line    0x000000000000d3b5      0x150 obj_cooja/mtype645.a(mac-sequence.o)

.debug_frame
 *(.debug_frame)

.debug_str      0x0000000000000000     0x8ed2
 *(.debug_str)
 .debug_str     0x0000000000000000      0x990 sensor.co
                                        0xab3 (size before relaxing)
 .debug_str     0x0000000000000990     0x1790 obj_cooja/mtype645.o
                                       0x1b06 (size before relaxing)
 .debug_str     0x0000000000002120      0xeca obj_cooja/mtype645.a(dtls.o)
                                       0x1721 (size before relaxing)
 .debug_str     0x0000000000002fea      0x34c obj_cooja/mtype645.a(tinydtls-crypto)
                                        0x816 (size before relaxing)
 .debug_str     0x0000000000003336      0x112 obj_cooja/mtype645.a(hmac.o)
                                        0x373 (size before relaxing)
 .debug_str     0x0000000000003448       0xf3 obj_cooja/mtype645.a(netq.o)
                                        0x7a5 (size before relaxing)
 .debug_str     0x000000000000353b       0x53 obj_cooja/mtype645.a(dtls_time.o)
                                        0x1fc (size before relaxing)
 .debug_str     0x000000000000358e       0x94 obj_cooja/mtype645.a(peer.o)
                                        0x6ea (size before relaxing)
 .debug_str     0x0000000000003622       0x4f obj_cooja/mtype645.a(session.o)
                                        0x21e (size before relaxing)
 .debug_str     0x0000000000003671       0xae obj_cooja/mtype645.a(rijndael.o)
                                        0x1dc (size before relaxing)
 .debug_str     0x000000000000371f       0x83 obj_cooja/mtype645.a(tinydtls-ccm.o)
                                        0x281 (size before relaxing)
 .debug_str     0x00000000000037a2       0xe6 obj_cooja/mtype645.a(sha2.o)
                                        0x2d1 (size before relaxing)
 .debug_str     0x0000000000003888       0xee obj_cooja/mtype645.a(debug.o)
                                        0x356 (size before relaxing)
 .debug_str     0x0000000000003976       0x2e obj_cooja/mtype645.a(simEnvChange.o)
                                        0x1f7 (size before relaxing)
 .debug_str     0x00000000000039a4       0x8b obj_cooja/mtype645.a(cooja_mt.o)
                                        0x224 (size before relaxing)
 .debug_str     0x0000000000003a2f       0xfb obj_cooja/mtype645.a(cooja_mtarch.o)
                                        0x2a1 (size before relaxing)
 .debug_str     0x0000000000003b2a       0xea obj_cooja/mtype645.a(rtimer-arch.o)
                                        0x21b (size before relaxing)
 .debug_str     0x0000000000003c14       0xc4 obj_cooja/mtype645.a(beep.o)
                                        0x238 (size before relaxing)
 .debug_str     0x0000000000003cd8       0x70 obj_cooja/mtype645.a(button-sensor.o)
                                        0x268 (size before relaxing)
 .debug_str     0x0000000000003d48       0x68 obj_cooja/mtype645.a(leds-arch.o)
                                        0x203 (size before relaxing)
 .debug_str     0x0000000000003db0       0x47 obj_cooja/mtype645.a(moteid.o)
                                        0x1ee (size before relaxing)
 .debug_str     0x0000000000003df7       0x55 obj_cooja/mtype645.a(pir-sensor.o)
                                        0x225 (size before relaxing)
 .debug_str     0x0000000000003e4c       0xc1 obj_cooja/mtype645.a(rs232.o)
                                        0x282 (size before relaxing)
 .debug_str     0x0000000000003f0d       0x55 obj_cooja/mtype645.a(vib-sensor.o)
                                        0x225 (size before relaxing)
 .debug_str     0x0000000000003f62       0x66 obj_cooja/mtype645.a(clock.o)
                                        0x21a (size before relaxing)
 .debug_str     0x0000000000003fc8       0xd1 obj_cooja/mtype645.a(log.o)
                                        0x2a8 (size before relaxing)
 .debug_str     0x0000000000004099      0x111 obj_cooja/mtype645.a(cfs-cooja.o)
                                        0x2c4 (size before relaxing)
 .debug_str     0x00000000000041aa      0x732 obj_cooja/mtype645.a(cooja-radio.o)
                                        0xafe (size before relaxing)
 .debug_str     0x00000000000048dc       0x99 obj_cooja/mtype645.a(eeprom.o)
                                        0x244 (size before relaxing)
 .debug_str     0x0000000000004975       0x36 obj_cooja/mtype645.a(random.o)
                                        0x163 (size before relaxing)
 .debug_str     0x00000000000049ab       0xa1 obj_cooja/mtype645.a(sensors.o)
                                        0x293 (size before relaxing)
 .debug_str     0x0000000000004a4c       0x40 obj_cooja/mtype645.a(autostart.o)
                                        0x1b6 (size before relaxing)
 .debug_str     0x0000000000004a8c       0xd2 obj_cooja/mtype645.a(ctimer.o)
                                        0x2b7 (size before relaxing)
 .debug_str     0x0000000000004b5e      0x148 obj_cooja/mtype645.a(etimer.o)
                                        0x32a (size before relaxing)
 .debug_str     0x0000000000004ca6      0x15c obj_cooja/mtype645.a(process.o)
                                        0x2f5 (size before relaxing)
 .debug_str     0x0000000000004e02       0xb3 obj_cooja/mtype645.a(rtimer.o)
                                        0x201 (size before relaxing)
 .debug_str     0x0000000000004eb5       0x1d obj_cooja/mtype645.a(timer.o)
                                        0x1a0 (size before relaxing)
 .debug_str     0x0000000000004ed2       0xbf obj_cooja/mtype645.a(serial-line.o)
                                        0x27e (size before relaxing)
 .debug_str     0x0000000000004f91       0x2e obj_cooja/mtype645.a(assert.o)
                                        0x15b (size before relaxing)
 .debug_str     0x0000000000004fbf       0xae obj_cooja/mtype645.a(list.o)
                                        0x15f (size before relaxing)
 .debug_str     0x000000000000506d       0x62 obj_cooja/mtype645.a(memb.o)
                                        0x19a (size before relaxing)
 .debug_str     0x00000000000050cf       0x62 obj_cooja/mtype645.a(ringbuf.o)
                                        0x1b3 (size before relaxing)
 .debug_str     0x0000000000005131      0x4b9 obj_cooja/mtype645.a(sicslowpan.o)
                                        0xa9c (size before relaxing)
 .debug_str     0x00000000000055ea      0x3c2 obj_cooja/mtype645.a(uip-ds6-nbr.o)
                                        0x97f (size before relaxing)
 .debug_str     0x00000000000059ac      0x450 obj_cooja/mtype645.a(uip-ds6-route.o)
                                        0x949 (size before relaxing)
 .debug_str     0x0000000000005dfc      0x30f obj_cooja/mtype645.a(uip-ds6.o)
                                        0x674 (size before relaxing)
 .debug_str     0x000000000000610b      0x180 obj_cooja/mtype645.a(uip-nd6.o)
                                        0x64f (size before relaxing)
 .debug_str     0x000000000000628b      0x340 obj_cooja/mtype645.a(uip6.o)
                                        0x7fa (size before relaxing)
 .debug_str     0x00000000000065cb      0x428 obj_cooja/mtype645.a(resolv.o)
                                        0x8d3 (size before relaxing)
 .debug_str     0x00000000000069f3      0x40a obj_cooja/mtype645.a(tcpip.o)
                                        0xce9 (size before relaxing)
 .debug_str     0x0000000000006dfd       0x3b obj_cooja/mtype645.a(uip-debug.o)
                                        0x194 (size before relaxing)
 .debug_str     0x0000000000006e38       0xab obj_cooja/mtype645.a(uip-nameserver.)
                                        0x270 (size before relaxing)
 .debug_str     0x0000000000006ee3       0xfa obj_cooja/mtype645.a(uip-packetqueue)
                                        0x33d (size before relaxing)
 .debug_str     0x0000000000006fdd       0x71 obj_cooja/mtype645.a(uip-udp-packet.)
                                        0x28f (size before relaxing)
 .debug_str     0x000000000000704e      0x58f obj_cooja/mtype645.a(rpl-dag.o)
                                        0xdc9 (size before relaxing)
 .debug_str     0x00000000000075dd       0xf8 obj_cooja/mtype645.a(rpl-ext-header.)
                                        0xba6 (size before relaxing)
 .debug_str     0x00000000000076d5      0x239 obj_cooja/mtype645.a(rpl-icmp6.o)
                                        0xed4 (size before relaxing)
 .debug_str     0x000000000000790e       0x71 obj_cooja/mtype645.a(rpl-mrhof.o)
                                        0x63f (size before relaxing)
 .debug_str     0x000000000000797f      0x1d6 obj_cooja/mtype645.a(rpl-timers.o)
                                        0x86e (size before relaxing)
 .debug_str     0x0000000000007b55       0xfa obj_cooja/mtype645.a(rpl.o)
                                        0x88f (size before relaxing)
 .debug_str     0x0000000000007c4f       0xf3 obj_cooja/mtype645.a(link-stats.o)
                                        0x6d9 (size before relaxing)
 .debug_str     0x0000000000007d42       0x58 obj_cooja/mtype645.a(linkaddr.o)
                                        0x1b7 (size before relaxing)
 .debug_str     0x0000000000007d9a      0x2a5 obj_cooja/mtype645.a(nbr-table.o)
                                        0x589 (size before relaxing)
 .debug_str     0x000000000000803f       0x2e obj_cooja/mtype645.a(netstack.o)
                                        0x33d (size before relaxing)
 .debug_str     0x000000000000806d      0x188 obj_cooja/mtype645.a(packetbuf.o)
                                        0x53d (size before relaxing)
 .debug_str     0x00000000000081f5      0x1a5 obj_cooja/mtype645.a(queuebuf.o)
                                        0x53c (size before relaxing)
 .debug_str     0x000000000000839a      0x207 obj_cooja/mtype645.a(csma.o)
                                        0x793 (size before relaxing)
 .debug_str     0x00000000000085a1      0x218 obj_cooja/mtype645.a(framer-802154.o)
                                        0x61b (size before relaxing)
 .debug_str     0x00000000000087b9       0x3d obj_cooja/mtype645.a(mac.o)
                                        0x1cb (size before relaxing)
 .debug_str     0x00000000000087f6       0x86 obj_cooja/mtype645.a(nullrdc.o)
                                        0x97e (size before relaxing)
 .debug_str     0x000000000000887c       0x25 obj_cooja/mtype645.a(nullsec.o)
                                        0x439 (size before relaxing)
 .debug_str     0x00000000000088a1       0x77 obj_cooja/mtype645.a(watchdog.o)
                                        0x10d (size before relaxing)
 .debug_str     0x0000000000008918       0x26 obj_cooja/mtype645.a(rimestats.o)
                                        0x161 (size before relaxing)
 .debug_str     0x000000000000893e       0x74 obj_cooja/mtype645.a(stimer.o)
                                        0x1a4 (size before relaxing)
 .debug_str     0x00000000000089b2      0x1ef obj_cooja/mtype645.a(uip-icmp6.o)
                                        0x57e (size before relaxing)
 .debug_str     0x0000000000008ba1       0xd0 obj_cooja/mtype645.a(rpl-nbr-policy.)
                                        0x998 (size before relaxing)
 .debug_str     0x0000000000008c71      0x1f3 obj_cooja/mtype645.a(frame802154.o)
                                        0x571 (size before relaxing)
 .debug_str     0x0000000000008e64       0x6e obj_cooja/mtype645.a(mac-sequence.o)
                                        0x3ff (size before relaxing)

.debug_loc
 *(.debug_loc)

.debug_macinfo
 *(.debug_macinfo)

.debug_weaknames
 *(.debug_weaknames)

.debug_funcnames
 *(.debug_funcnames)

.debug_typenames
 *(.debug_typenames)

.debug_varnames
 *(.debug_varnames)

.debug_pubtypes
 *(.debug_pubtypes)

.debug_ranges   0x0000000000000000     0x1c60
 *(.debug_ranges)
 .debug_ranges  0x0000000000000000       0x68 sensor.co
 .debug_ranges  0x0000000000000068       0x58 obj_cooja/mtype645.o
 .debug_ranges  0x00000000000000c0      0x2f0 obj_cooja/mtype645.a(dtls.o)
 .debug_ranges  0x00000000000003b0       0xb8 obj_cooja/mtype645.a(tinydtls-crypto)
 .debug_ranges  0x0000000000000468       0x60 obj_cooja/mtype645.a(hmac.o)
 .debug_ranges  0x00000000000004c8       0x60 obj_cooja/mtype645.a(netq.o)
 .debug_ranges  0x0000000000000528       0x18 obj_cooja/mtype645.a(dtls_time.o)
 .debug_ranges  0x0000000000000540       0x28 obj_cooja/mtype645.a(peer.o)
 .debug_ranges  0x0000000000000568       0x18 obj_cooja/mtype645.a(session.o)
 .debug_ranges  0x0000000000000580       0x28 obj_cooja/mtype645.a(rijndael.o)
 .debug_ranges  0x00000000000005a8       0x50 obj_cooja/mtype645.a(tinydtls-ccm.o)
 .debug_ranges  0x00000000000005f8       0x38 obj_cooja/mtype645.a(sha2.o)
 .debug_ranges  0x0000000000000630       0x58 obj_cooja/mtype645.a(debug.o)
 .debug_ranges  0x0000000000000688       0x18 obj_cooja/mtype645.a(simEnvChange.o)
 .debug_ranges  0x00000000000006a0       0x38 obj_cooja/mtype645.a(cooja_mt.o)
 .debug_ranges  0x00000000000006d8       0x50 obj_cooja/mtype645.a(cooja_mtarch.o)
 .debug_ranges  0x0000000000000728       0x38 obj_cooja/mtype645.a(rtimer-arch.o)
 .debug_ranges  0x0000000000000760       0x60 obj_cooja/mtype645.a(beep.o)
 .debug_ranges  0x00000000000007c0       0x30 obj_cooja/mtype645.a(button-sensor.o)
 .debug_ranges  0x00000000000007f0       0x30 obj_cooja/mtype645.a(leds-arch.o)
 .debug_ranges  0x0000000000000820       0x18 obj_cooja/mtype645.a(moteid.o)
 .debug_ranges  0x0000000000000838       0x30 obj_cooja/mtype645.a(pir-sensor.o)
 .debug_ranges  0x0000000000000868       0x48 obj_cooja/mtype645.a(rs232.o)
 .debug_ranges  0x00000000000008b0       0x30 obj_cooja/mtype645.a(vib-sensor.o)
 .debug_ranges  0x00000000000008e0       0x38 obj_cooja/mtype645.a(clock.o)
 .debug_ranges  0x0000000000000918       0x50 obj_cooja/mtype645.a(log.o)
 .debug_ranges  0x0000000000000968       0x60 obj_cooja/mtype645.a(cfs-cooja.o)
 .debug_ranges  0x00000000000009c8       0xe0 obj_cooja/mtype645.a(cooja-radio.o)
 .debug_ranges  0x0000000000000aa8       0x30 obj_cooja/mtype645.a(eeprom.o)
 .debug_ranges  0x0000000000000ad8       0x18 obj_cooja/mtype645.a(random.o)
 .debug_ranges  0x0000000000000af0       0x38 obj_cooja/mtype645.a(sensors.o)
 .debug_ranges  0x0000000000000b28       0x18 obj_cooja/mtype645.a(autostart.o)
 .debug_ranges  0x0000000000000b40       0x48 obj_cooja/mtype645.a(ctimer.o)
 .debug_ranges  0x0000000000000b88       0x80 obj_cooja/mtype645.a(etimer.o)
 .debug_ranges  0x0000000000000c08       0x78 obj_cooja/mtype645.a(process.o)
 .debug_ranges  0x0000000000000c80       0x20 obj_cooja/mtype645.a(rtimer.o)
 .debug_ranges  0x0000000000000ca0       0x30 obj_cooja/mtype645.a(timer.o)
 .debug_ranges  0x0000000000000cd0       0x20 obj_cooja/mtype645.a(serial-line.o)
 .debug_ranges  0x0000000000000cf0       0x10 obj_cooja/mtype645.a(assert.o)
 .debug_ranges  0x0000000000000d00       0x68 obj_cooja/mtype645.a(list.o)
 .debug_ranges  0x0000000000000d68       0x30 obj_cooja/mtype645.a(memb.o)
 .debug_ranges  0x0000000000000d98       0x30 obj_cooja/mtype645.a(ringbuf.o)
 .debug_ranges  0x0000000000000dc8       0xd0 obj_cooja/mtype645.a(sicslowpan.o)
 .debug_ranges  0x0000000000000e98       0x80 obj_cooja/mtype645.a(uip-ds6-nbr.o)
 .debug_ranges  0x0000000000000f18       0xb8 obj_cooja/mtype645.a(uip-ds6-route.o)
 .debug_ranges  0x0000000000000fd0       0xb8 obj_cooja/mtype645.a(uip-ds6.o)
 .debug_ranges  0x0000000000001088       0x38 obj_cooja/mtype645.a(uip-nd6.o)
 .debug_ranges  0x00000000000010c0       0xa0 obj_cooja/mtype645.a(uip6.o)
 .debug_ranges  0x0000000000001160       0xa8 obj_cooja/mtype645.a(resolv.o)
 .debug_ranges  0x0000000000001208       0xa0 obj_cooja/mtype645.a(tcpip.o)
 .debug_ranges  0x00000000000012a8       0x10 obj_cooja/mtype645.a(uip-debug.o)
 .debug_ranges  0x00000000000012b8       0x28 obj_cooja/mtype645.a(uip-nameserver.)
 .debug_ranges  0x00000000000012e0       0x40 obj_cooja/mtype645.a(uip-packetqueue)
 .debug_ranges  0x0000000000001320       0x18 obj_cooja/mtype645.a(uip-udp-packet.)
 .debug_ranges  0x0000000000001338      0x1c8 obj_cooja/mtype645.a(rpl-dag.o)
 .debug_ranges  0x0000000000001500       0x38 obj_cooja/mtype645.a(rpl-ext-header.)
 .debug_ranges  0x0000000000001538       0xb0 obj_cooja/mtype645.a(rpl-icmp6.o)
 .debug_ranges  0x00000000000015e8       0x50 obj_cooja/mtype645.a(rpl-mrhof.o)
 .debug_ranges  0x0000000000001638       0x90 obj_cooja/mtype645.a(rpl-timers.o)
 .debug_ranges  0x00000000000016c8       0x58 obj_cooja/mtype645.a(rpl.o)
 .debug_ranges  0x0000000000001720       0x48 obj_cooja/mtype645.a(link-stats.o)
 .debug_ranges  0x0000000000001768       0x20 obj_cooja/mtype645.a(linkaddr.o)
 .debug_ranges  0x0000000000001788       0xb0 obj_cooja/mtype645.a(nbr-table.o)
 .debug_ranges  0x0000000000001838       0x10 obj_cooja/mtype645.a(netstack.o)
 .debug_ranges  0x0000000000001848       0x90 obj_cooja/mtype645.a(packetbuf.o)
 .debug_ranges  0x00000000000018d8       0x70 obj_cooja/mtype645.a(queuebuf.o)
 .debug_ranges  0x0000000000001948       0xa8 obj_cooja/mtype645.a(csma.o)
 .debug_ranges  0x00000000000019f0       0x48 obj_cooja/mtype645.a(framer-802154.o)
 .debug_ranges  0x0000000000001a38       0x10 obj_cooja/mtype645.a(mac.o)
 .debug_ranges  0x0000000000001a48       0x60 obj_cooja/mtype645.a(nullrdc.o)
 .debug_ranges  0x0000000000001aa8       0x28 obj_cooja/mtype645.a(nullsec.o)
 .debug_ranges  0x0000000000001ad0       0x30 obj_cooja/mtype645.a(watchdog.o)
 .debug_ranges  0x0000000000001b00       0x38 obj_cooja/mtype645.a(stimer.o)
 .debug_ranges  0x0000000000001b38       0x58 obj_cooja/mtype645.a(uip-icmp6.o)
 .debug_ranges  0x0000000000001b90       0x38 obj_cooja/mtype645.a(rpl-nbr-policy.)
 .debug_ranges  0x0000000000001bc8       0x70 obj_cooja/mtype645.a(frame802154.o)
 .debug_ranges  0x0000000000001c38       0x28 obj_cooja/mtype645.a(mac-sequence.o)

.debug_macro
 *(.debug_macro)

.gnu.attributes
 *(.gnu.attributes)

/DISCARD/
 *(.note.GNU-stack)
 *(.gnu_debuglink)
 *(.gnu.lto_*)
OUTPUT(obj_cooja/mtype645.cooja elf32-i386)
