Archive member included to satisfy reference by file (symbol)

obj_cooja/mtype802.a(dtls.o)  dtls-client.co (dtls_init)
obj_cooja/mtype802.a(tinydtls-crypto)
                              obj_cooja/mtype802.a(dtls.o) (dtls_crypto_init)
obj_cooja/mtype802.a(hmac.o)  obj_cooja/mtype802.a(dtls.o) (dtls_hmac_update)
obj_cooja/mtype802.a(netq.o)  obj_cooja/mtype802.a(dtls.o) (netq_init)
obj_cooja/mtype802.a(dtls_time.o)
                              obj_cooja/mtype802.a(dtls.o) (dtls_clock_init)
obj_cooja/mtype802.a(peer.o)  obj_cooja/mtype802.a(dtls.o) (peer_init)
obj_cooja/mtype802.a(session.o)
                              obj_cooja/mtype802.a(dtls.o) (dtls_session_equals)
obj_cooja/mtype802.a(rijndael.o)
                              obj_cooja/mtype802.a(tinydtls-crypto) (rijndael_set_key_enc_only)
obj_cooja/mtype802.a(tinydtls-ccm.o)
                              obj_cooja/mtype802.a(tinydtls-crypto) (dtls_ccm_encrypt_message)
obj_cooja/mtype802.a(sha2.o)  obj_cooja/mtype802.a(dtls.o) (SHA256_Init)
obj_cooja/mtype802.a(debug.o)
                              dtls-client.co (dtls_set_log_level)
obj_cooja/mtype802.a(simEnvChange.o)
                              obj_cooja/mtype802.o (simDontFallAsleep)
obj_cooja/mtype802.a(cooja_mt.o)
                              obj_cooja/mtype802.o (cooja_mt_start)
obj_cooja/mtype802.a(cooja_mtarch.o)
                              obj_cooja/mtype802.a(cooja_mt.o) (cooja_mtarch_init)
obj_cooja/mtype802.a(rtimer-arch.o)
                              obj_cooja/mtype802.o (rtimer_arch_check)
obj_cooja/mtype802.a(beep.o)  obj_cooja/mtype802.o (beep_interface)
obj_cooja/mtype802.a(button-sensor.o)
                              obj_cooja/mtype802.o (button_interface)
obj_cooja/mtype802.a(leds-arch.o)
                              obj_cooja/mtype802.o (leds_interface)
obj_cooja/mtype802.a(moteid.o)
                              obj_cooja/mtype802.o (moteid_interface)
obj_cooja/mtype802.a(pir-sensor.o)
                              obj_cooja/mtype802.o (pir_interface)
obj_cooja/mtype802.a(rs232.o)
                              obj_cooja/mtype802.o (rs232_interface)
obj_cooja/mtype802.a(vib-sensor.o)
                              obj_cooja/mtype802.o (vib_interface)
obj_cooja/mtype802.a(clock.o)
                              obj_cooja/mtype802.o (clock_interface)
obj_cooja/mtype802.a(log.o)   obj_cooja/mtype802.o (simlog_interface)
obj_cooja/mtype802.a(cfs-cooja.o)
                              obj_cooja/mtype802.o (cfs_interface)
obj_cooja/mtype802.a(cooja-radio.o)
                              obj_cooja/mtype802.o (radio_interface)
obj_cooja/mtype802.a(eeprom.o)
                              obj_cooja/mtype802.o (eeprom_interface)
obj_cooja/mtype802.a(random.o)
                              obj_cooja/mtype802.a(moteid.o) (random_init)
obj_cooja/mtype802.a(sensors.o)
                              obj_cooja/mtype802.o (sensors_process)
obj_cooja/mtype802.a(autostart.o)
                              obj_cooja/mtype802.o (autostart_start)
obj_cooja/mtype802.a(ctimer.o)
                              obj_cooja/mtype802.o (ctimer_init)
obj_cooja/mtype802.a(etimer.o)
                              obj_cooja/mtype802.o (etimer_process)
obj_cooja/mtype802.a(process.o)
                              obj_cooja/mtype802.a(dtls.o) (process_current)
obj_cooja/mtype802.a(rtimer.o)
                              obj_cooja/mtype802.a(rtimer-arch.o) (rtimer_run_next)
obj_cooja/mtype802.a(timer.o)
                              obj_cooja/mtype802.a(button-sensor.o) (timer_set)
obj_cooja/mtype802.a(serial-line.o)
                              obj_cooja/mtype802.a(rs232.o) (serial_line_input_byte)
obj_cooja/mtype802.a(assert.o)
                              obj_cooja/mtype802.a(dtls.o) (_xassert)
obj_cooja/mtype802.a(list.o)  obj_cooja/mtype802.a(dtls.o) (list_init)
obj_cooja/mtype802.a(memb.o)  obj_cooja/mtype802.a(tinydtls-crypto) (memb_init)
obj_cooja/mtype802.a(ringbuf.o)
                              obj_cooja/mtype802.a(serial-line.o) (ringbuf_init)
obj_cooja/mtype802.a(sicslowpan.o)
                              obj_cooja/mtype802.o (sicslowpan_driver)
obj_cooja/mtype802.a(uip-ds6-nbr.o)
                              obj_cooja/mtype802.a(sicslowpan.o) (uip_ds6_link_neighbor_callback)
obj_cooja/mtype802.a(uip-ds6-route.o)
                              obj_cooja/mtype802.a(uip-ds6-nbr.o) (uip_ds6_defrt_lookup)
obj_cooja/mtype802.a(uip-ds6.o)
                              dtls-client.co (uip_ds6_if)
obj_cooja/mtype802.a(uip-nd6.o)
                              obj_cooja/mtype802.a(uip-ds6-nbr.o) (uip_nd6_ns_output)
obj_cooja/mtype802.a(uip6.o)  dtls-client.co (uip_lladdr)
obj_cooja/mtype802.a(resolv.o)
                              dtls-client.co (resolv_event_found)
obj_cooja/mtype802.a(tcpip.o)
                              dtls-client.co (tcpip_event)
obj_cooja/mtype802.a(uip-debug.o)
                              dtls-client.co (uip_debug_ipaddr_print)
obj_cooja/mtype802.a(uip-nameserver.)
                              obj_cooja/mtype802.a(resolv.o) (uip_nameserver_get)
obj_cooja/mtype802.a(uip-packetqueue)
                              obj_cooja/mtype802.a(uip-ds6-nbr.o) (uip_packetqueue_new)
obj_cooja/mtype802.a(uip-udp-packet.)
                              dtls-client.co (uip_udp_packet_send)
obj_cooja/mtype802.a(uiplib.o)
                              dtls-client.co (uiplib_ip6addrconv)
obj_cooja/mtype802.a(rpl-dag.o)
                              obj_cooja/mtype802.a(tcpip.o) (rpl_repair_root)
obj_cooja/mtype802.a(rpl-ext-header.)
                              obj_cooja/mtype802.a(uip6.o) (rpl_verify_hbh_header)
obj_cooja/mtype802.a(rpl-icmp6.o)
                              obj_cooja/mtype802.a(rpl-dag.o) (rpl_icmp6_update_nbr_table)
obj_cooja/mtype802.a(rpl-mrhof.o)
                              obj_cooja/mtype802.a(rpl-dag.o) (rpl_mrhof)
obj_cooja/mtype802.a(rpl-timers.o)
                              obj_cooja/mtype802.a(rpl-dag.o) (rpl_reset_dio_timer)
obj_cooja/mtype802.a(rpl.o)   obj_cooja/mtype802.a(rpl-icmp6.o) (rpl_get_mode)
obj_cooja/mtype802.a(link-stats.o)
                              obj_cooja/mtype802.a(rpl-dag.o) (link_stats_from_lladdr)
obj_cooja/mtype802.a(linkaddr.o)
                              obj_cooja/mtype802.o (linkaddr_node_addr)
obj_cooja/mtype802.a(nbr-table.o)
                              obj_cooja/mtype802.a(uip-ds6-nbr.o) (nbr_table_register)
obj_cooja/mtype802.a(netstack.o)
                              obj_cooja/mtype802.o (netstack_init)
obj_cooja/mtype802.a(packetbuf.o)
                              obj_cooja/mtype802.a(cooja-radio.o) (packetbuf_attrs)
obj_cooja/mtype802.a(queuebuf.o)
                              obj_cooja/mtype802.o (queuebuf_init)
obj_cooja/mtype802.a(csma.o)  obj_cooja/mtype802.o (csma_driver)
obj_cooja/mtype802.a(framer-802154.o)
                              obj_cooja/mtype802.a(sicslowpan.o) (framer_802154)
obj_cooja/mtype802.a(mac.o)   obj_cooja/mtype802.a(csma.o) (mac_call_sent_callback)
obj_cooja/mtype802.a(nullrdc.o)
                              obj_cooja/mtype802.o (nullrdc_driver)
obj_cooja/mtype802.a(nullsec.o)
                              obj_cooja/mtype802.a(sicslowpan.o) (nullsec_driver)
obj_cooja/mtype802.a(watchdog.o)
                              obj_cooja/mtype802.a(sicslowpan.o) (watchdog_periodic)
obj_cooja/mtype802.a(rimestats.o)
                              obj_cooja/mtype802.a(cooja-radio.o) (rimestats)
obj_cooja/mtype802.a(stimer.o)
                              obj_cooja/mtype802.a(uip-ds6-nbr.o) (stimer_set)
obj_cooja/mtype802.a(uip-icmp6.o)
                              obj_cooja/mtype802.a(uip6.o) (uip_icmp6_input)
obj_cooja/mtype802.a(rpl-nbr-policy.)
                              obj_cooja/mtype802.a(nbr-table.o) (rpl_nbr_policy_find_removable)
obj_cooja/mtype802.a(frame802154.o)
                              obj_cooja/mtype802.a(framer-802154.o) (frame802154_get_pan_id)
obj_cooja/mtype802.a(mac-sequence.o)
                              obj_cooja/mtype802.a(nullrdc.o) (mac_sequence_is_duplicate)

Allocating common symbols
Common symbol       size              file

default_instance    0x4               obj_cooja/mtype802.a(rpl-dag.o)
simButtonIsActive   0x1               obj_cooja/mtype802.a(button-sensor.o)
simButtonIsDown     0x1               obj_cooja/mtype802.a(button-sensor.o)
simOutDataBuffer    0x80              obj_cooja/mtype802.a(cooja-radio.o)
uip_ds6_prefix_list
                    0x60              obj_cooja/mtype802.a(uip-ds6.o)
linkaddr_node_addr  0x8               obj_cooja/mtype802.a(linkaddr.o)
simSerialReceivingFlag
                    0x1               obj_cooja/mtype802.a(rs232.o)
simEEPROMData       0x400             obj_cooja/mtype802.a(eeprom.o)
fd_read             0x4               dtls-client.co
periodic_timer      0x20              obj_cooja/mtype802.a(link-stats.o)
simLoggedLength     0x4               obj_cooja/mtype802.a(log.o)
simSerialReceivingLength
                    0x4               obj_cooja/mtype802.a(rs232.o)
simEtimerPending    0x4               obj_cooja/mtype802.a(simEnvChange.o)
uip_slen            0x2               obj_cooja/mtype802.a(uip6.o)
uip_ds6_timer_periodic
                    0x10              obj_cooja/mtype802.a(uip-ds6.o)
uip_acc32           0x4               obj_cooja/mtype802.a(uip6.o)
j                   0x4               dtls-client.co
uip_conns           0xc0              obj_cooja/mtype802.a(uip6.o)
simVibChanged       0x1               obj_cooja/mtype802.a(vib-sensor.o)
rimestats           0x48              obj_cooja/mtype802.a(rimestats.o)
simRtimerPending    0x4               obj_cooja/mtype802.a(rtimer-arch.o)
read_buf            0x12c             dtls-client.co
data_len            0x4               dtls-client.co
uip_ds6_netif_addr_list_offset
                    0x1               obj_cooja/mtype802.a(uip-ds6.o)
uip_lladdr          0x8               obj_cooja/mtype802.a(uip6.o)
instance_table      0x154             obj_cooja/mtype802.a(rpl-dag.o)
simProcessRunValue  0x4               obj_cooja/mtype802.a(simEnvChange.o)
serial_line_event_message
                    0x1               obj_cooja/mtype802.a(serial-line.o)
uip_appdata         0x4               obj_cooja/mtype802.a(uip6.o)
resolv_event_found  0x1               obj_cooja/mtype802.a(resolv.o)
referenceVar        0x4               obj_cooja/mtype802.o
simCurrentTime      0x4               obj_cooja/mtype802.a(clock.o)
simVibIsActive      0x1               obj_cooja/mtype802.a(vib-sensor.o)
uip_ds6_if          0xf8              obj_cooja/mtype802.a(uip-ds6.o)
uip_flags           0x1               obj_cooja/mtype802.a(uip6.o)
uip_ds6_timer_ra    0x8               obj_cooja/mtype802.a(uip-ds6.o)
fd_write            0x4               dtls-client.co
simSerialReceivingData
                    0x800             obj_cooja/mtype802.a(rs232.o)
filename            0x4               dtls-client.co
simLoggedFlag       0x1               obj_cooja/mtype802.a(log.o)
packetbuf_attrs     0x1e              obj_cooja/mtype802.a(packetbuf.o)
uip_ds6_addr_size   0x1               obj_cooja/mtype802.a(uip-ds6.o)
uip_aligned_buf     0x640             obj_cooja/mtype802.a(uip6.o)
simRtimerCurrentTicks
                    0x8               obj_cooja/mtype802.a(rtimer-arch.o)
iterator            0x4               dtls-client.co
simRandomSeed       0x4               obj_cooja/mtype802.a(moteid.o)
simLoggedData       0x400             obj_cooja/mtype802.a(log.o)
simLedsValue        0x1               obj_cooja/mtype802.a(leds-arch.o)
simEtimerNextExpirationTime
                    0x4               obj_cooja/mtype802.a(simEnvChange.o)
uip_listenports     0x10              obj_cooja/mtype802.a(uip6.o)
uip_len             0x2               obj_cooja/mtype802.a(uip6.o)
simButtonChanged    0x1               obj_cooja/mtype802.a(button-sensor.o)
simRtimerNextExpirationTime
                    0x8               obj_cooja/mtype802.a(rtimer-arch.o)
simPirIsActive      0x1               obj_cooja/mtype802.a(pir-sensor.o)
simInDataBuffer     0x80              obj_cooja/mtype802.a(cooja-radio.o)
simPirChanged       0x1               obj_cooja/mtype802.a(pir-sensor.o)
simBeeped           0x1               obj_cooja/mtype802.a(beep.o)
tcpip_event         0x1               obj_cooja/mtype802.a(tcpip.o)
uip_sappdata        0x4               obj_cooja/mtype802.a(uip6.o)
sensors_event       0x1               obj_cooja/mtype802.a(sensors.o)
dtls_clock_offset   0x4               obj_cooja/mtype802.a(dtls_time.o)
uip_udp_conns       0x180             obj_cooja/mtype802.a(uip6.o)
packetbuf_addrs     0x10              obj_cooja/mtype802.a(packetbuf.o)
uip_udp_conn        0x4               obj_cooja/mtype802.a(uip6.o)
simMoteIDChanged    0x1               obj_cooja/mtype802.a(moteid.o)
sensors_flags       0x4               obj_cooja/mtype802.o
uip_next_hdr        0x4               obj_cooja/mtype802.a(uip6.o)
it                  0x4               dtls-client.co
simMoteID           0x4               obj_cooja/mtype802.a(moteid.o)
uip_conn            0x4               obj_cooja/mtype802.a(uip6.o)

Discarded input sections

 .note.GNU-stack
                0x0000000000000000        0x0 /usr/lib/gcc/i686-linux-gnu/4.8/../../../i386-linux-gnu/crti.o
 .gnu_debuglink
                0x0000000000000000        0xc /usr/lib/gcc/i686-linux-gnu/4.8/../../../i386-linux-gnu/crti.o
 .group         0x0000000000000000        0x8 /usr/lib/gcc/i686-linux-gnu/4.8/crtbeginS.o
 .text.__x86.get_pc_thunk.bx
                0x0000000000000000        0x4 /usr/lib/gcc/i686-linux-gnu/4.8/crtbeginS.o
 .note.GNU-stack
                0x0000000000000000        0x0 /usr/lib/gcc/i686-linux-gnu/4.8/crtbeginS.o
 .note.GNU-stack
                0x0000000000000000        0x0 dtls-client.co
 .note.GNU-stack
                0x0000000000000000        0x0 obj_cooja/mtype802.o
 .note.GNU-stack
                0x0000000000000000        0x0 obj_cooja/mtype802.a(dtls.o)
 .note.GNU-stack
                0x0000000000000000        0x0 obj_cooja/mtype802.a(tinydtls-crypto)
 .note.GNU-stack
                0x0000000000000000        0x0 obj_cooja/mtype802.a(hmac.o)
 .note.GNU-stack
                0x0000000000000000        0x0 obj_cooja/mtype802.a(netq.o)
 .note.GNU-stack
                0x0000000000000000        0x0 obj_cooja/mtype802.a(dtls_time.o)
 .note.GNU-stack
                0x0000000000000000        0x0 obj_cooja/mtype802.a(peer.o)
 .note.GNU-stack
                0x0000000000000000        0x0 obj_cooja/mtype802.a(session.o)
 .note.GNU-stack
                0x0000000000000000        0x0 obj_cooja/mtype802.a(rijndael.o)
 .note.GNU-stack
                0x0000000000000000        0x0 obj_cooja/mtype802.a(tinydtls-ccm.o)
 .note.GNU-stack
                0x0000000000000000        0x0 obj_cooja/mtype802.a(sha2.o)
 .note.GNU-stack
                0x0000000000000000        0x0 obj_cooja/mtype802.a(debug.o)
 .note.GNU-stack
                0x0000000000000000        0x0 obj_cooja/mtype802.a(simEnvChange.o)
 .note.GNU-stack
                0x0000000000000000        0x0 obj_cooja/mtype802.a(cooja_mt.o)
 .note.GNU-stack
                0x0000000000000000        0x0 obj_cooja/mtype802.a(cooja_mtarch.o)
 .note.GNU-stack
                0x0000000000000000        0x0 obj_cooja/mtype802.a(rtimer-arch.o)
 .note.GNU-stack
                0x0000000000000000        0x0 obj_cooja/mtype802.a(beep.o)
 .note.GNU-stack
                0x0000000000000000        0x0 obj_cooja/mtype802.a(button-sensor.o)
 .note.GNU-stack
                0x0000000000000000        0x0 obj_cooja/mtype802.a(leds-arch.o)
 .note.GNU-stack
                0x0000000000000000        0x0 obj_cooja/mtype802.a(moteid.o)
 .note.GNU-stack
                0x0000000000000000        0x0 obj_cooja/mtype802.a(pir-sensor.o)
 .note.GNU-stack
                0x0000000000000000        0x0 obj_cooja/mtype802.a(rs232.o)
 .note.GNU-stack
                0x0000000000000000        0x0 obj_cooja/mtype802.a(vib-sensor.o)
 .note.GNU-stack
                0x0000000000000000        0x0 obj_cooja/mtype802.a(clock.o)
 .note.GNU-stack
                0x0000000000000000        0x0 obj_cooja/mtype802.a(log.o)
 .note.GNU-stack
                0x0000000000000000        0x0 obj_cooja/mtype802.a(cfs-cooja.o)
 .note.GNU-stack
                0x0000000000000000        0x0 obj_cooja/mtype802.a(cooja-radio.o)
 .note.GNU-stack
                0x0000000000000000        0x0 obj_cooja/mtype802.a(eeprom.o)
 .note.GNU-stack
                0x0000000000000000        0x0 obj_cooja/mtype802.a(random.o)
 .note.GNU-stack
                0x0000000000000000        0x0 obj_cooja/mtype802.a(sensors.o)
 .note.GNU-stack
                0x0000000000000000        0x0 obj_cooja/mtype802.a(autostart.o)
 .note.GNU-stack
                0x0000000000000000        0x0 obj_cooja/mtype802.a(ctimer.o)
 .note.GNU-stack
                0x0000000000000000        0x0 obj_cooja/mtype802.a(etimer.o)
 .note.GNU-stack
                0x0000000000000000        0x0 obj_cooja/mtype802.a(process.o)
 .note.GNU-stack
                0x0000000000000000        0x0 obj_cooja/mtype802.a(rtimer.o)
 .note.GNU-stack
                0x0000000000000000        0x0 obj_cooja/mtype802.a(timer.o)
 .note.GNU-stack
                0x0000000000000000        0x0 obj_cooja/mtype802.a(serial-line.o)
 .note.GNU-stack
                0x0000000000000000        0x0 obj_cooja/mtype802.a(assert.o)
 .note.GNU-stack
                0x0000000000000000        0x0 obj_cooja/mtype802.a(list.o)
 .note.GNU-stack
                0x0000000000000000        0x0 obj_cooja/mtype802.a(memb.o)
 .note.GNU-stack
                0x0000000000000000        0x0 obj_cooja/mtype802.a(ringbuf.o)
 .note.GNU-stack
                0x0000000000000000        0x0 obj_cooja/mtype802.a(sicslowpan.o)
 .note.GNU-stack
                0x0000000000000000        0x0 obj_cooja/mtype802.a(uip-ds6-nbr.o)
 .note.GNU-stack
                0x0000000000000000        0x0 obj_cooja/mtype802.a(uip-ds6-route.o)
 .note.GNU-stack
                0x0000000000000000        0x0 obj_cooja/mtype802.a(uip-ds6.o)
 .note.GNU-stack
                0x0000000000000000        0x0 obj_cooja/mtype802.a(uip-nd6.o)
 .note.GNU-stack
                0x0000000000000000        0x0 obj_cooja/mtype802.a(uip6.o)
 .note.GNU-stack
                0x0000000000000000        0x0 obj_cooja/mtype802.a(resolv.o)
 .note.GNU-stack
                0x0000000000000000        0x0 obj_cooja/mtype802.a(tcpip.o)
 .note.GNU-stack
                0x0000000000000000        0x0 obj_cooja/mtype802.a(uip-debug.o)
 .note.GNU-stack
                0x0000000000000000        0x0 obj_cooja/mtype802.a(uip-nameserver.)
 .note.GNU-stack
                0x0000000000000000        0x0 obj_cooja/mtype802.a(uip-packetqueue)
 .note.GNU-stack
                0x0000000000000000        0x0 obj_cooja/mtype802.a(uip-udp-packet.)
 .note.GNU-stack
                0x0000000000000000        0x0 obj_cooja/mtype802.a(uiplib.o)
 .note.GNU-stack
                0x0000000000000000        0x0 obj_cooja/mtype802.a(rpl-dag.o)
 .note.GNU-stack
                0x0000000000000000        0x0 obj_cooja/mtype802.a(rpl-ext-header.)
 .note.GNU-stack
                0x0000000000000000        0x0 obj_cooja/mtype802.a(rpl-icmp6.o)
 .note.GNU-stack
                0x0000000000000000        0x0 obj_cooja/mtype802.a(rpl-mrhof.o)
 .note.GNU-stack
                0x0000000000000000        0x0 obj_cooja/mtype802.a(rpl-timers.o)
 .note.GNU-stack
                0x0000000000000000        0x0 obj_cooja/mtype802.a(rpl.o)
 .note.GNU-stack
                0x0000000000000000        0x0 obj_cooja/mtype802.a(link-stats.o)
 .note.GNU-stack
                0x0000000000000000        0x0 obj_cooja/mtype802.a(linkaddr.o)
 .note.GNU-stack
                0x0000000000000000        0x0 obj_cooja/mtype802.a(nbr-table.o)
 .note.GNU-stack
                0x0000000000000000        0x0 obj_cooja/mtype802.a(netstack.o)
 .note.GNU-stack
                0x0000000000000000        0x0 obj_cooja/mtype802.a(packetbuf.o)
 .note.GNU-stack
                0x0000000000000000        0x0 obj_cooja/mtype802.a(queuebuf.o)
 .note.GNU-stack
                0x0000000000000000        0x0 obj_cooja/mtype802.a(csma.o)
 .note.GNU-stack
                0x0000000000000000        0x0 obj_cooja/mtype802.a(framer-802154.o)
 .note.GNU-stack
                0x0000000000000000        0x0 obj_cooja/mtype802.a(mac.o)
 .note.GNU-stack
                0x0000000000000000        0x0 obj_cooja/mtype802.a(nullrdc.o)
 .note.GNU-stack
                0x0000000000000000        0x0 obj_cooja/mtype802.a(nullsec.o)
 .note.GNU-stack
                0x0000000000000000        0x0 obj_cooja/mtype802.a(watchdog.o)
 .note.GNU-stack
                0x0000000000000000        0x0 obj_cooja/mtype802.a(rimestats.o)
 .note.GNU-stack
                0x0000000000000000        0x0 obj_cooja/mtype802.a(stimer.o)
 .note.GNU-stack
                0x0000000000000000        0x0 obj_cooja/mtype802.a(uip-icmp6.o)
 .note.GNU-stack
                0x0000000000000000        0x0 obj_cooja/mtype802.a(rpl-nbr-policy.)
 .note.GNU-stack
                0x0000000000000000        0x0 obj_cooja/mtype802.a(frame802154.o)
 .note.GNU-stack
                0x0000000000000000        0x0 obj_cooja/mtype802.a(mac-sequence.o)
 .note.GNU-stack
                0x0000000000000000        0x0 /usr/lib/gcc/i686-linux-gnu/4.8/crtendS.o
 .note.GNU-stack
                0x0000000000000000        0x0 /usr/lib/gcc/i686-linux-gnu/4.8/../../../i386-linux-gnu/crtn.o
 .gnu_debuglink
                0x0000000000000000        0xc /usr/lib/gcc/i686-linux-gnu/4.8/../../../i386-linux-gnu/crtn.o

Memory Configuration

Name             Origin             Length             Attributes
*default*        0x0000000000000000 0xffffffffffffffff

Linker script and memory map

LOAD /usr/lib/gcc/i686-linux-gnu/4.8/../../../i386-linux-gnu/crti.o
LOAD /usr/lib/gcc/i686-linux-gnu/4.8/crtbeginS.o
LOAD dtls-client.co
LOAD obj_cooja/mtype802.o
LOAD obj_cooja/mtype802.a
LOAD /usr/lib/gcc/i686-linux-gnu/4.8/libgcc.a
LOAD /usr/lib/gcc/i686-linux-gnu/4.8/libgcc_s.so
LOAD /usr/lib/gcc/i686-linux-gnu/4.8/../../../i386-linux-gnu/libc.so
START GROUP
LOAD /lib/i386-linux-gnu/libc.so.6
LOAD /usr/lib/i386-linux-gnu/libc_nonshared.a
LOAD /lib/i386-linux-gnu/ld-linux.so.2
END GROUP
LOAD /usr/lib/gcc/i686-linux-gnu/4.8/libgcc.a
LOAD /usr/lib/gcc/i686-linux-gnu/4.8/libgcc_s.so
LOAD /usr/lib/gcc/i686-linux-gnu/4.8/crtendS.o
LOAD /usr/lib/gcc/i686-linux-gnu/4.8/../../../i386-linux-gnu/crtn.o
                0x0000000000000114                . = (0x0 + SIZEOF_HEADERS)

.note.gnu.build-id
                0x0000000000000114       0x24
 *(.note.gnu.build-id)
 .note.gnu.build-id
                0x0000000000000114       0x24 /usr/lib/gcc/i686-linux-gnu/4.8/../../../i386-linux-gnu/crti.o

.hash
 *(.hash)

.gnu.hash       0x0000000000000138     0x13e4
 *(.gnu.hash)
 .gnu.hash      0x0000000000000138     0x13e4 /usr/lib/gcc/i686-linux-gnu/4.8/../../../i386-linux-gnu/crti.o

.dynsym         0x000000000000151c     0x2830
 *(.dynsym)
 .dynsym        0x000000000000151c     0x2830 /usr/lib/gcc/i686-linux-gnu/4.8/../../../i386-linux-gnu/crti.o

.dynstr         0x0000000000003d4c     0x294f
 *(.dynstr)
 .dynstr        0x0000000000003d4c     0x294f /usr/lib/gcc/i686-linux-gnu/4.8/../../../i386-linux-gnu/crti.o

.gnu.version    0x000000000000669c      0x506
 *(.gnu.version)
 .gnu.version   0x000000000000669c      0x506 /usr/lib/gcc/i686-linux-gnu/4.8/../../../i386-linux-gnu/crti.o

.gnu.version_d  0x0000000000006ba4        0x0
 *(.gnu.version_d)
 .gnu.version_d
                0x0000000000000000        0x0 /usr/lib/gcc/i686-linux-gnu/4.8/../../../i386-linux-gnu/crti.o

.gnu.version_r  0x0000000000006ba4       0x40
 *(.gnu.version_r)
 .gnu.version_r
                0x0000000000006ba4       0x40 /usr/lib/gcc/i686-linux-gnu/4.8/../../../i386-linux-gnu/crti.o

.rel.dyn        0x0000000000006be4     0xa8f8
 *(.rel.init)
 .rel.init      0x0000000000000000        0x0 /usr/lib/gcc/i686-linux-gnu/4.8/../../../i386-linux-gnu/crti.o
 *(.rel.text .rel.text.* .rel.gnu.linkonce.t.*)
 .rel.text      0x0000000000000000        0x0 /usr/lib/gcc/i686-linux-gnu/4.8/../../../i386-linux-gnu/crti.o
 .rel.text.try_send
                0x0000000000006be4       0x48 /usr/lib/gcc/i686-linux-gnu/4.8/../../../i386-linux-gnu/crti.o
 .rel.text.timeout_handler
                0x0000000000006c2c       0x58 /usr/lib/gcc/i686-linux-gnu/4.8/../../../i386-linux-gnu/crti.o
 .rel.text.send_to_peer
                0x0000000000006c84       0x58 /usr/lib/gcc/i686-linux-gnu/4.8/../../../i386-linux-gnu/crti.o
 .rel.text.get_psk_info
                0x0000000000006cdc       0xa8 /usr/lib/gcc/i686-linux-gnu/4.8/../../../i386-linux-gnu/crti.o
 .rel.text.dtls_handle_read
                0x0000000000006d84       0xc8 /usr/lib/gcc/i686-linux-gnu/4.8/../../../i386-linux-gnu/crti.o
 .rel.text.tcpip_handler
                0x0000000000006e4c       0x18 /usr/lib/gcc/i686-linux-gnu/4.8/../../../i386-linux-gnu/crti.o
 .rel.text.print_local_addresses
                0x0000000000006e64       0x40 /usr/lib/gcc/i686-linux-gnu/4.8/../../../i386-linux-gnu/crti.o
 .rel.text.set_global_address
                0x0000000000006ea4       0x20 /usr/lib/gcc/i686-linux-gnu/4.8/../../../i386-linux-gnu/crti.o
 .rel.text.set_connection_address
                0x0000000000006ec4       0x90 /usr/lib/gcc/i686-linux-gnu/4.8/../../../i386-linux-gnu/crti.o
 .rel.text.init_dtls
                0x0000000000006f54       0x90 /usr/lib/gcc/i686-linux-gnu/4.8/../../../i386-linux-gnu/crti.o
 .rel.text.process_thread_udp_client_process
                0x0000000000006fe4      0x180 /usr/lib/gcc/i686-linux-gnu/4.8/../../../i386-linux-gnu/crti.o
 .rel.text.print_processes
                0x0000000000007164       0x28 /usr/lib/gcc/i686-linux-gnu/4.8/../../../i386-linux-gnu/crti.o
 .rel.text.rtimer_thread_loop
                0x000000000000718c       0x10 /usr/lib/gcc/i686-linux-gnu/4.8/../../../i386-linux-gnu/crti.o
 .rel.text.set_rime_addr
                0x000000000000719c       0x58 /usr/lib/gcc/i686-linux-gnu/4.8/../../../i386-linux-gnu/crti.o
 .rel.text.contiki_init
                0x00000000000071f4      0x1d0 /usr/lib/gcc/i686-linux-gnu/4.8/../../../i386-linux-gnu/crti.o
 .rel.text.process_run_thread_loop
                0x00000000000073c4       0x70 /usr/lib/gcc/i686-linux-gnu/4.8/../../../i386-linux-gnu/crti.o
 .rel.text.Java_org_contikios_cooja_corecomm_Lib4_init
                0x0000000000007434       0x30 /usr/lib/gcc/i686-linux-gnu/4.8/../../../i386-linux-gnu/crti.o
 .rel.text.Java_org_contikios_cooja_corecomm_Lib4_getMemory
                0x0000000000007464        0x8 /usr/lib/gcc/i686-linux-gnu/4.8/../../../i386-linux-gnu/crti.o
 .rel.text.Java_org_contikios_cooja_corecomm_Lib4_setMemory
                0x000000000000746c       0x10 /usr/lib/gcc/i686-linux-gnu/4.8/../../../i386-linux-gnu/crti.o
 .rel.text.Java_org_contikios_cooja_corecomm_Lib4_tick
                0x000000000000747c       0x70 /usr/lib/gcc/i686-linux-gnu/4.8/../../../i386-linux-gnu/crti.o
 .rel.text.Java_org_contikios_cooja_corecomm_Lib4_setReferenceAddress
                0x00000000000074ec       0x10 /usr/lib/gcc/i686-linux-gnu/4.8/../../../i386-linux-gnu/crti.o
 .rel.text.dtls_hash_init
                0x00000000000074fc       0x18 /usr/lib/gcc/i686-linux-gnu/4.8/../../../i386-linux-gnu/crti.o
 .rel.text.dtls_hash_update
                0x0000000000007514       0x10 /usr/lib/gcc/i686-linux-gnu/4.8/../../../i386-linux-gnu/crti.o
 .rel.text.dtls_hash_finalize
                0x0000000000007524       0x10 /usr/lib/gcc/i686-linux-gnu/4.8/../../../i386-linux-gnu/crti.o
 .rel.text.dtls_security_params_next
                0x0000000000007534       0x10 /usr/lib/gcc/i686-linux-gnu/4.8/../../../i386-linux-gnu/crti.o
 .rel.text.dtls_security_params_free_other
                0x0000000000007544        0x8 /usr/lib/gcc/i686-linux-gnu/4.8/../../../i386-linux-gnu/crti.o
 .rel.text.dtls_prng
                0x000000000000754c       0x18 /usr/lib/gcc/i686-linux-gnu/4.8/../../../i386-linux-gnu/crti.o
 .rel.text.malloc_context
                0x0000000000007564        0x8 /usr/lib/gcc/i686-linux-gnu/4.8/../../../i386-linux-gnu/crti.o
 .rel.text.dtls_init
                0x000000000000756c       0x20 /usr/lib/gcc/i686-linux-gnu/4.8/../../../i386-linux-gnu/crti.o
 .rel.text.dtls_get_peer
                0x000000000000758c       0x18 /usr/lib/gcc/i686-linux-gnu/4.8/../../../i386-linux-gnu/crti.o
 .rel.text.dtls_add_peer
                0x00000000000075a4        0x8 /usr/lib/gcc/i686-linux-gnu/4.8/../../../i386-linux-gnu/crti.o
 .rel.text.dtls_write
                0x00000000000075ac       0x10 /usr/lib/gcc/i686-linux-gnu/4.8/../../../i386-linux-gnu/crti.o
 .rel.text.dtls_create_cookie
                0x00000000000075bc       0x40 /usr/lib/gcc/i686-linux-gnu/4.8/../../../i386-linux-gnu/crti.o
 .rel.text.dtls_set_record_header
                0x00000000000075fc       0x10 /usr/lib/gcc/i686-linux-gnu/4.8/../../../i386-linux-gnu/crti.o
 .rel.text.dtls_set_handshake_header
                0x000000000000760c        0x8 /usr/lib/gcc/i686-linux-gnu/4.8/../../../i386-linux-gnu/crti.o
 .rel.text.dtls_debug_keyblock
                0x0000000000007614       0x60 /usr/lib/gcc/i686-linux-gnu/4.8/../../../i386-linux-gnu/crti.o
 .rel.text.dtls_handshake_type_to_name
                0x0000000000007674       0x68 /usr/lib/gcc/i686-linux-gnu/4.8/../../../i386-linux-gnu/crti.o
 .rel.text.calculate_key_block
                0x00000000000076dc       0xb8 /usr/lib/gcc/i686-linux-gnu/4.8/../../../i386-linux-gnu/crti.o
 .rel.text.dtls_check_tls_extension
                0x0000000000007794       0x30 /usr/lib/gcc/i686-linux-gnu/4.8/../../../i386-linux-gnu/crti.o
 .rel.text.dtls_update_parameters
                0x00000000000077c4       0x48 /usr/lib/gcc/i686-linux-gnu/4.8/../../../i386-linux-gnu/crti.o
 .rel.text.check_client_keyexchange
                0x000000000000780c       0x18 /usr/lib/gcc/i686-linux-gnu/4.8/../../../i386-linux-gnu/crti.o
 .rel.text.update_hs_hash
                0x0000000000007824       0x10 /usr/lib/gcc/i686-linux-gnu/4.8/../../../i386-linux-gnu/crti.o
 .rel.text.copy_hs_hash
                0x0000000000007834        0x8 /usr/lib/gcc/i686-linux-gnu/4.8/../../../i386-linux-gnu/crti.o
 .rel.text.clear_hs_hash
                0x000000000000783c       0x10 /usr/lib/gcc/i686-linux-gnu/4.8/../../../i386-linux-gnu/crti.o
 .rel.text.check_finished
                0x000000000000784c       0x58 /usr/lib/gcc/i686-linux-gnu/4.8/../../../i386-linux-gnu/crti.o
 .rel.text.dtls_prepare_record
                0x00000000000078a4       0x90 /usr/lib/gcc/i686-linux-gnu/4.8/../../../i386-linux-gnu/crti.o
 .rel.text.dtls_send_handshake_msg_hash
                0x0000000000007934        0x8 /usr/lib/gcc/i686-linux-gnu/4.8/../../../i386-linux-gnu/crti.o
 .rel.text.dtls_send_multi
                0x000000000000793c       0x98 /usr/lib/gcc/i686-linux-gnu/4.8/../../../i386-linux-gnu/crti.o
 .rel.text.dtls_close
                0x00000000000079d4       0x30 /usr/lib/gcc/i686-linux-gnu/4.8/../../../i386-linux-gnu/crti.o
 .rel.text.dtls_destroy_peer
                0x0000000000007a04       0x28 /usr/lib/gcc/i686-linux-gnu/4.8/../../../i386-linux-gnu/crti.o
 .rel.text.dtls_verify_peer
                0x0000000000007a2c       0x80 /usr/lib/gcc/i686-linux-gnu/4.8/../../../i386-linux-gnu/crti.o
 .rel.text.dtls_send_server_hello
                0x0000000000007aac       0x30 /usr/lib/gcc/i686-linux-gnu/4.8/../../../i386-linux-gnu/crti.o
 .rel.text.dtls_send_server_key_exchange_psk
                0x0000000000007adc       0x40 /usr/lib/gcc/i686-linux-gnu/4.8/../../../i386-linux-gnu/crti.o
 .rel.text.dtls_send_server_hello_msgs
                0x0000000000007b1c        0x8 /usr/lib/gcc/i686-linux-gnu/4.8/../../../i386-linux-gnu/crti.o
 .rel.text.dtls_send_client_key_exchange
                0x0000000000007b24       0x60 /usr/lib/gcc/i686-linux-gnu/4.8/../../../i386-linux-gnu/crti.o
 .rel.text.dtls_send_finished
                0x0000000000007b84       0x38 /usr/lib/gcc/i686-linux-gnu/4.8/../../../i386-linux-gnu/crti.o
 .rel.text.dtls_send_client_hello
                0x0000000000007bbc       0x50 /usr/lib/gcc/i686-linux-gnu/4.8/../../../i386-linux-gnu/crti.o
 .rel.text.check_server_hello
                0x0000000000007c0c       0x38 /usr/lib/gcc/i686-linux-gnu/4.8/../../../i386-linux-gnu/crti.o
 .rel.text.check_server_hello_verify_request
                0x0000000000007c44       0x10 /usr/lib/gcc/i686-linux-gnu/4.8/../../../i386-linux-gnu/crti.o
 .rel.text.check_server_key_exchange_psk
                0x0000000000007c54       0x48 /usr/lib/gcc/i686-linux-gnu/4.8/../../../i386-linux-gnu/crti.o
 .rel.text.check_certificate_request
                0x0000000000007c9c       0x60 /usr/lib/gcc/i686-linux-gnu/4.8/../../../i386-linux-gnu/crti.o
 .rel.text.check_server_hellodone
                0x0000000000007cfc        0x8 /usr/lib/gcc/i686-linux-gnu/4.8/../../../i386-linux-gnu/crti.o
 .rel.text.decrypt_verify
                0x0000000000007d04       0xa8 /usr/lib/gcc/i686-linux-gnu/4.8/../../../i386-linux-gnu/crti.o
 .rel.text.dtls_renegotiate
                0x0000000000007dac       0x20 /usr/lib/gcc/i686-linux-gnu/4.8/../../../i386-linux-gnu/crti.o
 .rel.text.handle_handshake_msg
                0x0000000000007dcc      0x140 /usr/lib/gcc/i686-linux-gnu/4.8/../../../i386-linux-gnu/crti.o
 .rel.text.handle_handshake
                0x0000000000007f0c       0xd8 /usr/lib/gcc/i686-linux-gnu/4.8/../../../i386-linux-gnu/crti.o
 .rel.text.handle_ccs
                0x0000000000007fe4       0x10 /usr/lib/gcc/i686-linux-gnu/4.8/../../../i386-linux-gnu/crti.o
 .rel.text.handle_alert
                0x0000000000007ff4       0x30 /usr/lib/gcc/i686-linux-gnu/4.8/../../../i386-linux-gnu/crti.o
 .rel.text.dtls_alert_send_from_err
                0x0000000000008024       0x10 /usr/lib/gcc/i686-linux-gnu/4.8/../../../i386-linux-gnu/crti.o
 .rel.text.dtls_handle_message
                0x0000000000008034       0xc8 /usr/lib/gcc/i686-linux-gnu/4.8/../../../i386-linux-gnu/crti.o
 .rel.text.dtls_new_context
                0x00000000000080fc       0x70 /usr/lib/gcc/i686-linux-gnu/4.8/../../../i386-linux-gnu/crti.o
 .rel.text.dtls_free_context
                0x000000000000816c       0x10 /usr/lib/gcc/i686-linux-gnu/4.8/../../../i386-linux-gnu/crti.o
 .rel.text.dtls_connect_peer
                0x000000000000817c       0x50 /usr/lib/gcc/i686-linux-gnu/4.8/../../../i386-linux-gnu/crti.o
 .rel.text.dtls_connect
                0x00000000000081cc       0x38 /usr/lib/gcc/i686-linux-gnu/4.8/../../../i386-linux-gnu/crti.o
 .rel.text.dtls_retransmit
                0x0000000000008204       0x50 /usr/lib/gcc/i686-linux-gnu/4.8/../../../i386-linux-gnu/crti.o
 .rel.text.dtls_stop_retransmission
                0x0000000000008254       0x30 /usr/lib/gcc/i686-linux-gnu/4.8/../../../i386-linux-gnu/crti.o
 .rel.text.dtls_check_retransmit
                0x0000000000008284       0x20 /usr/lib/gcc/i686-linux-gnu/4.8/../../../i386-linux-gnu/crti.o
 .rel.text.process_thread_dtls_retransmit_process
                0x00000000000082a4       0xa0 /usr/lib/gcc/i686-linux-gnu/4.8/../../../i386-linux-gnu/crti.o
 .rel.text.dtls_cipher_context_get
                0x0000000000008344        0x8 /usr/lib/gcc/i686-linux-gnu/4.8/../../../i386-linux-gnu/crti.o
 .rel.text.dtls_crypto_init
                0x000000000000834c       0x20 /usr/lib/gcc/i686-linux-gnu/4.8/../../../i386-linux-gnu/crti.o
 .rel.text.dtls_handshake_malloc
                0x000000000000836c       0x10 /usr/lib/gcc/i686-linux-gnu/4.8/../../../i386-linux-gnu/crti.o
 .rel.text.dtls_handshake_dealloc
                0x000000000000837c       0x10 /usr/lib/gcc/i686-linux-gnu/4.8/../../../i386-linux-gnu/crti.o
 .rel.text.dtls_security_malloc
                0x000000000000838c       0x10 /usr/lib/gcc/i686-linux-gnu/4.8/../../../i386-linux-gnu/crti.o
 .rel.text.dtls_security_dealloc
                0x000000000000839c       0x10 /usr/lib/gcc/i686-linux-gnu/4.8/../../../i386-linux-gnu/crti.o
 .rel.text.dtls_handshake_new
                0x00000000000083ac       0x18 /usr/lib/gcc/i686-linux-gnu/4.8/../../../i386-linux-gnu/crti.o
 .rel.text.dtls_handshake_free
                0x00000000000083c4        0x8 /usr/lib/gcc/i686-linux-gnu/4.8/../../../i386-linux-gnu/crti.o
 .rel.text.dtls_security_new
                0x00000000000083cc       0x18 /usr/lib/gcc/i686-linux-gnu/4.8/../../../i386-linux-gnu/crti.o
 .rel.text.dtls_p_hash
                0x00000000000083e4       0xd0 /usr/lib/gcc/i686-linux-gnu/4.8/../../../i386-linux-gnu/crti.o
 .rel.text.dtls_prf
                0x00000000000084b4       0x10 /usr/lib/gcc/i686-linux-gnu/4.8/../../../i386-linux-gnu/crti.o
 .rel.text.dtls_mac
                0x00000000000084c4       0x38 /usr/lib/gcc/i686-linux-gnu/4.8/../../../i386-linux-gnu/crti.o
 .rel.text.dtls_ccm_encrypt
                0x00000000000084fc       0x18 /usr/lib/gcc/i686-linux-gnu/4.8/../../../i386-linux-gnu/crti.o
 .rel.text.dtls_ccm_decrypt
                0x0000000000008514       0x18 /usr/lib/gcc/i686-linux-gnu/4.8/../../../i386-linux-gnu/crti.o
 .rel.text.dtls_psk_pre_master_secret
                0x000000000000852c       0x18 /usr/lib/gcc/i686-linux-gnu/4.8/../../../i386-linux-gnu/crti.o
 .rel.text.dtls_encrypt
                0x0000000000008544       0x20 /usr/lib/gcc/i686-linux-gnu/4.8/../../../i386-linux-gnu/crti.o
 .rel.text.dtls_decrypt
                0x0000000000008564       0x20 /usr/lib/gcc/i686-linux-gnu/4.8/../../../i386-linux-gnu/crti.o
 .rel.text.dtls_hmac_context_new
                0x0000000000008584       0x10 /usr/lib/gcc/i686-linux-gnu/4.8/../../../i386-linux-gnu/crti.o
 .rel.text.dtls_hmac_context_free
                0x0000000000008594       0x10 /usr/lib/gcc/i686-linux-gnu/4.8/../../../i386-linux-gnu/crti.o
 .rel.text.dtls_hmac_storage_init
                0x00000000000085a4       0x10 /usr/lib/gcc/i686-linux-gnu/4.8/../../../i386-linux-gnu/crti.o
 .rel.text.dtls_hmac_update
                0x00000000000085b4       0x10 /usr/lib/gcc/i686-linux-gnu/4.8/../../../i386-linux-gnu/crti.o
 .rel.text.dtls_hmac_new
                0x00000000000085c4        0x8 /usr/lib/gcc/i686-linux-gnu/4.8/../../../i386-linux-gnu/crti.o
 .rel.text.dtls_hmac_init
                0x00000000000085cc       0x28 /usr/lib/gcc/i686-linux-gnu/4.8/../../../i386-linux-gnu/crti.o
 .rel.text.dtls_hmac_finalize
                0x00000000000085f4       0x28 /usr/lib/gcc/i686-linux-gnu/4.8/../../../i386-linux-gnu/crti.o
 .rel.text.netq_malloc_node
                0x000000000000861c       0x10 /usr/lib/gcc/i686-linux-gnu/4.8/../../../i386-linux-gnu/crti.o
 .rel.text.netq_free_node
                0x000000000000862c       0x10 /usr/lib/gcc/i686-linux-gnu/4.8/../../../i386-linux-gnu/crti.o
 .rel.text.netq_init
                0x000000000000863c       0x10 /usr/lib/gcc/i686-linux-gnu/4.8/../../../i386-linux-gnu/crti.o
 .rel.text.netq_insert_node
                0x000000000000864c       0x48 /usr/lib/gcc/i686-linux-gnu/4.8/../../../i386-linux-gnu/crti.o
 .rel.text.netq_head
                0x0000000000008694        0x8 /usr/lib/gcc/i686-linux-gnu/4.8/../../../i386-linux-gnu/crti.o
 .rel.text.netq_next
                0x000000000000869c        0x8 /usr/lib/gcc/i686-linux-gnu/4.8/../../../i386-linux-gnu/crti.o
 .rel.text.netq_remove
                0x00000000000086a4        0x8 /usr/lib/gcc/i686-linux-gnu/4.8/../../../i386-linux-gnu/crti.o
 .rel.text.netq_pop_first
                0x00000000000086ac        0x8 /usr/lib/gcc/i686-linux-gnu/4.8/../../../i386-linux-gnu/crti.o
 .rel.text.netq_node_new
                0x00000000000086b4       0x18 /usr/lib/gcc/i686-linux-gnu/4.8/../../../i386-linux-gnu/crti.o
 .rel.text.netq_delete_all
                0x00000000000086cc        0x8 /usr/lib/gcc/i686-linux-gnu/4.8/../../../i386-linux-gnu/crti.o
 .rel.text.dtls_clock_init
                0x00000000000086d4       0x10 /usr/lib/gcc/i686-linux-gnu/4.8/../../../i386-linux-gnu/crti.o
 .rel.text.dtls_ticks
                0x00000000000086e4        0x8 /usr/lib/gcc/i686-linux-gnu/4.8/../../../i386-linux-gnu/crti.o
 .rel.text.peer_init
                0x00000000000086ec       0x10 /usr/lib/gcc/i686-linux-gnu/4.8/../../../i386-linux-gnu/crti.o
 .rel.text.dtls_malloc_peer
                0x00000000000086fc       0x10 /usr/lib/gcc/i686-linux-gnu/4.8/../../../i386-linux-gnu/crti.o
 .rel.text.dtls_free_peer
                0x000000000000870c       0x28 /usr/lib/gcc/i686-linux-gnu/4.8/../../../i386-linux-gnu/crti.o
 .rel.text.dtls_new_peer
                0x0000000000008734       0x30 /usr/lib/gcc/i686-linux-gnu/4.8/../../../i386-linux-gnu/crti.o
 .rel.text.dtls_session_init
                0x0000000000008764       0x18 /usr/lib/gcc/i686-linux-gnu/4.8/../../../i386-linux-gnu/crti.o
 .rel.text.dtls_session_equals
                0x000000000000877c       0x28 /usr/lib/gcc/i686-linux-gnu/4.8/../../../i386-linux-gnu/crti.o
 .rel.text.rijndaelKeySetupEnc
                0x00000000000087a4       0x98 /usr/lib/gcc/i686-linux-gnu/4.8/../../../i386-linux-gnu/crti.o
 .rel.text.rijndaelEncrypt
                0x000000000000883c      0x180 /usr/lib/gcc/i686-linux-gnu/4.8/../../../i386-linux-gnu/crti.o
 .rel.text.rijndael_set_key_enc_only
                0x00000000000089bc        0x8 /usr/lib/gcc/i686-linux-gnu/4.8/../../../i386-linux-gnu/crti.o
 .rel.text.rijndael_encrypt
                0x00000000000089c4        0x8 /usr/lib/gcc/i686-linux-gnu/4.8/../../../i386-linux-gnu/crti.o
 .rel.text.block0
                0x00000000000089cc        0x8 /usr/lib/gcc/i686-linux-gnu/4.8/../../../i386-linux-gnu/crti.o
 .rel.text.add_auth_data
                0x00000000000089d4       0x50 /usr/lib/gcc/i686-linux-gnu/4.8/../../../i386-linux-gnu/crti.o
 .rel.text.encrypt
                0x0000000000008a24       0x38 /usr/lib/gcc/i686-linux-gnu/4.8/../../../i386-linux-gnu/crti.o
 .rel.text.mac  0x0000000000008a5c        0x8 /usr/lib/gcc/i686-linux-gnu/4.8/../../../i386-linux-gnu/crti.o
 .rel.text.dtls_ccm_encrypt_message
                0x0000000000008a64       0x28 /usr/lib/gcc/i686-linux-gnu/4.8/../../../i386-linux-gnu/crti.o
 .rel.text.dtls_ccm_decrypt_message
                0x0000000000008a8c       0x28 /usr/lib/gcc/i686-linux-gnu/4.8/../../../i386-linux-gnu/crti.o
 .rel.text.SHA256_Init
                0x0000000000008ab4       0x18 /usr/lib/gcc/i686-linux-gnu/4.8/../../../i386-linux-gnu/crti.o
 .rel.text.SHA256_Transform
                0x0000000000008acc       0x10 /usr/lib/gcc/i686-linux-gnu/4.8/../../../i386-linux-gnu/crti.o
 .rel.text.SHA256_Update
                0x0000000000008adc       0x38 /usr/lib/gcc/i686-linux-gnu/4.8/../../../i386-linux-gnu/crti.o
 .rel.text.SHA256_Final
                0x0000000000008b14       0x48 /usr/lib/gcc/i686-linux-gnu/4.8/../../../i386-linux-gnu/crti.o
 .rel.text.SHA256_End
                0x0000000000008b5c       0x40 /usr/lib/gcc/i686-linux-gnu/4.8/../../../i386-linux-gnu/crti.o
 .rel.text.SHA256_Data
                0x0000000000008b9c       0x20 /usr/lib/gcc/i686-linux-gnu/4.8/../../../i386-linux-gnu/crti.o
 .rel.text.dtls_package_name
                0x0000000000008bbc        0x8 /usr/lib/gcc/i686-linux-gnu/4.8/../../../i386-linux-gnu/crti.o
 .rel.text.dtls_package_version
                0x0000000000008bc4        0x8 /usr/lib/gcc/i686-linux-gnu/4.8/../../../i386-linux-gnu/crti.o
 .rel.text.dtls_get_log_level
                0x0000000000008bcc        0x8 /usr/lib/gcc/i686-linux-gnu/4.8/../../../i386-linux-gnu/crti.o
 .rel.text.dtls_set_log_level
                0x0000000000008bd4        0x8 /usr/lib/gcc/i686-linux-gnu/4.8/../../../i386-linux-gnu/crti.o
 .rel.text.dsrv_print_addr
                0x0000000000008bdc       0x20 /usr/lib/gcc/i686-linux-gnu/4.8/../../../i386-linux-gnu/crti.o
 .rel.text.hexdump
                0x0000000000008bfc       0x40 /usr/lib/gcc/i686-linux-gnu/4.8/../../../i386-linux-gnu/crti.o
 .rel.text.dump
                0x0000000000008c3c       0x10 /usr/lib/gcc/i686-linux-gnu/4.8/../../../i386-linux-gnu/crti.o
 .rel.text.dtls_dsrv_log_addr
                0x0000000000008c4c       0x18 /usr/lib/gcc/i686-linux-gnu/4.8/../../../i386-linux-gnu/crti.o
 .rel.text.dtls_dsrv_hexdump_log
                0x0000000000008c64       0xc8 /usr/lib/gcc/i686-linux-gnu/4.8/../../../i386-linux-gnu/crti.o
 .rel.text.doActionsBeforeTick
                0x0000000000008d2c       0x10 /usr/lib/gcc/i686-linux-gnu/4.8/../../../i386-linux-gnu/crti.o
 .rel.text.doActionsAfterTick
                0x0000000000008d3c       0x10 /usr/lib/gcc/i686-linux-gnu/4.8/../../../i386-linux-gnu/crti.o
 .rel.text.cooja_mt_init
                0x0000000000008d4c        0x8 /usr/lib/gcc/i686-linux-gnu/4.8/../../../i386-linux-gnu/crti.o
 .rel.text.cooja_mt_remove
                0x0000000000008d54        0x8 /usr/lib/gcc/i686-linux-gnu/4.8/../../../i386-linux-gnu/crti.o
 .rel.text.cooja_mt_start
                0x0000000000008d5c        0x8 /usr/lib/gcc/i686-linux-gnu/4.8/../../../i386-linux-gnu/crti.o
 .rel.text.cooja_mt_exec
                0x0000000000008d64       0x10 /usr/lib/gcc/i686-linux-gnu/4.8/../../../i386-linux-gnu/crti.o
 .rel.text.cooja_mt_exit
                0x0000000000008d74       0x18 /usr/lib/gcc/i686-linux-gnu/4.8/../../../i386-linux-gnu/crti.o
 .rel.text.cooja_mt_yield
                0x0000000000008d8c       0x18 /usr/lib/gcc/i686-linux-gnu/4.8/../../../i386-linux-gnu/crti.o
 .rel.text.cooja_mtarch_start
                0x0000000000008da4        0x8 /usr/lib/gcc/i686-linux-gnu/4.8/../../../i386-linux-gnu/crti.o
 .rel.text.cooja_sw
                0x0000000000008dac        0x8 /usr/lib/gcc/i686-linux-gnu/4.8/../../../i386-linux-gnu/crti.o
 .rel.text.cooja_mtarch_exec
                0x0000000000008db4       0x18 /usr/lib/gcc/i686-linux-gnu/4.8/../../../i386-linux-gnu/crti.o
 .rel.text.cooja_mtarch_yield
                0x0000000000008dcc        0x8 /usr/lib/gcc/i686-linux-gnu/4.8/../../../i386-linux-gnu/crti.o
 .rel.text.rtimer_arch_init
                0x0000000000008dd4       0x18 /usr/lib/gcc/i686-linux-gnu/4.8/../../../i386-linux-gnu/crti.o
 .rel.text.rtimer_arch_schedule
                0x0000000000008dec       0x18 /usr/lib/gcc/i686-linux-gnu/4.8/../../../i386-linux-gnu/crti.o
 .rel.text.rtimer_arch_next
                0x0000000000008e04       0x10 /usr/lib/gcc/i686-linux-gnu/4.8/../../../i386-linux-gnu/crti.o
 .rel.text.rtimer_arch_pending
                0x0000000000008e14        0x8 /usr/lib/gcc/i686-linux-gnu/4.8/../../../i386-linux-gnu/crti.o
 .rel.text.rtimer_arch_check
                0x0000000000008e1c       0x30 /usr/lib/gcc/i686-linux-gnu/4.8/../../../i386-linux-gnu/crti.o
 .rel.text.rtimer_arch_now
                0x0000000000008e4c       0x10 /usr/lib/gcc/i686-linux-gnu/4.8/../../../i386-linux-gnu/crti.o
 .rel.text.beep_alarm
                0x0000000000008e5c        0x8 /usr/lib/gcc/i686-linux-gnu/4.8/../../../i386-linux-gnu/crti.o
 .rel.text.beep_beep
                0x0000000000008e64        0x8 /usr/lib/gcc/i686-linux-gnu/4.8/../../../i386-linux-gnu/crti.o
 .rel.text.beep
                0x0000000000008e6c        0x8 /usr/lib/gcc/i686-linux-gnu/4.8/../../../i386-linux-gnu/crti.o
 .rel.text.beep_down
                0x0000000000008e74        0x8 /usr/lib/gcc/i686-linux-gnu/4.8/../../../i386-linux-gnu/crti.o
 .rel.text.beep_on
                0x0000000000008e7c        0x8 /usr/lib/gcc/i686-linux-gnu/4.8/../../../i386-linux-gnu/crti.o
 .rel.text.beep_off
                0x0000000000008e84        0x8 /usr/lib/gcc/i686-linux-gnu/4.8/../../../i386-linux-gnu/crti.o
 .rel.text.beep_spinup
                0x0000000000008e8c        0x8 /usr/lib/gcc/i686-linux-gnu/4.8/../../../i386-linux-gnu/crti.o
 .rel.text.beep_quick
                0x0000000000008e94        0x8 /usr/lib/gcc/i686-linux-gnu/4.8/../../../i386-linux-gnu/crti.o
 .rel.text.beep_long
                0x0000000000008e9c        0x8 /usr/lib/gcc/i686-linux-gnu/4.8/../../../i386-linux-gnu/crti.o
 .rel.text.value
                0x0000000000008ea4       0x28 /usr/lib/gcc/i686-linux-gnu/4.8/../../../i386-linux-gnu/crti.o
 .rel.text.configure
                0x0000000000008ecc       0x40 /usr/lib/gcc/i686-linux-gnu/4.8/../../../i386-linux-gnu/crti.o
 .rel.text.status
                0x0000000000008f0c       0x18 /usr/lib/gcc/i686-linux-gnu/4.8/../../../i386-linux-gnu/crti.o
 .rel.text.doInterfaceActionsBeforeTick
                0x0000000000008f24      0x188 /usr/lib/gcc/i686-linux-gnu/4.8/../../../i386-linux-gnu/crti.o
 .rel.text.leds_arch_init
                0x00000000000090ac        0x8 /usr/lib/gcc/i686-linux-gnu/4.8/../../../i386-linux-gnu/crti.o
 .rel.text.leds_arch_get
                0x00000000000090b4        0x8 /usr/lib/gcc/i686-linux-gnu/4.8/../../../i386-linux-gnu/crti.o
 .rel.text.leds_arch_set
                0x00000000000090bc       0x10 /usr/lib/gcc/i686-linux-gnu/4.8/../../../i386-linux-gnu/crti.o
 .rel.text.rs232_set_input
                0x00000000000090cc        0x8 /usr/lib/gcc/i686-linux-gnu/4.8/../../../i386-linux-gnu/crti.o
 .rel.text.rs232_send
                0x00000000000090d4       0x10 /usr/lib/gcc/i686-linux-gnu/4.8/../../../i386-linux-gnu/crti.o
 .rel.text.rs232_print
                0x00000000000090e4       0x10 /usr/lib/gcc/i686-linux-gnu/4.8/../../../i386-linux-gnu/crti.o
 .rel.text.slip_arch_writeb
                0x00000000000090f4        0x8 /usr/lib/gcc/i686-linux-gnu/4.8/../../../i386-linux-gnu/crti.o
 .rel.text.clock_time
                0x00000000000090fc        0x8 /usr/lib/gcc/i686-linux-gnu/4.8/../../../i386-linux-gnu/crti.o
 .rel.text.clock_seconds
                0x0000000000009104        0x8 /usr/lib/gcc/i686-linux-gnu/4.8/../../../i386-linux-gnu/crti.o
 .rel.text.simlog_char
                0x000000000000910c       0x30 /usr/lib/gcc/i686-linux-gnu/4.8/../../../i386-linux-gnu/crti.o
 .rel.text.simlog
                0x000000000000913c       0x50 /usr/lib/gcc/i686-linux-gnu/4.8/../../../i386-linux-gnu/crti.o
 .rel.text.log_message
                0x000000000000918c       0x10 /usr/lib/gcc/i686-linux-gnu/4.8/../../../i386-linux-gnu/crti.o
 .rel.text.log_set_putchar_with_slip
                0x000000000000919c        0x8 /usr/lib/gcc/i686-linux-gnu/4.8/../../../i386-linux-gnu/crti.o
 .rel.text.putchar
                0x00000000000091a4       0x50 /usr/lib/gcc/i686-linux-gnu/4.8/../../../i386-linux-gnu/crti.o
 .rel.text.puts
                0x00000000000091f4       0x10 /usr/lib/gcc/i686-linux-gnu/4.8/../../../i386-linux-gnu/crti.o
 .rel.text.printf
                0x0000000000009204       0x20 /usr/lib/gcc/i686-linux-gnu/4.8/../../../i386-linux-gnu/crti.o
 .rel.text.cfs_open
                0x0000000000009224       0x48 /usr/lib/gcc/i686-linux-gnu/4.8/../../../i386-linux-gnu/crti.o
 .rel.text.cfs_close
                0x000000000000926c        0x8 /usr/lib/gcc/i686-linux-gnu/4.8/../../../i386-linux-gnu/crti.o
 .rel.text.cfs_read
                0x0000000000009274       0x70 /usr/lib/gcc/i686-linux-gnu/4.8/../../../i386-linux-gnu/crti.o
 .rel.text.cfs_write
                0x00000000000092e4       0xb0 /usr/lib/gcc/i686-linux-gnu/4.8/../../../i386-linux-gnu/crti.o
 .rel.text.cfs_seek
                0x0000000000009394       0x68 /usr/lib/gcc/i686-linux-gnu/4.8/../../../i386-linux-gnu/crti.o
 .rel.text.cfs_remove
                0x00000000000093fc       0x10 /usr/lib/gcc/i686-linux-gnu/4.8/../../../i386-linux-gnu/crti.o
 .rel.text.packetbuf_set_attr
                0x000000000000940c       0x30 /usr/lib/gcc/i686-linux-gnu/4.8/../../../i386-linux-gnu/crti.o
 .rel.text.set_send_on_cca
                0x000000000000943c        0x8 /usr/lib/gcc/i686-linux-gnu/4.8/../../../i386-linux-gnu/crti.o
 .rel.text.set_frame_filtering
                0x0000000000009444        0x8 /usr/lib/gcc/i686-linux-gnu/4.8/../../../i386-linux-gnu/crti.o
 .rel.text.set_auto_ack
                0x000000000000944c        0x8 /usr/lib/gcc/i686-linux-gnu/4.8/../../../i386-linux-gnu/crti.o
 .rel.text.set_poll_mode
                0x0000000000009454        0x8 /usr/lib/gcc/i686-linux-gnu/4.8/../../../i386-linux-gnu/crti.o
 .rel.text.radio_set_channel
                0x000000000000945c        0x8 /usr/lib/gcc/i686-linux-gnu/4.8/../../../i386-linux-gnu/crti.o
 .rel.text.radio_set_txpower
                0x0000000000009464        0x8 /usr/lib/gcc/i686-linux-gnu/4.8/../../../i386-linux-gnu/crti.o
 .rel.text.radio_signal_strength_last
                0x000000000000946c        0x8 /usr/lib/gcc/i686-linux-gnu/4.8/../../../i386-linux-gnu/crti.o
 .rel.text.radio_signal_strength_current
                0x0000000000009474        0x8 /usr/lib/gcc/i686-linux-gnu/4.8/../../../i386-linux-gnu/crti.o
 .rel.text.radio_LQI
                0x000000000000947c        0x8 /usr/lib/gcc/i686-linux-gnu/4.8/../../../i386-linux-gnu/crti.o
 .rel.text.radio_on
                0x0000000000009484        0x8 /usr/lib/gcc/i686-linux-gnu/4.8/../../../i386-linux-gnu/crti.o
 .rel.text.radio_off
                0x000000000000948c        0x8 /usr/lib/gcc/i686-linux-gnu/4.8/../../../i386-linux-gnu/crti.o
 .rel.text.radio_read
                0x0000000000009494       0x68 /usr/lib/gcc/i686-linux-gnu/4.8/../../../i386-linux-gnu/crti.o
 .rel.text.channel_clear
                0x00000000000094fc        0x8 /usr/lib/gcc/i686-linux-gnu/4.8/../../../i386-linux-gnu/crti.o
 .rel.text.radio_send
                0x0000000000009504       0x78 /usr/lib/gcc/i686-linux-gnu/4.8/../../../i386-linux-gnu/crti.o
 .rel.text.prepare_packet
                0x000000000000957c        0x8 /usr/lib/gcc/i686-linux-gnu/4.8/../../../i386-linux-gnu/crti.o
 .rel.text.transmit_packet
                0x0000000000009584       0x10 /usr/lib/gcc/i686-linux-gnu/4.8/../../../i386-linux-gnu/crti.o
 .rel.text.receiving_packet
                0x0000000000009594        0x8 /usr/lib/gcc/i686-linux-gnu/4.8/../../../i386-linux-gnu/crti.o
 .rel.text.pending_packet
                0x000000000000959c       0x10 /usr/lib/gcc/i686-linux-gnu/4.8/../../../i386-linux-gnu/crti.o
 .rel.text.process_thread_cooja_radio_process
                0x00000000000095ac       0x28 /usr/lib/gcc/i686-linux-gnu/4.8/../../../i386-linux-gnu/crti.o
 .rel.text.init
                0x00000000000095d4       0x60 /usr/lib/gcc/i686-linux-gnu/4.8/../../../i386-linux-gnu/crti.o
 .rel.text.get_value
                0x0000000000009634       0x30 /usr/lib/gcc/i686-linux-gnu/4.8/../../../i386-linux-gnu/crti.o
 .rel.text.set_value
                0x0000000000009664        0x8 /usr/lib/gcc/i686-linux-gnu/4.8/../../../i386-linux-gnu/crti.o
 .rel.text.get_object
                0x000000000000966c       0x10 /usr/lib/gcc/i686-linux-gnu/4.8/../../../i386-linux-gnu/crti.o
 .rel.text.eeprom_read
                0x000000000000967c       0x28 /usr/lib/gcc/i686-linux-gnu/4.8/../../../i386-linux-gnu/crti.o
 .rel.text.eeprom_write
                0x00000000000096a4       0x28 /usr/lib/gcc/i686-linux-gnu/4.8/../../../i386-linux-gnu/crti.o
 .rel.text.random_init
                0x00000000000096cc        0x8 /usr/lib/gcc/i686-linux-gnu/4.8/../../../i386-linux-gnu/crti.o
 .rel.text.random_rand
                0x00000000000096d4        0x8 /usr/lib/gcc/i686-linux-gnu/4.8/../../../i386-linux-gnu/crti.o
 .rel.text.get_sensor_index
                0x00000000000096dc       0x10 /usr/lib/gcc/i686-linux-gnu/4.8/../../../i386-linux-gnu/crti.o
 .rel.text.sensors_first
                0x00000000000096ec        0x8 /usr/lib/gcc/i686-linux-gnu/4.8/../../../i386-linux-gnu/crti.o
 .rel.text.sensors_next
                0x00000000000096f4        0x8 /usr/lib/gcc/i686-linux-gnu/4.8/../../../i386-linux-gnu/crti.o
 .rel.text.sensors_changed
                0x00000000000096fc       0x20 /usr/lib/gcc/i686-linux-gnu/4.8/../../../i386-linux-gnu/crti.o
 .rel.text.sensors_find
                0x000000000000971c       0x28 /usr/lib/gcc/i686-linux-gnu/4.8/../../../i386-linux-gnu/crti.o
 .rel.text.process_thread_sensors_process
                0x0000000000009744      0x108 /usr/lib/gcc/i686-linux-gnu/4.8/../../../i386-linux-gnu/crti.o
 .rel.text.autostart_start
                0x000000000000984c        0x8 /usr/lib/gcc/i686-linux-gnu/4.8/../../../i386-linux-gnu/crti.o
 .rel.text.autostart_exit
                0x0000000000009854        0x8 /usr/lib/gcc/i686-linux-gnu/4.8/../../../i386-linux-gnu/crti.o
 .rel.text.process_thread_ctimer_process
                0x000000000000985c       0x58 /usr/lib/gcc/i686-linux-gnu/4.8/../../../i386-linux-gnu/crti.o
 .rel.text.ctimer_init
                0x00000000000098b4       0x28 /usr/lib/gcc/i686-linux-gnu/4.8/../../../i386-linux-gnu/crti.o
 .rel.text.ctimer_set
                0x00000000000098dc       0x10 /usr/lib/gcc/i686-linux-gnu/4.8/../../../i386-linux-gnu/crti.o
 .rel.text.ctimer_set_with_process
                0x00000000000098ec       0x40 /usr/lib/gcc/i686-linux-gnu/4.8/../../../i386-linux-gnu/crti.o
 .rel.text.ctimer_reset
                0x000000000000992c       0x40 /usr/lib/gcc/i686-linux-gnu/4.8/../../../i386-linux-gnu/crti.o
 .rel.text.ctimer_restart
                0x000000000000996c       0x40 /usr/lib/gcc/i686-linux-gnu/4.8/../../../i386-linux-gnu/crti.o
 .rel.text.ctimer_stop
                0x00000000000099ac       0x20 /usr/lib/gcc/i686-linux-gnu/4.8/../../../i386-linux-gnu/crti.o
 .rel.text.ctimer_expired
                0x00000000000099cc       0x20 /usr/lib/gcc/i686-linux-gnu/4.8/../../../i386-linux-gnu/crti.o
 .rel.text.update_time
                0x00000000000099ec       0x28 /usr/lib/gcc/i686-linux-gnu/4.8/../../../i386-linux-gnu/crti.o
 .rel.text.process_thread_etimer_process
                0x0000000000009a14       0x60 /usr/lib/gcc/i686-linux-gnu/4.8/../../../i386-linux-gnu/crti.o
 .rel.text.etimer_request_poll
                0x0000000000009a74       0x10 /usr/lib/gcc/i686-linux-gnu/4.8/../../../i386-linux-gnu/crti.o
 .rel.text.add_timer
                0x0000000000009a84       0x30 /usr/lib/gcc/i686-linux-gnu/4.8/../../../i386-linux-gnu/crti.o
 .rel.text.etimer_set
                0x0000000000009ab4        0x8 /usr/lib/gcc/i686-linux-gnu/4.8/../../../i386-linux-gnu/crti.o
 .rel.text.etimer_reset_with_new_interval
                0x0000000000009abc        0x8 /usr/lib/gcc/i686-linux-gnu/4.8/../../../i386-linux-gnu/crti.o
 .rel.text.etimer_reset
                0x0000000000009ac4        0x8 /usr/lib/gcc/i686-linux-gnu/4.8/../../../i386-linux-gnu/crti.o
 .rel.text.etimer_restart
                0x0000000000009acc        0x8 /usr/lib/gcc/i686-linux-gnu/4.8/../../../i386-linux-gnu/crti.o
 .rel.text.etimer_pending
                0x0000000000009ad4        0x8 /usr/lib/gcc/i686-linux-gnu/4.8/../../../i386-linux-gnu/crti.o
 .rel.text.etimer_next_expiration_time
                0x0000000000009adc       0x10 /usr/lib/gcc/i686-linux-gnu/4.8/../../../i386-linux-gnu/crti.o
 .rel.text.etimer_stop
                0x0000000000009aec       0x20 /usr/lib/gcc/i686-linux-gnu/4.8/../../../i386-linux-gnu/crti.o
 .rel.text.process_alloc_event
                0x0000000000009b0c       0x10 /usr/lib/gcc/i686-linux-gnu/4.8/../../../i386-linux-gnu/crti.o
 .rel.text.process_start
                0x0000000000009b1c       0x20 /usr/lib/gcc/i686-linux-gnu/4.8/../../../i386-linux-gnu/crti.o
 .rel.text.exit_process
                0x0000000000009b3c       0x50 /usr/lib/gcc/i686-linux-gnu/4.8/../../../i386-linux-gnu/crti.o
 .rel.text.call_process
                0x0000000000009b8c        0x8 /usr/lib/gcc/i686-linux-gnu/4.8/../../../i386-linux-gnu/crti.o
 .rel.text.process_exit
                0x0000000000009b94        0x8 /usr/lib/gcc/i686-linux-gnu/4.8/../../../i386-linux-gnu/crti.o
 .rel.text.process_init
                0x0000000000009b9c       0x38 /usr/lib/gcc/i686-linux-gnu/4.8/../../../i386-linux-gnu/crti.o
 .rel.text.do_poll
                0x0000000000009bd4       0x10 /usr/lib/gcc/i686-linux-gnu/4.8/../../../i386-linux-gnu/crti.o
 .rel.text.do_event
                0x0000000000009be4       0x68 /usr/lib/gcc/i686-linux-gnu/4.8/../../../i386-linux-gnu/crti.o
 .rel.text.process_run
                0x0000000000009c4c       0x18 /usr/lib/gcc/i686-linux-gnu/4.8/../../../i386-linux-gnu/crti.o
 .rel.text.process_nevents
                0x0000000000009c64       0x10 /usr/lib/gcc/i686-linux-gnu/4.8/../../../i386-linux-gnu/crti.o
 .rel.text.process_post
                0x0000000000009c74       0x40 /usr/lib/gcc/i686-linux-gnu/4.8/../../../i386-linux-gnu/crti.o
 .rel.text.process_post_synch
                0x0000000000009cb4       0x10 /usr/lib/gcc/i686-linux-gnu/4.8/../../../i386-linux-gnu/crti.o
 .rel.text.process_poll
                0x0000000000009cc4        0x8 /usr/lib/gcc/i686-linux-gnu/4.8/../../../i386-linux-gnu/crti.o
 .rel.text.rtimer_init
                0x0000000000009ccc        0x8 /usr/lib/gcc/i686-linux-gnu/4.8/../../../i386-linux-gnu/crti.o
 .rel.text.rtimer_set
                0x0000000000009cd4       0x18 /usr/lib/gcc/i686-linux-gnu/4.8/../../../i386-linux-gnu/crti.o
 .rel.text.rtimer_run_next
                0x0000000000009cec       0x30 /usr/lib/gcc/i686-linux-gnu/4.8/../../../i386-linux-gnu/crti.o
 .rel.text.timer_set
                0x0000000000009d1c        0x8 /usr/lib/gcc/i686-linux-gnu/4.8/../../../i386-linux-gnu/crti.o
 .rel.text.timer_restart
                0x0000000000009d24        0x8 /usr/lib/gcc/i686-linux-gnu/4.8/../../../i386-linux-gnu/crti.o
 .rel.text.timer_expired
                0x0000000000009d2c        0x8 /usr/lib/gcc/i686-linux-gnu/4.8/../../../i386-linux-gnu/crti.o
 .rel.text.timer_remaining
                0x0000000000009d34        0x8 /usr/lib/gcc/i686-linux-gnu/4.8/../../../i386-linux-gnu/crti.o
 .rel.text.serial_line_input_byte
                0x0000000000009d3c       0x48 /usr/lib/gcc/i686-linux-gnu/4.8/../../../i386-linux-gnu/crti.o
 .rel.text.process_thread_serial_line_process
                0x0000000000009d84       0x90 /usr/lib/gcc/i686-linux-gnu/4.8/../../../i386-linux-gnu/crti.o
 .rel.text.serial_line_init
                0x0000000000009e14       0x28 /usr/lib/gcc/i686-linux-gnu/4.8/../../../i386-linux-gnu/crti.o
 .rel.text._xassert
                0x0000000000009e3c       0x10 /usr/lib/gcc/i686-linux-gnu/4.8/../../../i386-linux-gnu/crti.o
 .rel.text.list_add
                0x0000000000009e4c       0x10 /usr/lib/gcc/i686-linux-gnu/4.8/../../../i386-linux-gnu/crti.o
 .rel.text.list_push
                0x0000000000009e5c        0x8 /usr/lib/gcc/i686-linux-gnu/4.8/../../../i386-linux-gnu/crti.o
 .rel.text.list_insert
                0x0000000000009e64        0x8 /usr/lib/gcc/i686-linux-gnu/4.8/../../../i386-linux-gnu/crti.o
 .rel.text.memb_init
                0x0000000000009e6c       0x10 /usr/lib/gcc/i686-linux-gnu/4.8/../../../i386-linux-gnu/crti.o
 .rel.text.packetbuf_attr
                0x0000000000009e7c       0x28 /usr/lib/gcc/i686-linux-gnu/4.8/../../../i386-linux-gnu/crti.o
 .rel.text.packetbuf_set_addr
                0x0000000000009ea4       0x30 /usr/lib/gcc/i686-linux-gnu/4.8/../../../i386-linux-gnu/crti.o
 .rel.text.packetbuf_addr
                0x0000000000009ed4       0x40 /usr/lib/gcc/i686-linux-gnu/4.8/../../../i386-linux-gnu/crti.o
 .rel.text.clear_fragments
                0x0000000000009f14       0x20 /usr/lib/gcc/i686-linux-gnu/4.8/../../../i386-linux-gnu/crti.o
 .rel.text.timeout_fragments
                0x0000000000009f34       0x18 /usr/lib/gcc/i686-linux-gnu/4.8/../../../i386-linux-gnu/crti.o
 .rel.text.store_fragment
                0x0000000000009f4c       0x68 /usr/lib/gcc/i686-linux-gnu/4.8/../../../i386-linux-gnu/crti.o
 .rel.text.add_fragment
                0x0000000000009fb4       0x80 /usr/lib/gcc/i686-linux-gnu/4.8/../../../i386-linux-gnu/crti.o
 .rel.text.copy_frags2uip
                0x000000000000a034       0x58 /usr/lib/gcc/i686-linux-gnu/4.8/../../../i386-linux-gnu/crti.o
 .rel.text.rime_sniffer_add
                0x000000000000a08c        0x8 /usr/lib/gcc/i686-linux-gnu/4.8/../../../i386-linux-gnu/crti.o
 .rel.text.rime_sniffer_remove
                0x000000000000a094        0x8 /usr/lib/gcc/i686-linux-gnu/4.8/../../../i386-linux-gnu/crti.o
 .rel.text.set_packet_attrs
                0x000000000000a09c       0x60 /usr/lib/gcc/i686-linux-gnu/4.8/../../../i386-linux-gnu/crti.o
 .rel.text.addr_context_lookup_by_prefix
                0x000000000000a0fc       0x20 /usr/lib/gcc/i686-linux-gnu/4.8/../../../i386-linux-gnu/crti.o
 .rel.text.addr_context_lookup_by_number
                0x000000000000a11c       0x18 /usr/lib/gcc/i686-linux-gnu/4.8/../../../i386-linux-gnu/crti.o
 .rel.text.compress_addr_64
                0x000000000000a134       0x40 /usr/lib/gcc/i686-linux-gnu/4.8/../../../i386-linux-gnu/crti.o
 .rel.text.uncompress_addr
                0x000000000000a174       0x38 /usr/lib/gcc/i686-linux-gnu/4.8/../../../i386-linux-gnu/crti.o
 .rel.text.compress_hdr_iphc
                0x000000000000a1ac      0x5f8 /usr/lib/gcc/i686-linux-gnu/4.8/../../../i386-linux-gnu/crti.o
 .rel.text.uncompress_hdr_iphc
                0x000000000000a7a4      0x2f0 /usr/lib/gcc/i686-linux-gnu/4.8/../../../i386-linux-gnu/crti.o
 .rel.text.compress_hdr_ipv6
                0x000000000000aa94       0x58 /usr/lib/gcc/i686-linux-gnu/4.8/../../../i386-linux-gnu/crti.o
 .rel.text.packet_sent
                0x000000000000aaec       0x38 /usr/lib/gcc/i686-linux-gnu/4.8/../../../i386-linux-gnu/crti.o
 .rel.text.send_packet
                0x000000000000ab24      0x120 /usr/lib/gcc/i686-linux-gnu/4.8/../../../i386-linux-gnu/crti.o
 .rel.text.output
                0x000000000000ac44      0x2c8 /usr/lib/gcc/i686-linux-gnu/4.8/../../../i386-linux-gnu/crti.o
 .rel.text.input
                0x000000000000af0c      0x200 /usr/lib/gcc/i686-linux-gnu/4.8/../../../i386-linux-gnu/crti.o
 .rel.text.sicslowpan_init
                0x000000000000b10c       0x38 /usr/lib/gcc/i686-linux-gnu/4.8/../../../i386-linux-gnu/crti.o
 .rel.text.sicslowpan_get_last_rssi
                0x000000000000b144        0x8 /usr/lib/gcc/i686-linux-gnu/4.8/../../../i386-linux-gnu/crti.o
 .rel.text.uip_ds6_neighbors_init
                0x000000000000b14c       0x20 /usr/lib/gcc/i686-linux-gnu/4.8/../../../i386-linux-gnu/crti.o
 .rel.text.uip_ds6_nbr_add
                0x000000000000b16c       0x38 /usr/lib/gcc/i686-linux-gnu/4.8/../../../i386-linux-gnu/crti.o
 .rel.text.uip_ds6_nbr_rm
                0x000000000000b1a4       0x20 /usr/lib/gcc/i686-linux-gnu/4.8/../../../i386-linux-gnu/crti.o
 .rel.text.uip_ds6_nbr_get_ll
                0x000000000000b1c4       0x10 /usr/lib/gcc/i686-linux-gnu/4.8/../../../i386-linux-gnu/crti.o
 .rel.text.uip_ds6_nbr_num
                0x000000000000b1d4       0x20 /usr/lib/gcc/i686-linux-gnu/4.8/../../../i386-linux-gnu/crti.o
 .rel.text.uip_ds6_nbr_lookup
                0x000000000000b1f4       0x28 /usr/lib/gcc/i686-linux-gnu/4.8/../../../i386-linux-gnu/crti.o
 .rel.text.uip_ds6_nbr_ll_lookup
                0x000000000000b21c       0x10 /usr/lib/gcc/i686-linux-gnu/4.8/../../../i386-linux-gnu/crti.o
 .rel.text.uip_ds6_nbr_ipaddr_from_lladdr
                0x000000000000b22c        0x8 /usr/lib/gcc/i686-linux-gnu/4.8/../../../i386-linux-gnu/crti.o
 .rel.text.uip_ds6_nbr_lladdr_from_ipaddr
                0x000000000000b234       0x10 /usr/lib/gcc/i686-linux-gnu/4.8/../../../i386-linux-gnu/crti.o
 .rel.text.uip_ds6_link_neighbor_callback
                0x000000000000b244       0x20 /usr/lib/gcc/i686-linux-gnu/4.8/../../../i386-linux-gnu/crti.o
 .rel.text.uip_ds6_neighbor_periodic
                0x000000000000b264       0xb8 /usr/lib/gcc/i686-linux-gnu/4.8/../../../i386-linux-gnu/crti.o
 .rel.text.uip_ds6_nbr_refresh_reachable_state
                0x000000000000b31c       0x10 /usr/lib/gcc/i686-linux-gnu/4.8/../../../i386-linux-gnu/crti.o
 .rel.text.uip_ds6_get_least_lifetime_neighbor
                0x000000000000b32c       0x30 /usr/lib/gcc/i686-linux-gnu/4.8/../../../i386-linux-gnu/crti.o
 .rel.text.call_route_callback
                0x000000000000b35c       0x30 /usr/lib/gcc/i686-linux-gnu/4.8/../../../i386-linux-gnu/crti.o
 .rel.text.uip_ds6_notification_add
                0x000000000000b38c       0x10 /usr/lib/gcc/i686-linux-gnu/4.8/../../../i386-linux-gnu/crti.o
 .rel.text.uip_ds6_notification_rm
                0x000000000000b39c       0x10 /usr/lib/gcc/i686-linux-gnu/4.8/../../../i386-linux-gnu/crti.o
 .rel.text.uip_ds6_route_init
                0x000000000000b3ac       0x68 /usr/lib/gcc/i686-linux-gnu/4.8/../../../i386-linux-gnu/crti.o
 .rel.text.uip_ds6_route_nexthop_lladdr
                0x000000000000b414       0x10 /usr/lib/gcc/i686-linux-gnu/4.8/../../../i386-linux-gnu/crti.o
 .rel.text.uip_ds6_route_nexthop
                0x000000000000b424        0x8 /usr/lib/gcc/i686-linux-gnu/4.8/../../../i386-linux-gnu/crti.o
 .rel.text.uip_ds6_route_head
                0x000000000000b42c       0x10 /usr/lib/gcc/i686-linux-gnu/4.8/../../../i386-linux-gnu/crti.o
 .rel.text.uip_ds6_route_next
                0x000000000000b43c        0x8 /usr/lib/gcc/i686-linux-gnu/4.8/../../../i386-linux-gnu/crti.o
 .rel.text.uip_ds6_route_is_nexthop
                0x000000000000b444       0x18 /usr/lib/gcc/i686-linux-gnu/4.8/../../../i386-linux-gnu/crti.o
 .rel.text.uip_ds6_route_num_routes
                0x000000000000b45c        0x8 /usr/lib/gcc/i686-linux-gnu/4.8/../../../i386-linux-gnu/crti.o
 .rel.text.uip_ds6_route_lookup
                0x000000000000b464       0x48 /usr/lib/gcc/i686-linux-gnu/4.8/../../../i386-linux-gnu/crti.o
 .rel.text.uip_ds6_route_add
                0x000000000000b4ac       0xd0 /usr/lib/gcc/i686-linux-gnu/4.8/../../../i386-linux-gnu/crti.o
 .rel.text.uip_ds6_route_rm
                0x000000000000b57c       0x80 /usr/lib/gcc/i686-linux-gnu/4.8/../../../i386-linux-gnu/crti.o
 .rel.text.rm_routelist
                0x000000000000b5fc       0x28 /usr/lib/gcc/i686-linux-gnu/4.8/../../../i386-linux-gnu/crti.o
 .rel.text.uip_ds6_route_rm_by_nexthop
                0x000000000000b624       0x18 /usr/lib/gcc/i686-linux-gnu/4.8/../../../i386-linux-gnu/crti.o
 .rel.text.uip_ds6_defrt_head
                0x000000000000b63c       0x10 /usr/lib/gcc/i686-linux-gnu/4.8/../../../i386-linux-gnu/crti.o
 .rel.text.uip_ds6_defrt_add
                0x000000000000b64c       0x30 /usr/lib/gcc/i686-linux-gnu/4.8/../../../i386-linux-gnu/crti.o
 .rel.text.uip_ds6_defrt_rm
                0x000000000000b67c       0x38 /usr/lib/gcc/i686-linux-gnu/4.8/../../../i386-linux-gnu/crti.o
 .rel.text.uip_ds6_defrt_lookup
                0x000000000000b6b4       0x20 /usr/lib/gcc/i686-linux-gnu/4.8/../../../i386-linux-gnu/crti.o
 .rel.text.uip_ds6_defrt_choose
                0x000000000000b6d4       0x20 /usr/lib/gcc/i686-linux-gnu/4.8/../../../i386-linux-gnu/crti.o
 .rel.text.uip_ds6_defrt_periodic
                0x000000000000b6f4       0x38 /usr/lib/gcc/i686-linux-gnu/4.8/../../../i386-linux-gnu/crti.o
 .rel.text.uip_ds6_init
                0x000000000000b72c      0x180 /usr/lib/gcc/i686-linux-gnu/4.8/../../../i386-linux-gnu/crti.o
 .rel.text.uip_ds6_periodic
                0x000000000000b8ac       0x80 /usr/lib/gcc/i686-linux-gnu/4.8/../../../i386-linux-gnu/crti.o
 .rel.text.uip_ds6_list_loop
                0x000000000000b92c        0x8 /usr/lib/gcc/i686-linux-gnu/4.8/../../../i386-linux-gnu/crti.o
 .rel.text.uip_ds6_prefix_add
                0x000000000000b934       0x58 /usr/lib/gcc/i686-linux-gnu/4.8/../../../i386-linux-gnu/crti.o
 .rel.text.uip_ds6_prefix_lookup
                0x000000000000b98c       0x20 /usr/lib/gcc/i686-linux-gnu/4.8/../../../i386-linux-gnu/crti.o
 .rel.text.uip_ds6_is_addr_onlink
                0x000000000000b9ac       0x50 /usr/lib/gcc/i686-linux-gnu/4.8/../../../i386-linux-gnu/crti.o
 .rel.text.uip_ds6_addr_add
                0x000000000000b9fc       0xc8 /usr/lib/gcc/i686-linux-gnu/4.8/../../../i386-linux-gnu/crti.o
 .rel.text.uip_ds6_addr_rm
                0x000000000000bac4       0x88 /usr/lib/gcc/i686-linux-gnu/4.8/../../../i386-linux-gnu/crti.o
 .rel.text.uip_ds6_addr_lookup
                0x000000000000bb4c       0x20 /usr/lib/gcc/i686-linux-gnu/4.8/../../../i386-linux-gnu/crti.o
 .rel.text.uip_ds6_get_link_local
                0x000000000000bb6c       0x58 /usr/lib/gcc/i686-linux-gnu/4.8/../../../i386-linux-gnu/crti.o
 .rel.text.uip_ds6_get_global
                0x000000000000bbc4       0x58 /usr/lib/gcc/i686-linux-gnu/4.8/../../../i386-linux-gnu/crti.o
 .rel.text.uip_ds6_maddr_add
                0x000000000000bc1c       0x30 /usr/lib/gcc/i686-linux-gnu/4.8/../../../i386-linux-gnu/crti.o
 .rel.text.uip_ds6_maddr_lookup
                0x000000000000bc4c       0x20 /usr/lib/gcc/i686-linux-gnu/4.8/../../../i386-linux-gnu/crti.o
 .rel.text.uip_ds6_aaddr_add
                0x000000000000bc6c       0x30 /usr/lib/gcc/i686-linux-gnu/4.8/../../../i386-linux-gnu/crti.o
 .rel.text.uip_ds6_aaddr_lookup
                0x000000000000bc9c       0x20 /usr/lib/gcc/i686-linux-gnu/4.8/../../../i386-linux-gnu/crti.o
 .rel.text.uip_ds6_select_src
                0x000000000000bcbc       0x70 /usr/lib/gcc/i686-linux-gnu/4.8/../../../i386-linux-gnu/crti.o
 .rel.text.uip_ds6_set_addr_iid
                0x000000000000bd2c        0x8 /usr/lib/gcc/i686-linux-gnu/4.8/../../../i386-linux-gnu/crti.o
 .rel.text.uip_ds6_compute_reachable_time
                0x000000000000bd34       0x30 /usr/lib/gcc/i686-linux-gnu/4.8/../../../i386-linux-gnu/crti.o
 .rel.text.extract_lladdr_from_llao_aligned
                0x000000000000bd64       0x18 /usr/lib/gcc/i686-linux-gnu/4.8/../../../i386-linux-gnu/crti.o
 .rel.text.create_llao
                0x000000000000bd7c       0x18 /usr/lib/gcc/i686-linux-gnu/4.8/../../../i386-linux-gnu/crti.o
 .rel.text.ns_input
                0x000000000000bd94      0x388 /usr/lib/gcc/i686-linux-gnu/4.8/../../../i386-linux-gnu/crti.o
 .rel.text.uip_nd6_ns_output
                0x000000000000c11c      0x1e8 /usr/lib/gcc/i686-linux-gnu/4.8/../../../i386-linux-gnu/crti.o
 .rel.text.na_input
                0x000000000000c304      0x280 /usr/lib/gcc/i686-linux-gnu/4.8/../../../i386-linux-gnu/crti.o
 .rel.text.uip_nd6_init
                0x000000000000c584       0x20 /usr/lib/gcc/i686-linux-gnu/4.8/../../../i386-linux-gnu/crti.o
 .rel.text.uip_add32
                0x000000000000c5a4       0x98 /usr/lib/gcc/i686-linux-gnu/4.8/../../../i386-linux-gnu/crti.o
 .rel.text.uip_chksum
                0x000000000000c63c        0x8 /usr/lib/gcc/i686-linux-gnu/4.8/../../../i386-linux-gnu/crti.o
 .rel.text.upper_layer_chksum
                0x000000000000c644       0x38 /usr/lib/gcc/i686-linux-gnu/4.8/../../../i386-linux-gnu/crti.o
 .rel.text.uip_init
                0x000000000000c67c       0x38 /usr/lib/gcc/i686-linux-gnu/4.8/../../../i386-linux-gnu/crti.o
 .rel.text.uip_connect
                0x000000000000c6b4       0x70 /usr/lib/gcc/i686-linux-gnu/4.8/../../../i386-linux-gnu/crti.o
 .rel.text.remove_ext_hdr
                0x000000000000c724       0x98 /usr/lib/gcc/i686-linux-gnu/4.8/../../../i386-linux-gnu/crti.o
 .rel.text.uip_udp_new
                0x000000000000c7bc       0x68 /usr/lib/gcc/i686-linux-gnu/4.8/../../../i386-linux-gnu/crti.o
 .rel.text.uip_unlisten
                0x000000000000c824       0x10 /usr/lib/gcc/i686-linux-gnu/4.8/../../../i386-linux-gnu/crti.o
 .rel.text.uip_listen
                0x000000000000c834       0x10 /usr/lib/gcc/i686-linux-gnu/4.8/../../../i386-linux-gnu/crti.o
 .rel.text.uip_add_rcv_nxt
                0x000000000000c844       0x50 /usr/lib/gcc/i686-linux-gnu/4.8/../../../i386-linux-gnu/crti.o
 .rel.text.ext_hdr_options_process
                0x000000000000c894      0x108 /usr/lib/gcc/i686-linux-gnu/4.8/../../../i386-linux-gnu/crti.o
 .rel.text.uip_process
                0x000000000000c99c      0xf70 /usr/lib/gcc/i686-linux-gnu/4.8/../../../i386-linux-gnu/crti.o
 .rel.text.uip_send
                0x000000000000d90c       0x60 /usr/lib/gcc/i686-linux-gnu/4.8/../../../i386-linux-gnu/crti.o
 .rel.text.dns_name_isequal
                0x000000000000d96c       0x10 /usr/lib/gcc/i686-linux-gnu/4.8/../../../i386-linux-gnu/crti.o
 .rel.text.mdns_announce_requested
                0x000000000000d97c        0x8 /usr/lib/gcc/i686-linux-gnu/4.8/../../../i386-linux-gnu/crti.o
 .rel.text.start_name_collision_check
                0x000000000000d984       0x20 /usr/lib/gcc/i686-linux-gnu/4.8/../../../i386-linux-gnu/crti.o
 .rel.text.mdns_write_announce_records
                0x000000000000d9a4       0x28 /usr/lib/gcc/i686-linux-gnu/4.8/../../../i386-linux-gnu/crti.o
 .rel.text.mdns_prep_host_announce_packet
                0x000000000000d9cc       0x50 /usr/lib/gcc/i686-linux-gnu/4.8/../../../i386-linux-gnu/crti.o
 .rel.text.try_next_server
                0x000000000000da1c        0x8 /usr/lib/gcc/i686-linux-gnu/4.8/../../../i386-linux-gnu/crti.o
 .rel.text.check_entries
                0x000000000000da24       0xc0 /usr/lib/gcc/i686-linux-gnu/4.8/../../../i386-linux-gnu/crti.o
 .rel.text.newdata
                0x000000000000dae4      0x180 /usr/lib/gcc/i686-linux-gnu/4.8/../../../i386-linux-gnu/crti.o
 .rel.text.resolv_set_hostname
                0x000000000000dc64       0x88 /usr/lib/gcc/i686-linux-gnu/4.8/../../../i386-linux-gnu/crti.o
 .rel.text.resolv_get_hostname
                0x000000000000dcec        0x8 /usr/lib/gcc/i686-linux-gnu/4.8/../../../i386-linux-gnu/crti.o
 .rel.text.process_thread_mdns_probe_process
                0x000000000000dcf4       0x98 /usr/lib/gcc/i686-linux-gnu/4.8/../../../i386-linux-gnu/crti.o
 .rel.text.process_thread_resolv_process
                0x000000000000dd8c      0x130 /usr/lib/gcc/i686-linux-gnu/4.8/../../../i386-linux-gnu/crti.o
 .rel.text.remove_trailing_dots
                0x000000000000debc       0x30 /usr/lib/gcc/i686-linux-gnu/4.8/../../../i386-linux-gnu/crti.o
 .rel.text.resolv_query
                0x000000000000deec       0xb8 /usr/lib/gcc/i686-linux-gnu/4.8/../../../i386-linux-gnu/crti.o
 .rel.text.resolv_lookup
                0x000000000000dfa4       0x20 /usr/lib/gcc/i686-linux-gnu/4.8/../../../i386-linux-gnu/crti.o
 .rel.text.resolv_found
                0x000000000000dfc4       0xd8 /usr/lib/gcc/i686-linux-gnu/4.8/../../../i386-linux-gnu/crti.o
 .rel.text.tcpip_output
                0x000000000000e09c       0x10 /usr/lib/gcc/i686-linux-gnu/4.8/../../../i386-linux-gnu/crti.o
 .rel.text.tcpip_set_outputfunc
                0x000000000000e0ac        0x8 /usr/lib/gcc/i686-linux-gnu/4.8/../../../i386-linux-gnu/crti.o
 .rel.text.start_periodic_tcp_timer
                0x000000000000e0b4       0x20 /usr/lib/gcc/i686-linux-gnu/4.8/../../../i386-linux-gnu/crti.o
 .rel.text.check_for_tcp_syn
                0x000000000000e0d4       0x10 /usr/lib/gcc/i686-linux-gnu/4.8/../../../i386-linux-gnu/crti.o
 .rel.text.packet_input
                0x000000000000e0e4       0x98 /usr/lib/gcc/i686-linux-gnu/4.8/../../../i386-linux-gnu/crti.o
 .rel.text.tcp_connect
                0x000000000000e17c       0x18 /usr/lib/gcc/i686-linux-gnu/4.8/../../../i386-linux-gnu/crti.o
 .rel.text.tcp_unlisten
                0x000000000000e194       0x18 /usr/lib/gcc/i686-linux-gnu/4.8/../../../i386-linux-gnu/crti.o
 .rel.text.tcp_listen
                0x000000000000e1ac       0x18 /usr/lib/gcc/i686-linux-gnu/4.8/../../../i386-linux-gnu/crti.o
 .rel.text.tcp_attach
                0x000000000000e1c4        0x8 /usr/lib/gcc/i686-linux-gnu/4.8/../../../i386-linux-gnu/crti.o
 .rel.text.udp_attach
                0x000000000000e1cc        0x8 /usr/lib/gcc/i686-linux-gnu/4.8/../../../i386-linux-gnu/crti.o
 .rel.text.udp_new
                0x000000000000e1d4       0x10 /usr/lib/gcc/i686-linux-gnu/4.8/../../../i386-linux-gnu/crti.o
 .rel.text.udp_broadcast_new
                0x000000000000e1e4       0x10 /usr/lib/gcc/i686-linux-gnu/4.8/../../../i386-linux-gnu/crti.o
 .rel.text.eventhandler
                0x000000000000e1f4       0xd8 /usr/lib/gcc/i686-linux-gnu/4.8/../../../i386-linux-gnu/crti.o
 .rel.text.tcpip_input
                0x000000000000e2cc       0x20 /usr/lib/gcc/i686-linux-gnu/4.8/../../../i386-linux-gnu/crti.o
 .rel.text.tcpip_ipv6_output
                0x000000000000e2ec      0x290 /usr/lib/gcc/i686-linux-gnu/4.8/../../../i386-linux-gnu/crti.o
 .rel.text.tcpip_poll_udp
                0x000000000000e57c       0x10 /usr/lib/gcc/i686-linux-gnu/4.8/../../../i386-linux-gnu/crti.o
 .rel.text.tcpip_poll_tcp
                0x000000000000e58c       0x10 /usr/lib/gcc/i686-linux-gnu/4.8/../../../i386-linux-gnu/crti.o
 .rel.text.tcpip_uipcall
                0x000000000000e59c       0x40 /usr/lib/gcc/i686-linux-gnu/4.8/../../../i386-linux-gnu/crti.o
 .rel.text.process_thread_tcpip_process
                0x000000000000e5dc       0x48 /usr/lib/gcc/i686-linux-gnu/4.8/../../../i386-linux-gnu/crti.o
 .rel.text.uip_debug_ipaddr_print
                0x000000000000e624       0x50 /usr/lib/gcc/i686-linux-gnu/4.8/../../../i386-linux-gnu/crti.o
 .rel.text.uip_nameserver_update
                0x000000000000e674       0x28 /usr/lib/gcc/i686-linux-gnu/4.8/../../../i386-linux-gnu/crti.o
 .rel.text.uip_nameserver_get
                0x000000000000e69c        0x8 /usr/lib/gcc/i686-linux-gnu/4.8/../../../i386-linux-gnu/crti.o
 .rel.text.uip_nameserver_next_expiration
                0x000000000000e6a4        0x8 /usr/lib/gcc/i686-linux-gnu/4.8/../../../i386-linux-gnu/crti.o
 .rel.text.uip_nameserver_count
                0x000000000000e6ac       0x40 /usr/lib/gcc/i686-linux-gnu/4.8/../../../i386-linux-gnu/crti.o
 .rel.text.packet_timedout
                0x000000000000e6ec       0x10 /usr/lib/gcc/i686-linux-gnu/4.8/../../../i386-linux-gnu/crti.o
 .rel.text.uip_packetqueue_alloc
                0x000000000000e6fc       0x20 /usr/lib/gcc/i686-linux-gnu/4.8/../../../i386-linux-gnu/crti.o
 .rel.text.uip_packetqueue_free
                0x000000000000e71c       0x18 /usr/lib/gcc/i686-linux-gnu/4.8/../../../i386-linux-gnu/crti.o
 .rel.text.uip_udp_packet_send
                0x000000000000e734       0x38 /usr/lib/gcc/i686-linux-gnu/4.8/../../../i386-linux-gnu/crti.o
 .rel.text.uip_udp_packet_sendto
                0x000000000000e76c       0x10 /usr/lib/gcc/i686-linux-gnu/4.8/../../../i386-linux-gnu/crti.o
 .rel.text.uiplib_ip6addrconv
                0x000000000000e77c       0x10 /usr/lib/gcc/i686-linux-gnu/4.8/../../../i386-linux-gnu/crti.o
 .rel.text.rpl_print_neighbor_list
                0x000000000000e78c       0xc8 /usr/lib/gcc/i686-linux-gnu/4.8/../../../i386-linux-gnu/crti.o
 .rel.text.rpl_get_nbr
                0x000000000000e854       0x18 /usr/lib/gcc/i686-linux-gnu/4.8/../../../i386-linux-gnu/crti.o
 .rel.text.nbr_callback
                0x000000000000e86c        0x8 /usr/lib/gcc/i686-linux-gnu/4.8/../../../i386-linux-gnu/crti.o
 .rel.text.rpl_dag_init
                0x000000000000e874       0x18 /usr/lib/gcc/i686-linux-gnu/4.8/../../../i386-linux-gnu/crti.o
 .rel.text.rpl_get_parent
                0x000000000000e88c       0x10 /usr/lib/gcc/i686-linux-gnu/4.8/../../../i386-linux-gnu/crti.o
 .rel.text.rpl_get_parent_rank
                0x000000000000e89c       0x10 /usr/lib/gcc/i686-linux-gnu/4.8/../../../i386-linux-gnu/crti.o
 .rel.text.rpl_get_parent_lladdr
                0x000000000000e8ac       0x10 /usr/lib/gcc/i686-linux-gnu/4.8/../../../i386-linux-gnu/crti.o
 .rel.text.rpl_get_parent_ipaddr
                0x000000000000e8bc       0x10 /usr/lib/gcc/i686-linux-gnu/4.8/../../../i386-linux-gnu/crti.o
 .rel.text.rpl_get_parent_link_stats
                0x000000000000e8cc       0x10 /usr/lib/gcc/i686-linux-gnu/4.8/../../../i386-linux-gnu/crti.o
 .rel.text.rpl_parent_is_fresh
                0x000000000000e8dc       0x10 /usr/lib/gcc/i686-linux-gnu/4.8/../../../i386-linux-gnu/crti.o
 .rel.text.rpl_parent_is_reachable
                0x000000000000e8ec       0x10 /usr/lib/gcc/i686-linux-gnu/4.8/../../../i386-linux-gnu/crti.o
 .rel.text.rpl_set_preferred_parent
                0x000000000000e8fc       0x20 /usr/lib/gcc/i686-linux-gnu/4.8/../../../i386-linux-gnu/crti.o
 .rel.text.remove_parents
                0x000000000000e91c       0x28 /usr/lib/gcc/i686-linux-gnu/4.8/../../../i386-linux-gnu/crti.o
 .rel.text.nullify_parents
                0x000000000000e944       0x28 /usr/lib/gcc/i686-linux-gnu/4.8/../../../i386-linux-gnu/crti.o
 .rel.text.get_dag
                0x000000000000e96c       0x10 /usr/lib/gcc/i686-linux-gnu/4.8/../../../i386-linux-gnu/crti.o
 .rel.text.rpl_set_root
                0x000000000000e97c       0x48 /usr/lib/gcc/i686-linux-gnu/4.8/../../../i386-linux-gnu/crti.o
 .rel.text.rpl_repair_root
                0x000000000000e9c4       0x10 /usr/lib/gcc/i686-linux-gnu/4.8/../../../i386-linux-gnu/crti.o
 .rel.text.set_ip_from_prefix
                0x000000000000e9d4       0x20 /usr/lib/gcc/i686-linux-gnu/4.8/../../../i386-linux-gnu/crti.o
 .rel.text.check_prefix
                0x000000000000e9f4       0x30 /usr/lib/gcc/i686-linux-gnu/4.8/../../../i386-linux-gnu/crti.o
 .rel.text.rpl_set_prefix
                0x000000000000ea24       0x20 /usr/lib/gcc/i686-linux-gnu/4.8/../../../i386-linux-gnu/crti.o
 .rel.text.rpl_set_default_route
                0x000000000000ea44       0x10 /usr/lib/gcc/i686-linux-gnu/4.8/../../../i386-linux-gnu/crti.o
 .rel.text.rpl_alloc_instance
                0x000000000000ea54       0x18 /usr/lib/gcc/i686-linux-gnu/4.8/../../../i386-linux-gnu/crti.o
 .rel.text.rpl_alloc_dag
                0x000000000000ea6c       0x18 /usr/lib/gcc/i686-linux-gnu/4.8/../../../i386-linux-gnu/crti.o
 .rel.text.rpl_set_default_instance
                0x000000000000ea84        0x8 /usr/lib/gcc/i686-linux-gnu/4.8/../../../i386-linux-gnu/crti.o
 .rel.text.rpl_get_default_instance
                0x000000000000ea8c        0x8 /usr/lib/gcc/i686-linux-gnu/4.8/../../../i386-linux-gnu/crti.o
 .rel.text.rpl_free_instance
                0x000000000000ea94       0x40 /usr/lib/gcc/i686-linux-gnu/4.8/../../../i386-linux-gnu/crti.o
 .rel.text.rpl_free_dag
                0x000000000000ead4        0x8 /usr/lib/gcc/i686-linux-gnu/4.8/../../../i386-linux-gnu/crti.o
 .rel.text.rpl_add_parent
                0x000000000000eadc       0x18 /usr/lib/gcc/i686-linux-gnu/4.8/../../../i386-linux-gnu/crti.o
 .rel.text.find_parent_any_dag_any_instance
                0x000000000000eaf4       0x20 /usr/lib/gcc/i686-linux-gnu/4.8/../../../i386-linux-gnu/crti.o
 .rel.text.rpl_select_dag
                0x000000000000eb14       0x48 /usr/lib/gcc/i686-linux-gnu/4.8/../../../i386-linux-gnu/crti.o
 .rel.text.best_parent
                0x000000000000eb5c       0x30 /usr/lib/gcc/i686-linux-gnu/4.8/../../../i386-linux-gnu/crti.o
 .rel.text.rpl_select_parent
                0x000000000000eb8c       0x18 /usr/lib/gcc/i686-linux-gnu/4.8/../../../i386-linux-gnu/crti.o
 .rel.text.rpl_remove_parent
                0x000000000000eba4       0x18 /usr/lib/gcc/i686-linux-gnu/4.8/../../../i386-linux-gnu/crti.o
 .rel.text.rpl_nullify_parent
                0x000000000000ebbc       0x10 /usr/lib/gcc/i686-linux-gnu/4.8/../../../i386-linux-gnu/crti.o
 .rel.text.rpl_move_parent
                0x000000000000ebcc       0x18 /usr/lib/gcc/i686-linux-gnu/4.8/../../../i386-linux-gnu/crti.o
 .rel.text.rpl_has_downward_route
                0x000000000000ebe4       0x10 /usr/lib/gcc/i686-linux-gnu/4.8/../../../i386-linux-gnu/crti.o
 .rel.text.rpl_get_dag
                0x000000000000ebf4       0x30 /usr/lib/gcc/i686-linux-gnu/4.8/../../../i386-linux-gnu/crti.o
 .rel.text.rpl_get_any_dag
                0x000000000000ec24       0x18 /usr/lib/gcc/i686-linux-gnu/4.8/../../../i386-linux-gnu/crti.o
 .rel.text.rpl_get_instance
                0x000000000000ec3c       0x18 /usr/lib/gcc/i686-linux-gnu/4.8/../../../i386-linux-gnu/crti.o
 .rel.text.rpl_find_of
                0x000000000000ec54       0x10 /usr/lib/gcc/i686-linux-gnu/4.8/../../../i386-linux-gnu/crti.o
 .rel.text.rpl_join_instance
                0x000000000000ec64       0x58 /usr/lib/gcc/i686-linux-gnu/4.8/../../../i386-linux-gnu/crti.o
 .rel.text.rpl_add_dag
                0x000000000000ecbc       0x50 /usr/lib/gcc/i686-linux-gnu/4.8/../../../i386-linux-gnu/crti.o
 .rel.text.global_repair
                0x000000000000ed0c       0x18 /usr/lib/gcc/i686-linux-gnu/4.8/../../../i386-linux-gnu/crti.o
 .rel.text.rpl_local_repair
                0x000000000000ed24        0x8 /usr/lib/gcc/i686-linux-gnu/4.8/../../../i386-linux-gnu/crti.o
 .rel.text.rpl_recalculate_ranks
                0x000000000000ed2c       0x28 /usr/lib/gcc/i686-linux-gnu/4.8/../../../i386-linux-gnu/crti.o
 .rel.text.rpl_process_parent_event
                0x000000000000ed54       0x40 /usr/lib/gcc/i686-linux-gnu/4.8/../../../i386-linux-gnu/crti.o
 .rel.text.add_nbr_from_dio
                0x000000000000ed94        0x8 /usr/lib/gcc/i686-linux-gnu/4.8/../../../i386-linux-gnu/crti.o
 .rel.text.rpl_process_dio
                0x000000000000ed9c       0x78 /usr/lib/gcc/i686-linux-gnu/4.8/../../../i386-linux-gnu/crti.o
 .rel.text.rpl_verify_hbh_header
                0x000000000000ee14      0x108 /usr/lib/gcc/i686-linux-gnu/4.8/../../../i386-linux-gnu/crti.o
 .rel.text.update_hbh_header
                0x000000000000ef1c      0x138 /usr/lib/gcc/i686-linux-gnu/4.8/../../../i386-linux-gnu/crti.o
 .rel.text.insert_hbh_header
                0x000000000000f054      0x128 /usr/lib/gcc/i686-linux-gnu/4.8/../../../i386-linux-gnu/crti.o
 .rel.text.rpl_remove_header
                0x000000000000f17c       0xc8 /usr/lib/gcc/i686-linux-gnu/4.8/../../../i386-linux-gnu/crti.o
 .rel.text.rpl_update_header
                0x000000000000f244       0x80 /usr/lib/gcc/i686-linux-gnu/4.8/../../../i386-linux-gnu/crti.o
 .rel.text.prepare_for_dao_fwd
                0x000000000000f2c4       0x38 /usr/lib/gcc/i686-linux-gnu/4.8/../../../i386-linux-gnu/crti.o
 .rel.text.get_global_addr
                0x000000000000f2fc       0x30 /usr/lib/gcc/i686-linux-gnu/4.8/../../../i386-linux-gnu/crti.o
 .rel.text.rpl_icmp6_update_nbr_table
                0x000000000000f32c       0x10 /usr/lib/gcc/i686-linux-gnu/4.8/../../../i386-linux-gnu/crti.o
 .rel.text.dis_input
                0x000000000000f33c       0x48 /usr/lib/gcc/i686-linux-gnu/4.8/../../../i386-linux-gnu/crti.o
 .rel.text.dis_output
                0x000000000000f384       0x20 /usr/lib/gcc/i686-linux-gnu/4.8/../../../i386-linux-gnu/crti.o
 .rel.text.dio_input
                0x000000000000f3a4       0x58 /usr/lib/gcc/i686-linux-gnu/4.8/../../../i386-linux-gnu/crti.o
 .rel.text.dio_output
                0x000000000000f3fc       0x40 /usr/lib/gcc/i686-linux-gnu/4.8/../../../i386-linux-gnu/crti.o
 .rel.text.dao_input_storing
                0x000000000000f43c      0x120 /usr/lib/gcc/i686-linux-gnu/4.8/../../../i386-linux-gnu/crti.o
 .rel.text.dao_input
                0x000000000000f55c       0x28 /usr/lib/gcc/i686-linux-gnu/4.8/../../../i386-linux-gnu/crti.o
 .rel.text.dao_output
                0x000000000000f584       0x38 /usr/lib/gcc/i686-linux-gnu/4.8/../../../i386-linux-gnu/crti.o
 .rel.text.dao_output_target
                0x000000000000f5bc        0x8 /usr/lib/gcc/i686-linux-gnu/4.8/../../../i386-linux-gnu/crti.o
 .rel.text.dao_output_target_seq
                0x000000000000f5c4       0x48 /usr/lib/gcc/i686-linux-gnu/4.8/../../../i386-linux-gnu/crti.o
 .rel.text.dao_ack_input
                0x000000000000f60c       0x10 /usr/lib/gcc/i686-linux-gnu/4.8/../../../i386-linux-gnu/crti.o
 .rel.text.rpl_icmp6_register_handlers
                0x000000000000f61c       0x40 /usr/lib/gcc/i686-linux-gnu/4.8/../../../i386-linux-gnu/crti.o
 .rel.text.parent_link_metric
                0x000000000000f65c        0x8 /usr/lib/gcc/i686-linux-gnu/4.8/../../../i386-linux-gnu/crti.o
 .rel.text.handle_periodic_timer
                0x000000000000f664       0x68 /usr/lib/gcc/i686-linux-gnu/4.8/../../../i386-linux-gnu/crti.o
 .rel.text.new_dio_interval
                0x000000000000f6cc       0x18 /usr/lib/gcc/i686-linux-gnu/4.8/../../../i386-linux-gnu/crti.o
 .rel.text.handle_dio_timer
                0x000000000000f6e4       0x40 /usr/lib/gcc/i686-linux-gnu/4.8/../../../i386-linux-gnu/crti.o
 .rel.text.rpl_reset_periodic_timer
                0x000000000000f724       0x28 /usr/lib/gcc/i686-linux-gnu/4.8/../../../i386-linux-gnu/crti.o
 .rel.text.set_dao_lifetime_timer
                0x000000000000f74c       0x20 /usr/lib/gcc/i686-linux-gnu/4.8/../../../i386-linux-gnu/crti.o
 .rel.text.handle_dao_timer
                0x000000000000f76c       0x38 /usr/lib/gcc/i686-linux-gnu/4.8/../../../i386-linux-gnu/crti.o
 .rel.text.schedule_dao
                0x000000000000f7a4       0x30 /usr/lib/gcc/i686-linux-gnu/4.8/../../../i386-linux-gnu/crti.o
 .rel.text.rpl_cancel_dao
                0x000000000000f7d4       0x10 /usr/lib/gcc/i686-linux-gnu/4.8/../../../i386-linux-gnu/crti.o
 .rel.text.handle_unicast_dio_timer
                0x000000000000f7e4       0x10 /usr/lib/gcc/i686-linux-gnu/4.8/../../../i386-linux-gnu/crti.o
 .rel.text.rpl_schedule_unicast_dio_immediately
                0x000000000000f7f4       0x10 /usr/lib/gcc/i686-linux-gnu/4.8/../../../i386-linux-gnu/crti.o
 .rel.text.get_probing_delay
                0x000000000000f804       0x10 /usr/lib/gcc/i686-linux-gnu/4.8/../../../i386-linux-gnu/crti.o
 .rel.text.get_probing_target
                0x000000000000f814       0x70 /usr/lib/gcc/i686-linux-gnu/4.8/../../../i386-linux-gnu/crti.o
 .rel.text.handle_probing_timer
                0x000000000000f884       0x28 /usr/lib/gcc/i686-linux-gnu/4.8/../../../i386-linux-gnu/crti.o
 .rel.text.rpl_schedule_probing
                0x000000000000f8ac       0x18 /usr/lib/gcc/i686-linux-gnu/4.8/../../../i386-linux-gnu/crti.o
 .rel.text.rpl_get_mode
                0x000000000000f8c4        0x8 /usr/lib/gcc/i686-linux-gnu/4.8/../../../i386-linux-gnu/crti.o
 .rel.text.rpl_set_mode
                0x000000000000f8cc       0x68 /usr/lib/gcc/i686-linux-gnu/4.8/../../../i386-linux-gnu/crti.o
 .rel.text.rpl_purge_routes
                0x000000000000f934       0x50 /usr/lib/gcc/i686-linux-gnu/4.8/../../../i386-linux-gnu/crti.o
 .rel.text.rpl_remove_routes
                0x000000000000f984       0x20 /usr/lib/gcc/i686-linux-gnu/4.8/../../../i386-linux-gnu/crti.o
 .rel.text.rpl_remove_routes_by_nexthop
                0x000000000000f9a4       0x20 /usr/lib/gcc/i686-linux-gnu/4.8/../../../i386-linux-gnu/crti.o
 .rel.text.rpl_add_route
                0x000000000000f9c4        0x8 /usr/lib/gcc/i686-linux-gnu/4.8/../../../i386-linux-gnu/crti.o
 .rel.text.rpl_link_neighbor_callback
                0x000000000000f9cc       0x20 /usr/lib/gcc/i686-linux-gnu/4.8/../../../i386-linux-gnu/crti.o
 .rel.text.rpl_ipv6_neighbor_callback
                0x000000000000f9ec       0x10 /usr/lib/gcc/i686-linux-gnu/4.8/../../../i386-linux-gnu/crti.o
 .rel.text.rpl_purge_dags
                0x000000000000f9fc       0x10 /usr/lib/gcc/i686-linux-gnu/4.8/../../../i386-linux-gnu/crti.o
 .rel.text.rpl_init
                0x000000000000fa0c       0x30 /usr/lib/gcc/i686-linux-gnu/4.8/../../../i386-linux-gnu/crti.o
 .rel.text.link_stats_from_lladdr
                0x000000000000fa3c       0x10 /usr/lib/gcc/i686-linux-gnu/4.8/../../../i386-linux-gnu/crti.o
 .rel.text.link_stats_is_fresh
                0x000000000000fa4c        0x8 /usr/lib/gcc/i686-linux-gnu/4.8/../../../i386-linux-gnu/crti.o
 .rel.text.link_stats_packet_sent
                0x000000000000fa54       0x30 /usr/lib/gcc/i686-linux-gnu/4.8/../../../i386-linux-gnu/crti.o
 .rel.text.link_stats_input_callback
                0x000000000000fa84       0x20 /usr/lib/gcc/i686-linux-gnu/4.8/../../../i386-linux-gnu/crti.o
 .rel.text.periodic
                0x000000000000faa4       0x30 /usr/lib/gcc/i686-linux-gnu/4.8/../../../i386-linux-gnu/crti.o
 .rel.text.link_stats_init
                0x000000000000fad4       0x28 /usr/lib/gcc/i686-linux-gnu/4.8/../../../i386-linux-gnu/crti.o
 .rel.text.linkaddr_copy
                0x000000000000fafc        0x8 /usr/lib/gcc/i686-linux-gnu/4.8/../../../i386-linux-gnu/crti.o
 .rel.text.linkaddr_cmp
                0x000000000000fb04        0x8 /usr/lib/gcc/i686-linux-gnu/4.8/../../../i386-linux-gnu/crti.o
 .rel.text.linkaddr_set_node_addr
                0x000000000000fb0c       0x10 /usr/lib/gcc/i686-linux-gnu/4.8/../../../i386-linux-gnu/crti.o
 .rel.text.key_from_index
                0x000000000000fb1c        0x8 /usr/lib/gcc/i686-linux-gnu/4.8/../../../i386-linux-gnu/crti.o
 .rel.text.index_from_key
                0x000000000000fb24        0x8 /usr/lib/gcc/i686-linux-gnu/4.8/../../../i386-linux-gnu/crti.o
 .rel.text.index_from_lladdr
                0x000000000000fb2c       0x28 /usr/lib/gcc/i686-linux-gnu/4.8/../../../i386-linux-gnu/crti.o
 .rel.text.remove_key
                0x000000000000fb54       0x48 /usr/lib/gcc/i686-linux-gnu/4.8/../../../i386-linux-gnu/crti.o
 .rel.text.nbr_table_allocate
                0x000000000000fb9c       0x50 /usr/lib/gcc/i686-linux-gnu/4.8/../../../i386-linux-gnu/crti.o
 .rel.text.nbr_table_register
                0x000000000000fbec       0x20 /usr/lib/gcc/i686-linux-gnu/4.8/../../../i386-linux-gnu/crti.o
 .rel.text.nbr_table_head
                0x000000000000fc0c       0x20 /usr/lib/gcc/i686-linux-gnu/4.8/../../../i386-linux-gnu/crti.o
 .rel.text.nbr_table_next
                0x000000000000fc2c       0x10 /usr/lib/gcc/i686-linux-gnu/4.8/../../../i386-linux-gnu/crti.o
 .rel.text.nbr_table_add_lladdr
                0x000000000000fc3c       0x30 /usr/lib/gcc/i686-linux-gnu/4.8/../../../i386-linux-gnu/crti.o
 .rel.text.nbr_table_get_from_lladdr
                0x000000000000fc6c        0x8 /usr/lib/gcc/i686-linux-gnu/4.8/../../../i386-linux-gnu/crti.o
 .rel.text.nbr_table_remove
                0x000000000000fc74       0x10 /usr/lib/gcc/i686-linux-gnu/4.8/../../../i386-linux-gnu/crti.o
 .rel.text.nbr_table_lock
                0x000000000000fc84        0x8 /usr/lib/gcc/i686-linux-gnu/4.8/../../../i386-linux-gnu/crti.o
 .rel.text.nbr_table_unlock
                0x000000000000fc8c        0x8 /usr/lib/gcc/i686-linux-gnu/4.8/../../../i386-linux-gnu/crti.o
 .rel.text.nbr_table_update_lladdr
                0x000000000000fc94        0x8 /usr/lib/gcc/i686-linux-gnu/4.8/../../../i386-linux-gnu/crti.o
 .rel.text.netstack_init
                0x000000000000fc9c       0x28 /usr/lib/gcc/i686-linux-gnu/4.8/../../../i386-linux-gnu/crti.o
 .rel.text.packetbuf_clear
                0x000000000000fcc4       0x28 /usr/lib/gcc/i686-linux-gnu/4.8/../../../i386-linux-gnu/crti.o
 .rel.text.packetbuf_copyfrom
                0x000000000000fcec       0x20 /usr/lib/gcc/i686-linux-gnu/4.8/../../../i386-linux-gnu/crti.o
 .rel.text.packetbuf_compact
                0x000000000000fd0c       0x38 /usr/lib/gcc/i686-linux-gnu/4.8/../../../i386-linux-gnu/crti.o
 .rel.text.packetbuf_copyto
                0x000000000000fd44       0x58 /usr/lib/gcc/i686-linux-gnu/4.8/../../../i386-linux-gnu/crti.o
 .rel.text.packetbuf_hdralloc
                0x000000000000fd9c       0x30 /usr/lib/gcc/i686-linux-gnu/4.8/../../../i386-linux-gnu/crti.o
 .rel.text.packetbuf_hdrreduce
                0x000000000000fdcc       0x28 /usr/lib/gcc/i686-linux-gnu/4.8/../../../i386-linux-gnu/crti.o
 .rel.text.packetbuf_set_datalen
                0x000000000000fdf4        0x8 /usr/lib/gcc/i686-linux-gnu/4.8/../../../i386-linux-gnu/crti.o
 .rel.text.packetbuf_dataptr
                0x000000000000fdfc       0x10 /usr/lib/gcc/i686-linux-gnu/4.8/../../../i386-linux-gnu/crti.o
 .rel.text.packetbuf_hdrptr
                0x000000000000fe0c        0x8 /usr/lib/gcc/i686-linux-gnu/4.8/../../../i386-linux-gnu/crti.o
 .rel.text.packetbuf_datalen
                0x000000000000fe14        0x8 /usr/lib/gcc/i686-linux-gnu/4.8/../../../i386-linux-gnu/crti.o
 .rel.text.packetbuf_hdrlen
                0x000000000000fe1c       0x10 /usr/lib/gcc/i686-linux-gnu/4.8/../../../i386-linux-gnu/crti.o
 .rel.text.packetbuf_totlen
                0x000000000000fe2c       0x10 /usr/lib/gcc/i686-linux-gnu/4.8/../../../i386-linux-gnu/crti.o
 .rel.text.packetbuf_remaininglen
                0x000000000000fe3c        0x8 /usr/lib/gcc/i686-linux-gnu/4.8/../../../i386-linux-gnu/crti.o
 .rel.text.packetbuf_attr_clear
                0x000000000000fe44       0x28 /usr/lib/gcc/i686-linux-gnu/4.8/../../../i386-linux-gnu/crti.o
 .rel.text.packetbuf_attr_copyto
                0x000000000000fe6c       0x30 /usr/lib/gcc/i686-linux-gnu/4.8/../../../i386-linux-gnu/crti.o
 .rel.text.packetbuf_attr_copyfrom
                0x000000000000fe9c       0x30 /usr/lib/gcc/i686-linux-gnu/4.8/../../../i386-linux-gnu/crti.o
 .rel.text.packetbuf_holds_broadcast
                0x000000000000fecc       0x18 /usr/lib/gcc/i686-linux-gnu/4.8/../../../i386-linux-gnu/crti.o
 .rel.text.queuebuf_init
                0x000000000000fee4       0x20 /usr/lib/gcc/i686-linux-gnu/4.8/../../../i386-linux-gnu/crti.o
 .rel.text.queuebuf_numfree
                0x000000000000ff04       0x10 /usr/lib/gcc/i686-linux-gnu/4.8/../../../i386-linux-gnu/crti.o
 .rel.text.queuebuf_new_from_packetbuf
                0x000000000000ff14       0x40 /usr/lib/gcc/i686-linux-gnu/4.8/../../../i386-linux-gnu/crti.o
 .rel.text.queuebuf_update_attr_from_packetbuf
                0x000000000000ff54        0x8 /usr/lib/gcc/i686-linux-gnu/4.8/../../../i386-linux-gnu/crti.o
 .rel.text.queuebuf_update_from_packetbuf
                0x000000000000ff5c       0x10 /usr/lib/gcc/i686-linux-gnu/4.8/../../../i386-linux-gnu/crti.o
 .rel.text.queuebuf_free
                0x000000000000ff6c       0x30 /usr/lib/gcc/i686-linux-gnu/4.8/../../../i386-linux-gnu/crti.o
 .rel.text.queuebuf_to_packetbuf
                0x000000000000ff9c       0x20 /usr/lib/gcc/i686-linux-gnu/4.8/../../../i386-linux-gnu/crti.o
 .rel.text.queuebuf_dataptr
                0x000000000000ffbc       0x10 /usr/lib/gcc/i686-linux-gnu/4.8/../../../i386-linux-gnu/crti.o
 .rel.text.neighbor_queue_from_addr
                0x000000000000ffcc       0x20 /usr/lib/gcc/i686-linux-gnu/4.8/../../../i386-linux-gnu/crti.o
 .rel.text.backoff_period
                0x000000000000ffec        0x8 /usr/lib/gcc/i686-linux-gnu/4.8/../../../i386-linux-gnu/crti.o
 .rel.text.transmit_packet_list
                0x000000000000fff4       0x18 /usr/lib/gcc/i686-linux-gnu/4.8/../../../i386-linux-gnu/crti.o
 .rel.text.schedule_transmission
                0x000000000001000c       0x18 /usr/lib/gcc/i686-linux-gnu/4.8/../../../i386-linux-gnu/crti.o
 .rel.text.free_packet
                0x0000000000010024       0x60 /usr/lib/gcc/i686-linux-gnu/4.8/../../../i386-linux-gnu/crti.o
 .rel.text.tx_done
                0x0000000000010084        0x8 /usr/lib/gcc/i686-linux-gnu/4.8/../../../i386-linux-gnu/crti.o
 .rel.text.rexmit
                0x000000000001008c        0x8 /usr/lib/gcc/i686-linux-gnu/4.8/../../../i386-linux-gnu/crti.o
 .rel.text.input_packet
                0x0000000000010094        0x8 /usr/lib/gcc/i686-linux-gnu/4.8/../../../i386-linux-gnu/crti.o
 .rel.text.on   0x000000000001009c       0x10 /usr/lib/gcc/i686-linux-gnu/4.8/../../../i386-linux-gnu/crti.o
 .rel.text.off  0x00000000000100ac       0x18 /usr/lib/gcc/i686-linux-gnu/4.8/../../../i386-linux-gnu/crti.o
 .rel.text.channel_check_interval
                0x00000000000100c4       0x10 /usr/lib/gcc/i686-linux-gnu/4.8/../../../i386-linux-gnu/crti.o
 .rel.text.create_frame
                0x00000000000100d4       0xc0 /usr/lib/gcc/i686-linux-gnu/4.8/../../../i386-linux-gnu/crti.o
 .rel.text.parse
                0x0000000000010194       0x38 /usr/lib/gcc/i686-linux-gnu/4.8/../../../i386-linux-gnu/crti.o
 .rel.text.send_one_packet
                0x00000000000101cc       0xd0 /usr/lib/gcc/i686-linux-gnu/4.8/../../../i386-linux-gnu/crti.o
 .rel.text.send_list
                0x000000000001029c        0x8 /usr/lib/gcc/i686-linux-gnu/4.8/../../../i386-linux-gnu/crti.o
 .rel.text.send
                0x00000000000102a4        0x8 /usr/lib/gcc/i686-linux-gnu/4.8/../../../i386-linux-gnu/crti.o
 .rel.text.stimer_set
                0x00000000000102ac        0x8 /usr/lib/gcc/i686-linux-gnu/4.8/../../../i386-linux-gnu/crti.o
 .rel.text.stimer_restart
                0x00000000000102b4        0x8 /usr/lib/gcc/i686-linux-gnu/4.8/../../../i386-linux-gnu/crti.o
 .rel.text.stimer_expired
                0x00000000000102bc        0x8 /usr/lib/gcc/i686-linux-gnu/4.8/../../../i386-linux-gnu/crti.o
 .rel.text.stimer_remaining
                0x00000000000102c4        0x8 /usr/lib/gcc/i686-linux-gnu/4.8/../../../i386-linux-gnu/crti.o
 .rel.text.stimer_elapsed
                0x00000000000102cc        0x8 /usr/lib/gcc/i686-linux-gnu/4.8/../../../i386-linux-gnu/crti.o
 .rel.text.input_handler_lookup
                0x00000000000102d4       0x18 /usr/lib/gcc/i686-linux-gnu/4.8/../../../i386-linux-gnu/crti.o
 .rel.text.uip_icmp6_register_input_handler
                0x00000000000102ec       0x10 /usr/lib/gcc/i686-linux-gnu/4.8/../../../i386-linux-gnu/crti.o
 .rel.text.echo_request_input
                0x00000000000102fc      0x160 /usr/lib/gcc/i686-linux-gnu/4.8/../../../i386-linux-gnu/crti.o
 .rel.text.uip_icmp6_error_output
                0x000000000001045c      0x250 /usr/lib/gcc/i686-linux-gnu/4.8/../../../i386-linux-gnu/crti.o
 .rel.text.uip_icmp6_send
                0x00000000000106ac       0xc0 /usr/lib/gcc/i686-linux-gnu/4.8/../../../i386-linux-gnu/crti.o
 .rel.text.echo_reply_input
                0x000000000001076c       0xd0 /usr/lib/gcc/i686-linux-gnu/4.8/../../../i386-linux-gnu/crti.o
 .rel.text.uip_icmp6_echo_reply_callback_add
                0x000000000001083c       0x10 /usr/lib/gcc/i686-linux-gnu/4.8/../../../i386-linux-gnu/crti.o
 .rel.text.uip_icmp6_echo_reply_callback_rm
                0x000000000001084c       0x10 /usr/lib/gcc/i686-linux-gnu/4.8/../../../i386-linux-gnu/crti.o
 .rel.text.uip_icmp6_init
                0x000000000001085c       0x20 /usr/lib/gcc/i686-linux-gnu/4.8/../../../i386-linux-gnu/crti.o
 .rel.text.update_nbr
                0x000000000001087c       0xe0 /usr/lib/gcc/i686-linux-gnu/4.8/../../../i386-linux-gnu/crti.o
 .rel.text.find_removable_dis
                0x000000000001095c       0x10 /usr/lib/gcc/i686-linux-gnu/4.8/../../../i386-linux-gnu/crti.o
 .rel.text.find_removable_dio
                0x000000000001096c       0x18 /usr/lib/gcc/i686-linux-gnu/4.8/../../../i386-linux-gnu/crti.o
 .rel.text.find_removable_dao
                0x0000000000010984       0x10 /usr/lib/gcc/i686-linux-gnu/4.8/../../../i386-linux-gnu/crti.o
 .rel.text.rpl_nbr_policy_find_removable
                0x0000000000010994       0x30 /usr/lib/gcc/i686-linux-gnu/4.8/../../../i386-linux-gnu/crti.o
 .rel.text.frame802154_get_pan_id
                0x00000000000109c4        0x8 /usr/lib/gcc/i686-linux-gnu/4.8/../../../i386-linux-gnu/crti.o
 .rel.text.frame802154_set_pan_id
                0x00000000000109cc        0x8 /usr/lib/gcc/i686-linux-gnu/4.8/../../../i386-linux-gnu/crti.o
 .rel.text.frame802154_check_dest_panid
                0x00000000000109d4       0x10 /usr/lib/gcc/i686-linux-gnu/4.8/../../../i386-linux-gnu/crti.o
 .rel.text.frame802154_extract_linkaddr
                0x00000000000109e4       0x40 /usr/lib/gcc/i686-linux-gnu/4.8/../../../i386-linux-gnu/crti.o
 .rel.text.field_len
                0x0000000000010a24       0x10 /usr/lib/gcc/i686-linux-gnu/4.8/../../../i386-linux-gnu/crti.o
 .rel.text.frame802154_create
                0x0000000000010a34        0x8 /usr/lib/gcc/i686-linux-gnu/4.8/../../../i386-linux-gnu/crti.o
 .rel.text.frame802154_parse
                0x0000000000010a3c       0x50 /usr/lib/gcc/i686-linux-gnu/4.8/../../../i386-linux-gnu/crti.o
 .rel.text.mac_sequence_is_duplicate
                0x0000000000010a8c       0x28 /usr/lib/gcc/i686-linux-gnu/4.8/../../../i386-linux-gnu/crti.o
 .rel.text.mac_sequence_register_seqno
                0x0000000000010ab4       0x48 /usr/lib/gcc/i686-linux-gnu/4.8/../../../i386-linux-gnu/crti.o
 *(.rel.fini)
 .rel.fini      0x0000000000000000        0x0 /usr/lib/gcc/i686-linux-gnu/4.8/../../../i386-linux-gnu/crti.o
 *(.rel.rodata .rel.rodata.* .rel.gnu.linkonce.r.*)
 .rel.rodata    0x0000000000010afc      0x638 /usr/lib/gcc/i686-linux-gnu/4.8/../../../i386-linux-gnu/crti.o
 *(.rel.data.rel.ro .rel.data.rel.ro.* .rel.gnu.linkonce.d.rel.ro.*)
 *(.rel.data .rel.data.* .rel.gnu.linkonce.d.*)
 .rel.data.rel  0x0000000000011134        0x8 /usr/lib/gcc/i686-linux-gnu/4.8/../../../i386-linux-gnu/crti.o
 .rel.data      0x000000000001113c      0x368 /usr/lib/gcc/i686-linux-gnu/4.8/../../../i386-linux-gnu/crti.o
 *(.rel.tdata .rel.tdata.* .rel.gnu.linkonce.td.*)
 *(.rel.tbss .rel.tbss.* .rel.gnu.linkonce.tb.*)
 *(.rel.ctors)
 *(.rel.dtors)
 *(.rel.got)
 .rel.got       0x00000000000114a4       0x28 /usr/lib/gcc/i686-linux-gnu/4.8/../../../i386-linux-gnu/crti.o
 *(.rel.bss .rel.bss.* .rel.gnu.linkonce.b.*)
 *(.rel.ifunc)
 .rel.ifunc     0x0000000000000000        0x0 /usr/lib/gcc/i686-linux-gnu/4.8/../../../i386-linux-gnu/crti.o
 .rel.fini_array
                0x00000000000114cc        0x8 /usr/lib/gcc/i686-linux-gnu/4.8/../../../i386-linux-gnu/crti.o
 .rel.init_array
                0x00000000000114d4        0x8 /usr/lib/gcc/i686-linux-gnu/4.8/../../../i386-linux-gnu/crti.o

.rel.plt        0x00000000000114dc       0x10
 *(.rel.plt)
 .rel.plt       0x00000000000114dc       0x10 /usr/lib/gcc/i686-linux-gnu/4.8/../../../i386-linux-gnu/crti.o
 *(.rel.iplt)

.init           0x00000000000114ec       0x23
 *(SORT(.init))
 .init          0x00000000000114ec       0x1e /usr/lib/gcc/i686-linux-gnu/4.8/../../../i386-linux-gnu/crti.o
                0x00000000000114ec                _init
 .init          0x000000000001150a        0x5 /usr/lib/gcc/i686-linux-gnu/4.8/../../../i386-linux-gnu/crtn.o

.plt            0x0000000000011510       0x30
 *(.plt)
 .plt           0x0000000000011510       0x30 /usr/lib/gcc/i686-linux-gnu/4.8/../../../i386-linux-gnu/crti.o
 *(.iplt)

.text           0x0000000000011540    0x207b4
 *(.text.unlikely .text.*_unlikely .text.unlikely.*)
 *(.text.exit .text.exit.*)
 *(.text.startup .text.startup.*)
 *(.text.hot .text.hot.*)
 *(.text .stub .text.* .gnu.linkonce.t.*)
 .text          0x0000000000011540        0x0 /usr/lib/gcc/i686-linux-gnu/4.8/../../../i386-linux-gnu/crti.o
 .gnu.linkonce.t.__x86.get_pc_thunk.bx
                0x0000000000011540        0x4 /usr/lib/gcc/i686-linux-gnu/4.8/../../../i386-linux-gnu/crti.o
                0x0000000000011540                __x86.get_pc_thunk.bx
 *fill*         0x0000000000011544        0xc 
 .text          0x0000000000011550      0x11b /usr/lib/gcc/i686-linux-gnu/4.8/crtbeginS.o
 .text          0x000000000001166b        0x0 dtls-client.co
 .text.dtls_alert_create
                0x000000000001166b       0x10 dtls-client.co
 .text.dtls_alert_fatal_create
                0x000000000001167b       0x1b dtls-client.co
 .text.dtls_set_handler
                0x0000000000011696        0xe dtls-client.co
 .text.try_send
                0x00000000000116a4       0x6d dtls-client.co
 .text.read_from_peer
                0x0000000000011711       0x1e dtls-client.co
 .text.timeout_handler
                0x000000000001172f       0x59 dtls-client.co
 .text.send_to_peer
                0x0000000000011788       0xd6 dtls-client.co
 .text.get_psk_info
                0x000000000001185e      0x10f dtls-client.co
 .text.dtls_handle_read
                0x000000000001196d       0xe1 dtls-client.co
 .text.tcpip_handler
                0x0000000000011a4e       0x33 dtls-client.co
 .text.print_local_addresses
                0x0000000000011a81       0x80 dtls-client.co
 .text.set_global_address
                0x0000000000011b01       0x82 dtls-client.co
 .text.set_connection_address
                0x0000000000011b83      0x100 dtls-client.co
 .text.init_dtls
                0x0000000000011c83       0xd7 dtls-client.co
                0x0000000000011c83                init_dtls
 .text.process_thread_udp_client_process
                0x0000000000011d5a      0x2a5 dtls-client.co
 .text          0x0000000000011fff        0x0 obj_cooja/mtype802.o
 .text.print_processes
                0x0000000000011fff       0x47 obj_cooja/mtype802.o
 .text.rtimer_thread_loop
                0x0000000000012046       0x12 obj_cooja/mtype802.o
 .text.set_rime_addr
                0x0000000000012058       0xdd obj_cooja/mtype802.o
 .text.contiki_init
                0x0000000000012135      0x385 obj_cooja/mtype802.o
                0x0000000000012135                contiki_init
 .text.process_run_thread_loop
                0x00000000000124ba       0x6a obj_cooja/mtype802.o
 .text.Java_org_contikios_cooja_corecomm_Lib4_init
                0x0000000000012524       0x40 obj_cooja/mtype802.o
                0x0000000000012524                Java_org_contikios_cooja_corecomm_Lib4_init
 .text.Java_org_contikios_cooja_corecomm_Lib4_getMemory
                0x0000000000012564       0x40 obj_cooja/mtype802.o
                0x0000000000012564                Java_org_contikios_cooja_corecomm_Lib4_getMemory
 .text.Java_org_contikios_cooja_corecomm_Lib4_setMemory
                0x00000000000125a4       0x77 obj_cooja/mtype802.o
                0x00000000000125a4                Java_org_contikios_cooja_corecomm_Lib4_setMemory
 .text.Java_org_contikios_cooja_corecomm_Lib4_tick
                0x000000000001261b       0x5f obj_cooja/mtype802.o
                0x000000000001261b                Java_org_contikios_cooja_corecomm_Lib4_tick
 .text.Java_org_contikios_cooja_corecomm_Lib4_setReferenceAddress
                0x000000000001267a       0x12 obj_cooja/mtype802.o
                0x000000000001267a                Java_org_contikios_cooja_corecomm_Lib4_setReferenceAddress
 .text          0x000000000001268c        0x0 obj_cooja/mtype802.a(dtls.o)
 .text.equals   0x000000000001268c       0x44 obj_cooja/mtype802.a(dtls.o)
 .text.check_stack
                0x00000000000126d0        0x5 obj_cooja/mtype802.a(dtls.o)
 .text.dtls_int_to_uint8
                0x00000000000126d5       0x1c obj_cooja/mtype802.a(dtls.o)
 .text.dtls_int_to_uint16
                0x00000000000126f1       0x2f obj_cooja/mtype802.a(dtls.o)
 .text.dtls_int_to_uint24
                0x0000000000012720       0x30 obj_cooja/mtype802.a(dtls.o)
 .text.dtls_int_to_uint32
                0x0000000000012750       0x3e obj_cooja/mtype802.a(dtls.o)
 .text.dtls_int_to_uint48
                0x000000000001278e       0x89 obj_cooja/mtype802.a(dtls.o)
 .text.dtls_uint8_to_int
                0x0000000000012817        0xb obj_cooja/mtype802.a(dtls.o)
 .text.dtls_uint16_to_int
                0x0000000000012822       0x21 obj_cooja/mtype802.a(dtls.o)
 .text.dtls_uint24_to_int
                0x0000000000012843       0x32 obj_cooja/mtype802.a(dtls.o)
 .text.dtls_hash_init
                0x0000000000012875       0x13 obj_cooja/mtype802.a(dtls.o)
 .text.dtls_hash_update
                0x0000000000012888       0x21 obj_cooja/mtype802.a(dtls.o)
 .text.dtls_hash_finalize
                0x00000000000128a9       0x1f obj_cooja/mtype802.a(dtls.o)
 .text.dtls_security_params_epoch
                0x00000000000128c8       0x58 obj_cooja/mtype802.a(dtls.o)
 .text.dtls_security_params
                0x0000000000012920        0xb obj_cooja/mtype802.a(dtls.o)
 .text.dtls_security_params_next
                0x000000000001292b       0x59 obj_cooja/mtype802.a(dtls.o)
 .text.dtls_security_params_free_other
                0x0000000000012984       0x50 obj_cooja/mtype802.a(dtls.o)
 .text.dtls_security_params_switch
                0x00000000000129d4       0x26 obj_cooja/mtype802.a(dtls.o)
 .text.dtls_alert_create
                0x00000000000129fa       0x10 obj_cooja/mtype802.a(dtls.o)
 .text.dtls_alert_fatal_create
                0x0000000000012a0a       0x1b obj_cooja/mtype802.a(dtls.o)
 .text.dtls_prng
                0x0000000000012a25       0x52 obj_cooja/mtype802.a(dtls.o)
 .text.dtls_prng_init
                0x0000000000012a77        0xf obj_cooja/mtype802.a(dtls.o)
 .text.malloc_context
                0x0000000000012a86        0xa obj_cooja/mtype802.a(dtls.o)
 .text.free_context
                0x0000000000012a90        0x5 obj_cooja/mtype802.a(dtls.o)
 .text.dtls_init
                0x0000000000012a95       0x1c obj_cooja/mtype802.a(dtls.o)
                0x0000000000012a95                dtls_init
 .text.dtls_send
                0x0000000000012ab1       0x5e obj_cooja/mtype802.a(dtls.o)
 .text.dtls_get_peer
                0x0000000000012b0f       0x57 obj_cooja/mtype802.a(dtls.o)
                0x0000000000012b0f                dtls_get_peer
 .text.dtls_add_peer
                0x0000000000012b66       0x1d obj_cooja/mtype802.a(dtls.o)
 .text.dtls_write
                0x0000000000012b83       0x81 obj_cooja/mtype802.a(dtls.o)
                0x0000000000012b83                dtls_write
 .text.dtls_get_cookie
                0x0000000000012c04       0xd8 obj_cooja/mtype802.a(dtls.o)
 .text.dtls_create_cookie
                0x0000000000012cdc      0x233 obj_cooja/mtype802.a(dtls.o)
 .text.is_record
                0x0000000000012f0f       0x58 obj_cooja/mtype802.a(dtls.o)
 .text.dtls_set_record_header
                0x0000000000012f67       0xd9 obj_cooja/mtype802.a(dtls.o)
 .text.dtls_set_handshake_header
                0x0000000000013040       0xc8 obj_cooja/mtype802.a(dtls.o)
 .text.is_tls_ecdhe_ecdsa_with_aes_128_ccm_8
                0x0000000000013108        0xa obj_cooja/mtype802.a(dtls.o)
 .text.is_tls_psk_with_aes_128_ccm_8
                0x0000000000013112       0x12 obj_cooja/mtype802.a(dtls.o)
 .text.is_psk_supported
                0x0000000000013124       0x2e obj_cooja/mtype802.a(dtls.o)
 .text.is_rpk_supported
                0x0000000000013152        0xa obj_cooja/mtype802.a(dtls.o)
 .text.is_cert_supported
                0x000000000001315c        0xa obj_cooja/mtype802.a(dtls.o)
 .text.known_cipher
                0x0000000000013166       0x7c obj_cooja/mtype802.a(dtls.o)
 .text.dtls_debug_keyblock
                0x00000000000131e2      0x11c obj_cooja/mtype802.a(dtls.o)
 .text.dtls_handshake_type_to_name
                0x00000000000132fe       0x6c obj_cooja/mtype802.a(dtls.o)
 .text.calculate_key_block
                0x000000000001336a      0x39e obj_cooja/mtype802.a(dtls.o)
 .text.dtls_check_tls_extension
                0x0000000000013708      0x1a0 obj_cooja/mtype802.a(dtls.o)
 .text.dtls_update_parameters
                0x00000000000138a8      0x376 obj_cooja/mtype802.a(dtls.o)
 .text.check_client_keyexchange
                0x0000000000013c1e       0xbd obj_cooja/mtype802.a(dtls.o)
 .text.update_hs_hash
                0x0000000000013cdb       0x51 obj_cooja/mtype802.a(dtls.o)
 .text.copy_hs_hash
                0x0000000000013d2c       0x28 obj_cooja/mtype802.a(dtls.o)
 .text.finalize_hs_hash
                0x0000000000013d54       0x20 obj_cooja/mtype802.a(dtls.o)
 .text.clear_hs_hash
                0x0000000000013d74       0x33 obj_cooja/mtype802.a(dtls.o)
 .text.check_finished
                0x0000000000013da7      0x1ef obj_cooja/mtype802.a(dtls.o)
 .text.dtls_prepare_record
                0x0000000000013f96      0x461 obj_cooja/mtype802.a(dtls.o)
 .text.dtls_send_handshake_msg_hash
                0x00000000000143f7      0x14e obj_cooja/mtype802.a(dtls.o)
 .text.dtls_send_handshake_msg
                0x0000000000014545       0x48 obj_cooja/mtype802.a(dtls.o)
 .text.dtls_send_multi
                0x000000000001458d      0x42f obj_cooja/mtype802.a(dtls.o)
 .text.dtls_send_alert
                0x00000000000149bc       0x42 obj_cooja/mtype802.a(dtls.o)
 .text.dtls_close
                0x00000000000149fe       0x8c obj_cooja/mtype802.a(dtls.o)
                0x00000000000149fe                dtls_close
 .text.dtls_destroy_peer
                0x0000000000014a8a       0x77 obj_cooja/mtype802.a(dtls.o)
 .text.dtls_verify_peer
                0x0000000000014b01      0x253 obj_cooja/mtype802.a(dtls.o)
 .text.dtls_send_server_hello
                0x0000000000014d54      0x1ab obj_cooja/mtype802.a(dtls.o)
 .text.dtls_send_server_key_exchange_psk
                0x0000000000014eff      0x103 obj_cooja/mtype802.a(dtls.o)
 .text.dtls_send_server_hello_done
                0x0000000000015002       0x32 obj_cooja/mtype802.a(dtls.o)
 .text.dtls_send_server_hello_msgs
                0x0000000000015034      0x13b obj_cooja/mtype802.a(dtls.o)
 .text.dtls_send_ccs
                0x000000000001516f       0x35 obj_cooja/mtype802.a(dtls.o)
 .text.dtls_send_client_key_exchange
                0x00000000000151a4      0x231 obj_cooja/mtype802.a(dtls.o)
 .text.dtls_send_finished
                0x00000000000153d5      0x182 obj_cooja/mtype802.a(dtls.o)
 .text.dtls_send_client_hello
                0x0000000000015557      0x631 obj_cooja/mtype802.a(dtls.o)
 .text.check_server_hello
                0x0000000000015b88      0x1db obj_cooja/mtype802.a(dtls.o)
 .text.check_server_hello_verify_request
                0x0000000000015d63       0x67 obj_cooja/mtype802.a(dtls.o)
 .text.check_server_key_exchange_psk
                0x0000000000015dca      0x109 obj_cooja/mtype802.a(dtls.o)
 .text.check_certificate_request
                0x0000000000015ed3      0x1f7 obj_cooja/mtype802.a(dtls.o)
 .text.check_server_hellodone
                0x00000000000160ca       0xdb obj_cooja/mtype802.a(dtls.o)
 .text.decrypt_verify
                0x00000000000161a5      0x2ec obj_cooja/mtype802.a(dtls.o)
 .text.dtls_send_hello_request
                0x0000000000016491       0x44 obj_cooja/mtype802.a(dtls.o)
 .text.dtls_renegotiate
                0x00000000000164d5       0xf6 obj_cooja/mtype802.a(dtls.o)
                0x00000000000164d5                dtls_renegotiate
 .text.handle_handshake_msg
                0x00000000000165cb      0x7ad obj_cooja/mtype802.a(dtls.o)
 .text.handle_handshake
                0x0000000000016d78      0x3f6 obj_cooja/mtype802.a(dtls.o)
 .text.handle_ccs
                0x000000000001716e       0xa8 obj_cooja/mtype802.a(dtls.o)
 .text.handle_alert
                0x0000000000017216      0x17e obj_cooja/mtype802.a(dtls.o)
 .text.dtls_alert_send_from_err
                0x0000000000017394       0xe0 obj_cooja/mtype802.a(dtls.o)
 .text.dtls_handle_message
                0x0000000000017474      0x5aa obj_cooja/mtype802.a(dtls.o)
                0x0000000000017474                dtls_handle_message
 .text.dtls_new_context
                0x0000000000017a1e      0x12b obj_cooja/mtype802.a(dtls.o)
                0x0000000000017a1e                dtls_new_context
 .text.dtls_free_context
                0x0000000000017b49       0x5c obj_cooja/mtype802.a(dtls.o)
                0x0000000000017b49                dtls_free_context
 .text.dtls_connect_peer
                0x0000000000017ba5      0x13b obj_cooja/mtype802.a(dtls.o)
                0x0000000000017ba5                dtls_connect_peer
 .text.dtls_connect
                0x0000000000017ce0      0x114 obj_cooja/mtype802.a(dtls.o)
                0x0000000000017ce0                dtls_connect
 .text.dtls_retransmit
                0x0000000000017df4      0x289 obj_cooja/mtype802.a(dtls.o)
 .text.dtls_stop_retransmission
                0x000000000001807d       0x84 obj_cooja/mtype802.a(dtls.o)
 .text.dtls_check_retransmit
                0x0000000000018101       0x81 obj_cooja/mtype802.a(dtls.o)
                0x0000000000018101                dtls_check_retransmit
 .text.process_thread_dtls_retransmit_process
                0x0000000000018182      0x19e obj_cooja/mtype802.a(dtls.o)
 .text          0x0000000000018320        0x0 obj_cooja/mtype802.a(tinydtls-crypto)
 .text.dtls_int_to_uint16
                0x0000000000018320       0x2f obj_cooja/mtype802.a(tinydtls-crypto)
 .text.dtls_hash_init
                0x000000000001834f       0x13 obj_cooja/mtype802.a(tinydtls-crypto)
 .text.dtls_cipher_context_get
                0x0000000000018362        0xa obj_cooja/mtype802.a(tinydtls-crypto)
 .text.dtls_cipher_context_release
                0x000000000001836c        0x5 obj_cooja/mtype802.a(tinydtls-crypto)
 .text.dtls_crypto_init
                0x0000000000018371       0x20 obj_cooja/mtype802.a(tinydtls-crypto)
                0x0000000000018371                dtls_crypto_init
 .text.dtls_handshake_malloc
                0x0000000000018391       0x14 obj_cooja/mtype802.a(tinydtls-crypto)
 .text.dtls_handshake_dealloc
                0x00000000000183a5       0x1b obj_cooja/mtype802.a(tinydtls-crypto)
 .text.dtls_security_malloc
                0x00000000000183c0       0x14 obj_cooja/mtype802.a(tinydtls-crypto)
 .text.dtls_security_dealloc
                0x00000000000183d4       0x1b obj_cooja/mtype802.a(tinydtls-crypto)
 .text.dtls_handshake_new
                0x00000000000183ef       0x5b obj_cooja/mtype802.a(tinydtls-crypto)
                0x00000000000183ef                dtls_handshake_new
 .text.dtls_handshake_free
                0x000000000001844a       0x29 obj_cooja/mtype802.a(tinydtls-crypto)
                0x000000000001844a                dtls_handshake_free
 .text.dtls_security_new
                0x0000000000018473       0x60 obj_cooja/mtype802.a(tinydtls-crypto)
                0x0000000000018473                dtls_security_new
 .text.dtls_security_free
                0x00000000000184d3       0x1b obj_cooja/mtype802.a(tinydtls-crypto)
                0x00000000000184d3                dtls_security_free
 .text.dtls_p_hash
                0x00000000000184ee      0x2fa obj_cooja/mtype802.a(tinydtls-crypto)
                0x00000000000184ee                dtls_p_hash
 .text.dtls_prf
                0x00000000000187e8       0x74 obj_cooja/mtype802.a(tinydtls-crypto)
                0x00000000000187e8                dtls_prf
 .text.dtls_mac
                0x000000000001885c       0xb3 obj_cooja/mtype802.a(tinydtls-crypto)
                0x000000000001885c                dtls_mac
 .text.dtls_ccm_encrypt
                0x000000000001890f       0x66 obj_cooja/mtype802.a(tinydtls-crypto)
 .text.dtls_ccm_decrypt
                0x0000000000018975       0x66 obj_cooja/mtype802.a(tinydtls-crypto)
 .text.dtls_psk_pre_master_secret
                0x00000000000189db       0x9a obj_cooja/mtype802.a(tinydtls-crypto)
                0x00000000000189db                dtls_psk_pre_master_secret
 .text.dtls_encrypt
                0x0000000000018a75       0xa6 obj_cooja/mtype802.a(tinydtls-crypto)
                0x0000000000018a75                dtls_encrypt
 .text.dtls_decrypt
                0x0000000000018b1b       0xa6 obj_cooja/mtype802.a(tinydtls-crypto)
                0x0000000000018b1b                dtls_decrypt
 .text          0x0000000000018bc1        0x0 obj_cooja/mtype802.a(hmac.o)
 .text.dtls_hash_init
                0x0000000000018bc1       0x13 obj_cooja/mtype802.a(hmac.o)
 .text.dtls_hash_update
                0x0000000000018bd4       0x21 obj_cooja/mtype802.a(hmac.o)
 .text.dtls_hash_finalize
                0x0000000000018bf5       0x1f obj_cooja/mtype802.a(hmac.o)
 .text.dtls_hmac_context_new
                0x0000000000018c14       0x14 obj_cooja/mtype802.a(hmac.o)
 .text.dtls_hmac_context_free
                0x0000000000018c28       0x1b obj_cooja/mtype802.a(hmac.o)
 .text.dtls_hmac_storage_init
                0x0000000000018c43       0x14 obj_cooja/mtype802.a(hmac.o)
                0x0000000000018c43                dtls_hmac_storage_init
 .text.dtls_hmac_update
                0x0000000000018c57       0x3e obj_cooja/mtype802.a(hmac.o)
                0x0000000000018c57                dtls_hmac_update
 .text.dtls_hmac_new
                0x0000000000018c95       0x32 obj_cooja/mtype802.a(hmac.o)
                0x0000000000018c95                dtls_hmac_new
 .text.dtls_hmac_init
                0x0000000000018cc7      0x11b obj_cooja/mtype802.a(hmac.o)
                0x0000000000018cc7                dtls_hmac_init
 .text.dtls_hmac_free
                0x0000000000018de2       0x19 obj_cooja/mtype802.a(hmac.o)
                0x0000000000018de2                dtls_hmac_free
 .text.dtls_hmac_finalize
                0x0000000000018dfb       0xde obj_cooja/mtype802.a(hmac.o)
                0x0000000000018dfb                dtls_hmac_finalize
 .text          0x0000000000018ed9        0x0 obj_cooja/mtype802.a(netq.o)
 .text.netq_malloc_node
                0x0000000000018ed9       0x14 obj_cooja/mtype802.a(netq.o)
 .text.netq_free_node
                0x0000000000018eed       0x1b obj_cooja/mtype802.a(netq.o)
 .text.netq_init
                0x0000000000018f08       0x14 obj_cooja/mtype802.a(netq.o)
                0x0000000000018f08                netq_init
 .text.netq_insert_node
                0x0000000000018f1c       0xb7 obj_cooja/mtype802.a(netq.o)
                0x0000000000018f1c                netq_insert_node
 .text.netq_head
                0x0000000000018fd3       0x20 obj_cooja/mtype802.a(netq.o)
                0x0000000000018fd3                netq_head
 .text.netq_next
                0x0000000000018ff3       0x20 obj_cooja/mtype802.a(netq.o)
                0x0000000000018ff3                netq_next
 .text.netq_remove
                0x0000000000019013       0x28 obj_cooja/mtype802.a(netq.o)
                0x0000000000019013                netq_remove
 .text.netq_pop_first
                0x000000000001903b       0x20 obj_cooja/mtype802.a(netq.o)
                0x000000000001903b                netq_pop_first
 .text.netq_node_new
                0x000000000001905b       0x4c obj_cooja/mtype802.a(netq.o)
                0x000000000001905b                netq_node_new
 .text.netq_node_free
                0x00000000000190a7       0x19 obj_cooja/mtype802.a(netq.o)
                0x00000000000190a7                netq_node_free
 .text.netq_delete_all
                0x00000000000190c0       0x2f obj_cooja/mtype802.a(netq.o)
                0x00000000000190c0                netq_delete_all
 .text          0x00000000000190ef        0x0 obj_cooja/mtype802.a(dtls_time.o)
 .text.dtls_clock_init
                0x00000000000190ef       0x12 obj_cooja/mtype802.a(dtls_time.o)
                0x00000000000190ef                dtls_clock_init
 .text.dtls_ticks
                0x0000000000019101       0x12 obj_cooja/mtype802.a(dtls_time.o)
                0x0000000000019101                dtls_ticks
 .text          0x0000000000019113        0x0 obj_cooja/mtype802.a(peer.o)
 .text.peer_init
                0x0000000000019113       0x14 obj_cooja/mtype802.a(peer.o)
                0x0000000000019113                peer_init
 .text.dtls_malloc_peer
                0x0000000000019127       0x14 obj_cooja/mtype802.a(peer.o)
 .text.dtls_free_peer
                0x000000000001913b       0x45 obj_cooja/mtype802.a(peer.o)
                0x000000000001913b                dtls_free_peer
 .text.dtls_new_peer
                0x0000000000019180       0x93 obj_cooja/mtype802.a(peer.o)
                0x0000000000019180                dtls_new_peer
 .text          0x0000000000019213        0x0 obj_cooja/mtype802.a(session.o)
 .text.dtls_session_init
                0x0000000000019213       0x43 obj_cooja/mtype802.a(session.o)
                0x0000000000019213                dtls_session_init
 .text.dtls_session_equals
                0x0000000000019256       0x9f obj_cooja/mtype802.a(session.o)
                0x0000000000019256                dtls_session_equals
 .text          0x00000000000192f5        0x0 obj_cooja/mtype802.a(rijndael.o)
 .text.rijndaelKeySetupEnc
                0x00000000000192f5      0x610 obj_cooja/mtype802.a(rijndael.o)
                0x00000000000192f5                rijndaelKeySetupEnc
 .text.rijndaelEncrypt
                0x0000000000019905      0x613 obj_cooja/mtype802.a(rijndael.o)
                0x0000000000019905                rijndaelEncrypt
 .text.rijndael_set_key_enc_only
                0x0000000000019f18       0x41 obj_cooja/mtype802.a(rijndael.o)
                0x0000000000019f18                rijndael_set_key_enc_only
 .text.rijndael_encrypt
                0x0000000000019f59       0x2d obj_cooja/mtype802.a(rijndael.o)
                0x0000000000019f59                rijndael_encrypt
 .text          0x0000000000019f86        0x0 obj_cooja/mtype802.a(tinydtls-ccm.o)
 .text.memxor   0x0000000000019f86       0x2f obj_cooja/mtype802.a(tinydtls-ccm.o)
 .text.equals   0x0000000000019fb5       0x44 obj_cooja/mtype802.a(tinydtls-ccm.o)
 .text.dtls_int_to_uint16
                0x0000000000019ff9       0x2f obj_cooja/mtype802.a(tinydtls-ccm.o)
 .text.block0   0x000000000001a028       0x82 obj_cooja/mtype802.a(tinydtls-ccm.o)
 .text.add_auth_data
                0x000000000001a0aa      0x1c0 obj_cooja/mtype802.a(tinydtls-ccm.o)
 .text.encrypt  0x000000000001a26a       0xc3 obj_cooja/mtype802.a(tinydtls-ccm.o)
 .text.mac      0x000000000001a32d       0x5d obj_cooja/mtype802.a(tinydtls-ccm.o)
 .text.dtls_ccm_encrypt_message
                0x000000000001a38a      0x298 obj_cooja/mtype802.a(tinydtls-ccm.o)
                0x000000000001a38a                dtls_ccm_encrypt_message
 .text.dtls_ccm_decrypt_message
                0x000000000001a622      0x2b2 obj_cooja/mtype802.a(tinydtls-ccm.o)
                0x000000000001a622                dtls_ccm_decrypt_message
 .text          0x000000000001a8d4        0x0 obj_cooja/mtype802.a(sha2.o)
 .text.SHA256_Init
                0x000000000001a8d4       0x5a obj_cooja/mtype802.a(sha2.o)
                0x000000000001a8d4                SHA256_Init
 .text.SHA256_Transform
                0x000000000001a92e      0x3c3 obj_cooja/mtype802.a(sha2.o)
                0x000000000001a92e                SHA256_Transform
 .text.SHA256_Update
                0x000000000001acf1      0x1b6 obj_cooja/mtype802.a(sha2.o)
                0x000000000001acf1                SHA256_Update
 .text.SHA256_Final
                0x000000000001aea7      0x2a4 obj_cooja/mtype802.a(sha2.o)
                0x000000000001aea7                SHA256_Final
 .text.SHA256_End
                0x000000000001b14b      0x109 obj_cooja/mtype802.a(sha2.o)
                0x000000000001b14b                SHA256_End
 .text.SHA256_Data
                0x000000000001b254       0x69 obj_cooja/mtype802.a(sha2.o)
                0x000000000001b254                SHA256_Data
 .text          0x000000000001b2bd        0x0 obj_cooja/mtype802.a(debug.o)
 .text.dtls_package_name
                0x000000000001b2bd        0xa obj_cooja/mtype802.a(debug.o)
                0x000000000001b2bd                dtls_package_name
 .text.dtls_package_version
                0x000000000001b2c7        0xa obj_cooja/mtype802.a(debug.o)
                0x000000000001b2c7                dtls_package_version
 .text.dtls_get_log_level
                0x000000000001b2d1        0xa obj_cooja/mtype802.a(debug.o)
                0x000000000001b2d1                dtls_get_log_level
 .text.dtls_set_log_level
                0x000000000001b2db        0xd obj_cooja/mtype802.a(debug.o)
                0x000000000001b2db                dtls_set_log_level
 .text.print_timestamp
                0x000000000001b2e8        0xa obj_cooja/mtype802.a(debug.o)
 .text.dsrv_print_addr
                0x000000000001b2f2      0x190 obj_cooja/mtype802.a(debug.o)
 .text.hexdump  0x000000000001b482       0x8c obj_cooja/mtype802.a(debug.o)
                0x000000000001b482                hexdump
 .text.dump     0x000000000001b50e       0x36 obj_cooja/mtype802.a(debug.o)
                0x000000000001b50e                dump
 .text.dtls_dsrv_log_addr
                0x000000000001b544       0x76 obj_cooja/mtype802.a(debug.o)
                0x000000000001b544                dtls_dsrv_log_addr
 .text.dtls_dsrv_hexdump_log
                0x000000000001b5ba      0x16a obj_cooja/mtype802.a(debug.o)
                0x000000000001b5ba                dtls_dsrv_hexdump_log
 .text          0x000000000001b724        0x0 obj_cooja/mtype802.a(simEnvChange.o)
 .text.doActionsBeforeTick
                0x000000000001b724       0x31 obj_cooja/mtype802.a(simEnvChange.o)
                0x000000000001b724                doActionsBeforeTick
 .text.doActionsAfterTick
                0x000000000001b755       0x32 obj_cooja/mtype802.a(simEnvChange.o)
                0x000000000001b755                doActionsAfterTick
 .text          0x000000000001b787        0x0 obj_cooja/mtype802.a(cooja_mt.o)
 .text.cooja_mt_init
                0x000000000001b787        0xd obj_cooja/mtype802.a(cooja_mt.o)
                0x000000000001b787                cooja_mt_init
 .text.cooja_mt_remove
                0x000000000001b794        0xd obj_cooja/mtype802.a(cooja_mt.o)
                0x000000000001b794                cooja_mt_remove
 .text.cooja_mt_start
                0x000000000001b7a1       0x2d obj_cooja/mtype802.a(cooja_mt.o)
                0x000000000001b7a1                cooja_mt_start
 .text.cooja_mt_exec
                0x000000000001b7ce       0x31 obj_cooja/mtype802.a(cooja_mt.o)
                0x000000000001b7ce                cooja_mt_exec
 .text.cooja_mt_exit
                0x000000000001b7ff       0x22 obj_cooja/mtype802.a(cooja_mt.o)
                0x000000000001b7ff                cooja_mt_exit
 .text.cooja_mt_yield
                0x000000000001b821       0x22 obj_cooja/mtype802.a(cooja_mt.o)
                0x000000000001b821                cooja_mt_yield
 .text          0x000000000001b843        0x0 obj_cooja/mtype802.a(cooja_mtarch.o)
 .text.cooja_mtarch_init
                0x000000000001b843        0x5 obj_cooja/mtype802.a(cooja_mtarch.o)
                0x000000000001b843                cooja_mtarch_init
 .text.cooja_mtarch_start
                0x000000000001b848       0x7b obj_cooja/mtype802.a(cooja_mtarch.o)
                0x000000000001b848                cooja_mtarch_start
 .text.cooja_sw
                0x000000000001b8c3       0x22 obj_cooja/mtype802.a(cooja_mtarch.o)
                0x000000000001b8c3                cooja_sw
 .text.cooja_mtarch_exec
                0x000000000001b8e5       0x1c obj_cooja/mtype802.a(cooja_mtarch.o)
                0x000000000001b8e5                cooja_mtarch_exec
 .text.cooja_mtarch_remove
                0x000000000001b901        0x5 obj_cooja/mtype802.a(cooja_mtarch.o)
                0x000000000001b901                cooja_mtarch_remove
 .text.cooja_mtarch_yield
                0x000000000001b906        0xa obj_cooja/mtype802.a(cooja_mtarch.o)
                0x000000000001b906                cooja_mtarch_yield
 .text.cooja_mtarch_pstop
                0x000000000001b910        0x5 obj_cooja/mtype802.a(cooja_mtarch.o)
                0x000000000001b910                cooja_mtarch_pstop
 .text.cooja_mtarch_pstart
                0x000000000001b915        0x5 obj_cooja/mtype802.a(cooja_mtarch.o)
                0x000000000001b915                cooja_mtarch_pstart
 .text.cooja_mtarch_stack_usage
                0x000000000001b91a       0x3e obj_cooja/mtype802.a(cooja_mtarch.o)
                0x000000000001b91a                cooja_mtarch_stack_usage
 .text          0x000000000001b958        0x0 obj_cooja/mtype802.a(rtimer-arch.o)
 .text.rtimer_arch_init
                0x000000000001b958       0x23 obj_cooja/mtype802.a(rtimer-arch.o)
                0x000000000001b958                rtimer_arch_init
 .text.rtimer_arch_schedule
                0x000000000001b97b       0x2f obj_cooja/mtype802.a(rtimer-arch.o)
                0x000000000001b97b                rtimer_arch_schedule
 .text.rtimer_arch_next
                0x000000000001b9aa       0x10 obj_cooja/mtype802.a(rtimer-arch.o)
                0x000000000001b9aa                rtimer_arch_next
 .text.rtimer_arch_pending
                0x000000000001b9ba        0xa obj_cooja/mtype802.a(rtimer-arch.o)
                0x000000000001b9ba                rtimer_arch_pending
 .text.rtimer_arch_check
                0x000000000001b9c4       0x47 obj_cooja/mtype802.a(rtimer-arch.o)
                0x000000000001b9c4                rtimer_arch_check
 .text.rtimer_arch_now
                0x000000000001ba0b       0x10 obj_cooja/mtype802.a(rtimer-arch.o)
                0x000000000001ba0b                rtimer_arch_now
 .text          0x000000000001ba1b        0x0 obj_cooja/mtype802.a(beep.o)
 .text.beep_alarm
                0x000000000001ba1b        0xc obj_cooja/mtype802.a(beep.o)
                0x000000000001ba1b                beep_alarm
 .text.beep_beep
                0x000000000001ba27        0xc obj_cooja/mtype802.a(beep.o)
                0x000000000001ba27                beep_beep
 .text.beep     0x000000000001ba33        0xc obj_cooja/mtype802.a(beep.o)
                0x000000000001ba33                beep
 .text.beep_down
                0x000000000001ba3f        0xc obj_cooja/mtype802.a(beep.o)
                0x000000000001ba3f                beep_down
 .text.beep_on  0x000000000001ba4b        0xc obj_cooja/mtype802.a(beep.o)
                0x000000000001ba4b                beep_on
 .text.beep_off
                0x000000000001ba57        0xc obj_cooja/mtype802.a(beep.o)
                0x000000000001ba57                beep_off
 .text.beep_spinup
                0x000000000001ba63        0xc obj_cooja/mtype802.a(beep.o)
                0x000000000001ba63                beep_spinup
 .text.beep_quick
                0x000000000001ba6f        0xc obj_cooja/mtype802.a(beep.o)
                0x000000000001ba6f                beep_quick
 .text.beep_long
                0x000000000001ba7b        0xc obj_cooja/mtype802.a(beep.o)
                0x000000000001ba7b                beep_long
 .text.doInterfaceActionsBeforeTick
                0x000000000001ba87        0x5 obj_cooja/mtype802.a(beep.o)
 .text.doInterfaceActionsAfterTick
                0x000000000001ba8c        0x5 obj_cooja/mtype802.a(beep.o)
 .text          0x000000000001ba91        0x0 obj_cooja/mtype802.a(button-sensor.o)
 .text.value    0x000000000001ba91       0x2f obj_cooja/mtype802.a(button-sensor.o)
 .text.configure
                0x000000000001bac0       0x50 obj_cooja/mtype802.a(button-sensor.o)
 .text.status   0x000000000001bb10       0x1f obj_cooja/mtype802.a(button-sensor.o)
 .text.doInterfaceActionsBeforeTick
                0x000000000001bb2f       0x60 obj_cooja/mtype802.a(button-sensor.o)
 .text.doInterfaceActionsAfterTick
                0x000000000001bb8f        0x5 obj_cooja/mtype802.a(button-sensor.o)
 .text          0x000000000001bb94        0x0 obj_cooja/mtype802.a(leds-arch.o)
 .text.leds_arch_init
                0x000000000001bb94        0xc obj_cooja/mtype802.a(leds-arch.o)
                0x000000000001bb94                leds_arch_init
 .text.leds_arch_get
                0x000000000001bba0        0xc obj_cooja/mtype802.a(leds-arch.o)
                0x000000000001bba0                leds_arch_get
 .text.leds_arch_set
                0x000000000001bbac       0x23 obj_cooja/mtype802.a(leds-arch.o)
                0x000000000001bbac                leds_arch_set
 .text.doInterfaceActionsBeforeTick
                0x000000000001bbcf        0x5 obj_cooja/mtype802.a(leds-arch.o)
 .text.doInterfaceActionsAfterTick
                0x000000000001bbd4        0x5 obj_cooja/mtype802.a(leds-arch.o)
 .text          0x000000000001bbd9        0x0 obj_cooja/mtype802.a(moteid.o)
 .text.doInterfaceActionsBeforeTick
                0x000000000001bbd9       0x2a obj_cooja/mtype802.a(moteid.o)
 .text.doInterfaceActionsAfterTick
                0x000000000001bc03        0x5 obj_cooja/mtype802.a(moteid.o)
 .text          0x000000000001bc08        0x0 obj_cooja/mtype802.a(pir-sensor.o)
 .text.value    0x000000000001bc08        0xf obj_cooja/mtype802.a(pir-sensor.o)
 .text.configure
                0x000000000001bc17       0x3a obj_cooja/mtype802.a(pir-sensor.o)
 .text.status   0x000000000001bc51       0x23 obj_cooja/mtype802.a(pir-sensor.o)
 .text.doInterfaceActionsBeforeTick
                0x000000000001bc74       0x40 obj_cooja/mtype802.a(pir-sensor.o)
 .text.doInterfaceActionsAfterTick
                0x000000000001bcb4        0x5 obj_cooja/mtype802.a(pir-sensor.o)
 .text          0x000000000001bcb9        0x0 obj_cooja/mtype802.a(rs232.o)
 .text.rs232_init
                0x000000000001bcb9        0x5 obj_cooja/mtype802.a(rs232.o)
                0x000000000001bcb9                rs232_init
 .text.rs232_set_speed
                0x000000000001bcbe        0xe obj_cooja/mtype802.a(rs232.o)
                0x000000000001bcbe                rs232_set_speed
 .text.rs232_set_input
                0x000000000001bccc        0xd obj_cooja/mtype802.a(rs232.o)
                0x000000000001bccc                rs232_set_input
 .text.rs232_send
                0x000000000001bcd9       0x22 obj_cooja/mtype802.a(rs232.o)
                0x000000000001bcd9                rs232_send
 .text.rs232_print
                0x000000000001bcfb       0x1b obj_cooja/mtype802.a(rs232.o)
                0x000000000001bcfb                rs232_print
 .text.slip_arch_writeb
                0x000000000001bd16       0x1d obj_cooja/mtype802.a(rs232.o)
                0x000000000001bd16                slip_arch_writeb
 .text.doInterfaceActionsBeforeTick
                0x000000000001bd33       0xb2 obj_cooja/mtype802.a(rs232.o)
 .text.doInterfaceActionsAfterTick
                0x000000000001bde5        0x5 obj_cooja/mtype802.a(rs232.o)
 .text          0x000000000001bdea        0x0 obj_cooja/mtype802.a(vib-sensor.o)
 .text.value    0x000000000001bdea        0xf obj_cooja/mtype802.a(vib-sensor.o)
 .text.configure
                0x000000000001bdf9       0x3a obj_cooja/mtype802.a(vib-sensor.o)
 .text.status   0x000000000001be33       0x23 obj_cooja/mtype802.a(vib-sensor.o)
 .text.doInterfaceActionsBeforeTick
                0x000000000001be56       0x40 obj_cooja/mtype802.a(vib-sensor.o)
 .text.doInterfaceActionsAfterTick
                0x000000000001be96        0x5 obj_cooja/mtype802.a(vib-sensor.o)
 .text          0x000000000001be9b        0x0 obj_cooja/mtype802.a(clock.o)
 .text.clock_init
                0x000000000001be9b        0x5 obj_cooja/mtype802.a(clock.o)
                0x000000000001be9b                clock_init
 .text.clock_time
                0x000000000001bea0        0xa obj_cooja/mtype802.a(clock.o)
                0x000000000001bea0                clock_time
 .text.clock_seconds
                0x000000000001beaa       0x16 obj_cooja/mtype802.a(clock.o)
                0x000000000001beaa                clock_seconds
 .text.clock_delay
                0x000000000001bec0        0x5 obj_cooja/mtype802.a(clock.o)
                0x000000000001bec0                clock_delay
 .text.doInterfaceActionsBeforeTick
                0x000000000001bec5        0x5 obj_cooja/mtype802.a(clock.o)
 .text.doInterfaceActionsAfterTick
                0x000000000001beca        0x5 obj_cooja/mtype802.a(clock.o)
 .text          0x000000000001becf        0x0 obj_cooja/mtype802.a(log.o)
 .text.simlog_char
                0x000000000001becf       0x42 obj_cooja/mtype802.a(log.o)
                0x000000000001becf                simlog_char
 .text.simlog   0x000000000001bf11       0x6d obj_cooja/mtype802.a(log.o)
                0x000000000001bf11                simlog
 .text.log_message
                0x000000000001bf7e       0x1e obj_cooja/mtype802.a(log.o)
                0x000000000001bf7e                log_message
 .text.doInterfaceActionsBeforeTick
                0x000000000001bf9c        0x5 obj_cooja/mtype802.a(log.o)
 .text.doInterfaceActionsAfterTick
                0x000000000001bfa1        0x5 obj_cooja/mtype802.a(log.o)
 .text.log_set_putchar_with_slip
                0x000000000001bfa6        0xd obj_cooja/mtype802.a(log.o)
                0x000000000001bfa6                log_set_putchar_with_slip
 .text.putchar  0x000000000001bfb3       0x84 obj_cooja/mtype802.a(log.o)
                0x000000000001bfb3                log_putchar
 .text.puts     0x000000000001c037       0x24 obj_cooja/mtype802.a(log.o)
                0x000000000001c037                log_puts
 .text.printf   0x000000000001c05b       0x61 obj_cooja/mtype802.a(log.o)
                0x000000000001c05b                log_printf
 .text          0x000000000001c0bc        0x0 obj_cooja/mtype802.a(cfs-cooja.o)
 .text.cfs_open
                0x000000000001c0bc       0x69 obj_cooja/mtype802.a(cfs-cooja.o)
                0x000000000001c0bc                cfs_open
 .text.cfs_close
                0x000000000001c125        0xc obj_cooja/mtype802.a(cfs-cooja.o)
                0x000000000001c125                cfs_close
 .text.cfs_read
                0x000000000001c131       0x9e obj_cooja/mtype802.a(cfs-cooja.o)
                0x000000000001c131                cfs_read
 .text.cfs_write
                0x000000000001c1cf       0xdd obj_cooja/mtype802.a(cfs-cooja.o)
                0x000000000001c1cf                cfs_write
 .text.cfs_seek
                0x000000000001c2ac       0x88 obj_cooja/mtype802.a(cfs-cooja.o)
                0x000000000001c2ac                cfs_seek
 .text.cfs_remove
                0x000000000001c334       0x29 obj_cooja/mtype802.a(cfs-cooja.o)
                0x000000000001c334                cfs_remove
 .text.cfs_opendir
                0x000000000001c35d        0xa obj_cooja/mtype802.a(cfs-cooja.o)
                0x000000000001c35d                cfs_opendir
 .text.cfs_readdir
                0x000000000001c367        0xa obj_cooja/mtype802.a(cfs-cooja.o)
                0x000000000001c367                cfs_readdir
 .text.cfs_closedir
                0x000000000001c371        0x5 obj_cooja/mtype802.a(cfs-cooja.o)
                0x000000000001c371                cfs_closedir
 .text.doInterfaceActionsBeforeTick
                0x000000000001c376        0x5 obj_cooja/mtype802.a(cfs-cooja.o)
 .text.doInterfaceActionsAfterTick
                0x000000000001c37b        0x5 obj_cooja/mtype802.a(cfs-cooja.o)
 .text          0x000000000001c380        0x0 obj_cooja/mtype802.a(cooja-radio.o)
 .text.packetbuf_set_attr
                0x000000000001c380       0x2a obj_cooja/mtype802.a(cooja-radio.o)
 .text.set_send_on_cca
                0x000000000001c3aa       0x17 obj_cooja/mtype802.a(cooja-radio.o)
 .text.set_frame_filtering
                0x000000000001c3c1        0xd obj_cooja/mtype802.a(cooja-radio.o)
 .text.set_auto_ack
                0x000000000001c3ce        0xd obj_cooja/mtype802.a(cooja-radio.o)
 .text.set_poll_mode
                0x000000000001c3db        0xd obj_cooja/mtype802.a(cooja-radio.o)
 .text.radio_set_channel
                0x000000000001c3e8        0xd obj_cooja/mtype802.a(cooja-radio.o)
                0x000000000001c3e8                radio_set_channel
 .text.radio_set_txpower
                0x000000000001c3f5       0x17 obj_cooja/mtype802.a(cooja-radio.o)
                0x000000000001c3f5                radio_set_txpower
 .text.radio_signal_strength_last
                0x000000000001c40c        0xa obj_cooja/mtype802.a(cooja-radio.o)
                0x000000000001c40c                radio_signal_strength_last
 .text.radio_signal_strength_current
                0x000000000001c416        0xa obj_cooja/mtype802.a(cooja-radio.o)
                0x000000000001c416                radio_signal_strength_current
 .text.radio_LQI
                0x000000000001c420        0xa obj_cooja/mtype802.a(cooja-radio.o)
                0x000000000001c420                radio_LQI
 .text.radio_on
                0x000000000001c42a       0x11 obj_cooja/mtype802.a(cooja-radio.o)
 .text.radio_off
                0x000000000001c43b       0x11 obj_cooja/mtype802.a(cooja-radio.o)
 .text.doInterfaceActionsBeforeTick
                0x000000000001c44c       0x4b obj_cooja/mtype802.a(cooja-radio.o)
 .text.doInterfaceActionsAfterTick
                0x000000000001c497        0x5 obj_cooja/mtype802.a(cooja-radio.o)
 .text.radio_read
                0x000000000001c49c       0xb7 obj_cooja/mtype802.a(cooja-radio.o)
 .text.channel_clear
                0x000000000001c553       0x1b obj_cooja/mtype802.a(cooja-radio.o)
 .text.radio_send
                0x000000000001c56e       0xda obj_cooja/mtype802.a(cooja-radio.o)
 .text.prepare_packet
                0x000000000001c648       0x1c obj_cooja/mtype802.a(cooja-radio.o)
 .text.transmit_packet
                0x000000000001c664       0x3a obj_cooja/mtype802.a(cooja-radio.o)
 .text.receiving_packet
                0x000000000001c69e        0xf obj_cooja/mtype802.a(cooja-radio.o)
 .text.pending_packet
                0x000000000001c6ad       0x25 obj_cooja/mtype802.a(cooja-radio.o)
 .text.process_thread_cooja_radio_process
                0x000000000001c6d2       0x9f obj_cooja/mtype802.a(cooja-radio.o)
 .text.init     0x000000000001c771       0x21 obj_cooja/mtype802.a(cooja-radio.o)
 .text.get_value
                0x000000000001c792       0xdc obj_cooja/mtype802.a(cooja-radio.o)
 .text.set_value
                0x000000000001c86e      0x104 obj_cooja/mtype802.a(cooja-radio.o)
 .text.get_object
                0x000000000001c972       0x3d obj_cooja/mtype802.a(cooja-radio.o)
 .text.set_object
                0x000000000001c9af        0xa obj_cooja/mtype802.a(cooja-radio.o)
 .text          0x000000000001c9b9        0x0 obj_cooja/mtype802.a(eeprom.o)
 .text.eeprom_init
                0x000000000001c9b9        0x5 obj_cooja/mtype802.a(eeprom.o)
                0x000000000001c9b9                eeprom_init
 .text.eeprom_read
                0x000000000001c9be       0x70 obj_cooja/mtype802.a(eeprom.o)
                0x000000000001c9be                eeprom_read
 .text.eeprom_write
                0x000000000001ca2e       0x70 obj_cooja/mtype802.a(eeprom.o)
                0x000000000001ca2e                eeprom_write
 .text.doInterfaceActionsBeforeTick
                0x000000000001ca9e        0x5 obj_cooja/mtype802.a(eeprom.o)
 .text.doInterfaceActionsAfterTick
                0x000000000001caa3        0x5 obj_cooja/mtype802.a(eeprom.o)
 .text          0x000000000001caa8        0x0 obj_cooja/mtype802.a(random.o)
 .text.random_init
                0x000000000001caa8       0x1b obj_cooja/mtype802.a(random.o)
                0x000000000001caa8                random_init
 .text.random_rand
                0x000000000001cac3        0xd obj_cooja/mtype802.a(random.o)
                0x000000000001cac3                random_rand
 .text          0x000000000001cad0        0x0 obj_cooja/mtype802.a(sensors.o)
 .text.get_sensor_index
                0x000000000001cad0       0x3b obj_cooja/mtype802.a(sensors.o)
 .text.sensors_first
                0x000000000001cb0b        0xa obj_cooja/mtype802.a(sensors.o)
                0x000000000001cb0b                sensors_first
 .text.sensors_next
                0x000000000001cb15       0x1d obj_cooja/mtype802.a(sensors.o)
                0x000000000001cb15                sensors_next
 .text.sensors_changed
                0x000000000001cb32       0x2f obj_cooja/mtype802.a(sensors.o)
                0x000000000001cb32                sensors_changed
 .text.sensors_find
                0x000000000001cb61       0x6b obj_cooja/mtype802.a(sensors.o)
                0x000000000001cb61                sensors_find
 .text.process_thread_sensors_process
                0x000000000001cbcc      0x1a5 obj_cooja/mtype802.a(sensors.o)
 .text          0x000000000001cd71        0x0 obj_cooja/mtype802.a(autostart.o)
 .text.autostart_start
                0x000000000001cd71       0x4b obj_cooja/mtype802.a(autostart.o)
                0x000000000001cd71                autostart_start
 .text.autostart_exit
                0x000000000001cdbc       0x43 obj_cooja/mtype802.a(autostart.o)
                0x000000000001cdbc                autostart_exit
 .text          0x000000000001cdff        0x0 obj_cooja/mtype802.a(ctimer.o)
 .text.process_thread_ctimer_process
                0x000000000001cdff      0x117 obj_cooja/mtype802.a(ctimer.o)
 .text.ctimer_init
                0x000000000001cf16       0x30 obj_cooja/mtype802.a(ctimer.o)
                0x000000000001cf16                ctimer_init
 .text.ctimer_set
                0x000000000001cf46       0x31 obj_cooja/mtype802.a(ctimer.o)
                0x000000000001cf46                ctimer_set
 .text.ctimer_set_with_process
                0x000000000001cf77       0x7c obj_cooja/mtype802.a(ctimer.o)
                0x000000000001cf77                ctimer_set_with_process
 .text.ctimer_reset
                0x000000000001cff3       0x4f obj_cooja/mtype802.a(ctimer.o)
                0x000000000001cff3                ctimer_reset
 .text.ctimer_restart
                0x000000000001d042       0x4f obj_cooja/mtype802.a(ctimer.o)
                0x000000000001d042                ctimer_restart
 .text.ctimer_stop
                0x000000000001d091       0x4b obj_cooja/mtype802.a(ctimer.o)
                0x000000000001d091                ctimer_stop
 .text.ctimer_expired
                0x000000000001d0dc       0x57 obj_cooja/mtype802.a(ctimer.o)
                0x000000000001d0dc                ctimer_expired
 .text          0x000000000001d133        0x0 obj_cooja/mtype802.a(etimer.o)
 .text.update_time
                0x000000000001d133       0x8f obj_cooja/mtype802.a(etimer.o)
 .text.process_thread_etimer_process
                0x000000000001d1c2      0x184 obj_cooja/mtype802.a(etimer.o)
 .text.etimer_request_poll
                0x000000000001d346       0x14 obj_cooja/mtype802.a(etimer.o)
                0x000000000001d346                etimer_request_poll
 .text.add_timer
                0x000000000001d35a       0x70 obj_cooja/mtype802.a(etimer.o)
 .text.etimer_set
                0x000000000001d3ca       0x25 obj_cooja/mtype802.a(etimer.o)
                0x000000000001d3ca                etimer_set
 .text.etimer_reset_with_new_interval
                0x000000000001d3ef       0x27 obj_cooja/mtype802.a(etimer.o)
                0x000000000001d3ef                etimer_reset_with_new_interval
 .text.etimer_reset
                0x000000000001d416       0x1e obj_cooja/mtype802.a(etimer.o)
                0x000000000001d416                etimer_reset
 .text.etimer_restart
                0x000000000001d434       0x1e obj_cooja/mtype802.a(etimer.o)
                0x000000000001d434                etimer_restart
 .text.etimer_adjust
                0x000000000001d452       0x1c obj_cooja/mtype802.a(etimer.o)
                0x000000000001d452                etimer_adjust
 .text.etimer_expired
                0x000000000001d46e       0x13 obj_cooja/mtype802.a(etimer.o)
                0x000000000001d46e                etimer_expired
 .text.etimer_expiration_time
                0x000000000001d481       0x12 obj_cooja/mtype802.a(etimer.o)
                0x000000000001d481                etimer_expiration_time
 .text.etimer_start_time
                0x000000000001d493        0xa obj_cooja/mtype802.a(etimer.o)
                0x000000000001d493                etimer_start_time
 .text.etimer_pending
                0x000000000001d49d       0x12 obj_cooja/mtype802.a(etimer.o)
                0x000000000001d49d                etimer_pending
 .text.etimer_next_expiration_time
                0x000000000001d4af       0x1a obj_cooja/mtype802.a(etimer.o)
                0x000000000001d4af                etimer_next_expiration_time
 .text.etimer_stop
                0x000000000001d4c9       0x75 obj_cooja/mtype802.a(etimer.o)
                0x000000000001d4c9                etimer_stop
 .text          0x000000000001d53e        0x0 obj_cooja/mtype802.a(process.o)
 .text.process_alloc_event
                0x000000000001d53e       0x15 obj_cooja/mtype802.a(process.o)
                0x000000000001d53e                process_alloc_event
 .text.process_start
                0x000000000001d553       0x6f obj_cooja/mtype802.a(process.o)
                0x000000000001d553                process_start
 .text.exit_process
                0x000000000001d5c2       0xea obj_cooja/mtype802.a(process.o)
 .text.call_process
                0x000000000001d6ac       0x90 obj_cooja/mtype802.a(process.o)
 .text.process_exit
                0x000000000001d73c       0x1c obj_cooja/mtype802.a(process.o)
                0x000000000001d73c                process_exit
 .text.process_init
                0x000000000001d758       0x33 obj_cooja/mtype802.a(process.o)
                0x000000000001d758                process_init
 .text.do_poll  0x000000000001d78b       0x5b obj_cooja/mtype802.a(process.o)
 .text.do_event
                0x000000000001d7e6      0x114 obj_cooja/mtype802.a(process.o)
 .text.process_run
                0x000000000001d8fa       0x33 obj_cooja/mtype802.a(process.o)
                0x000000000001d8fa                process_run
 .text.process_nevents
                0x000000000001d92d       0x1b obj_cooja/mtype802.a(process.o)
                0x000000000001d92d                process_nevents
 .text.process_post
                0x000000000001d948       0x95 obj_cooja/mtype802.a(process.o)
                0x000000000001d948                process_post
 .text.process_post_synch
                0x000000000001d9dd       0x38 obj_cooja/mtype802.a(process.o)
                0x000000000001d9dd                process_post_synch
 .text.process_poll
                0x000000000001da15       0x2f obj_cooja/mtype802.a(process.o)
                0x000000000001da15                process_poll
 .text.process_is_running
                0x000000000001da44       0x14 obj_cooja/mtype802.a(process.o)
                0x000000000001da44                process_is_running
 .text          0x000000000001da58        0x0 obj_cooja/mtype802.a(rtimer.o)
 .text.rtimer_init
                0x000000000001da58        0xd obj_cooja/mtype802.a(rtimer.o)
                0x000000000001da58                rtimer_init
 .text.rtimer_set
                0x000000000001da65       0x7c obj_cooja/mtype802.a(rtimer.o)
                0x000000000001da65                rtimer_set
 .text.rtimer_run_next
                0x000000000001dae1       0x5d obj_cooja/mtype802.a(rtimer.o)
                0x000000000001dae1                rtimer_run_next
 .text          0x000000000001db3e        0x0 obj_cooja/mtype802.a(timer.o)
 .text.timer_set
                0x000000000001db3e       0x1b obj_cooja/mtype802.a(timer.o)
                0x000000000001db3e                timer_set
 .text.timer_reset
                0x000000000001db59       0x17 obj_cooja/mtype802.a(timer.o)
                0x000000000001db59                timer_reset
 .text.timer_restart
                0x000000000001db70       0x12 obj_cooja/mtype802.a(timer.o)
                0x000000000001db70                timer_restart
 .text.timer_expired
                0x000000000001db82       0x29 obj_cooja/mtype802.a(timer.o)
                0x000000000001db82                timer_expired
 .text.timer_remaining
                0x000000000001dbab       0x24 obj_cooja/mtype802.a(timer.o)
                0x000000000001dbab                timer_remaining
 .text          0x000000000001dbcf        0x0 obj_cooja/mtype802.a(serial-line.o)
 .text.serial_line_input_byte
                0x000000000001dbcf       0x7d obj_cooja/mtype802.a(serial-line.o)
                0x000000000001dbcf                serial_line_input_byte
 .text.process_thread_serial_line_process
                0x000000000001dc4c      0x146 obj_cooja/mtype802.a(serial-line.o)
 .text.serial_line_init
                0x000000000001dd92       0x38 obj_cooja/mtype802.a(serial-line.o)
                0x000000000001dd92                serial_line_init
 .text          0x000000000001ddca        0x0 obj_cooja/mtype802.a(assert.o)
 .text._xassert
                0x000000000001ddca       0x22 obj_cooja/mtype802.a(assert.o)
                0x000000000001ddca                _xassert
 .text          0x000000000001ddec        0x0 obj_cooja/mtype802.a(list.o)
 .text.list_init
                0x000000000001ddec        0xe obj_cooja/mtype802.a(list.o)
                0x000000000001ddec                list_init
 .text.list_head
                0x000000000001ddfa        0xa obj_cooja/mtype802.a(list.o)
                0x000000000001ddfa                list_head
 .text.list_copy
                0x000000000001de04        0xf obj_cooja/mtype802.a(list.o)
                0x000000000001de04                list_copy
 .text.list_tail
                0x000000000001de13       0x36 obj_cooja/mtype802.a(list.o)
                0x000000000001de13                list_tail
 .text.list_add
                0x000000000001de49       0x49 obj_cooja/mtype802.a(list.o)
                0x000000000001de49                list_add
 .text.list_push
                0x000000000001de92       0x2c obj_cooja/mtype802.a(list.o)
                0x000000000001de92                list_push
 .text.list_chop
                0x000000000001debe       0x6a obj_cooja/mtype802.a(list.o)
                0x000000000001debe                list_chop
 .text.list_pop
                0x000000000001df28       0x28 obj_cooja/mtype802.a(list.o)
                0x000000000001df28                list_pop
 .text.list_remove
                0x000000000001df50       0x67 obj_cooja/mtype802.a(list.o)
                0x000000000001df50                list_remove
 .text.list_length
                0x000000000001dfb7       0x2e obj_cooja/mtype802.a(list.o)
                0x000000000001dfb7                list_length
 .text.list_insert
                0x000000000001dfe5       0x34 obj_cooja/mtype802.a(list.o)
                0x000000000001dfe5                list_insert
 .text.list_item_next
                0x000000000001e019       0x17 obj_cooja/mtype802.a(list.o)
                0x000000000001e019                list_item_next
 .text          0x000000000001e030        0x0 obj_cooja/mtype802.a(memb.o)
 .text.memb_init
                0x000000000001e030       0x5e obj_cooja/mtype802.a(memb.o)
                0x000000000001e030                memb_init
 .text.memb_alloc
                0x000000000001e08e       0x65 obj_cooja/mtype802.a(memb.o)
                0x000000000001e08e                memb_alloc
 .text.memb_free
                0x000000000001e0f3       0x7b obj_cooja/mtype802.a(memb.o)
                0x000000000001e0f3                memb_free
 .text.memb_inmemb
                0x000000000001e16e       0x3f obj_cooja/mtype802.a(memb.o)
                0x000000000001e16e                memb_inmemb
 .text.memb_numfree
                0x000000000001e1ad       0x44 obj_cooja/mtype802.a(memb.o)
                0x000000000001e1ad                memb_numfree
 .text          0x000000000001e1f1        0x0 obj_cooja/mtype802.a(ringbuf.o)
 .text.ringbuf_init
                0x000000000001e1f1       0x31 obj_cooja/mtype802.a(ringbuf.o)
                0x000000000001e1f1                ringbuf_init
 .text.ringbuf_put
                0x000000000001e222       0x7e obj_cooja/mtype802.a(ringbuf.o)
                0x000000000001e222                ringbuf_put
 .text.ringbuf_get
                0x000000000001e2a0       0x6d obj_cooja/mtype802.a(ringbuf.o)
                0x000000000001e2a0                ringbuf_get
 .text.ringbuf_size
                0x000000000001e30d       0x12 obj_cooja/mtype802.a(ringbuf.o)
                0x000000000001e30d                ringbuf_size
 .text.ringbuf_elements
                0x000000000001e31f       0x27 obj_cooja/mtype802.a(ringbuf.o)
                0x000000000001e31f                ringbuf_elements
 .text          0x000000000001e346        0x0 obj_cooja/mtype802.a(sicslowpan.o)
 .text.packetbuf_set_attr
                0x000000000001e346       0x2a obj_cooja/mtype802.a(sicslowpan.o)
 .text.packetbuf_attr
                0x000000000001e370       0x1a obj_cooja/mtype802.a(sicslowpan.o)
 .text.packetbuf_set_addr
                0x000000000001e38a       0x32 obj_cooja/mtype802.a(sicslowpan.o)
 .text.packetbuf_addr
                0x000000000001e3bc       0x1d obj_cooja/mtype802.a(sicslowpan.o)
 .text.clear_fragments
                0x000000000001e3d9       0x79 obj_cooja/mtype802.a(sicslowpan.o)
 .text.timeout_fragments
                0x000000000001e452       0x75 obj_cooja/mtype802.a(sicslowpan.o)
 .text.store_fragment
                0x000000000001e4c7       0xe8 obj_cooja/mtype802.a(sicslowpan.o)
 .text.add_fragment
                0x000000000001e5af      0x23e obj_cooja/mtype802.a(sicslowpan.o)
 .text.copy_frags2uip
                0x000000000001e7ed       0xe3 obj_cooja/mtype802.a(sicslowpan.o)
 .text.rime_sniffer_add
                0x000000000001e8d0        0xd obj_cooja/mtype802.a(sicslowpan.o)
                0x000000000001e8d0                rime_sniffer_add
 .text.rime_sniffer_remove
                0x000000000001e8dd        0xf obj_cooja/mtype802.a(sicslowpan.o)
                0x000000000001e8dd                rime_sniffer_remove
 .text.set_packet_attrs
                0x000000000001e8ec       0xe9 obj_cooja/mtype802.a(sicslowpan.o)
 .text.addr_context_lookup_by_prefix
                0x000000000001e9d5       0x7a obj_cooja/mtype802.a(sicslowpan.o)
 .text.addr_context_lookup_by_number
                0x000000000001ea4f       0x6a obj_cooja/mtype802.a(sicslowpan.o)
 .text.compress_addr_64
                0x000000000001eab9      0x16c obj_cooja/mtype802.a(sicslowpan.o)
 .text.uncompress_addr
                0x000000000001ec25      0x120 obj_cooja/mtype802.a(sicslowpan.o)
 .text.compress_hdr_iphc
                0x000000000001ed45      0x994 obj_cooja/mtype802.a(sicslowpan.o)
 .text.uncompress_hdr_iphc
                0x000000000001f6d9      0x7dd obj_cooja/mtype802.a(sicslowpan.o)
 .text.compress_hdr_ipv6
                0x000000000001feb6       0x68 obj_cooja/mtype802.a(sicslowpan.o)
 .text.packet_sent
                0x000000000001ff1e       0x3b obj_cooja/mtype802.a(sicslowpan.o)
 .text.send_packet
                0x000000000001ff59       0x36 obj_cooja/mtype802.a(sicslowpan.o)
 .text.output   0x000000000001ff8f      0x49d obj_cooja/mtype802.a(sicslowpan.o)
 .text.input    0x000000000002042c      0x458 obj_cooja/mtype802.a(sicslowpan.o)
 .text.sicslowpan_init
                0x0000000000020884       0x57 obj_cooja/mtype802.a(sicslowpan.o)
                0x0000000000020884                sicslowpan_init
 .text.sicslowpan_get_last_rssi
                0x00000000000208db        0xa obj_cooja/mtype802.a(sicslowpan.o)
                0x00000000000208db                sicslowpan_get_last_rssi
 .text          0x00000000000208e5        0x0 obj_cooja/mtype802.a(uip-ds6-nbr.o)
 .text.packetbuf_addr
                0x00000000000208e5       0x1d obj_cooja/mtype802.a(uip-ds6-nbr.o)
 .text.uip_ds6_neighbors_init
                0x0000000000020902       0x22 obj_cooja/mtype802.a(uip-ds6-nbr.o)
                0x0000000000020902                uip_ds6_neighbors_init
 .text.uip_ds6_nbr_add
                0x0000000000020924       0xe2 obj_cooja/mtype802.a(uip-ds6-nbr.o)
                0x0000000000020924                uip_ds6_nbr_add
 .text.uip_ds6_nbr_rm
                0x0000000000020a06       0x42 obj_cooja/mtype802.a(uip-ds6-nbr.o)
                0x0000000000020a06                uip_ds6_nbr_rm
 .text.uip_ds6_nbr_get_ipaddr
                0x0000000000020a48       0x15 obj_cooja/mtype802.a(uip-ds6-nbr.o)
                0x0000000000020a48                uip_ds6_nbr_get_ipaddr
 .text.uip_ds6_nbr_get_ll
                0x0000000000020a5d       0x1c obj_cooja/mtype802.a(uip-ds6-nbr.o)
                0x0000000000020a5d                uip_ds6_nbr_get_ll
 .text.uip_ds6_nbr_num
                0x0000000000020a79       0x45 obj_cooja/mtype802.a(uip-ds6-nbr.o)
                0x0000000000020a79                uip_ds6_nbr_num
 .text.uip_ds6_nbr_lookup
                0x0000000000020abe       0x65 obj_cooja/mtype802.a(uip-ds6-nbr.o)
                0x0000000000020abe                uip_ds6_nbr_lookup
 .text.uip_ds6_nbr_ll_lookup
                0x0000000000020b23       0x1c obj_cooja/mtype802.a(uip-ds6-nbr.o)
                0x0000000000020b23                uip_ds6_nbr_ll_lookup
 .text.uip_ds6_nbr_ipaddr_from_lladdr
                0x0000000000020b3f       0x26 obj_cooja/mtype802.a(uip-ds6-nbr.o)
                0x0000000000020b3f                uip_ds6_nbr_ipaddr_from_lladdr
 .text.uip_ds6_nbr_lladdr_from_ipaddr
                0x0000000000020b65       0x2e obj_cooja/mtype802.a(uip-ds6-nbr.o)
                0x0000000000020b65                uip_ds6_nbr_lladdr_from_ipaddr
 .text.uip_ds6_link_neighbor_callback
                0x0000000000020b93       0x62 obj_cooja/mtype802.a(uip-ds6-nbr.o)
                0x0000000000020b93                uip_ds6_link_neighbor_callback
 .text.uip_ds6_neighbor_periodic
                0x0000000000020bf5      0x244 obj_cooja/mtype802.a(uip-ds6-nbr.o)
                0x0000000000020bf5                uip_ds6_neighbor_periodic
 .text.uip_ds6_nbr_refresh_reachable_state
                0x0000000000020e39       0x40 obj_cooja/mtype802.a(uip-ds6-nbr.o)
                0x0000000000020e39                uip_ds6_nbr_refresh_reachable_state
 .text.uip_ds6_get_least_lifetime_neighbor
                0x0000000000020e79       0x7b obj_cooja/mtype802.a(uip-ds6-nbr.o)
                0x0000000000020e79                uip_ds6_get_least_lifetime_neighbor
 .text          0x0000000000020ef4        0x0 obj_cooja/mtype802.a(uip-ds6-route.o)
 .text.call_route_callback
                0x0000000000020ef4       0x77 obj_cooja/mtype802.a(uip-ds6-route.o)
 .text.uip_ds6_notification_add
                0x0000000000020f6b       0x31 obj_cooja/mtype802.a(uip-ds6-route.o)
                0x0000000000020f6b                uip_ds6_notification_add
 .text.uip_ds6_notification_rm
                0x0000000000020f9c       0x1c obj_cooja/mtype802.a(uip-ds6-route.o)
                0x0000000000020f9c                uip_ds6_notification_rm
 .text.uip_ds6_route_init
                0x0000000000020fb8       0x5c obj_cooja/mtype802.a(uip-ds6-route.o)
                0x0000000000020fb8                uip_ds6_route_init
 .text.uip_ds6_route_nexthop_lladdr
                0x0000000000021014       0x2c obj_cooja/mtype802.a(uip-ds6-route.o)
 .text.uip_ds6_route_nexthop
                0x0000000000021040       0x28 obj_cooja/mtype802.a(uip-ds6-route.o)
                0x0000000000021040                uip_ds6_route_nexthop
 .text.uip_ds6_route_head
                0x0000000000021068       0x15 obj_cooja/mtype802.a(uip-ds6-route.o)
                0x0000000000021068                uip_ds6_route_head
 .text.uip_ds6_route_next
                0x000000000002107d       0x26 obj_cooja/mtype802.a(uip-ds6-route.o)
                0x000000000002107d                uip_ds6_route_next
 .text.uip_ds6_route_is_nexthop
                0x00000000000210a3       0x3f obj_cooja/mtype802.a(uip-ds6-route.o)
                0x00000000000210a3                uip_ds6_route_is_nexthop
 .text.uip_ds6_route_num_routes
                0x00000000000210e2        0xa obj_cooja/mtype802.a(uip-ds6-route.o)
                0x00000000000210e2                uip_ds6_route_num_routes
 .text.uip_ds6_route_lookup
                0x00000000000210ec       0xc2 obj_cooja/mtype802.a(uip-ds6-route.o)
                0x00000000000210ec                uip_ds6_route_lookup
 .text.uip_ds6_route_add
                0x00000000000211ae      0x236 obj_cooja/mtype802.a(uip-ds6-route.o)
                0x00000000000211ae                uip_ds6_route_add
 .text.uip_ds6_route_rm
                0x00000000000213e4      0x11d obj_cooja/mtype802.a(uip-ds6-route.o)
                0x00000000000213e4                uip_ds6_route_rm
 .text.rm_routelist
                0x0000000000021501       0x64 obj_cooja/mtype802.a(uip-ds6-route.o)
 .text.rm_routelist_callback
                0x0000000000021565       0x13 obj_cooja/mtype802.a(uip-ds6-route.o)
 .text.uip_ds6_route_rm_by_nexthop
                0x0000000000021578       0x38 obj_cooja/mtype802.a(uip-ds6-route.o)
                0x0000000000021578                uip_ds6_route_rm_by_nexthop
 .text.uip_ds6_defrt_head
                0x00000000000215b0       0x15 obj_cooja/mtype802.a(uip-ds6-route.o)
                0x00000000000215b0                uip_ds6_defrt_head
 .text.uip_ds6_defrt_add
                0x00000000000215c5       0xb1 obj_cooja/mtype802.a(uip-ds6-route.o)
                0x00000000000215c5                uip_ds6_defrt_add
 .text.uip_ds6_defrt_rm
                0x0000000000021676       0x7f obj_cooja/mtype802.a(uip-ds6-route.o)
                0x0000000000021676                uip_ds6_defrt_rm
 .text.uip_ds6_defrt_lookup
                0x00000000000216f5       0x59 obj_cooja/mtype802.a(uip-ds6-route.o)
                0x00000000000216f5                uip_ds6_defrt_lookup
 .text.uip_ds6_defrt_choose
                0x000000000002174e       0x6b obj_cooja/mtype802.a(uip-ds6-route.o)
                0x000000000002174e                uip_ds6_defrt_choose
 .text.uip_ds6_defrt_periodic
                0x00000000000217b9       0x68 obj_cooja/mtype802.a(uip-ds6-route.o)
                0x00000000000217b9                uip_ds6_defrt_periodic
 .text          0x0000000000021821        0x0 obj_cooja/mtype802.a(uip-ds6.o)
 .text.uip_ds6_init
                0x0000000000021821      0x1d3 obj_cooja/mtype802.a(uip-ds6.o)
                0x0000000000021821                uip_ds6_init
 .text.uip_ds6_periodic
                0x00000000000219f4       0x7e obj_cooja/mtype802.a(uip-ds6.o)
                0x00000000000219f4                uip_ds6_periodic
 .text.uip_ds6_list_loop
                0x0000000000021a72       0xa7 obj_cooja/mtype802.a(uip-ds6.o)
                0x0000000000021a72                uip_ds6_list_loop
 .text.uip_ds6_prefix_add
                0x0000000000021b19       0xbe obj_cooja/mtype802.a(uip-ds6.o)
                0x0000000000021b19                uip_ds6_prefix_add
 .text.uip_ds6_prefix_rm
                0x0000000000021bd7       0x12 obj_cooja/mtype802.a(uip-ds6.o)
                0x0000000000021bd7                uip_ds6_prefix_rm
 .text.uip_ds6_prefix_lookup
                0x0000000000021be9       0x51 obj_cooja/mtype802.a(uip-ds6.o)
                0x0000000000021be9                uip_ds6_prefix_lookup
 .text.uip_ds6_is_addr_onlink
                0x0000000000021c3a       0x74 obj_cooja/mtype802.a(uip-ds6.o)
                0x0000000000021c3a                uip_ds6_is_addr_onlink
 .text.uip_ds6_addr_add
                0x0000000000021cae      0x12e obj_cooja/mtype802.a(uip-ds6.o)
                0x0000000000021cae                uip_ds6_addr_add
 .text.uip_ds6_addr_rm
                0x0000000000021ddc       0xa0 obj_cooja/mtype802.a(uip-ds6.o)
                0x0000000000021ddc                uip_ds6_addr_rm
 .text.uip_ds6_addr_lookup
                0x0000000000021e7c       0x4b obj_cooja/mtype802.a(uip-ds6.o)
                0x0000000000021e7c                uip_ds6_addr_lookup
 .text.uip_ds6_get_link_local
                0x0000000000021ec7       0x7f obj_cooja/mtype802.a(uip-ds6.o)
                0x0000000000021ec7                uip_ds6_get_link_local
 .text.uip_ds6_get_global
                0x0000000000021f46       0x7f obj_cooja/mtype802.a(uip-ds6.o)
                0x0000000000021f46                uip_ds6_get_global
 .text.uip_ds6_maddr_add
                0x0000000000021fc5       0x72 obj_cooja/mtype802.a(uip-ds6.o)
                0x0000000000021fc5                uip_ds6_maddr_add
 .text.uip_ds6_maddr_rm
                0x0000000000022037       0x12 obj_cooja/mtype802.a(uip-ds6.o)
                0x0000000000022037                uip_ds6_maddr_rm
 .text.uip_ds6_maddr_lookup
                0x0000000000022049       0x4b obj_cooja/mtype802.a(uip-ds6.o)
                0x0000000000022049                uip_ds6_maddr_lookup
 .text.uip_ds6_aaddr_add
                0x0000000000022094       0x72 obj_cooja/mtype802.a(uip-ds6.o)
                0x0000000000022094                uip_ds6_aaddr_add
 .text.uip_ds6_aaddr_rm
                0x0000000000022106       0x12 obj_cooja/mtype802.a(uip-ds6.o)
                0x0000000000022106                uip_ds6_aaddr_rm
 .text.uip_ds6_aaddr_lookup
                0x0000000000022118       0x4b obj_cooja/mtype802.a(uip-ds6.o)
                0x0000000000022118                uip_ds6_aaddr_lookup
 .text.uip_ds6_select_src
                0x0000000000022163      0x145 obj_cooja/mtype802.a(uip-ds6.o)
                0x0000000000022163                uip_ds6_select_src
 .text.uip_ds6_set_addr_iid
                0x00000000000222a8       0x37 obj_cooja/mtype802.a(uip-ds6.o)
                0x00000000000222a8                uip_ds6_set_addr_iid
 .text.get_match_length
                0x00000000000222df       0x92 obj_cooja/mtype802.a(uip-ds6.o)
                0x00000000000222df                get_match_length
 .text.uip_ds6_compute_reachable_time
                0x0000000000022371       0x4c obj_cooja/mtype802.a(uip-ds6.o)
                0x0000000000022371                uip_ds6_compute_reachable_time
 .text          0x00000000000223bd        0x0 obj_cooja/mtype802.a(uip-nd6.o)
 .text.extract_lladdr_from_llao_aligned
                0x00000000000223bd       0x42 obj_cooja/mtype802.a(uip-nd6.o)
 .text.create_llao
                0x00000000000223ff       0x54 obj_cooja/mtype802.a(uip-nd6.o)
 .text.ns_input
                0x0000000000022453      0x602 obj_cooja/mtype802.a(uip-nd6.o)
 .text.uip_nd6_ns_output
                0x0000000000022a55      0x2ff obj_cooja/mtype802.a(uip-nd6.o)
                0x0000000000022a55                uip_nd6_ns_output
 .text.na_input
                0x0000000000022d54      0x430 obj_cooja/mtype802.a(uip-nd6.o)
 .text.uip_nd6_init
                0x0000000000023184       0x20 obj_cooja/mtype802.a(uip-nd6.o)
                0x0000000000023184                uip_nd6_init
 .text          0x00000000000231a4        0x0 obj_cooja/mtype802.a(uip6.o)
 .text.uip_add32
                0x00000000000231a4       0xea obj_cooja/mtype802.a(uip6.o)
                0x00000000000231a4                uip_add32
 .text.chksum   0x000000000002328e       0xaf obj_cooja/mtype802.a(uip6.o)
 .text.uip_chksum
                0x000000000002333d       0x35 obj_cooja/mtype802.a(uip6.o)
                0x000000000002333d                uip_chksum
 .text.upper_layer_chksum
                0x0000000000023372       0xb9 obj_cooja/mtype802.a(uip6.o)
 .text.uip_icmp6chksum
                0x000000000002342b       0x14 obj_cooja/mtype802.a(uip6.o)
                0x000000000002342b                uip_icmp6chksum
 .text.uip_tcpchksum
                0x000000000002343f       0x14 obj_cooja/mtype802.a(uip6.o)
                0x000000000002343f                uip_tcpchksum
 .text.uip_udpchksum
                0x0000000000023453       0x14 obj_cooja/mtype802.a(uip6.o)
                0x0000000000023453                uip_udpchksum
 .text.uip_init
                0x0000000000023467       0x8b obj_cooja/mtype802.a(uip6.o)
                0x0000000000023467                uip_init
 .text.uip_connect
                0x00000000000234f2      0x181 obj_cooja/mtype802.a(uip6.o)
                0x00000000000234f2                uip_connect
 .text.remove_ext_hdr
                0x0000000000023673       0xd5 obj_cooja/mtype802.a(uip6.o)
                0x0000000000023673                remove_ext_hdr
 .text.uip_udp_new
                0x0000000000023748      0x127 obj_cooja/mtype802.a(uip6.o)
                0x0000000000023748                uip_udp_new
 .text.uip_unlisten
                0x000000000002386f       0x42 obj_cooja/mtype802.a(uip6.o)
                0x000000000002386f                uip_unlisten
 .text.uip_listen
                0x00000000000238b1       0x43 obj_cooja/mtype802.a(uip6.o)
                0x00000000000238b1                uip_listen
 .text.uip_add_rcv_nxt
                0x00000000000238f4       0x64 obj_cooja/mtype802.a(uip6.o)
 .text.ext_hdr_options_process
                0x0000000000023958      0x1fd obj_cooja/mtype802.a(uip6.o)
 .text.uip_process
                0x0000000000023b55     0x1ca1 obj_cooja/mtype802.a(uip6.o)
                0x0000000000023b55                uip_process
 .text.uip_htons
                0x00000000000257f6       0x22 obj_cooja/mtype802.a(uip6.o)
                0x00000000000257f6                uip_htons
 .text.uip_htonl
                0x0000000000025818       0x40 obj_cooja/mtype802.a(uip6.o)
                0x0000000000025818                uip_htonl
 .text.uip_send
                0x0000000000025858       0xaa obj_cooja/mtype802.a(uip6.o)
                0x0000000000025858                uip_send
 .text          0x0000000000025902        0x0 obj_cooja/mtype802.a(resolv.o)
 .text.decode_name
                0x0000000000025902       0xe8 obj_cooja/mtype802.a(resolv.o)
 .text.dns_name_isequal
                0x00000000000259ea      0x119 obj_cooja/mtype802.a(resolv.o)
 .text.skip_name
                0x0000000000025b03       0x48 obj_cooja/mtype802.a(resolv.o)
 .text.encode_name
                0x0000000000025b4b       0x73 obj_cooja/mtype802.a(resolv.o)
 .text.mdns_announce_requested
                0x0000000000025bbe        0xf obj_cooja/mtype802.a(resolv.o)
 .text.start_name_collision_check
                0x0000000000025bcd       0x27 obj_cooja/mtype802.a(resolv.o)
 .text.mdns_write_announce_records
                0x0000000000025bf4      0x155 obj_cooja/mtype802.a(resolv.o)
 .text.mdns_prep_host_announce_packet
                0x0000000000025d49       0xf5 obj_cooja/mtype802.a(resolv.o)
 .text.try_next_server
                0x0000000000025e3e       0x48 obj_cooja/mtype802.a(resolv.o)
 .text.check_entries
                0x0000000000025e86      0x311 obj_cooja/mtype802.a(resolv.o)
 .text.newdata  0x0000000000026197      0x545 obj_cooja/mtype802.a(resolv.o)
 .text.resolv_set_hostname
                0x00000000000266dc       0xa9 obj_cooja/mtype802.a(resolv.o)
                0x00000000000266dc                resolv_set_hostname
 .text.resolv_get_hostname
                0x0000000000026785        0xa obj_cooja/mtype802.a(resolv.o)
                0x0000000000026785                resolv_get_hostname
 .text.process_thread_mdns_probe_process
                0x000000000002678f      0x178 obj_cooja/mtype802.a(resolv.o)
 .text.process_thread_resolv_process
                0x0000000000026907      0x1f6 obj_cooja/mtype802.a(resolv.o)
 .text.init     0x0000000000026afd       0x2e obj_cooja/mtype802.a(resolv.o)
 .text.remove_trailing_dots
                0x0000000000026b2b       0x7b obj_cooja/mtype802.a(resolv.o)
 .text.resolv_query
                0x0000000000026ba6      0x22e obj_cooja/mtype802.a(resolv.o)
                0x0000000000026ba6                resolv_query
 .text.resolv_lookup
                0x0000000000026dd4       0xcc obj_cooja/mtype802.a(resolv.o)
                0x0000000000026dd4                resolv_lookup
 .text.resolv_found
                0x0000000000026ea0      0x1da obj_cooja/mtype802.a(resolv.o)
 .text          0x000000000002707a        0x0 obj_cooja/mtype802.a(tcpip.o)
 .text.tcpip_output
                0x000000000002707a       0x2e obj_cooja/mtype802.a(tcpip.o)
                0x000000000002707a                tcpip_output
 .text.tcpip_set_outputfunc
                0x00000000000270a8        0xd obj_cooja/mtype802.a(tcpip.o)
                0x00000000000270a8                tcpip_set_outputfunc
 .text.start_periodic_tcp_timer
                0x00000000000270b5       0x24 obj_cooja/mtype802.a(tcpip.o)
 .text.check_for_tcp_syn
                0x00000000000270d9       0x2d obj_cooja/mtype802.a(tcpip.o)
 .text.packet_input
                0x0000000000027106       0x36 obj_cooja/mtype802.a(tcpip.o)
 .text.tcp_connect
                0x000000000002713c       0x55 obj_cooja/mtype802.a(tcpip.o)
                0x000000000002713c                tcp_connect
 .text.tcp_unlisten
                0x0000000000027191       0x5b obj_cooja/mtype802.a(tcpip.o)
                0x0000000000027191                tcp_unlisten
 .text.tcp_listen
                0x00000000000271ec       0x59 obj_cooja/mtype802.a(tcpip.o)
                0x00000000000271ec                tcp_listen
 .text.tcp_attach
                0x0000000000027245       0x25 obj_cooja/mtype802.a(tcpip.o)
                0x0000000000027245                tcp_attach
 .text.udp_attach
                0x000000000002726a       0x25 obj_cooja/mtype802.a(tcpip.o)
                0x000000000002726a                udp_attach
 .text.udp_new  0x000000000002728f       0x52 obj_cooja/mtype802.a(tcpip.o)
                0x000000000002728f                udp_new
 .text.udp_broadcast_new
                0x00000000000272e1       0x92 obj_cooja/mtype802.a(tcpip.o)
                0x00000000000272e1                udp_broadcast_new
 .text.eventhandler
                0x0000000000027373      0x1e2 obj_cooja/mtype802.a(tcpip.o)
 .text.tcpip_input
                0x0000000000027555       0x34 obj_cooja/mtype802.a(tcpip.o)
                0x0000000000027555                tcpip_input
 .text.tcpip_ipv6_output
                0x0000000000027589      0x4b5 obj_cooja/mtype802.a(tcpip.o)
                0x0000000000027589                tcpip_ipv6_output
 .text.tcpip_poll_udp
                0x0000000000027a3e       0x23 obj_cooja/mtype802.a(tcpip.o)
                0x0000000000027a3e                tcpip_poll_udp
 .text.tcpip_poll_tcp
                0x0000000000027a61       0x23 obj_cooja/mtype802.a(tcpip.o)
                0x0000000000027a61                tcpip_poll_tcp
 .text.tcpip_uipcall
                0x0000000000027a84       0xbd obj_cooja/mtype802.a(tcpip.o)
                0x0000000000027a84                tcpip_uipcall
 .text.process_thread_tcpip_process
                0x0000000000027b41       0xb7 obj_cooja/mtype802.a(tcpip.o)
 .text          0x0000000000027bf8        0x0 obj_cooja/mtype802.a(uip-debug.o)
 .text.uip_debug_ipaddr_print
                0x0000000000027bf8      0x162 obj_cooja/mtype802.a(uip-debug.o)
                0x0000000000027bf8                uip_debug_ipaddr_print
 .text          0x0000000000027d5a        0x0 obj_cooja/mtype802.a(uip-nameserver.)
 .text.uip_nameserver_update
                0x0000000000027d5a       0x32 obj_cooja/mtype802.a(uip-nameserver.)
                0x0000000000027d5a                uip_nameserver_update
 .text.uip_nameserver_get
                0x0000000000027d8c       0x20 obj_cooja/mtype802.a(uip-nameserver.)
                0x0000000000027d8c                uip_nameserver_get
 .text.uip_nameserver_next_expiration
                0x0000000000027dac        0xa obj_cooja/mtype802.a(uip-nameserver.)
                0x0000000000027dac                uip_nameserver_next_expiration
 .text.uip_nameserver_count
                0x0000000000027db6       0x71 obj_cooja/mtype802.a(uip-nameserver.)
                0x0000000000027db6                uip_nameserver_count
 .text          0x0000000000027e27        0x0 obj_cooja/mtype802.a(uip-packetqueue)
 .text.packet_timedout
                0x0000000000027e27       0x2c obj_cooja/mtype802.a(uip-packetqueue)
 .text.uip_packetqueue_new
                0x0000000000027e53        0xe obj_cooja/mtype802.a(uip-packetqueue)
                0x0000000000027e53                uip_packetqueue_new
 .text.uip_packetqueue_alloc
                0x0000000000027e61       0x60 obj_cooja/mtype802.a(uip-packetqueue)
                0x0000000000027e61                uip_packetqueue_alloc
 .text.uip_packetqueue_free
                0x0000000000027ec1       0x41 obj_cooja/mtype802.a(uip-packetqueue)
                0x0000000000027ec1                uip_packetqueue_free
 .text.uip_packetqueue_buf
                0x0000000000027f02       0x1d obj_cooja/mtype802.a(uip-packetqueue)
                0x0000000000027f02                uip_packetqueue_buf
 .text.uip_packetqueue_buflen
                0x0000000000027f1f       0x21 obj_cooja/mtype802.a(uip-packetqueue)
                0x0000000000027f1f                uip_packetqueue_buflen
 .text.uip_packetqueue_set_buflen
                0x0000000000027f40       0x28 obj_cooja/mtype802.a(uip-packetqueue)
                0x0000000000027f40                uip_packetqueue_set_buflen
 .text          0x0000000000027f68        0x0 obj_cooja/mtype802.a(uip-udp-packet.)
 .text.uip_udp_packet_send
                0x0000000000027f68       0x5c obj_cooja/mtype802.a(uip-udp-packet.)
                0x0000000000027f68                uip_udp_packet_send
 .text.uip_udp_packet_sendto
                0x0000000000027fc4       0xd1 obj_cooja/mtype802.a(uip-udp-packet.)
                0x0000000000027fc4                uip_udp_packet_sendto
 .text          0x0000000000028095        0x0 obj_cooja/mtype802.a(uiplib.o)
 .text.uiplib_ip6addrconv
                0x0000000000028095      0x1c0 obj_cooja/mtype802.a(uiplib.o)
                0x0000000000028095                uiplib_ip6addrconv
 .text.uiplib_ip4addrconv
                0x0000000000028255       0xc3 obj_cooja/mtype802.a(uiplib.o)
                0x0000000000028255                uiplib_ip4addrconv
 .text          0x0000000000028318        0x0 obj_cooja/mtype802.a(rpl-dag.o)
 .text.rpl_print_neighbor_list
                0x0000000000028318      0x1e6 obj_cooja/mtype802.a(rpl-dag.o)
                0x0000000000028318                rpl_print_neighbor_list
 .text.rpl_get_nbr
                0x00000000000284fe       0x37 obj_cooja/mtype802.a(rpl-dag.o)
                0x00000000000284fe                rpl_get_nbr
 .text.nbr_callback
                0x0000000000028535       0x13 obj_cooja/mtype802.a(rpl-dag.o)
 .text.rpl_dag_init
                0x0000000000028548       0x1d obj_cooja/mtype802.a(rpl-dag.o)
                0x0000000000028548                rpl_dag_init
 .text.rpl_get_parent
                0x0000000000028565       0x22 obj_cooja/mtype802.a(rpl-dag.o)
                0x0000000000028565                rpl_get_parent
 .text.rpl_get_parent_rank
                0x0000000000028587       0x33 obj_cooja/mtype802.a(rpl-dag.o)
                0x0000000000028587                rpl_get_parent_rank
 .text.rpl_get_parent_link_metric
                0x00000000000285ba       0x57 obj_cooja/mtype802.a(rpl-dag.o)
                0x00000000000285ba                rpl_get_parent_link_metric
 .text.rpl_rank_via_parent
                0x0000000000028611       0x57 obj_cooja/mtype802.a(rpl-dag.o)
                0x0000000000028611                rpl_rank_via_parent
 .text.rpl_get_parent_lladdr
                0x0000000000028668       0x1c obj_cooja/mtype802.a(rpl-dag.o)
                0x0000000000028668                rpl_get_parent_lladdr
 .text.rpl_get_parent_ipaddr
                0x0000000000028684       0x21 obj_cooja/mtype802.a(rpl-dag.o)
                0x0000000000028684                rpl_get_parent_ipaddr
 .text.rpl_get_parent_link_stats
                0x00000000000286a5       0x21 obj_cooja/mtype802.a(rpl-dag.o)
                0x00000000000286a5                rpl_get_parent_link_stats
 .text.rpl_parent_is_fresh
                0x00000000000286c6       0x21 obj_cooja/mtype802.a(rpl-dag.o)
                0x00000000000286c6                rpl_parent_is_fresh
 .text.rpl_parent_is_reachable
                0x00000000000286e7       0x94 obj_cooja/mtype802.a(rpl-dag.o)
                0x00000000000286e7                rpl_parent_is_reachable
 .text.rpl_set_preferred_parent
                0x000000000002877b       0x4d obj_cooja/mtype802.a(rpl-dag.o)
 .text.lollipop_greater_than
                0x00000000000287c8       0x61 obj_cooja/mtype802.a(rpl-dag.o)
 .text.remove_parents
                0x0000000000028829       0x60 obj_cooja/mtype802.a(rpl-dag.o)
 .text.nullify_parents
                0x0000000000028889       0x60 obj_cooja/mtype802.a(rpl-dag.o)
 .text.should_refresh_routes
                0x00000000000288e9       0x5b obj_cooja/mtype802.a(rpl-dag.o)
 .text.acceptable_rank
                0x0000000000028944       0x8f obj_cooja/mtype802.a(rpl-dag.o)
 .text.get_dag  0x00000000000289d3       0x81 obj_cooja/mtype802.a(rpl-dag.o)
 .text.rpl_set_root
                0x0000000000028a54      0x257 obj_cooja/mtype802.a(rpl-dag.o)
                0x0000000000028a54                rpl_set_root
 .text.rpl_repair_root
                0x0000000000028cab       0xd6 obj_cooja/mtype802.a(rpl-dag.o)
                0x0000000000028cab                rpl_repair_root
 .text.set_ip_from_prefix
                0x0000000000028d81       0x66 obj_cooja/mtype802.a(rpl-dag.o)
 .text.check_prefix
                0x0000000000028de7      0x100 obj_cooja/mtype802.a(rpl-dag.o)
 .text.rpl_set_prefix
                0x0000000000028ee7       0xff obj_cooja/mtype802.a(rpl-dag.o)
                0x0000000000028ee7                rpl_set_prefix
 .text.rpl_set_default_route
                0x0000000000028fe6       0x6e obj_cooja/mtype802.a(rpl-dag.o)
                0x0000000000028fe6                rpl_set_default_route
 .text.rpl_alloc_instance
                0x0000000000029054       0x93 obj_cooja/mtype802.a(rpl-dag.o)
                0x0000000000029054                rpl_alloc_instance
 .text.rpl_alloc_dag
                0x00000000000290e7       0xb1 obj_cooja/mtype802.a(rpl-dag.o)
                0x00000000000290e7                rpl_alloc_dag
 .text.rpl_set_default_instance
                0x0000000000029198        0xd obj_cooja/mtype802.a(rpl-dag.o)
                0x0000000000029198                rpl_set_default_instance
 .text.rpl_get_default_instance
                0x00000000000291a5        0xa obj_cooja/mtype802.a(rpl-dag.o)
                0x00000000000291a5                rpl_get_default_instance
 .text.rpl_free_instance
                0x00000000000291af       0xaf obj_cooja/mtype802.a(rpl-dag.o)
                0x00000000000291af                rpl_free_instance
 .text.rpl_free_dag
                0x000000000002925e       0x81 obj_cooja/mtype802.a(rpl-dag.o)
                0x000000000002925e                rpl_free_dag
 .text.rpl_add_parent
                0x00000000000292df       0x75 obj_cooja/mtype802.a(rpl-dag.o)
                0x00000000000292df                rpl_add_parent
 .text.find_parent_any_dag_any_instance
                0x0000000000029354       0x38 obj_cooja/mtype802.a(rpl-dag.o)
 .text.rpl_find_parent
                0x000000000002938c       0x30 obj_cooja/mtype802.a(rpl-dag.o)
                0x000000000002938c                rpl_find_parent
 .text.find_parent_dag
                0x00000000000293bc       0x28 obj_cooja/mtype802.a(rpl-dag.o)
 .text.rpl_find_parent_any_dag
                0x00000000000293e4       0x3c obj_cooja/mtype802.a(rpl-dag.o)
                0x00000000000293e4                rpl_find_parent_any_dag
 .text.rpl_select_dag
                0x0000000000029420      0x322 obj_cooja/mtype802.a(rpl-dag.o)
                0x0000000000029420                rpl_select_dag
 .text.best_parent
                0x0000000000029742       0xfd obj_cooja/mtype802.a(rpl-dag.o)
 .text.rpl_select_parent
                0x000000000002983f       0xda obj_cooja/mtype802.a(rpl-dag.o)
                0x000000000002983f                rpl_select_parent
 .text.rpl_remove_parent
                0x0000000000029919       0x27 obj_cooja/mtype802.a(rpl-dag.o)
                0x0000000000029919                rpl_remove_parent
 .text.rpl_nullify_parent
                0x0000000000029940       0xc1 obj_cooja/mtype802.a(rpl-dag.o)
                0x0000000000029940                rpl_nullify_parent
 .text.rpl_move_parent
                0x0000000000029a01       0xb8 obj_cooja/mtype802.a(rpl-dag.o)
                0x0000000000029a01                rpl_move_parent
 .text.rpl_has_downward_route
                0x0000000000029ab9       0x53 obj_cooja/mtype802.a(rpl-dag.o)
                0x0000000000029ab9                rpl_has_downward_route
 .text.rpl_get_dag
                0x0000000000029b0c       0xec obj_cooja/mtype802.a(rpl-dag.o)
                0x0000000000029b0c                rpl_get_dag
 .text.rpl_get_any_dag
                0x0000000000029bf8       0x62 obj_cooja/mtype802.a(rpl-dag.o)
                0x0000000000029bf8                rpl_get_any_dag
 .text.rpl_get_instance
                0x0000000000029c5a       0x63 obj_cooja/mtype802.a(rpl-dag.o)
                0x0000000000029c5a                rpl_get_instance
 .text.rpl_find_of
                0x0000000000029cbd       0x3d obj_cooja/mtype802.a(rpl-dag.o)
                0x0000000000029cbd                rpl_find_of
 .text.rpl_join_instance
                0x0000000000029cfa      0x2c0 obj_cooja/mtype802.a(rpl-dag.o)
                0x0000000000029cfa                rpl_join_instance
 .text.rpl_add_dag
                0x0000000000029fba      0x27c obj_cooja/mtype802.a(rpl-dag.o)
                0x0000000000029fba                rpl_add_dag
 .text.global_repair
                0x000000000002a236      0x154 obj_cooja/mtype802.a(rpl-dag.o)
 .text.rpl_local_repair
                0x000000000002a38a       0xd8 obj_cooja/mtype802.a(rpl-dag.o)
                0x000000000002a38a                rpl_local_repair
 .text.rpl_recalculate_ranks
                0x000000000002a462       0x86 obj_cooja/mtype802.a(rpl-dag.o)
                0x000000000002a462                rpl_recalculate_ranks
 .text.rpl_process_parent_event
                0x000000000002a4e8       0xfb obj_cooja/mtype802.a(rpl-dag.o)
                0x000000000002a4e8                rpl_process_parent_event
 .text.add_nbr_from_dio
                0x000000000002a5e3       0x32 obj_cooja/mtype802.a(rpl-dag.o)
 .text.rpl_process_dio
                0x000000000002a615      0x4da obj_cooja/mtype802.a(rpl-dag.o)
                0x000000000002a615                rpl_process_dio
 .text          0x000000000002aaef        0x0 obj_cooja/mtype802.a(rpl-ext-header.)
 .text.packetbuf_addr
                0x000000000002aaef       0x1d obj_cooja/mtype802.a(rpl-ext-header.)
 .text.rpl_verify_hbh_header
                0x000000000002ab0c      0x2c8 obj_cooja/mtype802.a(rpl-ext-header.)
                0x000000000002ab0c                rpl_verify_hbh_header
 .text.update_hbh_header
                0x000000000002add4      0x2b8 obj_cooja/mtype802.a(rpl-ext-header.)
 .text.insert_hbh_header
                0x000000000002b08c      0x203 obj_cooja/mtype802.a(rpl-ext-header.)
 .text.rpl_remove_header
                0x000000000002b28f      0x163 obj_cooja/mtype802.a(rpl-ext-header.)
                0x000000000002b28f                rpl_remove_header
 .text.rpl_update_header
                0x000000000002b3f2       0xcc obj_cooja/mtype802.a(rpl-ext-header.)
                0x000000000002b3f2                rpl_update_header
 .text          0x000000000002b4be        0x0 obj_cooja/mtype802.a(rpl-icmp6.o)
 .text.packetbuf_addr
                0x000000000002b4be       0x1d obj_cooja/mtype802.a(rpl-icmp6.o)
 .text.prepare_for_dao_fwd
                0x000000000002b4db       0x6c obj_cooja/mtype802.a(rpl-icmp6.o)
 .text.get_global_addr
                0x000000000002b547       0xb3 obj_cooja/mtype802.a(rpl-icmp6.o)
 .text.get32    0x000000000002b5fa       0x57 obj_cooja/mtype802.a(rpl-icmp6.o)
 .text.set32    0x000000000002b651       0x62 obj_cooja/mtype802.a(rpl-icmp6.o)
 .text.get16    0x000000000002b6b3       0x2b obj_cooja/mtype802.a(rpl-icmp6.o)
 .text.set16    0x000000000002b6de       0x3f obj_cooja/mtype802.a(rpl-icmp6.o)
 .text.rpl_icmp6_update_nbr_table
                0x000000000002b71d       0x5b obj_cooja/mtype802.a(rpl-icmp6.o)
                0x000000000002b71d                rpl_icmp6_update_nbr_table
 .text.dis_input
                0x000000000002b778       0x95 obj_cooja/mtype802.a(rpl-icmp6.o)
 .text.dis_output
                0x000000000002b80d       0xaf obj_cooja/mtype802.a(rpl-icmp6.o)
                0x000000000002b80d                dis_output
 .text.dio_input
                0x000000000002b8bc      0x58a obj_cooja/mtype802.a(rpl-icmp6.o)
 .text.dio_output
                0x000000000002be46      0x622 obj_cooja/mtype802.a(rpl-icmp6.o)
                0x000000000002be46                dio_output
 .text.dao_input_storing
                0x000000000002c468      0x6d8 obj_cooja/mtype802.a(rpl-icmp6.o)
 .text.dao_input_nonstoring
                0x000000000002cb40        0x5 obj_cooja/mtype802.a(rpl-icmp6.o)
 .text.dao_input
                0x000000000002cb45       0x5f obj_cooja/mtype802.a(rpl-icmp6.o)
 .text.dao_output
                0x000000000002cba4       0xbb obj_cooja/mtype802.a(rpl-icmp6.o)
                0x000000000002cba4                dao_output
 .text.dao_output_target
                0x000000000002cc5f       0x36 obj_cooja/mtype802.a(rpl-icmp6.o)
                0x000000000002cc5f                dao_output_target
 .text.dao_output_target_seq
                0x000000000002cc95      0x2ff obj_cooja/mtype802.a(rpl-icmp6.o)
 .text.dao_ack_input
                0x000000000002cf94       0x15 obj_cooja/mtype802.a(rpl-icmp6.o)
 .text.dao_ack_output
                0x000000000002cfa9       0x14 obj_cooja/mtype802.a(rpl-icmp6.o)
                0x000000000002cfa9                dao_ack_output
 .text.rpl_icmp6_register_handlers
                0x000000000002cfbd       0x38 obj_cooja/mtype802.a(rpl-icmp6.o)
                0x000000000002cfbd                rpl_icmp6_register_handlers
 .text          0x000000000002cff5        0x0 obj_cooja/mtype802.a(rpl-mrhof.o)
 .text.reset    0x000000000002cff5        0x5 obj_cooja/mtype802.a(rpl-mrhof.o)
 .text.parent_link_metric
                0x000000000002cffa       0x29 obj_cooja/mtype802.a(rpl-mrhof.o)
 .text.parent_path_cost
                0x000000000002d023       0x6d obj_cooja/mtype802.a(rpl-mrhof.o)
 .text.rank_via_parent
                0x000000000002d090       0x72 obj_cooja/mtype802.a(rpl-mrhof.o)
 .text.parent_is_acceptable
                0x000000000002d102       0x42 obj_cooja/mtype802.a(rpl-mrhof.o)
 .text.parent_has_usable_link
                0x000000000002d144       0x23 obj_cooja/mtype802.a(rpl-mrhof.o)
 .text.best_parent
                0x000000000002d167       0xf7 obj_cooja/mtype802.a(rpl-mrhof.o)
 .text.best_dag
                0x000000000002d25e       0x75 obj_cooja/mtype802.a(rpl-mrhof.o)
 .text.update_metric_container
                0x000000000002d2d3        0xb obj_cooja/mtype802.a(rpl-mrhof.o)
 .text          0x000000000002d2de        0x0 obj_cooja/mtype802.a(rpl-timers.o)
 .text.handle_periodic_timer
                0x000000000002d2de       0x84 obj_cooja/mtype802.a(rpl-timers.o)
 .text.new_dio_interval
                0x000000000002d362       0xca obj_cooja/mtype802.a(rpl-timers.o)
 .text.handle_dio_timer
                0x000000000002d42c      0x12d obj_cooja/mtype802.a(rpl-timers.o)
 .text.rpl_reset_periodic_timer
                0x000000000002d559       0x55 obj_cooja/mtype802.a(rpl-timers.o)
                0x000000000002d559                rpl_reset_periodic_timer
 .text.rpl_reset_dio_timer
                0x000000000002d5ae       0x48 obj_cooja/mtype802.a(rpl-timers.o)
                0x000000000002d5ae                rpl_reset_dio_timer
 .text.set_dao_lifetime_timer
                0x000000000002d5f6       0x8c obj_cooja/mtype802.a(rpl-timers.o)
 .text.handle_dao_timer
                0x000000000002d682       0xb1 obj_cooja/mtype802.a(rpl-timers.o)
 .text.schedule_dao
                0x000000000002d733       0xa2 obj_cooja/mtype802.a(rpl-timers.o)
 .text.rpl_schedule_dao
                0x000000000002d7d5       0x1b obj_cooja/mtype802.a(rpl-timers.o)
                0x000000000002d7d5                rpl_schedule_dao
 .text.rpl_schedule_dao_immediately
                0x000000000002d7f0       0x1b obj_cooja/mtype802.a(rpl-timers.o)
                0x000000000002d7f0                rpl_schedule_dao_immediately
 .text.rpl_cancel_dao
                0x000000000002d80b       0x28 obj_cooja/mtype802.a(rpl-timers.o)
                0x000000000002d80b                rpl_cancel_dao
 .text.handle_unicast_dio_timer
                0x000000000002d833       0x3a obj_cooja/mtype802.a(rpl-timers.o)
 .text.rpl_schedule_unicast_dio_immediately
                0x000000000002d86d       0x30 obj_cooja/mtype802.a(rpl-timers.o)
                0x000000000002d86d                rpl_schedule_unicast_dio_immediately
 .text.get_probing_delay
                0x000000000002d89d       0x7f obj_cooja/mtype802.a(rpl-timers.o)
                0x000000000002d89d                get_probing_delay
 .text.get_probing_target
                0x000000000002d91c      0x18c obj_cooja/mtype802.a(rpl-timers.o)
                0x000000000002d91c                get_probing_target
 .text.handle_probing_timer
                0x000000000002daa8       0x6b obj_cooja/mtype802.a(rpl-timers.o)
 .text.rpl_schedule_probing
                0x000000000002db13       0x3a obj_cooja/mtype802.a(rpl-timers.o)
                0x000000000002db13                rpl_schedule_probing
 .text          0x000000000002db4d        0x0 obj_cooja/mtype802.a(rpl.o)
 .text.rpl_get_mode
                0x000000000002db4d        0xa obj_cooja/mtype802.a(rpl.o)
                0x000000000002db4d                rpl_get_mode
 .text.rpl_set_mode
                0x000000000002db57       0x8e obj_cooja/mtype802.a(rpl.o)
                0x000000000002db57                rpl_set_mode
 .text.rpl_purge_routes
                0x000000000002dbe5      0x105 obj_cooja/mtype802.a(rpl.o)
                0x000000000002dbe5                rpl_purge_routes
 .text.rpl_remove_routes
                0x000000000002dcea       0x46 obj_cooja/mtype802.a(rpl.o)
                0x000000000002dcea                rpl_remove_routes
 .text.rpl_remove_routes_by_nexthop
                0x000000000002dd30       0x61 obj_cooja/mtype802.a(rpl.o)
                0x000000000002dd30                rpl_remove_routes_by_nexthop
 .text.rpl_add_route
                0x000000000002dd91       0x93 obj_cooja/mtype802.a(rpl.o)
                0x000000000002dd91                rpl_add_route
 .text.rpl_link_neighbor_callback
                0x000000000002de24       0xca obj_cooja/mtype802.a(rpl.o)
                0x000000000002de24                rpl_link_neighbor_callback
 .text.rpl_ipv6_neighbor_callback
                0x000000000002deee       0x6f obj_cooja/mtype802.a(rpl.o)
                0x000000000002deee                rpl_ipv6_neighbor_callback
 .text.rpl_purge_dags
                0x000000000002df5d       0xe2 obj_cooja/mtype802.a(rpl.o)
                0x000000000002df5d                rpl_purge_dags
 .text.rpl_init
                0x000000000002e03f       0x78 obj_cooja/mtype802.a(rpl.o)
                0x000000000002e03f                rpl_init
 .text          0x000000000002e0b7        0x0 obj_cooja/mtype802.a(link-stats.o)
 .text.packetbuf_attr
                0x000000000002e0b7       0x1a obj_cooja/mtype802.a(link-stats.o)
 .text.link_stats_from_lladdr
                0x000000000002e0d1       0x1c obj_cooja/mtype802.a(link-stats.o)
                0x000000000002e0d1                link_stats_from_lladdr
 .text.link_stats_is_fresh
                0x000000000002e0ed       0x39 obj_cooja/mtype802.a(link-stats.o)
                0x000000000002e0ed                link_stats_is_fresh
 .text.guess_etx_from_rssi
                0x000000000002e126       0x7c obj_cooja/mtype802.a(link-stats.o)
                0x000000000002e126                guess_etx_from_rssi
 .text.link_stats_packet_sent
                0x000000000002e1a2      0x10e obj_cooja/mtype802.a(link-stats.o)
                0x000000000002e1a2                link_stats_packet_sent
 .text.link_stats_input_callback
                0x000000000002e2b0       0xaf obj_cooja/mtype802.a(link-stats.o)
                0x000000000002e2b0                link_stats_input_callback
 .text.periodic
                0x000000000002e35f       0x54 obj_cooja/mtype802.a(link-stats.o)
 .text.link_stats_init
                0x000000000002e3b3       0x41 obj_cooja/mtype802.a(link-stats.o)
                0x000000000002e3b3                link_stats_init
 .text          0x000000000002e3f4        0x0 obj_cooja/mtype802.a(linkaddr.o)
 .text.linkaddr_copy
                0x000000000002e3f4       0x22 obj_cooja/mtype802.a(linkaddr.o)
                0x000000000002e3f4                linkaddr_copy
 .text.linkaddr_cmp
                0x000000000002e416       0x2a obj_cooja/mtype802.a(linkaddr.o)
                0x000000000002e416                linkaddr_cmp
 .text.linkaddr_set_node_addr
                0x000000000002e440       0x1b obj_cooja/mtype802.a(linkaddr.o)
                0x000000000002e440                linkaddr_set_node_addr
 .text          0x000000000002e45b        0x0 obj_cooja/mtype802.a(nbr-table.o)
 .text.key_from_index
                0x000000000002e45b       0x26 obj_cooja/mtype802.a(nbr-table.o)
 .text.item_from_index
                0x000000000002e481       0x2a obj_cooja/mtype802.a(nbr-table.o)
 .text.index_from_key
                0x000000000002e4ab       0x27 obj_cooja/mtype802.a(nbr-table.o)
 .text.index_from_item
                0x000000000002e4d2       0x32 obj_cooja/mtype802.a(nbr-table.o)
 .text.item_from_key
                0x000000000002e504       0x22 obj_cooja/mtype802.a(nbr-table.o)
 .text.key_from_item
                0x000000000002e526       0x22 obj_cooja/mtype802.a(nbr-table.o)
 .text.index_from_lladdr
                0x000000000002e548       0x6c obj_cooja/mtype802.a(nbr-table.o)
 .text.nbr_get_bit
                0x000000000002e5b4       0x54 obj_cooja/mtype802.a(nbr-table.o)
 .text.nbr_set_bit
                0x000000000002e608       0x98 obj_cooja/mtype802.a(nbr-table.o)
 .text.remove_key
                0x000000000002e6a0       0xb7 obj_cooja/mtype802.a(nbr-table.o)
 .text.nbr_table_allocate
                0x000000000002e757      0x173 obj_cooja/mtype802.a(nbr-table.o)
 .text.nbr_table_register
                0x000000000002e8ca       0x48 obj_cooja/mtype802.a(nbr-table.o)
                0x000000000002e8ca                nbr_table_register
 .text.nbr_table_head
                0x000000000002e912       0x5c obj_cooja/mtype802.a(nbr-table.o)
                0x000000000002e912                nbr_table_head
 .text.nbr_table_next
                0x000000000002e96e       0x67 obj_cooja/mtype802.a(nbr-table.o)
                0x000000000002e96e                nbr_table_next
 .text.nbr_table_add_lladdr
                0x000000000002e9d5       0xdc obj_cooja/mtype802.a(nbr-table.o)
                0x000000000002e9d5                nbr_table_add_lladdr
 .text.nbr_table_get_from_lladdr
                0x000000000002eab1       0x4d obj_cooja/mtype802.a(nbr-table.o)
                0x000000000002eab1                nbr_table_get_from_lladdr
 .text.nbr_table_remove
                0x000000000002eafe       0x52 obj_cooja/mtype802.a(nbr-table.o)
                0x000000000002eafe                nbr_table_remove
 .text.nbr_table_lock
                0x000000000002eb50       0x2a obj_cooja/mtype802.a(nbr-table.o)
                0x000000000002eb50                nbr_table_lock
 .text.nbr_table_unlock
                0x000000000002eb7a       0x2a obj_cooja/mtype802.a(nbr-table.o)
                0x000000000002eb7a                nbr_table_unlock
 .text.nbr_table_get_lladdr
                0x000000000002eba4       0x30 obj_cooja/mtype802.a(nbr-table.o)
                0x000000000002eba4                nbr_table_get_lladdr
 .text.nbr_table_update_lladdr
                0x000000000002ebd4       0x96 obj_cooja/mtype802.a(nbr-table.o)
                0x000000000002ebd4                nbr_table_update_lladdr
 .text          0x000000000002ec6a        0x0 obj_cooja/mtype802.a(netstack.o)
 .text.netstack_init
                0x000000000002ec6a       0x2b obj_cooja/mtype802.a(netstack.o)
                0x000000000002ec6a                netstack_init
 .text          0x000000000002ec95        0x0 obj_cooja/mtype802.a(packetbuf.o)
 .text.packetbuf_clear
                0x000000000002ec95       0x2a obj_cooja/mtype802.a(packetbuf.o)
                0x000000000002ec95                packetbuf_clear
 .text.packetbuf_copyfrom
                0x000000000002ecbf       0x52 obj_cooja/mtype802.a(packetbuf.o)
                0x000000000002ecbf                packetbuf_copyfrom
 .text.packetbuf_compact
                0x000000000002ed11       0x7d obj_cooja/mtype802.a(packetbuf.o)
                0x000000000002ed11                packetbuf_compact
 .text.packetbuf_copyto
                0x000000000002ed8e       0x97 obj_cooja/mtype802.a(packetbuf.o)
                0x000000000002ed8e                packetbuf_copyto
 .text.packetbuf_hdralloc
                0x000000000002ee25       0x7d obj_cooja/mtype802.a(packetbuf.o)
                0x000000000002ee25                packetbuf_hdralloc
 .text.packetbuf_hdrreduce
                0x000000000002eea2       0x48 obj_cooja/mtype802.a(packetbuf.o)
                0x000000000002eea2                packetbuf_hdrreduce
 .text.packetbuf_set_datalen
                0x000000000002eeea       0x19 obj_cooja/mtype802.a(packetbuf.o)
                0x000000000002eeea                packetbuf_set_datalen
 .text.packetbuf_dataptr
                0x000000000002ef03       0x1d obj_cooja/mtype802.a(packetbuf.o)
                0x000000000002ef03                packetbuf_dataptr
 .text.packetbuf_hdrptr
                0x000000000002ef20        0xa obj_cooja/mtype802.a(packetbuf.o)
                0x000000000002ef20                packetbuf_hdrptr
 .text.packetbuf_datalen
                0x000000000002ef2a        0xc obj_cooja/mtype802.a(packetbuf.o)
                0x000000000002ef2a                packetbuf_datalen
 .text.packetbuf_hdrlen
                0x000000000002ef36       0x17 obj_cooja/mtype802.a(packetbuf.o)
                0x000000000002ef36                packetbuf_hdrlen
 .text.packetbuf_totlen
                0x000000000002ef4d       0x16 obj_cooja/mtype802.a(packetbuf.o)
                0x000000000002ef4d                packetbuf_totlen
 .text.packetbuf_remaininglen
                0x000000000002ef63       0x13 obj_cooja/mtype802.a(packetbuf.o)
                0x000000000002ef63                packetbuf_remaininglen
 .text.packetbuf_attr_clear
                0x000000000002ef76       0x52 obj_cooja/mtype802.a(packetbuf.o)
                0x000000000002ef76                packetbuf_attr_clear
 .text.packetbuf_attr_copyto
                0x000000000002efc8       0x49 obj_cooja/mtype802.a(packetbuf.o)
                0x000000000002efc8                packetbuf_attr_copyto
 .text.packetbuf_attr_copyfrom
                0x000000000002f011       0x48 obj_cooja/mtype802.a(packetbuf.o)
                0x000000000002f011                packetbuf_attr_copyfrom
 .text.packetbuf_holds_broadcast
                0x000000000002f059       0x1c obj_cooja/mtype802.a(packetbuf.o)
                0x000000000002f059                packetbuf_holds_broadcast
 .text          0x000000000002f075        0x0 obj_cooja/mtype802.a(queuebuf.o)
 .text.queuebuf_load_to_ram
                0x000000000002f075        0xa obj_cooja/mtype802.a(queuebuf.o)
 .text.queuebuf_init
                0x000000000002f07f       0x20 obj_cooja/mtype802.a(queuebuf.o)
                0x000000000002f07f                queuebuf_init
 .text.queuebuf_numfree
                0x000000000002f09f       0x14 obj_cooja/mtype802.a(queuebuf.o)
                0x000000000002f09f                queuebuf_numfree
 .text.queuebuf_new_from_packetbuf
                0x000000000002f0b3       0x90 obj_cooja/mtype802.a(queuebuf.o)
                0x000000000002f0b3                queuebuf_new_from_packetbuf
 .text.queuebuf_update_attr_from_packetbuf
                0x000000000002f143       0x33 obj_cooja/mtype802.a(queuebuf.o)
                0x000000000002f143                queuebuf_update_attr_from_packetbuf
 .text.queuebuf_update_from_packetbuf
                0x000000000002f176       0x4a obj_cooja/mtype802.a(queuebuf.o)
                0x000000000002f176                queuebuf_update_from_packetbuf
 .text.queuebuf_free
                0x000000000002f1c0       0x47 obj_cooja/mtype802.a(queuebuf.o)
                0x000000000002f1c0                queuebuf_free
 .text.queuebuf_to_packetbuf
                0x000000000002f207       0x66 obj_cooja/mtype802.a(queuebuf.o)
                0x000000000002f207                queuebuf_to_packetbuf
 .text.queuebuf_dataptr
                0x000000000002f26d       0x37 obj_cooja/mtype802.a(queuebuf.o)
                0x000000000002f26d                queuebuf_dataptr
 .text.queuebuf_datalen
                0x000000000002f2a4       0x23 obj_cooja/mtype802.a(queuebuf.o)
                0x000000000002f2a4                queuebuf_datalen
 .text.queuebuf_addr
                0x000000000002f2c7       0x32 obj_cooja/mtype802.a(queuebuf.o)
                0x000000000002f2c7                queuebuf_addr
 .text.queuebuf_attr
                0x000000000002f2f9       0x2b obj_cooja/mtype802.a(queuebuf.o)
                0x000000000002f2f9                queuebuf_attr
 .text.queuebuf_debug_print
                0x000000000002f324        0x5 obj_cooja/mtype802.a(queuebuf.o)
                0x000000000002f324                queuebuf_debug_print
 .text          0x000000000002f329        0x0 obj_cooja/mtype802.a(csma.o)
 .text.packetbuf_set_attr
                0x000000000002f329       0x2a obj_cooja/mtype802.a(csma.o)
 .text.packetbuf_attr
                0x000000000002f353       0x1a obj_cooja/mtype802.a(csma.o)
 .text.packetbuf_addr
                0x000000000002f36d       0x1d obj_cooja/mtype802.a(csma.o)
 .text.neighbor_queue_from_addr
                0x000000000002f38a       0x51 obj_cooja/mtype802.a(csma.o)
 .text.backoff_period
                0x000000000002f3db       0x25 obj_cooja/mtype802.a(csma.o)
 .text.transmit_packet_list
                0x000000000002f400       0x47 obj_cooja/mtype802.a(csma.o)
 .text.schedule_transmission
                0x000000000002f447       0x87 obj_cooja/mtype802.a(csma.o)
 .text.free_packet
                0x000000000002f4ce       0xc0 obj_cooja/mtype802.a(csma.o)
 .text.tx_done  0x000000000002f58e       0x7c obj_cooja/mtype802.a(csma.o)
 .text.rexmit   0x000000000002f60a       0x21 obj_cooja/mtype802.a(csma.o)
 .text.collision
                0x000000000002f62b       0x85 obj_cooja/mtype802.a(csma.o)
 .text.noack    0x000000000002f6b0       0x6a obj_cooja/mtype802.a(csma.o)
 .text.tx_ok    0x000000000002f71a       0x3b obj_cooja/mtype802.a(csma.o)
 .text.packet_sent
                0x000000000002f755      0x117 obj_cooja/mtype802.a(csma.o)
 .text.send_packet
                0x000000000002f86c      0x274 obj_cooja/mtype802.a(csma.o)
 .text.input_packet
                0x000000000002fae0        0xf obj_cooja/mtype802.a(csma.o)
 .text.on       0x000000000002faef        0xf obj_cooja/mtype802.a(csma.o)
 .text.off      0x000000000002fafe       0x15 obj_cooja/mtype802.a(csma.o)
 .text.channel_check_interval
                0x000000000002fb13       0x1f obj_cooja/mtype802.a(csma.o)
 .text.init     0x000000000002fb32       0x2c obj_cooja/mtype802.a(csma.o)
 .text          0x000000000002fb5e        0x0 obj_cooja/mtype802.a(framer-802154.o)
 .text.packetbuf_set_attr
                0x000000000002fb5e       0x2a obj_cooja/mtype802.a(framer-802154.o)
 .text.packetbuf_attr
                0x000000000002fb88       0x1a obj_cooja/mtype802.a(framer-802154.o)
 .text.packetbuf_set_addr
                0x000000000002fba2       0x32 obj_cooja/mtype802.a(framer-802154.o)
 .text.packetbuf_addr
                0x000000000002fbd4       0x1d obj_cooja/mtype802.a(framer-802154.o)
 .text.create_frame
                0x000000000002fbf1      0x1eb obj_cooja/mtype802.a(framer-802154.o)
 .text.hdr_length
                0x000000000002fddc       0x1c obj_cooja/mtype802.a(framer-802154.o)
 .text.create   0x000000000002fdf8       0x1c obj_cooja/mtype802.a(framer-802154.o)
 .text.parse    0x000000000002fe14      0x143 obj_cooja/mtype802.a(framer-802154.o)
 .text          0x000000000002ff57        0x0 obj_cooja/mtype802.a(mac.o)
 .text.mac_call_sent_callback
                0x000000000002ff57       0x3c obj_cooja/mtype802.a(mac.o)
                0x000000000002ff57                mac_call_sent_callback
 .text          0x000000000002ff93        0x0 obj_cooja/mtype802.a(nullrdc.o)
 .text.packetbuf_set_attr
                0x000000000002ff93       0x2a obj_cooja/mtype802.a(nullrdc.o)
 .text.packetbuf_set_addr
                0x000000000002ffbd       0x32 obj_cooja/mtype802.a(nullrdc.o)
 .text.packetbuf_addr
                0x000000000002ffef       0x1d obj_cooja/mtype802.a(nullrdc.o)
 .text.send_one_packet
                0x000000000003000c      0x1ec obj_cooja/mtype802.a(nullrdc.o)
 .text.send_packet
                0x00000000000301f8       0x1a obj_cooja/mtype802.a(nullrdc.o)
 .text.send_list
                0x0000000000030212       0x49 obj_cooja/mtype802.a(nullrdc.o)
 .text.packet_input
                0x000000000003025b      0x11a obj_cooja/mtype802.a(nullrdc.o)
 .text.on       0x0000000000030375        0xf obj_cooja/mtype802.a(nullrdc.o)
 .text.off      0x0000000000030384       0x1e obj_cooja/mtype802.a(nullrdc.o)
 .text.channel_check_interval
                0x00000000000303a2        0xa obj_cooja/mtype802.a(nullrdc.o)
 .text.init     0x00000000000303ac        0xd obj_cooja/mtype802.a(nullrdc.o)
 .text          0x00000000000303b9        0x0 obj_cooja/mtype802.a(nullsec.o)
 .text.packetbuf_set_attr
                0x00000000000303b9       0x2a obj_cooja/mtype802.a(nullsec.o)
 .text.init     0x00000000000303e3        0x5 obj_cooja/mtype802.a(nullsec.o)
 .text.send     0x00000000000303e8       0x30 obj_cooja/mtype802.a(nullsec.o)
 .text.input    0x0000000000030418        0xf obj_cooja/mtype802.a(nullsec.o)
 .text          0x0000000000030427        0x0 obj_cooja/mtype802.a(watchdog.o)
 .text.watchdog_init
                0x0000000000030427        0x5 obj_cooja/mtype802.a(watchdog.o)
                0x0000000000030427                watchdog_init
 .text.watchdog_start
                0x000000000003042c        0x5 obj_cooja/mtype802.a(watchdog.o)
                0x000000000003042c                watchdog_start
 .text.watchdog_periodic
                0x0000000000030431        0x5 obj_cooja/mtype802.a(watchdog.o)
                0x0000000000030431                watchdog_periodic
 .text.watchdog_stop
                0x0000000000030436        0x5 obj_cooja/mtype802.a(watchdog.o)
                0x0000000000030436                watchdog_stop
 .text.watchdog_reboot
                0x000000000003043b        0x5 obj_cooja/mtype802.a(watchdog.o)
                0x000000000003043b                watchdog_reboot
 .text          0x0000000000030440        0x0 obj_cooja/mtype802.a(rimestats.o)
 .text          0x0000000000030440        0x0 obj_cooja/mtype802.a(stimer.o)
 .text.stimer_set
                0x0000000000030440       0x1b obj_cooja/mtype802.a(stimer.o)
                0x0000000000030440                stimer_set
 .text.stimer_reset
                0x000000000003045b       0x17 obj_cooja/mtype802.a(stimer.o)
                0x000000000003045b                stimer_reset
 .text.stimer_restart
                0x0000000000030472       0x12 obj_cooja/mtype802.a(stimer.o)
                0x0000000000030472                stimer_restart
 .text.stimer_expired
                0x0000000000030484       0x27 obj_cooja/mtype802.a(stimer.o)
                0x0000000000030484                stimer_expired
 .text.stimer_remaining
                0x00000000000304ab       0x24 obj_cooja/mtype802.a(stimer.o)
                0x00000000000304ab                stimer_remaining
 .text.stimer_elapsed
                0x00000000000304cf       0x14 obj_cooja/mtype802.a(stimer.o)
                0x00000000000304cf                stimer_elapsed
 .text          0x00000000000304e3        0x0 obj_cooja/mtype802.a(uip-icmp6.o)
 .text.input_handler_lookup
                0x00000000000304e3       0x6e obj_cooja/mtype802.a(uip-icmp6.o)
 .text.uip_icmp6_input
                0x0000000000030551       0x56 obj_cooja/mtype802.a(uip-icmp6.o)
                0x0000000000030551                uip_icmp6_input
 .text.uip_icmp6_register_input_handler
                0x00000000000305a7       0x1c obj_cooja/mtype802.a(uip-icmp6.o)
                0x00000000000305a7                uip_icmp6_register_input_handler
 .text.echo_request_input
                0x00000000000305c3      0x1c7 obj_cooja/mtype802.a(uip-icmp6.o)
 .text.uip_icmp6_error_output
                0x000000000003078a      0x340 obj_cooja/mtype802.a(uip-icmp6.o)
                0x000000000003078a                uip_icmp6_error_output
 .text.uip_icmp6_send
                0x0000000000030aca      0x107 obj_cooja/mtype802.a(uip-icmp6.o)
                0x0000000000030aca                uip_icmp6_send
 .text.echo_reply_input
                0x0000000000030bd1      0x16d obj_cooja/mtype802.a(uip-icmp6.o)
 .text.uip_icmp6_echo_reply_callback_add
                0x0000000000030d3e       0x31 obj_cooja/mtype802.a(uip-icmp6.o)
                0x0000000000030d3e                uip_icmp6_echo_reply_callback_add
 .text.uip_icmp6_echo_reply_callback_rm
                0x0000000000030d6f       0x1c obj_cooja/mtype802.a(uip-icmp6.o)
                0x0000000000030d6f                uip_icmp6_echo_reply_callback_rm
 .text.uip_icmp6_init
                0x0000000000030d8b       0x20 obj_cooja/mtype802.a(uip-icmp6.o)
                0x0000000000030d8b                uip_icmp6_init
 .text          0x0000000000030dab        0x0 obj_cooja/mtype802.a(rpl-nbr-policy.)
 .text.handle_periodic_timer
                0x0000000000030dab       0x19 obj_cooja/mtype802.a(rpl-nbr-policy.)
 .text.update_nbr
                0x0000000000030dc4      0x1b7 obj_cooja/mtype802.a(rpl-nbr-policy.)
 .text.find_removable_dis
                0x0000000000030f7b       0x25 obj_cooja/mtype802.a(rpl-nbr-policy.)
                0x0000000000030f7b                find_removable_dis
 .text.find_removable_dio
                0x0000000000030fa0       0x81 obj_cooja/mtype802.a(rpl-nbr-policy.)
                0x0000000000030fa0                find_removable_dio
 .text.find_removable_dao
                0x0000000000031021       0x50 obj_cooja/mtype802.a(rpl-nbr-policy.)
                0x0000000000031021                find_removable_dao
 .text.rpl_nbr_policy_find_removable
                0x0000000000031071       0x57 obj_cooja/mtype802.a(rpl-nbr-policy.)
                0x0000000000031071                rpl_nbr_policy_find_removable
 .text          0x00000000000310c8        0x0 obj_cooja/mtype802.a(frame802154.o)
 .text.addr_len
                0x00000000000310c8       0x31 obj_cooja/mtype802.a(frame802154.o)
 .text.frame802154_get_pan_id
                0x00000000000310f9        0xc obj_cooja/mtype802.a(frame802154.o)
                0x00000000000310f9                frame802154_get_pan_id
 .text.frame802154_set_pan_id
                0x0000000000031105       0x19 obj_cooja/mtype802.a(frame802154.o)
                0x0000000000031105                frame802154_set_pan_id
 .text.frame802154_has_panid
                0x000000000003111e      0x1ad obj_cooja/mtype802.a(frame802154.o)
                0x000000000003111e                frame802154_has_panid
 .text.frame802154_check_dest_panid
                0x00000000000312cb       0x6f obj_cooja/mtype802.a(frame802154.o)
                0x00000000000312cb                frame802154_check_dest_panid
 .text.frame802154_is_broadcast_addr
                0x000000000003133a       0x4d obj_cooja/mtype802.a(frame802154.o)
                0x000000000003133a                frame802154_is_broadcast_addr
 .text.frame802154_extract_linkaddr
                0x0000000000031387      0x148 obj_cooja/mtype802.a(frame802154.o)
                0x0000000000031387                frame802154_extract_linkaddr
 .text.field_len
                0x00000000000314cf       0xf8 obj_cooja/mtype802.a(frame802154.o)
 .text.frame802154_hdrlen
                0x00000000000315c7       0x51 obj_cooja/mtype802.a(frame802154.o)
                0x00000000000315c7                frame802154_hdrlen
 .text.frame802154_create_fcf
                0x0000000000031618       0xb7 obj_cooja/mtype802.a(frame802154.o)
                0x0000000000031618                frame802154_create_fcf
 .text.frame802154_create
                0x00000000000316cf      0x14d obj_cooja/mtype802.a(frame802154.o)
                0x00000000000316cf                frame802154_create
 .text.frame802154_parse_fcf
                0x000000000003181c       0xb9 obj_cooja/mtype802.a(frame802154.o)
                0x000000000003181c                frame802154_parse_fcf
 .text.frame802154_parse
                0x00000000000318d5      0x280 obj_cooja/mtype802.a(frame802154.o)
                0x00000000000318d5                frame802154_parse
 .text          0x0000000000031b55        0x0 obj_cooja/mtype802.a(mac-sequence.o)
 .text.packetbuf_attr
                0x0000000000031b55       0x1a obj_cooja/mtype802.a(mac-sequence.o)
 .text.packetbuf_addr
                0x0000000000031b6f       0x1d obj_cooja/mtype802.a(mac-sequence.o)
 .text.mac_sequence_is_duplicate
                0x0000000000031b8c       0x9e obj_cooja/mtype802.a(mac-sequence.o)
                0x0000000000031b8c                mac_sequence_is_duplicate
 .text.mac_sequence_register_seqno
                0x0000000000031c2a       0xca obj_cooja/mtype802.a(mac-sequence.o)
                0x0000000000031c2a                mac_sequence_register_seqno
 .text          0x0000000000031cf4        0x0 /usr/lib/gcc/i686-linux-gnu/4.8/crtendS.o
 .text          0x0000000000031cf4        0x0 /usr/lib/gcc/i686-linux-gnu/4.8/../../../i386-linux-gnu/crtn.o
 *(.gnu.warning)

.fini           0x0000000000031cf4       0x14
 *(SORT(.fini))
 .fini          0x0000000000031cf4        0xf /usr/lib/gcc/i686-linux-gnu/4.8/../../../i386-linux-gnu/crti.o
                0x0000000000031cf4                _fini
 .fini          0x0000000000031d03        0x5 /usr/lib/gcc/i686-linux-gnu/4.8/../../../i386-linux-gnu/crtn.o
                0x0000000000031d08                PROVIDE (__etext, .)
                0x0000000000031d08                PROVIDE (_etext, .)
                0x0000000000031d08                PROVIDE (etext, .)

.rodata         0x0000000000031d20     0x3138
 *(.rodata .rodata.* .gnu.linkonce.r.*)
 .rodata        0x0000000000031d20      0x2fb dtls-client.co
                0x0000000000031d94                autostart_processes
 *fill*         0x000000000003201b        0x1 
 .rodata        0x000000000003201c      0x133 obj_cooja/mtype802.o
 *fill*         0x000000000003214f        0x1 
 .rodata        0x0000000000032150      0xe21 obj_cooja/mtype802.a(dtls.o)
 *fill*         0x0000000000032f71        0x3 
 .rodata        0x0000000000032f74       0x91 obj_cooja/mtype802.a(tinydtls-crypto)
 *fill*         0x0000000000033005        0x3 
 .rodata        0x0000000000033008       0x21 obj_cooja/mtype802.a(hmac.o)
 *fill*         0x0000000000033029        0x3 
 .rodata        0x000000000003302c       0x38 obj_cooja/mtype802.a(netq.o)
 .rodata        0x0000000000033064        0xe obj_cooja/mtype802.a(peer.o)
 *fill*         0x0000000000033072        0x2 
 .rodata        0x0000000000033074       0x24 obj_cooja/mtype802.a(session.o)
 *fill*         0x0000000000033098        0x8 
 .rodata        0x00000000000330a0     0x1428 obj_cooja/mtype802.a(rijndael.o)
 .rodata        0x00000000000344c8       0x29 obj_cooja/mtype802.a(tinydtls-ccm.o)
 *fill*         0x00000000000344f1        0xf 
 .rodata        0x0000000000034500      0x15a obj_cooja/mtype802.a(sha2.o)
 .rodata        0x000000000003465a       0x7e obj_cooja/mtype802.a(debug.o)
 .rodata        0x00000000000346d8        0x8 obj_cooja/mtype802.a(beep.o)
                0x00000000000346d8                beep_interface
 .rodata        0x00000000000346e0       0x20 obj_cooja/mtype802.a(button-sensor.o)
                0x00000000000346e0                button_interface
                0x00000000000346f0                button_sensor
 .rodata        0x0000000000034700        0x8 obj_cooja/mtype802.a(leds-arch.o)
                0x0000000000034700                leds_interface
 .rodata        0x0000000000034708        0x8 obj_cooja/mtype802.a(moteid.o)
                0x0000000000034708                moteid_interface
 .rodata        0x0000000000034710       0x1c obj_cooja/mtype802.a(pir-sensor.o)
                0x0000000000034710                pir_interface
                0x000000000003471c                pir_sensor
 .rodata        0x000000000003472c        0xe obj_cooja/mtype802.a(rs232.o)
                0x000000000003472c                rs232_interface
 *fill*         0x000000000003473a        0x2 
 .rodata        0x000000000003473c       0x24 obj_cooja/mtype802.a(vib-sensor.o)
                0x000000000003473c                vib_interface
                0x0000000000034750                vib_sensor
 .rodata        0x0000000000034760        0x8 obj_cooja/mtype802.a(clock.o)
                0x0000000000034760                clock_interface
 .rodata        0x0000000000034768        0x8 obj_cooja/mtype802.a(log.o)
                0x0000000000034768                simlog_interface
 .rodata        0x0000000000034770       0x2f obj_cooja/mtype802.a(cfs-cooja.o)
                0x0000000000034770                cfs_interface
 *fill*         0x000000000003479f        0x1 
 .rodata        0x00000000000347a0       0x58 obj_cooja/mtype802.a(cooja-radio.o)
                0x00000000000347a0                radio_interface
                0x00000000000347c0                cooja_radio_driver
 .rodata        0x00000000000347f8        0x8 obj_cooja/mtype802.a(eeprom.o)
                0x00000000000347f8                eeprom_interface
 .rodata        0x0000000000034800        0x8 obj_cooja/mtype802.a(sensors.o)
 .rodata        0x0000000000034808        0xf obj_cooja/mtype802.a(ctimer.o)
 .rodata        0x0000000000034817        0xc obj_cooja/mtype802.a(etimer.o)
 .rodata        0x0000000000034823        0xe obj_cooja/mtype802.a(serial-line.o)
 *fill*         0x0000000000034831        0x3 
 .rodata        0x0000000000034834       0x25 obj_cooja/mtype802.a(assert.o)
 *fill*         0x0000000000034859        0x3 
 .rodata        0x000000000003485c       0x2c obj_cooja/mtype802.a(sicslowpan.o)
                0x000000000003485c                unc_llconf
                0x0000000000034860                unc_ctxconf
                0x0000000000034864                unc_mxconf
                0x0000000000034868                llprefix
                0x000000000003487c                sicslowpan_driver
 .rodata        0x0000000000034888      0x13c obj_cooja/mtype802.a(uip6.o)
 .rodata        0x00000000000349c4      0x306 obj_cooja/mtype802.a(resolv.o)
 .rodata        0x0000000000034cca       0x29 obj_cooja/mtype802.a(tcpip.o)
 .rodata        0x0000000000034cf3       0x2a obj_cooja/mtype802.a(uip-debug.o)
 *fill*         0x0000000000034d1d        0x3 
 .rodata        0x0000000000034d20       0x89 obj_cooja/mtype802.a(rpl-dag.o)
 .rodata        0x0000000000034da9        0x8 obj_cooja/mtype802.a(linkaddr.o)
                0x0000000000034da9                linkaddr_null
 *fill*         0x0000000000034db1        0x3 
 .rodata        0x0000000000034db4       0x24 obj_cooja/mtype802.a(csma.o)
                0x0000000000034dbc                csma_driver
 .rodata        0x0000000000034dd8        0xc obj_cooja/mtype802.a(framer-802154.o)
                0x0000000000034dd8                framer_802154
 *fill*         0x0000000000034de4       0x1c 
 .rodata        0x0000000000034e00       0x40 obj_cooja/mtype802.a(nullrdc.o)
                0x0000000000034e20                nullrdc_driver
 .rodata        0x0000000000034e40       0x18 obj_cooja/mtype802.a(nullsec.o)
                0x0000000000034e48                nullsec_driver

.rodata1
 *(.rodata1)

.eh_frame_hdr   0x0000000000034e58     0x1a0c
 *(.eh_frame_hdr)
 .eh_frame_hdr  0x0000000000034e58     0x1a0c dtls-client.co

.eh_frame       0x0000000000036864     0x6aa4
 *(.eh_frame)
 .eh_frame      0x0000000000036864       0x3c /usr/lib/gcc/i686-linux-gnu/4.8/../../../i386-linux-gnu/crti.o
                                         0x40 (size before relaxing)
 .eh_frame      0x00000000000368a0      0x1e8 dtls-client.co
                                        0x200 (size before relaxing)
 .eh_frame      0x0000000000036a88      0x148 obj_cooja/mtype802.o
                                        0x160 (size before relaxing)
 .eh_frame      0x0000000000036bd0      0xbbc obj_cooja/mtype802.a(dtls.o)
                                        0xbd4 (size before relaxing)
 .eh_frame      0x000000000003778c      0x2a0 obj_cooja/mtype802.a(tinydtls-crypto)
                                        0x2b8 (size before relaxing)
 .eh_frame      0x0000000000037a2c      0x160 obj_cooja/mtype802.a(hmac.o)
                                        0x178 (size before relaxing)
 .eh_frame      0x0000000000037b8c      0x160 obj_cooja/mtype802.a(netq.o)
                                        0x178 (size before relaxing)
 .eh_frame      0x0000000000037cec       0x40 obj_cooja/mtype802.a(dtls_time.o)
                                         0x58 (size before relaxing)
 .eh_frame      0x0000000000037d2c       0x80 obj_cooja/mtype802.a(peer.o)
                                         0x98 (size before relaxing)
 .eh_frame      0x0000000000037dac       0x40 obj_cooja/mtype802.a(session.o)
                                         0x58 (size before relaxing)
 .eh_frame      0x0000000000037dec       0x80 obj_cooja/mtype802.a(rijndael.o)
                                         0x98 (size before relaxing)
 .eh_frame      0x0000000000037e6c      0x144 obj_cooja/mtype802.a(tinydtls-ccm.o)
                                        0x15c (size before relaxing)
 .eh_frame      0x0000000000037fb0       0xec obj_cooja/mtype802.a(sha2.o)
                                        0x104 (size before relaxing)
 .eh_frame      0x000000000003809c      0x148 obj_cooja/mtype802.a(debug.o)
                                        0x160 (size before relaxing)
 .eh_frame      0x00000000000381e4       0x40 obj_cooja/mtype802.a(simEnvChange.o)
                                         0x58 (size before relaxing)
 .eh_frame      0x0000000000038224       0xc0 obj_cooja/mtype802.a(cooja_mt.o)
                                         0xd8 (size before relaxing)
 .eh_frame      0x00000000000382e4      0x120 obj_cooja/mtype802.a(cooja_mtarch.o)
                                        0x138 (size before relaxing)
 .eh_frame      0x0000000000038404       0xc8 obj_cooja/mtype802.a(rtimer-arch.o)
                                         0xe0 (size before relaxing)
 .eh_frame      0x00000000000384cc      0x160 obj_cooja/mtype802.a(beep.o)
                                        0x178 (size before relaxing)
 .eh_frame      0x000000000003862c       0xa0 obj_cooja/mtype802.a(button-sensor.o)
                                         0xb8 (size before relaxing)
 .eh_frame      0x00000000000386cc       0xa0 obj_cooja/mtype802.a(leds-arch.o)
                                         0xb8 (size before relaxing)
 .eh_frame      0x000000000003876c       0x40 obj_cooja/mtype802.a(moteid.o)
                                         0x58 (size before relaxing)
 .eh_frame      0x00000000000387ac       0xa0 obj_cooja/mtype802.a(pir-sensor.o)
                                         0xb8 (size before relaxing)
 .eh_frame      0x000000000003884c      0x100 obj_cooja/mtype802.a(rs232.o)
                                        0x118 (size before relaxing)
 .eh_frame      0x000000000003894c       0xa0 obj_cooja/mtype802.a(vib-sensor.o)
                                         0xb8 (size before relaxing)
 .eh_frame      0x00000000000389ec       0xc0 obj_cooja/mtype802.a(clock.o)
                                         0xd8 (size before relaxing)
 .eh_frame      0x0000000000038aac      0x120 obj_cooja/mtype802.a(log.o)
                                        0x138 (size before relaxing)
 .eh_frame      0x0000000000038bcc      0x160 obj_cooja/mtype802.a(cfs-cooja.o)
                                        0x178 (size before relaxing)
 .eh_frame      0x0000000000038d2c      0x360 obj_cooja/mtype802.a(cooja-radio.o)
                                        0x378 (size before relaxing)
 .eh_frame      0x000000000003908c       0xa0 obj_cooja/mtype802.a(eeprom.o)
                                         0xb8 (size before relaxing)
 .eh_frame      0x000000000003912c       0x40 obj_cooja/mtype802.a(random.o)
                                         0x58 (size before relaxing)
 .eh_frame      0x000000000003916c       0xc0 obj_cooja/mtype802.a(sensors.o)
                                         0xd8 (size before relaxing)
 .eh_frame      0x000000000003922c       0x40 obj_cooja/mtype802.a(autostart.o)
                                         0x58 (size before relaxing)
 .eh_frame      0x000000000003926c      0x100 obj_cooja/mtype802.a(ctimer.o)
                                        0x118 (size before relaxing)
 .eh_frame      0x000000000003936c      0x1e0 obj_cooja/mtype802.a(etimer.o)
                                        0x1f8 (size before relaxing)
 .eh_frame      0x000000000003954c      0x1c8 obj_cooja/mtype802.a(process.o)
                                        0x1e0 (size before relaxing)
 .eh_frame      0x0000000000039714       0x60 obj_cooja/mtype802.a(rtimer.o)
                                         0x78 (size before relaxing)
 .eh_frame      0x0000000000039774       0xa4 obj_cooja/mtype802.a(timer.o)
                                         0xbc (size before relaxing)
 .eh_frame      0x0000000000039818       0x60 obj_cooja/mtype802.a(serial-line.o)
                                         0x78 (size before relaxing)
 .eh_frame      0x0000000000039878       0x20 obj_cooja/mtype802.a(assert.o)
                                         0x38 (size before relaxing)
 .eh_frame      0x0000000000039898      0x180 obj_cooja/mtype802.a(list.o)
                                        0x198 (size before relaxing)
 .eh_frame      0x0000000000039a18       0xa0 obj_cooja/mtype802.a(memb.o)
                                         0xb8 (size before relaxing)
 .eh_frame      0x0000000000039ab8       0xa0 obj_cooja/mtype802.a(ringbuf.o)
                                         0xb8 (size before relaxing)
 .eh_frame      0x0000000000039b58      0x350 obj_cooja/mtype802.a(sicslowpan.o)
                                        0x368 (size before relaxing)
 .eh_frame      0x0000000000039ea8      0x1e0 obj_cooja/mtype802.a(uip-ds6-nbr.o)
                                        0x1f8 (size before relaxing)
 .eh_frame      0x000000000003a088      0x2c0 obj_cooja/mtype802.a(uip-ds6-route.o)
                                        0x2d8 (size before relaxing)
 .eh_frame      0x000000000003a348      0x2c8 obj_cooja/mtype802.a(uip-ds6.o)
                                        0x2e0 (size before relaxing)
 .eh_frame      0x000000000003a610       0xd8 obj_cooja/mtype802.a(uip-nd6.o)
                                         0xf0 (size before relaxing)
 .eh_frame      0x000000000003a6e8      0x27c obj_cooja/mtype802.a(uip6.o)
                                        0x294 (size before relaxing)
 .eh_frame      0x000000000003a964      0x2ac obj_cooja/mtype802.a(resolv.o)
                                        0x2c4 (size before relaxing)
 .eh_frame      0x000000000003ac10      0x270 obj_cooja/mtype802.a(tcpip.o)
                                        0x288 (size before relaxing)
 .eh_frame      0x000000000003ae80       0x28 obj_cooja/mtype802.a(uip-debug.o)
                                         0x40 (size before relaxing)
 .eh_frame      0x000000000003aea8       0x80 obj_cooja/mtype802.a(uip-nameserver.)
                                         0x98 (size before relaxing)
 .eh_frame      0x000000000003af28       0xe0 obj_cooja/mtype802.a(uip-packetqueue)
                                         0xf8 (size before relaxing)
 .eh_frame      0x000000000003b008       0x40 obj_cooja/mtype802.a(uip-udp-packet.)
                                         0x58 (size before relaxing)
 .eh_frame      0x000000000003b048       0x48 obj_cooja/mtype802.a(uiplib.o)
                                         0x60 (size before relaxing)
 .eh_frame      0x000000000003b090      0x720 obj_cooja/mtype802.a(rpl-dag.o)
                                        0x738 (size before relaxing)
 .eh_frame      0x000000000003b7b0       0xc0 obj_cooja/mtype802.a(rpl-ext-header.)
                                         0xd8 (size before relaxing)
 .eh_frame      0x000000000003b870      0x2b8 obj_cooja/mtype802.a(rpl-icmp6.o)
                                        0x2d0 (size before relaxing)
 .eh_frame      0x000000000003bb28      0x124 obj_cooja/mtype802.a(rpl-mrhof.o)
                                        0x13c (size before relaxing)
 .eh_frame      0x000000000003bc4c      0x22c obj_cooja/mtype802.a(rpl-timers.o)
                                        0x244 (size before relaxing)
 .eh_frame      0x000000000003be78      0x140 obj_cooja/mtype802.a(rpl.o)
                                        0x158 (size before relaxing)
 .eh_frame      0x000000000003bfb8      0x100 obj_cooja/mtype802.a(link-stats.o)
                                        0x118 (size before relaxing)
 .eh_frame      0x000000000003c0b8       0x60 obj_cooja/mtype802.a(linkaddr.o)
                                         0x78 (size before relaxing)
 .eh_frame      0x000000000003c118      0x2ac obj_cooja/mtype802.a(nbr-table.o)
                                        0x2c4 (size before relaxing)
 .eh_frame      0x000000000003c3c4       0x20 obj_cooja/mtype802.a(netstack.o)
                                         0x38 (size before relaxing)
 .eh_frame      0x000000000003c3e4      0x234 obj_cooja/mtype802.a(packetbuf.o)
                                        0x24c (size before relaxing)
 .eh_frame      0x000000000003c618      0x1a0 obj_cooja/mtype802.a(queuebuf.o)
                                        0x1b8 (size before relaxing)
 .eh_frame      0x000000000003c7b8      0x28c obj_cooja/mtype802.a(csma.o)
                                        0x2a4 (size before relaxing)
 .eh_frame      0x000000000003ca44      0x108 obj_cooja/mtype802.a(framer-802154.o)
                                        0x120 (size before relaxing)
 .eh_frame      0x000000000003cb4c       0x20 obj_cooja/mtype802.a(mac.o)
                                         0x38 (size before relaxing)
 .eh_frame      0x000000000003cb6c      0x16c obj_cooja/mtype802.a(nullrdc.o)
                                        0x184 (size before relaxing)
 .eh_frame      0x000000000003ccd8       0x80 obj_cooja/mtype802.a(nullsec.o)
                                         0x98 (size before relaxing)
 .eh_frame      0x000000000003cd58       0xa0 obj_cooja/mtype802.a(watchdog.o)
                                         0xb8 (size before relaxing)
 .eh_frame      0x000000000003cdf8       0xc4 obj_cooja/mtype802.a(stimer.o)
                                         0xdc (size before relaxing)
 .eh_frame      0x000000000003cebc      0x15c obj_cooja/mtype802.a(uip-icmp6.o)
                                        0x174 (size before relaxing)
 .eh_frame      0x000000000003d018       0xc0 obj_cooja/mtype802.a(rpl-nbr-policy.)
                                         0xd8 (size before relaxing)
 .eh_frame      0x000000000003d0d8      0x1a4 obj_cooja/mtype802.a(frame802154.o)
                                        0x1bc (size before relaxing)
 .eh_frame      0x000000000003d27c       0x88 obj_cooja/mtype802.a(mac-sequence.o)
                                         0xa0 (size before relaxing)
 .eh_frame      0x000000000003d304        0x4 /usr/lib/gcc/i686-linux-gnu/4.8/crtendS.o

.gcc_except_table
 *(.gcc_except_table .gcc_except_table.*)

.exception_ranges
 *(.exception_ranges .exception_ranges*)
                0x000000000003d308                . = (ALIGN (0x1000) - ((0x1000 - .) & 0xfff))
                0x000000000003eef8                . = DATA_SEGMENT_ALIGN (0x1000, 0x1000)

.eh_frame
 *(.eh_frame)

.gcc_except_table
 *(.gcc_except_table .gcc_except_table.*)

.exception_ranges
 *(.exception_ranges .exception_ranges*)

.tdata
 *(.tdata .tdata.* .gnu.linkonce.td.*)

.tbss
 *(.tbss .tbss.* .gnu.linkonce.tb.*)
 *(.tcommon)

.preinit_array
 *(.preinit_array)

.init_array     0x000000000003eef8        0x4
 *(SORT(.init_array.*) SORT(.ctors.*))
 *(.init_array EXCLUDE_FILE(*crtend?.o *crtend.o *crtbegin?.o *crtbegin.o) .ctors)
 .init_array    0x000000000003eef8        0x4 /usr/lib/gcc/i686-linux-gnu/4.8/crtbeginS.o

.fini_array     0x000000000003eefc        0x4
 *(SORT(.fini_array.*) SORT(.dtors.*))
 *(.fini_array EXCLUDE_FILE(*crtend?.o *crtend.o *crtbegin?.o *crtbegin.o) .dtors)
 .fini_array    0x000000000003eefc        0x4 /usr/lib/gcc/i686-linux-gnu/4.8/crtbeginS.o

.ctors
 *crtbegin.o(.ctors)
 *crtbegin?.o(.ctors)
 *(EXCLUDE_FILE(*crtend?.o *crtend.o) .ctors)
 *(SORT(.ctors.*))
 *(.ctors)

.dtors
 *crtbegin.o(.dtors)
 *crtbegin?.o(.dtors)
 *(EXCLUDE_FILE(*crtend?.o *crtend.o) .dtors)
 *(SORT(.dtors.*))
 *(.dtors)

.jcr            0x000000000003ef00        0x4
 *(.jcr)
 .jcr           0x000000000003ef00        0x0 /usr/lib/gcc/i686-linux-gnu/4.8/crtbeginS.o
 .jcr           0x000000000003ef00        0x4 /usr/lib/gcc/i686-linux-gnu/4.8/crtendS.o

.data.rel.ro
 *(.data.rel.ro.local* .gnu.linkonce.d.rel.ro.local.*)
 *(.data.rel.ro .data.rel.ro.* .gnu.linkonce.d.rel.ro.*)

.dynamic        0x000000000003ef04       0xe8
 *(.dynamic)
 .dynamic       0x000000000003ef04       0xe8 /usr/lib/gcc/i686-linux-gnu/4.8/../../../i386-linux-gnu/crti.o
                0x000000000003ef04                _DYNAMIC

.got            0x000000000003efec       0x14
 *(.got)
 .got           0x000000000003efec       0x14 /usr/lib/gcc/i686-linux-gnu/4.8/../../../i386-linux-gnu/crti.o
 *(.igot)
                0x000000000003fff4                . = DATA_SEGMENT_RELRO_END (., (SIZEOF (.got.plt) >= 0xc)?0xc:0x0)

.got.plt        0x000000000003f000       0x14
 *(.got.plt)
 .got.plt       0x000000000003f000       0x14 /usr/lib/gcc/i686-linux-gnu/4.8/../../../i386-linux-gnu/crti.o
                0x000000000003f000                _GLOBAL_OFFSET_TABLE_
 *(.igot.plt)

.data           0x000000000003f020      0x3ae
 *(.data .data.* .gnu.linkonce.d.*)
 .data          0x000000000003f020        0x0 /usr/lib/gcc/i686-linux-gnu/4.8/../../../i386-linux-gnu/crti.o
 .data          0x000000000003f020        0x0 /usr/lib/gcc/i686-linux-gnu/4.8/crtbeginS.o
 .data.rel      0x000000000003f020        0x4 /usr/lib/gcc/i686-linux-gnu/4.8/crtbeginS.o
                0x000000000003f020                __dso_handle
 *fill*         0x000000000003f024       0x1c 
 .data          0x000000000003f040       0xb5 dtls-client.co
                0x000000000003f040                cfs_buf
                0x000000000003f050                packet_count
                0x000000000003f054                udp_client_process
 *fill*         0x000000000003f0f5        0xb 
 .data          0x000000000003f100       0x44 obj_cooja/mtype802.o
                0x000000000003f100                simInterfaces
                0x000000000003f134                sensors
 .data          0x000000000003f144       0x10 obj_cooja/mtype802.a(dtls.o)
                0x000000000003f144                dtls_retransmit_process
 .data          0x000000000003f154       0x18 obj_cooja/mtype802.a(tinydtls-crypto)
 .data          0x000000000003f16c        0xc obj_cooja/mtype802.a(hmac.o)
 .data          0x000000000003f178        0xc obj_cooja/mtype802.a(netq.o)
 .data          0x000000000003f184        0x0 obj_cooja/mtype802.a(dtls_time.o)
 .data          0x000000000003f184        0xc obj_cooja/mtype802.a(peer.o)
 .data          0x000000000003f190        0x0 obj_cooja/mtype802.a(session.o)
 .data          0x000000000003f190        0x0 obj_cooja/mtype802.a(rijndael.o)
 .data          0x000000000003f190        0x0 obj_cooja/mtype802.a(tinydtls-ccm.o)
 .data          0x000000000003f190        0x4 obj_cooja/mtype802.a(sha2.o)
 .data          0x000000000003f194       0x20 obj_cooja/mtype802.a(debug.o)
 .data          0x000000000003f1b4        0x0 obj_cooja/mtype802.a(simEnvChange.o)
 .data          0x000000000003f1b4        0x0 obj_cooja/mtype802.a(cooja_mt.o)
 .data          0x000000000003f1b4        0x0 obj_cooja/mtype802.a(cooja_mtarch.o)
 .data          0x000000000003f1b4        0x0 obj_cooja/mtype802.a(rtimer-arch.o)
 .data          0x000000000003f1b4        0x0 obj_cooja/mtype802.a(beep.o)
 .data          0x000000000003f1b4        0x0 obj_cooja/mtype802.a(button-sensor.o)
 .data          0x000000000003f1b4        0x0 obj_cooja/mtype802.a(leds-arch.o)
 .data          0x000000000003f1b4        0x0 obj_cooja/mtype802.a(moteid.o)
 .data          0x000000000003f1b4        0x0 obj_cooja/mtype802.a(pir-sensor.o)
 .data          0x000000000003f1b4        0x0 obj_cooja/mtype802.a(rs232.o)
 .data          0x000000000003f1b4        0x0 obj_cooja/mtype802.a(vib-sensor.o)
 .data          0x000000000003f1b4        0x0 obj_cooja/mtype802.a(clock.o)
 .data          0x000000000003f1b4        0x0 obj_cooja/mtype802.a(log.o)
 .data          0x000000000003f1b4        0x0 obj_cooja/mtype802.a(cfs-cooja.o)
 .data          0x000000000003f1b4       0x2c obj_cooja/mtype802.a(cooja-radio.o)
                0x000000000003f1b4                simRadioHWOn
                0x000000000003f1b8                simSignalStrength
                0x000000000003f1bc                simLastSignalStrength
                0x000000000003f1c0                simPower
                0x000000000003f1c4                simRadioChannel
                0x000000000003f1c8                simLQI
                0x000000000003f1d0                cooja_radio_process
 .data          0x000000000003f1e0        0x0 obj_cooja/mtype802.a(eeprom.o)
 .data          0x000000000003f1e0        0x0 obj_cooja/mtype802.a(random.o)
 .data          0x000000000003f1e0       0x10 obj_cooja/mtype802.a(sensors.o)
                0x000000000003f1e0                sensors_process
 .data          0x000000000003f1f0        0x0 obj_cooja/mtype802.a(autostart.o)
 .data          0x000000000003f1f0       0x14 obj_cooja/mtype802.a(ctimer.o)
                0x000000000003f1f4                ctimer_process
 .data          0x000000000003f204       0x10 obj_cooja/mtype802.a(etimer.o)
                0x000000000003f204                etimer_process
 .data          0x000000000003f214        0x0 obj_cooja/mtype802.a(process.o)
 .data          0x000000000003f214        0x0 obj_cooja/mtype802.a(rtimer.o)
 .data          0x000000000003f214        0x0 obj_cooja/mtype802.a(timer.o)
 .data          0x000000000003f214       0x10 obj_cooja/mtype802.a(serial-line.o)
                0x000000000003f214                serial_line_process
 .data          0x000000000003f224        0x0 obj_cooja/mtype802.a(assert.o)
 .data          0x000000000003f224        0x0 obj_cooja/mtype802.a(list.o)
 .data          0x000000000003f224        0x0 obj_cooja/mtype802.a(memb.o)
 .data          0x000000000003f224        0x0 obj_cooja/mtype802.a(ringbuf.o)
 .data          0x000000000003f224        0x0 obj_cooja/mtype802.a(sicslowpan.o)
 .data          0x000000000003f224       0x14 obj_cooja/mtype802.a(uip-ds6-nbr.o)
                0x000000000003f234                ds6_neighbors
 .data          0x000000000003f238       0x44 obj_cooja/mtype802.a(uip-ds6-route.o)
                0x000000000003f248                nbr_routes
 .data          0x000000000003f27c        0x0 obj_cooja/mtype802.a(uip-ds6.o)
 .data          0x000000000003f27c       0x18 obj_cooja/mtype802.a(uip-nd6.o)
 .data          0x000000000003f294        0x0 obj_cooja/mtype802.a(uip6.o)
 .data          0x000000000003f294       0x20 obj_cooja/mtype802.a(resolv.o)
                0x000000000003f294                resolv_process
                0x000000000003f2a4                mdns_probe_process
 .data          0x000000000003f2b4       0x10 obj_cooja/mtype802.a(tcpip.o)
                0x000000000003f2b4                tcpip_process
 .data          0x000000000003f2c4        0x0 obj_cooja/mtype802.a(uip-debug.o)
 .data          0x000000000003f2c4        0x0 obj_cooja/mtype802.a(uip-nameserver.)
 .data          0x000000000003f2c4        0xc obj_cooja/mtype802.a(uip-packetqueue)
 .data          0x000000000003f2d0        0x0 obj_cooja/mtype802.a(uip-udp-packet.)
 .data          0x000000000003f2d0        0x0 obj_cooja/mtype802.a(uiplib.o)
 .data          0x000000000003f2d0       0x14 obj_cooja/mtype802.a(rpl-dag.o)
                0x000000000003f2e0                rpl_parents
 .data          0x000000000003f2e4        0x0 obj_cooja/mtype802.a(rpl-ext-header.)
 .data          0x000000000003f2e4       0x34 obj_cooja/mtype802.a(rpl-icmp6.o)
 *fill*         0x000000000003f318        0x8 
 .data          0x000000000003f320       0x24 obj_cooja/mtype802.a(rpl-mrhof.o)
                0x000000000003f320                rpl_mrhof
 .data          0x000000000003f344        0x0 obj_cooja/mtype802.a(rpl-timers.o)
 .data          0x000000000003f344        0x0 obj_cooja/mtype802.a(rpl.o)
 .data          0x000000000003f344       0x14 obj_cooja/mtype802.a(link-stats.o)
 .data          0x000000000003f358        0x0 obj_cooja/mtype802.a(linkaddr.o)
 .data          0x000000000003f358       0x10 obj_cooja/mtype802.a(nbr-table.o)
 .data          0x000000000003f368        0x0 obj_cooja/mtype802.a(netstack.o)
 .data          0x000000000003f368        0x4 obj_cooja/mtype802.a(packetbuf.o)
 .data          0x000000000003f36c       0x18 obj_cooja/mtype802.a(queuebuf.o)
 .data          0x000000000003f384       0x28 obj_cooja/mtype802.a(csma.o)
 .data          0x000000000003f3ac        0x0 obj_cooja/mtype802.a(framer-802154.o)
 .data          0x000000000003f3ac        0x0 obj_cooja/mtype802.a(mac.o)
 .data          0x000000000003f3ac        0x0 obj_cooja/mtype802.a(nullrdc.o)
 .data          0x000000000003f3ac        0x0 obj_cooja/mtype802.a(nullsec.o)
 .data          0x000000000003f3ac        0x0 obj_cooja/mtype802.a(watchdog.o)
 .data          0x000000000003f3ac        0x0 obj_cooja/mtype802.a(rimestats.o)
 .data          0x000000000003f3ac        0x0 obj_cooja/mtype802.a(stimer.o)
 .data          0x000000000003f3ac       0x20 obj_cooja/mtype802.a(uip-icmp6.o)
 .data          0x000000000003f3cc        0x0 obj_cooja/mtype802.a(rpl-nbr-policy.)
 .data          0x000000000003f3cc        0x2 obj_cooja/mtype802.a(frame802154.o)
 .data          0x000000000003f3ce        0x0 obj_cooja/mtype802.a(mac-sequence.o)
 .data          0x000000000003f3ce        0x0 /usr/lib/gcc/i686-linux-gnu/4.8/crtendS.o
 .data          0x000000000003f3ce        0x0 /usr/lib/gcc/i686-linux-gnu/4.8/../../../i386-linux-gnu/crtn.o

.tm_clone_table
                0x000000000003f3d0        0x0
 .tm_clone_table
                0x000000000003f3d0        0x0 /usr/lib/gcc/i686-linux-gnu/4.8/crtbeginS.o
 .tm_clone_table
                0x000000000003f3d0        0x0 /usr/lib/gcc/i686-linux-gnu/4.8/crtendS.o

.data1
 *(.data1)
                0x000000000003f3d0                _edata = .
                0x000000000003f3d0                PROVIDE (edata, .)
                0x000000000003f3d0                . = .
                0x000000000003f3d0                __bss_start = .

.bss            0x000000000003f3e0    0x12fa8
 *(.dynbss)
 .dynbss        0x0000000000000000        0x0 /usr/lib/gcc/i686-linux-gnu/4.8/../../../i386-linux-gnu/crti.o
 *(.bss .bss.* .gnu.linkonce.b.*)
 .bss           0x000000000003f3e0        0x0 /usr/lib/gcc/i686-linux-gnu/4.8/../../../i386-linux-gnu/crti.o
 .bss           0x000000000003f3e0        0x1 /usr/lib/gcc/i686-linux-gnu/4.8/crtbeginS.o
 *fill*         0x000000000003f3e1       0x1f 
 .bss           0x000000000003f400      0x1c0 dtls-client.co
                0x000000000003f400                iv
 .bss           0x000000000003f5c0     0x2030 obj_cooja/mtype802.o
 *fill*         0x00000000000415f0       0x10 
 .bss           0x0000000000041600      0x145 obj_cooja/mtype802.a(dtls.o)
 *fill*         0x0000000000041745       0x1b 
 .bss           0x0000000000041760      0x274 obj_cooja/mtype802.a(tinydtls-crypto)
 *fill*         0x00000000000419d4        0xc 
 .bss           0x00000000000419e0      0x410 obj_cooja/mtype802.a(hmac.o)
 *fill*         0x0000000000041df0       0x10 
 .bss           0x0000000000041e00      0x470 obj_cooja/mtype802.a(netq.o)
 .bss           0x0000000000042270        0x0 obj_cooja/mtype802.a(dtls_time.o)
 *fill*         0x0000000000042270       0x10 
 .bss           0x0000000000042280       0x80 obj_cooja/mtype802.a(peer.o)
 .bss           0x0000000000042300        0x0 obj_cooja/mtype802.a(session.o)
 .bss           0x0000000000042300        0x0 obj_cooja/mtype802.a(rijndael.o)
 .bss           0x0000000000042300        0x4 obj_cooja/mtype802.a(tinydtls-ccm.o)
 .bss           0x0000000000042304        0x0 obj_cooja/mtype802.a(sha2.o)
 *fill*         0x0000000000042304       0x1c 
 .bss           0x0000000000042320       0x20 obj_cooja/mtype802.a(debug.o)
 .bss           0x0000000000042340        0x1 obj_cooja/mtype802.a(simEnvChange.o)
                0x0000000000042340                simDontFallAsleep
 *fill*         0x0000000000042341        0x3 
 .bss           0x0000000000042344        0x4 obj_cooja/mtype802.a(cooja_mt.o)
 .bss           0x0000000000042348        0x4 obj_cooja/mtype802.a(cooja_mtarch.o)
 .bss           0x000000000004234c        0x0 obj_cooja/mtype802.a(rtimer-arch.o)
 .bss           0x000000000004234c        0x0 obj_cooja/mtype802.a(beep.o)
 .bss           0x000000000004234c        0x8 obj_cooja/mtype802.a(button-sensor.o)
 .bss           0x0000000000042354        0x0 obj_cooja/mtype802.a(leds-arch.o)
 .bss           0x0000000000042354        0x0 obj_cooja/mtype802.a(moteid.o)
 .bss           0x0000000000042354        0x1 obj_cooja/mtype802.a(pir-sensor.o)
                0x0000000000042354                simPirValue
 *fill*         0x0000000000042355        0x3 
 .bss           0x0000000000042358        0x4 obj_cooja/mtype802.a(rs232.o)
 .bss           0x000000000004235c        0x1 obj_cooja/mtype802.a(vib-sensor.o)
                0x000000000004235c                simVibValue
 .bss           0x000000000004235d        0x0 obj_cooja/mtype802.a(clock.o)
 *fill*         0x000000000004235d        0x3 
 .bss           0x0000000000042360      0x420 obj_cooja/mtype802.a(log.o)
 .bss           0x0000000000042780      0xfc0 obj_cooja/mtype802.a(cfs-cooja.o)
                0x0000000000042780                simCFSData
                0x0000000000043720                simCFSSize
                0x0000000000043724                simCFSChanged
                0x0000000000043728                simCFSRead
                0x000000000004372c                simCFSWritten
 .bss           0x0000000000043740       0x24 obj_cooja/mtype802.a(cooja-radio.o)
                0x0000000000043740                simReceiving
                0x0000000000043744                simInSize
                0x0000000000043748                simLastPacketTimestamp
                0x0000000000043750                simOutSize
 .bss           0x0000000000043764        0xc obj_cooja/mtype802.a(eeprom.o)
                0x0000000000043764                simEEPROMChanged
                0x0000000000043768                simEEPROMRead
                0x000000000004376c                simEEPROMWritten
 .bss           0x0000000000043770        0x0 obj_cooja/mtype802.a(random.o)
 .bss           0x0000000000043770        0xc obj_cooja/mtype802.a(sensors.o)
 .bss           0x000000000004377c        0x0 obj_cooja/mtype802.a(autostart.o)
 .bss           0x000000000004377c        0x5 obj_cooja/mtype802.a(ctimer.o)
 *fill*         0x0000000000043781        0x3 
 .bss           0x0000000000043784        0x8 obj_cooja/mtype802.a(etimer.o)
 *fill*         0x000000000004378c       0x14 
 .bss           0x00000000000437a0      0x1a1 obj_cooja/mtype802.a(process.o)
                0x00000000000437a0                process_list
                0x00000000000437a4                process_current
 *fill*         0x0000000000043941        0x3 
 .bss           0x0000000000043944        0x4 obj_cooja/mtype802.a(rtimer.o)
 .bss           0x0000000000043948        0x0 obj_cooja/mtype802.a(timer.o)
 *fill*         0x0000000000043948       0x18 
 .bss           0x0000000000043960      0x140 obj_cooja/mtype802.a(serial-line.o)
 .bss           0x0000000000043aa0        0x0 obj_cooja/mtype802.a(assert.o)
 .bss           0x0000000000043aa0        0x0 obj_cooja/mtype802.a(list.o)
 .bss           0x0000000000043aa0        0x0 obj_cooja/mtype802.a(memb.o)
 .bss           0x0000000000043aa0        0x0 obj_cooja/mtype802.a(ringbuf.o)
 .bss           0x0000000000043aa0      0x70c obj_cooja/mtype802.a(sicslowpan.o)
 *fill*         0x00000000000441ac       0x14 
 .bss           0x00000000000441c0     0x3390 obj_cooja/mtype802.a(uip-ds6-nbr.o)
 *fill*         0x0000000000047550       0x10 
 .bss           0x0000000000047560     0x44a4 obj_cooja/mtype802.a(uip-ds6-route.o)
 .bss           0x000000000004ba04       0x20 obj_cooja/mtype802.a(uip-ds6.o)
 .bss           0x000000000004ba24       0x14 obj_cooja/mtype802.a(uip-nd6.o)
 .bss           0x000000000004ba38        0xa obj_cooja/mtype802.a(uip6.o)
                0x000000000004ba38                uip_ext_bitmap
                0x000000000004ba39                uip_ext_len
                0x000000000004ba3a                uip_ext_opt_offset
 *fill*         0x000000000004ba42       0x1e 
 .bss           0x000000000004ba60      0x1a1 obj_cooja/mtype802.a(resolv.o)
 *fill*         0x000000000004bc01       0x1f 
 .bss           0x000000000004bc20       0x6a obj_cooja/mtype802.a(tcpip.o)
 .bss           0x000000000004bc8a        0x0 obj_cooja/mtype802.a(uip-debug.o)
 *fill*         0x000000000004bc8a        0x2 
 .bss           0x000000000004bc8c       0x14 obj_cooja/mtype802.a(uip-nameserver.)
 .bss           0x000000000004bca0      0xcf8 obj_cooja/mtype802.a(uip-packetqueue)
 .bss           0x000000000004c998        0x0 obj_cooja/mtype802.a(uip-udp-packet.)
 .bss           0x000000000004c998        0x0 obj_cooja/mtype802.a(uiplib.o)
 *fill*         0x000000000004c998        0x8 
 .bss           0x000000000004c9a0      0x960 obj_cooja/mtype802.a(rpl-dag.o)
 .bss           0x000000000004d300        0x0 obj_cooja/mtype802.a(rpl-ext-header.)
 .bss           0x000000000004d300        0x0 obj_cooja/mtype802.a(rpl-icmp6.o)
 .bss           0x000000000004d300        0x0 obj_cooja/mtype802.a(rpl-mrhof.o)
 .bss           0x000000000004d300       0x23 obj_cooja/mtype802.a(rpl-timers.o)
 *fill*         0x000000000004d323        0x1 
 .bss           0x000000000004d324        0x4 obj_cooja/mtype802.a(rpl.o)
 *fill*         0x000000000004d328       0x18 
 .bss           0x000000000004d340      0xe10 obj_cooja/mtype802.a(link-stats.o)
 .bss           0x000000000004e150        0x0 obj_cooja/mtype802.a(linkaddr.o)
 *fill*         0x000000000004e150       0x10 
 .bss           0x000000000004e160     0x1214 obj_cooja/mtype802.a(nbr-table.o)
 .bss           0x000000000004f374        0x0 obj_cooja/mtype802.a(netstack.o)
 *fill*         0x000000000004f374        0xc 
 .bss           0x000000000004f380       0xa0 obj_cooja/mtype802.a(packetbuf.o)
 .bss           0x000000000004f420      0xb80 obj_cooja/mtype802.a(queuebuf.o)
 .bss           0x000000000004ffa0      0x248 obj_cooja/mtype802.a(csma.o)
 .bss           0x00000000000501e8        0x2 obj_cooja/mtype802.a(framer-802154.o)
 .bss           0x00000000000501ea        0x0 obj_cooja/mtype802.a(mac.o)
 .bss           0x00000000000501ea        0x0 obj_cooja/mtype802.a(nullrdc.o)
 .bss           0x00000000000501ea        0x0 obj_cooja/mtype802.a(nullsec.o)
 .bss           0x00000000000501ea        0x0 obj_cooja/mtype802.a(watchdog.o)
 .bss           0x00000000000501ea        0x0 obj_cooja/mtype802.a(rimestats.o)
 .bss           0x00000000000501ea        0x0 obj_cooja/mtype802.a(stimer.o)
 *fill*         0x00000000000501ea        0x2 
 .bss           0x00000000000501ec       0x18 obj_cooja/mtype802.a(uip-icmp6.o)
 *fill*         0x0000000000050204       0x1c 
 .bss           0x0000000000050220       0x44 obj_cooja/mtype802.a(rpl-nbr-policy.)
 .bss           0x0000000000050264        0x0 obj_cooja/mtype802.a(frame802154.o)
 *fill*         0x0000000000050264       0x1c 
 .bss           0x0000000000050280      0x100 obj_cooja/mtype802.a(mac-sequence.o)
 .bss           0x0000000000050380        0x0 /usr/lib/gcc/i686-linux-gnu/4.8/crtendS.o
 .bss           0x0000000000050380        0x0 /usr/lib/gcc/i686-linux-gnu/4.8/../../../i386-linux-gnu/crtn.o
 *(COMMON)
 COMMON         0x0000000000050380      0x160 dtls-client.co
                0x0000000000050380                fd_read
                0x0000000000050384                j
                0x00000000000503a0                read_buf
                0x00000000000504cc                data_len
                0x00000000000504d0                fd_write
                0x00000000000504d4                filename
                0x00000000000504d8                iterator
                0x00000000000504dc                it
 COMMON         0x00000000000504e0        0x8 obj_cooja/mtype802.o
                0x00000000000504e0                referenceVar
                0x00000000000504e4                sensors_flags
 COMMON         0x00000000000504e8        0x4 obj_cooja/mtype802.a(dtls_time.o)
                0x00000000000504e8                dtls_clock_offset
 COMMON         0x00000000000504ec        0xc obj_cooja/mtype802.a(simEnvChange.o)
                0x00000000000504ec                simEtimerPending
                0x00000000000504f0                simProcessRunValue
                0x00000000000504f4                simEtimerNextExpirationTime
 COMMON         0x00000000000504f8       0x18 obj_cooja/mtype802.a(rtimer-arch.o)
                0x00000000000504f8                simRtimerPending
                0x0000000000050500                simRtimerCurrentTicks
                0x0000000000050508                simRtimerNextExpirationTime
 COMMON         0x0000000000050510        0x1 obj_cooja/mtype802.a(beep.o)
                0x0000000000050510                simBeeped
 COMMON         0x0000000000050511        0x3 obj_cooja/mtype802.a(button-sensor.o)
                0x0000000000050511                simButtonIsActive
                0x0000000000050512                simButtonIsDown
                0x0000000000050513                simButtonChanged
 COMMON         0x0000000000050514        0x1 obj_cooja/mtype802.a(leds-arch.o)
                0x0000000000050514                simLedsValue
 *fill*         0x0000000000050515        0x3 
 COMMON         0x0000000000050518        0xc obj_cooja/mtype802.a(moteid.o)
                0x0000000000050518                simRandomSeed
                0x000000000005051c                simMoteIDChanged
                0x0000000000050520                simMoteID
 COMMON         0x0000000000050524        0x2 obj_cooja/mtype802.a(pir-sensor.o)
                0x0000000000050524                simPirIsActive
                0x0000000000050525                simPirChanged
 *fill*         0x0000000000050526       0x1a 
 COMMON         0x0000000000050540      0x820 obj_cooja/mtype802.a(rs232.o)
                0x0000000000050540                simSerialReceivingFlag
                0x0000000000050544                simSerialReceivingLength
                0x0000000000050560                simSerialReceivingData
 COMMON         0x0000000000050d60        0x2 obj_cooja/mtype802.a(vib-sensor.o)
                0x0000000000050d60                simVibChanged
                0x0000000000050d61                simVibIsActive
 *fill*         0x0000000000050d62        0x2 
 COMMON         0x0000000000050d64        0x4 obj_cooja/mtype802.a(clock.o)
                0x0000000000050d64                simCurrentTime
 *fill*         0x0000000000050d68       0x18 
 COMMON         0x0000000000050d80      0x420 obj_cooja/mtype802.a(log.o)
                0x0000000000050d80                simLoggedLength
                0x0000000000050d84                simLoggedFlag
                0x0000000000050da0                simLoggedData
 COMMON         0x00000000000511a0      0x100 obj_cooja/mtype802.a(cooja-radio.o)
                0x00000000000511a0                simOutDataBuffer
                0x0000000000051220                simInDataBuffer
 COMMON         0x00000000000512a0      0x400 obj_cooja/mtype802.a(eeprom.o)
                0x00000000000512a0                simEEPROMData
 COMMON         0x00000000000516a0        0x1 obj_cooja/mtype802.a(sensors.o)
                0x00000000000516a0                sensors_event
 COMMON         0x00000000000516a1        0x1 obj_cooja/mtype802.a(serial-line.o)
                0x00000000000516a1                serial_line_event_message
 *fill*         0x00000000000516a2       0x1e 
 COMMON         0x00000000000516c0      0x181 obj_cooja/mtype802.a(uip-ds6.o)
                0x00000000000516c0                uip_ds6_prefix_list
                0x0000000000051720                uip_ds6_timer_periodic
                0x0000000000051730                uip_ds6_netif_addr_list_offset
                0x0000000000051740                uip_ds6_if
                0x0000000000051838                uip_ds6_timer_ra
                0x0000000000051840                uip_ds6_addr_size
 *fill*         0x0000000000051841       0x1f 
 COMMON         0x0000000000051860      0x8ec obj_cooja/mtype802.a(uip6.o)
                0x0000000000051860                uip_slen
                0x0000000000051862                uip_acc32
                0x0000000000051880                uip_conns
                0x0000000000051940                uip_lladdr
                0x0000000000051948                uip_appdata
                0x000000000005194c                uip_flags
                0x0000000000051960                uip_aligned_buf
                0x0000000000051fa0                uip_listenports
                0x0000000000051fb0                uip_len
                0x0000000000051fb4                uip_sappdata
                0x0000000000051fc0                uip_udp_conns
                0x0000000000052140                uip_udp_conn
                0x0000000000052144                uip_next_hdr
                0x0000000000052148                uip_conn
 COMMON         0x000000000005214c        0x1 obj_cooja/mtype802.a(resolv.o)
                0x000000000005214c                resolv_event_found
 COMMON         0x000000000005214d        0x1 obj_cooja/mtype802.a(tcpip.o)
                0x000000000005214d                tcpip_event
 *fill*         0x000000000005214e       0x12 
 COMMON         0x0000000000052160      0x174 obj_cooja/mtype802.a(rpl-dag.o)
                0x0000000000052160                default_instance
                0x0000000000052180                instance_table
 *fill*         0x00000000000522d4        0xc 
 COMMON         0x00000000000522e0       0x20 obj_cooja/mtype802.a(link-stats.o)
                0x00000000000522e0                periodic_timer
 COMMON         0x0000000000052300        0x8 obj_cooja/mtype802.a(linkaddr.o)
                0x0000000000052300                linkaddr_node_addr
 COMMON         0x0000000000052308       0x2e obj_cooja/mtype802.a(packetbuf.o)
                0x0000000000052308                packetbuf_attrs
                0x0000000000052326                packetbuf_addrs
 *fill*         0x0000000000052336        0xa 
 COMMON         0x0000000000052340       0x48 obj_cooja/mtype802.a(rimestats.o)
                0x0000000000052340                rimestats
                0x0000000000052388                . = ALIGN ((. != 0x0)?0x4:0x1)
                0x0000000000052388                . = ALIGN (0x4)
                0x0000000000052388                . = SEGMENT_START ("ldata-segment", .)
                0x0000000000052388                . = ALIGN (0x4)
                0x0000000000052388                _end = .
                0x0000000000052388                PROVIDE (end, .)
                0x0000000000052388                . = DATA_SEGMENT_END (.)

.stab
 *(.stab)

.stabstr
 *(.stabstr)

.stab.excl
 *(.stab.excl)

.stab.exclstr
 *(.stab.exclstr)

.stab.index
 *(.stab.index)

.stab.indexstr
 *(.stab.indexstr)

.comment        0x0000000000000000       0x29
 *(.comment)
 .comment       0x0000000000000000       0x29 /usr/lib/gcc/i686-linux-gnu/4.8/crtbeginS.o
                                         0x2a (size before relaxing)
 .comment       0x0000000000000000       0x2a dtls-client.co
 .comment       0x0000000000000000       0x2a obj_cooja/mtype802.o
 .comment       0x0000000000000000       0x2a obj_cooja/mtype802.a(dtls.o)
 .comment       0x0000000000000000       0x2a obj_cooja/mtype802.a(tinydtls-crypto)
 .comment       0x0000000000000000       0x2a obj_cooja/mtype802.a(hmac.o)
 .comment       0x0000000000000000       0x2a obj_cooja/mtype802.a(netq.o)
 .comment       0x0000000000000000       0x2a obj_cooja/mtype802.a(dtls_time.o)
 .comment       0x0000000000000000       0x2a obj_cooja/mtype802.a(peer.o)
 .comment       0x0000000000000000       0x2a obj_cooja/mtype802.a(session.o)
 .comment       0x0000000000000000       0x2a obj_cooja/mtype802.a(rijndael.o)
 .comment       0x0000000000000000       0x2a obj_cooja/mtype802.a(tinydtls-ccm.o)
 .comment       0x0000000000000000       0x2a obj_cooja/mtype802.a(sha2.o)
 .comment       0x0000000000000000       0x2a obj_cooja/mtype802.a(debug.o)
 .comment       0x0000000000000000       0x2a obj_cooja/mtype802.a(simEnvChange.o)
 .comment       0x0000000000000000       0x2a obj_cooja/mtype802.a(cooja_mt.o)
 .comment       0x0000000000000000       0x2a obj_cooja/mtype802.a(cooja_mtarch.o)
 .comment       0x0000000000000000       0x2a obj_cooja/mtype802.a(rtimer-arch.o)
 .comment       0x0000000000000000       0x2a obj_cooja/mtype802.a(beep.o)
 .comment       0x0000000000000000       0x2a obj_cooja/mtype802.a(button-sensor.o)
 .comment       0x0000000000000000       0x2a obj_cooja/mtype802.a(leds-arch.o)
 .comment       0x0000000000000000       0x2a obj_cooja/mtype802.a(moteid.o)
 .comment       0x0000000000000000       0x2a obj_cooja/mtype802.a(pir-sensor.o)
 .comment       0x0000000000000000       0x2a obj_cooja/mtype802.a(rs232.o)
 .comment       0x0000000000000000       0x2a obj_cooja/mtype802.a(vib-sensor.o)
 .comment       0x0000000000000000       0x2a obj_cooja/mtype802.a(clock.o)
 .comment       0x0000000000000000       0x2a obj_cooja/mtype802.a(log.o)
 .comment       0x0000000000000000       0x2a obj_cooja/mtype802.a(cfs-cooja.o)
 .comment       0x0000000000000000       0x2a obj_cooja/mtype802.a(cooja-radio.o)
 .comment       0x0000000000000000       0x2a obj_cooja/mtype802.a(eeprom.o)
 .comment       0x0000000000000000       0x2a obj_cooja/mtype802.a(random.o)
 .comment       0x0000000000000000       0x2a obj_cooja/mtype802.a(sensors.o)
 .comment       0x0000000000000000       0x2a obj_cooja/mtype802.a(autostart.o)
 .comment       0x0000000000000000       0x2a obj_cooja/mtype802.a(ctimer.o)
 .comment       0x0000000000000000       0x2a obj_cooja/mtype802.a(etimer.o)
 .comment       0x0000000000000000       0x2a obj_cooja/mtype802.a(process.o)
 .comment       0x0000000000000000       0x2a obj_cooja/mtype802.a(rtimer.o)
 .comment       0x0000000000000000       0x2a obj_cooja/mtype802.a(timer.o)
 .comment       0x0000000000000000       0x2a obj_cooja/mtype802.a(serial-line.o)
 .comment       0x0000000000000000       0x2a obj_cooja/mtype802.a(assert.o)
 .comment       0x0000000000000000       0x2a obj_cooja/mtype802.a(list.o)
 .comment       0x0000000000000000       0x2a obj_cooja/mtype802.a(memb.o)
 .comment       0x0000000000000000       0x2a obj_cooja/mtype802.a(ringbuf.o)
 .comment       0x0000000000000000       0x2a obj_cooja/mtype802.a(sicslowpan.o)
 .comment       0x0000000000000000       0x2a obj_cooja/mtype802.a(uip-ds6-nbr.o)
 .comment       0x0000000000000000       0x2a obj_cooja/mtype802.a(uip-ds6-route.o)
 .comment       0x0000000000000000       0x2a obj_cooja/mtype802.a(uip-ds6.o)
 .comment       0x0000000000000000       0x2a obj_cooja/mtype802.a(uip-nd6.o)
 .comment       0x0000000000000000       0x2a obj_cooja/mtype802.a(uip6.o)
 .comment       0x0000000000000000       0x2a obj_cooja/mtype802.a(resolv.o)
 .comment       0x0000000000000000       0x2a obj_cooja/mtype802.a(tcpip.o)
 .comment       0x0000000000000000       0x2a obj_cooja/mtype802.a(uip-debug.o)
 .comment       0x0000000000000000       0x2a obj_cooja/mtype802.a(uip-nameserver.)
 .comment       0x0000000000000000       0x2a obj_cooja/mtype802.a(uip-packetqueue)
 .comment       0x0000000000000000       0x2a obj_cooja/mtype802.a(uip-udp-packet.)
 .comment       0x0000000000000000       0x2a obj_cooja/mtype802.a(uiplib.o)
 .comment       0x0000000000000000       0x2a obj_cooja/mtype802.a(rpl-dag.o)
 .comment       0x0000000000000000       0x2a obj_cooja/mtype802.a(rpl-ext-header.)
 .comment       0x0000000000000000       0x2a obj_cooja/mtype802.a(rpl-icmp6.o)
 .comment       0x0000000000000000       0x2a obj_cooja/mtype802.a(rpl-mrhof.o)
 .comment       0x0000000000000000       0x2a obj_cooja/mtype802.a(rpl-timers.o)
 .comment       0x0000000000000000       0x2a obj_cooja/mtype802.a(rpl.o)
 .comment       0x0000000000000000       0x2a obj_cooja/mtype802.a(link-stats.o)
 .comment       0x0000000000000000       0x2a obj_cooja/mtype802.a(linkaddr.o)
 .comment       0x0000000000000000       0x2a obj_cooja/mtype802.a(nbr-table.o)
 .comment       0x0000000000000000       0x2a obj_cooja/mtype802.a(netstack.o)
 .comment       0x0000000000000000       0x2a obj_cooja/mtype802.a(packetbuf.o)
 .comment       0x0000000000000000       0x2a obj_cooja/mtype802.a(queuebuf.o)
 .comment       0x0000000000000000       0x2a obj_cooja/mtype802.a(csma.o)
 .comment       0x0000000000000000       0x2a obj_cooja/mtype802.a(framer-802154.o)
 .comment       0x0000000000000000       0x2a obj_cooja/mtype802.a(mac.o)
 .comment       0x0000000000000000       0x2a obj_cooja/mtype802.a(nullrdc.o)
 .comment       0x0000000000000000       0x2a obj_cooja/mtype802.a(nullsec.o)
 .comment       0x0000000000000000       0x2a obj_cooja/mtype802.a(watchdog.o)
 .comment       0x0000000000000000       0x2a obj_cooja/mtype802.a(rimestats.o)
 .comment       0x0000000000000000       0x2a obj_cooja/mtype802.a(stimer.o)
 .comment       0x0000000000000000       0x2a obj_cooja/mtype802.a(uip-icmp6.o)
 .comment       0x0000000000000000       0x2a obj_cooja/mtype802.a(rpl-nbr-policy.)
 .comment       0x0000000000000000       0x2a obj_cooja/mtype802.a(frame802154.o)
 .comment       0x0000000000000000       0x2a obj_cooja/mtype802.a(mac-sequence.o)
 .comment       0x0000000000000000       0x2a /usr/lib/gcc/i686-linux-gnu/4.8/crtendS.o

.debug
 *(.debug)

.line
 *(.line)

.debug_srcinfo
 *(.debug_srcinfo)

.debug_sfnames
 *(.debug_sfnames)

.debug_aranges  0x0000000000000000     0x2160
 *(.debug_aranges)
 .debug_aranges
                0x0000000000000000       0x90 dtls-client.co
 .debug_aranges
                0x0000000000000090       0x68 obj_cooja/mtype802.o
 .debug_aranges
                0x00000000000000f8      0x2e0 obj_cooja/mtype802.a(dtls.o)
 .debug_aranges
                0x00000000000003d8       0xc0 obj_cooja/mtype802.a(tinydtls-crypto)
 .debug_aranges
                0x0000000000000498       0x70 obj_cooja/mtype802.a(hmac.o)
 .debug_aranges
                0x0000000000000508       0x70 obj_cooja/mtype802.a(netq.o)
 .debug_aranges
                0x0000000000000578       0x28 obj_cooja/mtype802.a(dtls_time.o)
 .debug_aranges
                0x00000000000005a0       0x38 obj_cooja/mtype802.a(peer.o)
 .debug_aranges
                0x00000000000005d8       0x28 obj_cooja/mtype802.a(session.o)
 .debug_aranges
                0x0000000000000600       0x38 obj_cooja/mtype802.a(rijndael.o)
 .debug_aranges
                0x0000000000000638       0x60 obj_cooja/mtype802.a(tinydtls-ccm.o)
 .debug_aranges
                0x0000000000000698       0x48 obj_cooja/mtype802.a(sha2.o)
 .debug_aranges
                0x00000000000006e0       0x68 obj_cooja/mtype802.a(debug.o)
 .debug_aranges
                0x0000000000000748       0x28 obj_cooja/mtype802.a(simEnvChange.o)
 .debug_aranges
                0x0000000000000770       0x48 obj_cooja/mtype802.a(cooja_mt.o)
 .debug_aranges
                0x00000000000007b8       0x60 obj_cooja/mtype802.a(cooja_mtarch.o)
 .debug_aranges
                0x0000000000000818       0x48 obj_cooja/mtype802.a(rtimer-arch.o)
 .debug_aranges
                0x0000000000000860       0x70 obj_cooja/mtype802.a(beep.o)
 .debug_aranges
                0x00000000000008d0       0x40 obj_cooja/mtype802.a(button-sensor.o)
 .debug_aranges
                0x0000000000000910       0x40 obj_cooja/mtype802.a(leds-arch.o)
 .debug_aranges
                0x0000000000000950       0x28 obj_cooja/mtype802.a(moteid.o)
 .debug_aranges
                0x0000000000000978       0x40 obj_cooja/mtype802.a(pir-sensor.o)
 .debug_aranges
                0x00000000000009b8       0x58 obj_cooja/mtype802.a(rs232.o)
 .debug_aranges
                0x0000000000000a10       0x40 obj_cooja/mtype802.a(vib-sensor.o)
 .debug_aranges
                0x0000000000000a50       0x48 obj_cooja/mtype802.a(clock.o)
 .debug_aranges
                0x0000000000000a98       0x60 obj_cooja/mtype802.a(log.o)
 .debug_aranges
                0x0000000000000af8       0x70 obj_cooja/mtype802.a(cfs-cooja.o)
 .debug_aranges
                0x0000000000000b68       0xf0 obj_cooja/mtype802.a(cooja-radio.o)
 .debug_aranges
                0x0000000000000c58       0x40 obj_cooja/mtype802.a(eeprom.o)
 .debug_aranges
                0x0000000000000c98       0x28 obj_cooja/mtype802.a(random.o)
 .debug_aranges
                0x0000000000000cc0       0x48 obj_cooja/mtype802.a(sensors.o)
 .debug_aranges
                0x0000000000000d08       0x28 obj_cooja/mtype802.a(autostart.o)
 .debug_aranges
                0x0000000000000d30       0x58 obj_cooja/mtype802.a(ctimer.o)
 .debug_aranges
                0x0000000000000d88       0x90 obj_cooja/mtype802.a(etimer.o)
 .debug_aranges
                0x0000000000000e18       0x88 obj_cooja/mtype802.a(process.o)
 .debug_aranges
                0x0000000000000ea0       0x30 obj_cooja/mtype802.a(rtimer.o)
 .debug_aranges
                0x0000000000000ed0       0x40 obj_cooja/mtype802.a(timer.o)
 .debug_aranges
                0x0000000000000f10       0x30 obj_cooja/mtype802.a(serial-line.o)
 .debug_aranges
                0x0000000000000f40       0x20 obj_cooja/mtype802.a(assert.o)
 .debug_aranges
                0x0000000000000f60       0x78 obj_cooja/mtype802.a(list.o)
 .debug_aranges
                0x0000000000000fd8       0x40 obj_cooja/mtype802.a(memb.o)
 .debug_aranges
                0x0000000000001018       0x40 obj_cooja/mtype802.a(ringbuf.o)
 .debug_aranges
                0x0000000000001058       0xe0 obj_cooja/mtype802.a(sicslowpan.o)
 .debug_aranges
                0x0000000000001138       0x90 obj_cooja/mtype802.a(uip-ds6-nbr.o)
 .debug_aranges
                0x00000000000011c8       0xc8 obj_cooja/mtype802.a(uip-ds6-route.o)
 .debug_aranges
                0x0000000000001290       0xc8 obj_cooja/mtype802.a(uip-ds6.o)
 .debug_aranges
                0x0000000000001358       0x48 obj_cooja/mtype802.a(uip-nd6.o)
 .debug_aranges
                0x00000000000013a0       0xb0 obj_cooja/mtype802.a(uip6.o)
 .debug_aranges
                0x0000000000001450       0xb8 obj_cooja/mtype802.a(resolv.o)
 .debug_aranges
                0x0000000000001508       0xb0 obj_cooja/mtype802.a(tcpip.o)
 .debug_aranges
                0x00000000000015b8       0x20 obj_cooja/mtype802.a(uip-debug.o)
 .debug_aranges
                0x00000000000015d8       0x38 obj_cooja/mtype802.a(uip-nameserver.)
 .debug_aranges
                0x0000000000001610       0x50 obj_cooja/mtype802.a(uip-packetqueue)
 .debug_aranges
                0x0000000000001660       0x28 obj_cooja/mtype802.a(uip-udp-packet.)
 .debug_aranges
                0x0000000000001688       0x28 obj_cooja/mtype802.a(uiplib.o)
 .debug_aranges
                0x00000000000016b0      0x1d8 obj_cooja/mtype802.a(rpl-dag.o)
 .debug_aranges
                0x0000000000001888       0x48 obj_cooja/mtype802.a(rpl-ext-header.)
 .debug_aranges
                0x00000000000018d0       0xc0 obj_cooja/mtype802.a(rpl-icmp6.o)
 .debug_aranges
                0x0000000000001990       0x60 obj_cooja/mtype802.a(rpl-mrhof.o)
 .debug_aranges
                0x00000000000019f0       0xa0 obj_cooja/mtype802.a(rpl-timers.o)
 .debug_aranges
                0x0000000000001a90       0x68 obj_cooja/mtype802.a(rpl.o)
 .debug_aranges
                0x0000000000001af8       0x58 obj_cooja/mtype802.a(link-stats.o)
 .debug_aranges
                0x0000000000001b50       0x30 obj_cooja/mtype802.a(linkaddr.o)
 .debug_aranges
                0x0000000000001b80       0xc0 obj_cooja/mtype802.a(nbr-table.o)
 .debug_aranges
                0x0000000000001c40       0x20 obj_cooja/mtype802.a(netstack.o)
 .debug_aranges
                0x0000000000001c60       0xa0 obj_cooja/mtype802.a(packetbuf.o)
 .debug_aranges
                0x0000000000001d00       0x80 obj_cooja/mtype802.a(queuebuf.o)
 .debug_aranges
                0x0000000000001d80       0xb8 obj_cooja/mtype802.a(csma.o)
 .debug_aranges
                0x0000000000001e38       0x58 obj_cooja/mtype802.a(framer-802154.o)
 .debug_aranges
                0x0000000000001e90       0x20 obj_cooja/mtype802.a(mac.o)
 .debug_aranges
                0x0000000000001eb0       0x70 obj_cooja/mtype802.a(nullrdc.o)
 .debug_aranges
                0x0000000000001f20       0x38 obj_cooja/mtype802.a(nullsec.o)
 .debug_aranges
                0x0000000000001f58       0x40 obj_cooja/mtype802.a(watchdog.o)
 .debug_aranges
                0x0000000000001f98       0x18 obj_cooja/mtype802.a(rimestats.o)
 .debug_aranges
                0x0000000000001fb0       0x48 obj_cooja/mtype802.a(stimer.o)
 .debug_aranges
                0x0000000000001ff8       0x68 obj_cooja/mtype802.a(uip-icmp6.o)
 .debug_aranges
                0x0000000000002060       0x48 obj_cooja/mtype802.a(rpl-nbr-policy.)
 .debug_aranges
                0x00000000000020a8       0x80 obj_cooja/mtype802.a(frame802154.o)
 .debug_aranges
                0x0000000000002128       0x38 obj_cooja/mtype802.a(mac-sequence.o)

.debug_pubnames
 *(.debug_pubnames)

.debug_info     0x0000000000000000    0x24840
 *(.debug_info .gnu.linkonce.wi.*)
 .debug_info    0x0000000000000000     0x106e dtls-client.co
 .debug_info    0x000000000000106e     0x36d8 obj_cooja/mtype802.o
 .debug_info    0x0000000000004746     0x3156 obj_cooja/mtype802.a(dtls.o)
 .debug_info    0x000000000000789c      0xd2b obj_cooja/mtype802.a(tinydtls-crypto)
 .debug_info    0x00000000000085c7      0x4e9 obj_cooja/mtype802.a(hmac.o)
 .debug_info    0x0000000000008ab0      0x8d5 obj_cooja/mtype802.a(netq.o)
 .debug_info    0x0000000000009385      0x17e obj_cooja/mtype802.a(dtls_time.o)
 .debug_info    0x0000000000009503      0x6d1 obj_cooja/mtype802.a(peer.o)
 .debug_info    0x0000000000009bd4      0x22c obj_cooja/mtype802.a(session.o)
 .debug_info    0x0000000000009e00      0x37f obj_cooja/mtype802.a(rijndael.o)
 .debug_info    0x000000000000a17f      0x650 obj_cooja/mtype802.a(tinydtls-ccm.o)
 .debug_info    0x000000000000a7cf      0x560 obj_cooja/mtype802.a(sha2.o)
 .debug_info    0x000000000000ad2f      0x518 obj_cooja/mtype802.a(debug.o)
 .debug_info    0x000000000000b247      0x15a obj_cooja/mtype802.a(simEnvChange.o)
 .debug_info    0x000000000000b3a1      0x1e2 obj_cooja/mtype802.a(cooja_mt.o)
 .debug_info    0x000000000000b583      0x2e7 obj_cooja/mtype802.a(cooja_mtarch.o)
 .debug_info    0x000000000000b86a      0x14a obj_cooja/mtype802.a(rtimer-arch.o)
 .debug_info    0x000000000000b9b4      0x1f3 obj_cooja/mtype802.a(beep.o)
 .debug_info    0x000000000000bba7      0x257 obj_cooja/mtype802.a(button-sensor.o)
 .debug_info    0x000000000000bdfe      0x132 obj_cooja/mtype802.a(leds-arch.o)
 .debug_info    0x000000000000bf30      0x10a obj_cooja/mtype802.a(moteid.o)
 .debug_info    0x000000000000c03a      0x216 obj_cooja/mtype802.a(pir-sensor.o)
 .debug_info    0x000000000000c250      0x21e obj_cooja/mtype802.a(rs232.o)
 .debug_info    0x000000000000c46e      0x216 obj_cooja/mtype802.a(vib-sensor.o)
 .debug_info    0x000000000000c684      0x152 obj_cooja/mtype802.a(clock.o)
 .debug_info    0x000000000000c7d6      0x2bb obj_cooja/mtype802.a(log.o)
 .debug_info    0x000000000000ca91      0x3cf obj_cooja/mtype802.a(cfs-cooja.o)
 .debug_info    0x000000000000ce60      0xd1b obj_cooja/mtype802.a(cooja-radio.o)
 .debug_info    0x000000000000db7b      0x1d5 obj_cooja/mtype802.a(eeprom.o)
 .debug_info    0x000000000000dd50       0xb3 obj_cooja/mtype802.a(random.o)
 .debug_info    0x000000000000de03      0x36d obj_cooja/mtype802.a(sensors.o)
 .debug_info    0x000000000000e170      0x1a5 obj_cooja/mtype802.a(autostart.o)
 .debug_info    0x000000000000e315      0x46c obj_cooja/mtype802.a(ctimer.o)
 .debug_info    0x000000000000e781      0x49c obj_cooja/mtype802.a(etimer.o)
 .debug_info    0x000000000000ec1d      0x4ab obj_cooja/mtype802.a(process.o)
 .debug_info    0x000000000000f0c8      0x1b6 obj_cooja/mtype802.a(rtimer.o)
 .debug_info    0x000000000000f27e      0x16c obj_cooja/mtype802.a(timer.o)
 .debug_info    0x000000000000f3ea      0x2de obj_cooja/mtype802.a(serial-line.o)
 .debug_info    0x000000000000f6c8       0xb3 obj_cooja/mtype802.a(assert.o)
 .debug_info    0x000000000000f77b      0x2ed obj_cooja/mtype802.a(list.o)
 .debug_info    0x000000000000fa68      0x1d7 obj_cooja/mtype802.a(memb.o)
 .debug_info    0x000000000000fc3f      0x1aa obj_cooja/mtype802.a(ringbuf.o)
 .debug_info    0x000000000000fde9     0x105d obj_cooja/mtype802.a(sicslowpan.o)
 .debug_info    0x0000000000010e46      0xb48 obj_cooja/mtype802.a(uip-ds6-nbr.o)
 .debug_info    0x000000000001198e      0xd6b obj_cooja/mtype802.a(uip-ds6-route.o)
 .debug_info    0x00000000000126f9      0xa4b obj_cooja/mtype802.a(uip-ds6.o)
 .debug_info    0x0000000000013144      0x97b obj_cooja/mtype802.a(uip-nd6.o)
 .debug_info    0x0000000000013abf      0xe68 obj_cooja/mtype802.a(uip6.o)
 .debug_info    0x0000000000014927     0x1075 obj_cooja/mtype802.a(resolv.o)
 .debug_info    0x000000000001599c     0x1602 obj_cooja/mtype802.a(tcpip.o)
 .debug_info    0x0000000000016f9e      0x13b obj_cooja/mtype802.a(uip-debug.o)
 .debug_info    0x00000000000170d9      0x243 obj_cooja/mtype802.a(uip-nameserver.)
 .debug_info    0x000000000001731c      0x470 obj_cooja/mtype802.a(uip-packetqueue)
 .debug_info    0x000000000001778c      0x37a obj_cooja/mtype802.a(uip-udp-packet.)
 .debug_info    0x0000000000017b06      0x231 obj_cooja/mtype802.a(uiplib.o)
 .debug_info    0x0000000000017d37     0x1b58 obj_cooja/mtype802.a(rpl-dag.o)
 .debug_info    0x000000000001988f      0xf73 obj_cooja/mtype802.a(rpl-ext-header.)
 .debug_info    0x000000000001a802     0x16db obj_cooja/mtype802.a(rpl-icmp6.o)
 .debug_info    0x000000000001bedd      0xa3d obj_cooja/mtype802.a(rpl-mrhof.o)
 .debug_info    0x000000000001c91a      0xcc0 obj_cooja/mtype802.a(rpl-timers.o)
 .debug_info    0x000000000001d5da      0xd0d obj_cooja/mtype802.a(rpl.o)
 .debug_info    0x000000000001e2e7      0x691 obj_cooja/mtype802.a(link-stats.o)
 .debug_info    0x000000000001e978      0x165 obj_cooja/mtype802.a(linkaddr.o)
 .debug_info    0x000000000001eadd      0x969 obj_cooja/mtype802.a(nbr-table.o)
 .debug_info    0x000000000001f446      0x4b9 obj_cooja/mtype802.a(netstack.o)
 .debug_info    0x000000000001f8ff      0x48d obj_cooja/mtype802.a(packetbuf.o)
 .debug_info    0x000000000001fd8c      0x57d obj_cooja/mtype802.a(queuebuf.o)
 .debug_info    0x0000000000020309      0xc0d obj_cooja/mtype802.a(csma.o)
 .debug_info    0x0000000000020f16      0x5ed obj_cooja/mtype802.a(framer-802154.o)
 .debug_info    0x0000000000021503      0x112 obj_cooja/mtype802.a(mac.o)
 .debug_info    0x0000000000021615      0xc3c obj_cooja/mtype802.a(nullrdc.o)
 .debug_info    0x0000000000022251      0x3aa obj_cooja/mtype802.a(nullsec.o)
 .debug_info    0x00000000000225fb       0x7b obj_cooja/mtype802.a(watchdog.o)
 .debug_info    0x0000000000022676      0x119 obj_cooja/mtype802.a(rimestats.o)
 .debug_info    0x000000000002278f      0x179 obj_cooja/mtype802.a(stimer.o)
 .debug_info    0x0000000000022908      0x761 obj_cooja/mtype802.a(uip-icmp6.o)
 .debug_info    0x0000000000023069      0xdee obj_cooja/mtype802.a(rpl-nbr-policy.)
 .debug_info    0x0000000000023e57      0x72d obj_cooja/mtype802.a(frame802154.o)
 .debug_info    0x0000000000024584      0x2bc obj_cooja/mtype802.a(mac-sequence.o)

.debug_abbrev   0x0000000000000000     0x82fa
 *(.debug_abbrev)
 .debug_abbrev  0x0000000000000000      0x2ef dtls-client.co
 .debug_abbrev  0x00000000000002ef      0x2b3 obj_cooja/mtype802.o
 .debug_abbrev  0x00000000000005a2      0x3a4 obj_cooja/mtype802.a(dtls.o)
 .debug_abbrev  0x0000000000000946      0x2a4 obj_cooja/mtype802.a(tinydtls-crypto)
 .debug_abbrev  0x0000000000000bea      0x19a obj_cooja/mtype802.a(hmac.o)
 .debug_abbrev  0x0000000000000d84      0x1d3 obj_cooja/mtype802.a(netq.o)
 .debug_abbrev  0x0000000000000f57      0x101 obj_cooja/mtype802.a(dtls_time.o)
 .debug_abbrev  0x0000000000001058      0x191 obj_cooja/mtype802.a(peer.o)
 .debug_abbrev  0x00000000000011e9      0x126 obj_cooja/mtype802.a(session.o)
 .debug_abbrev  0x000000000000130f      0x12c obj_cooja/mtype802.a(rijndael.o)
 .debug_abbrev  0x000000000000143b      0x1a2 obj_cooja/mtype802.a(tinydtls-ccm.o)
 .debug_abbrev  0x00000000000015dd      0x165 obj_cooja/mtype802.a(sha2.o)
 .debug_abbrev  0x0000000000001742      0x1e0 obj_cooja/mtype802.a(debug.o)
 .debug_abbrev  0x0000000000001922       0xc3 obj_cooja/mtype802.a(simEnvChange.o)
 .debug_abbrev  0x00000000000019e5       0xe6 obj_cooja/mtype802.a(cooja_mt.o)
 .debug_abbrev  0x0000000000001acb      0x147 obj_cooja/mtype802.a(cooja_mtarch.o)
 .debug_abbrev  0x0000000000001c12       0xbd obj_cooja/mtype802.a(rtimer-arch.o)
 .debug_abbrev  0x0000000000001ccf       0xe3 obj_cooja/mtype802.a(beep.o)
 .debug_abbrev  0x0000000000001db2      0x11c obj_cooja/mtype802.a(button-sensor.o)
 .debug_abbrev  0x0000000000001ece       0xe1 obj_cooja/mtype802.a(leds-arch.o)
 .debug_abbrev  0x0000000000001faf       0x9c obj_cooja/mtype802.a(moteid.o)
 .debug_abbrev  0x000000000000204b       0xe6 obj_cooja/mtype802.a(pir-sensor.o)
 .debug_abbrev  0x0000000000002131      0x14a obj_cooja/mtype802.a(rs232.o)
 .debug_abbrev  0x000000000000227b       0xe6 obj_cooja/mtype802.a(vib-sensor.o)
 .debug_abbrev  0x0000000000002361       0xee obj_cooja/mtype802.a(clock.o)
 .debug_abbrev  0x000000000000244f      0x141 obj_cooja/mtype802.a(log.o)
 .debug_abbrev  0x0000000000002590      0x139 obj_cooja/mtype802.a(cfs-cooja.o)
 .debug_abbrev  0x00000000000026c9      0x324 obj_cooja/mtype802.a(cooja-radio.o)
 .debug_abbrev  0x00000000000029ed       0xf5 obj_cooja/mtype802.a(eeprom.o)
 .debug_abbrev  0x0000000000002ae2       0x6d obj_cooja/mtype802.a(random.o)
 .debug_abbrev  0x0000000000002b4f      0x1c2 obj_cooja/mtype802.a(sensors.o)
 .debug_abbrev  0x0000000000002d11       0xfb obj_cooja/mtype802.a(autostart.o)
 .debug_abbrev  0x0000000000002e0c      0x1a1 obj_cooja/mtype802.a(ctimer.o)
 .debug_abbrev  0x0000000000002fad      0x1f1 obj_cooja/mtype802.a(etimer.o)
 .debug_abbrev  0x000000000000319e      0x244 obj_cooja/mtype802.a(process.o)
 .debug_abbrev  0x00000000000033e2      0x124 obj_cooja/mtype802.a(rtimer.o)
 .debug_abbrev  0x0000000000003506       0xf5 obj_cooja/mtype802.a(timer.o)
 .debug_abbrev  0x00000000000035fb      0x190 obj_cooja/mtype802.a(serial-line.o)
 .debug_abbrev  0x000000000000378b       0x61 obj_cooja/mtype802.a(assert.o)
 .debug_abbrev  0x00000000000037ec      0x145 obj_cooja/mtype802.a(list.o)
 .debug_abbrev  0x0000000000003931       0xe4 obj_cooja/mtype802.a(memb.o)
 .debug_abbrev  0x0000000000003a15       0xdb obj_cooja/mtype802.a(ringbuf.o)
 .debug_abbrev  0x0000000000003af0      0x290 obj_cooja/mtype802.a(sicslowpan.o)
 .debug_abbrev  0x0000000000003d80      0x2cf obj_cooja/mtype802.a(uip-ds6-nbr.o)
 .debug_abbrev  0x000000000000404f      0x317 obj_cooja/mtype802.a(uip-ds6-route.o)
 .debug_abbrev  0x0000000000004366      0x23a obj_cooja/mtype802.a(uip-ds6.o)
 .debug_abbrev  0x00000000000045a0      0x27e obj_cooja/mtype802.a(uip-nd6.o)
 .debug_abbrev  0x000000000000481e      0x2c9 obj_cooja/mtype802.a(uip6.o)
 .debug_abbrev  0x0000000000004ae7      0x2a4 obj_cooja/mtype802.a(resolv.o)
 .debug_abbrev  0x0000000000004d8b      0x349 obj_cooja/mtype802.a(tcpip.o)
 .debug_abbrev  0x00000000000050d4       0xad obj_cooja/mtype802.a(uip-debug.o)
 .debug_abbrev  0x0000000000005181      0x142 obj_cooja/mtype802.a(uip-nameserver.)
 .debug_abbrev  0x00000000000052c3      0x1d4 obj_cooja/mtype802.a(uip-packetqueue)
 .debug_abbrev  0x0000000000005497      0x195 obj_cooja/mtype802.a(uip-udp-packet.)
 .debug_abbrev  0x000000000000562c       0xda obj_cooja/mtype802.a(uiplib.o)
 .debug_abbrev  0x0000000000005706      0x373 obj_cooja/mtype802.a(rpl-dag.o)
 .debug_abbrev  0x0000000000005a79      0x25f obj_cooja/mtype802.a(rpl-ext-header.)
 .debug_abbrev  0x0000000000005cd8      0x37a obj_cooja/mtype802.a(rpl-icmp6.o)
 .debug_abbrev  0x0000000000006052      0x1c4 obj_cooja/mtype802.a(rpl-mrhof.o)
 .debug_abbrev  0x0000000000006216      0x283 obj_cooja/mtype802.a(rpl-timers.o)
 .debug_abbrev  0x0000000000006499      0x25a obj_cooja/mtype802.a(rpl.o)
 .debug_abbrev  0x00000000000066f3      0x23f obj_cooja/mtype802.a(link-stats.o)
 .debug_abbrev  0x0000000000006932       0xd8 obj_cooja/mtype802.a(linkaddr.o)
 .debug_abbrev  0x0000000000006a0a      0x1f8 obj_cooja/mtype802.a(nbr-table.o)
 .debug_abbrev  0x0000000000006c02      0x111 obj_cooja/mtype802.a(netstack.o)
 .debug_abbrev  0x0000000000006d13      0x1d8 obj_cooja/mtype802.a(packetbuf.o)
 .debug_abbrev  0x0000000000006eeb      0x1ba obj_cooja/mtype802.a(queuebuf.o)
 .debug_abbrev  0x00000000000070a5      0x2aa obj_cooja/mtype802.a(csma.o)
 .debug_abbrev  0x000000000000734f      0x195 obj_cooja/mtype802.a(framer-802154.o)
 .debug_abbrev  0x00000000000074e4       0xa3 obj_cooja/mtype802.a(mac.o)
 .debug_abbrev  0x0000000000007587      0x2a9 obj_cooja/mtype802.a(nullrdc.o)
 .debug_abbrev  0x0000000000007830      0x1ba obj_cooja/mtype802.a(nullsec.o)
 .debug_abbrev  0x00000000000079ea       0x2c obj_cooja/mtype802.a(watchdog.o)
 .debug_abbrev  0x0000000000007a16       0x59 obj_cooja/mtype802.a(rimestats.o)
 .debug_abbrev  0x0000000000007a6f       0xd9 obj_cooja/mtype802.a(stimer.o)
 .debug_abbrev  0x0000000000007b48      0x232 obj_cooja/mtype802.a(uip-icmp6.o)
 .debug_abbrev  0x0000000000007d7a      0x23c obj_cooja/mtype802.a(rpl-nbr-policy.)
 .debug_abbrev  0x0000000000007fb6      0x1fb obj_cooja/mtype802.a(frame802154.o)
 .debug_abbrev  0x00000000000081b1      0x149 obj_cooja/mtype802.a(mac-sequence.o)

.debug_line     0x0000000000000000     0xd4d0
 *(.debug_line .debug_line.* .debug_line_end)
 .debug_line    0x0000000000000000      0x456 dtls-client.co
 .debug_line    0x0000000000000456      0x4f5 obj_cooja/mtype802.o
 .debug_line    0x000000000000094b     0x15f5 obj_cooja/mtype802.a(dtls.o)
 .debug_line    0x0000000000001f40      0x434 obj_cooja/mtype802.a(tinydtls-crypto)
 .debug_line    0x0000000000002374      0x254 obj_cooja/mtype802.a(hmac.o)
 .debug_line    0x00000000000025c8      0x2d7 obj_cooja/mtype802.a(netq.o)
 .debug_line    0x000000000000289f       0xf3 obj_cooja/mtype802.a(dtls_time.o)
 .debug_line    0x0000000000002992      0x1c5 obj_cooja/mtype802.a(peer.o)
 .debug_line    0x0000000000002b57      0x11b obj_cooja/mtype802.a(session.o)
 .debug_line    0x0000000000002c72      0x1da obj_cooja/mtype802.a(rijndael.o)
 .debug_line    0x0000000000002e4c      0x30a obj_cooja/mtype802.a(tinydtls-ccm.o)
 .debug_line    0x0000000000003156      0x2bf obj_cooja/mtype802.a(sha2.o)
 .debug_line    0x0000000000003415      0x25d obj_cooja/mtype802.a(debug.o)
 .debug_line    0x0000000000003672       0xf4 obj_cooja/mtype802.a(simEnvChange.o)
 .debug_line    0x0000000000003766      0x121 obj_cooja/mtype802.a(cooja_mt.o)
 .debug_line    0x0000000000003887      0x182 obj_cooja/mtype802.a(cooja_mtarch.o)
 .debug_line    0x0000000000003a09       0xec obj_cooja/mtype802.a(rtimer-arch.o)
 .debug_line    0x0000000000003af5      0x168 obj_cooja/mtype802.a(beep.o)
 .debug_line    0x0000000000003c5d      0x188 obj_cooja/mtype802.a(button-sensor.o)
 .debug_line    0x0000000000003de5       0xd2 obj_cooja/mtype802.a(leds-arch.o)
 .debug_line    0x0000000000003eb7       0x9e obj_cooja/mtype802.a(moteid.o)
 .debug_line    0x0000000000003f55      0x10c obj_cooja/mtype802.a(pir-sensor.o)
 .debug_line    0x0000000000004061      0x133 obj_cooja/mtype802.a(rs232.o)
 .debug_line    0x0000000000004194      0x10c obj_cooja/mtype802.a(vib-sensor.o)
 .debug_line    0x00000000000042a0      0x10e obj_cooja/mtype802.a(clock.o)
 .debug_line    0x00000000000043ae      0x195 obj_cooja/mtype802.a(log.o)
 .debug_line    0x0000000000004543      0x1ac obj_cooja/mtype802.a(cfs-cooja.o)
 .debug_line    0x00000000000046ef      0x4cb obj_cooja/mtype802.a(cooja-radio.o)
 .debug_line    0x0000000000004bba      0x101 obj_cooja/mtype802.a(eeprom.o)
 .debug_line    0x0000000000004cbb       0x60 obj_cooja/mtype802.a(random.o)
 .debug_line    0x0000000000004d1b      0x17c obj_cooja/mtype802.a(sensors.o)
 .debug_line    0x0000000000004e97       0xc4 obj_cooja/mtype802.a(autostart.o)
 .debug_line    0x0000000000004f5b      0x1f5 obj_cooja/mtype802.a(ctimer.o)
 .debug_line    0x0000000000005150      0x26c obj_cooja/mtype802.a(etimer.o)
 .debug_line    0x00000000000053bc      0x236 obj_cooja/mtype802.a(process.o)
 .debug_line    0x00000000000055f2       0xf2 obj_cooja/mtype802.a(rtimer.o)
 .debug_line    0x00000000000056e4       0xed obj_cooja/mtype802.a(timer.o)
 .debug_line    0x00000000000057d1      0x13c obj_cooja/mtype802.a(serial-line.o)
 .debug_line    0x000000000000590d       0x50 obj_cooja/mtype802.a(assert.o)
 .debug_line    0x000000000000595d      0x1a2 obj_cooja/mtype802.a(list.o)
 .debug_line    0x0000000000005aff      0x10a obj_cooja/mtype802.a(memb.o)
 .debug_line    0x0000000000005c09       0xf1 obj_cooja/mtype802.a(ringbuf.o)
 .debug_line    0x0000000000005cfa      0x8a9 obj_cooja/mtype802.a(sicslowpan.o)
 .debug_line    0x00000000000065a3      0x3e2 obj_cooja/mtype802.a(uip-ds6-nbr.o)
 .debug_line    0x0000000000006985      0x49f obj_cooja/mtype802.a(uip-ds6-route.o)
 .debug_line    0x0000000000006e24      0x473 obj_cooja/mtype802.a(uip-ds6.o)
 .debug_line    0x0000000000007297      0x3c1 obj_cooja/mtype802.a(uip-nd6.o)
 .debug_line    0x0000000000007658      0x890 obj_cooja/mtype802.a(uip6.o)
 .debug_line    0x0000000000007ee8      0x731 obj_cooja/mtype802.a(resolv.o)
 .debug_line    0x0000000000008619      0x502 obj_cooja/mtype802.a(tcpip.o)
 .debug_line    0x0000000000008b1b       0xcb obj_cooja/mtype802.a(uip-debug.o)
 .debug_line    0x0000000000008be6      0x117 obj_cooja/mtype802.a(uip-nameserver.)
 .debug_line    0x0000000000008cfd      0x1eb obj_cooja/mtype802.a(uip-packetqueue)
 .debug_line    0x0000000000008ee8      0x10b obj_cooja/mtype802.a(uip-udp-packet.)
 .debug_line    0x0000000000008ff3      0x141 obj_cooja/mtype802.a(uiplib.o)
 .debug_line    0x0000000000009134      0xbe7 obj_cooja/mtype802.a(rpl-dag.o)
 .debug_line    0x0000000000009d1b      0x374 obj_cooja/mtype802.a(rpl-ext-header.)
 .debug_line    0x000000000000a08f      0x761 obj_cooja/mtype802.a(rpl-icmp6.o)
 .debug_line    0x000000000000a7f0      0x32f obj_cooja/mtype802.a(rpl-mrhof.o)
 .debug_line    0x000000000000ab1f      0x3d2 obj_cooja/mtype802.a(rpl-timers.o)
 .debug_line    0x000000000000aef1      0x375 obj_cooja/mtype802.a(rpl.o)
 .debug_line    0x000000000000b266      0x29a obj_cooja/mtype802.a(link-stats.o)
 .debug_line    0x000000000000b500       0x9e obj_cooja/mtype802.a(linkaddr.o)
 .debug_line    0x000000000000b59e      0x383 obj_cooja/mtype802.a(nbr-table.o)
 .debug_line    0x000000000000b921      0x125 obj_cooja/mtype802.a(netstack.o)
 .debug_line    0x000000000000ba46      0x225 obj_cooja/mtype802.a(packetbuf.o)
 .debug_line    0x000000000000bc6b      0x1c6 obj_cooja/mtype802.a(queuebuf.o)
 .debug_line    0x000000000000be31      0x400 obj_cooja/mtype802.a(csma.o)
 .debug_line    0x000000000000c231      0x1cd obj_cooja/mtype802.a(framer-802154.o)
 .debug_line    0x000000000000c3fe       0x7e obj_cooja/mtype802.a(mac.o)
 .debug_line    0x000000000000c47c      0x337 obj_cooja/mtype802.a(nullrdc.o)
 .debug_line    0x000000000000c7b3      0x13c obj_cooja/mtype802.a(nullsec.o)
 .debug_line    0x000000000000c8ef       0x9a obj_cooja/mtype802.a(watchdog.o)
 .debug_line    0x000000000000c989       0x71 obj_cooja/mtype802.a(rimestats.o)
 .debug_line    0x000000000000c9fa       0xd1 obj_cooja/mtype802.a(stimer.o)
 .debug_line    0x000000000000cacb      0x29a obj_cooja/mtype802.a(uip-icmp6.o)
 .debug_line    0x000000000000cd65      0x2b5 obj_cooja/mtype802.a(rpl-nbr-policy.)
 .debug_line    0x000000000000d01a      0x366 obj_cooja/mtype802.a(frame802154.o)
 .debug_line    0x000000000000d380      0x150 obj_cooja/mtype802.a(mac-sequence.o)

.debug_frame
 *(.debug_frame)

.debug_str      0x0000000000000000     0x8f20
 *(.debug_str)
 .debug_str     0x0000000000000000      0xab7 dtls-client.co
                                        0xbdf (size before relaxing)
 .debug_str     0x0000000000000ab7     0x1790 obj_cooja/mtype802.o
                                       0x1b06 (size before relaxing)
 .debug_str     0x0000000000002247      0xe58 obj_cooja/mtype802.a(dtls.o)
                                       0x169e (size before relaxing)
 .debug_str     0x000000000000309f      0x322 obj_cooja/mtype802.a(tinydtls-crypto)
                                        0x7ec (size before relaxing)
 .debug_str     0x00000000000033c1      0x112 obj_cooja/mtype802.a(hmac.o)
                                        0x373 (size before relaxing)
 .debug_str     0x00000000000034d3       0xf3 obj_cooja/mtype802.a(netq.o)
                                        0x7a5 (size before relaxing)
 .debug_str     0x00000000000035c6       0x53 obj_cooja/mtype802.a(dtls_time.o)
                                        0x1fc (size before relaxing)
 .debug_str     0x0000000000003619       0x94 obj_cooja/mtype802.a(peer.o)
                                        0x6ea (size before relaxing)
 .debug_str     0x00000000000036ad       0x4f obj_cooja/mtype802.a(session.o)
                                        0x21e (size before relaxing)
 .debug_str     0x00000000000036fc       0xae obj_cooja/mtype802.a(rijndael.o)
                                        0x1dc (size before relaxing)
 .debug_str     0x00000000000037aa       0x83 obj_cooja/mtype802.a(tinydtls-ccm.o)
                                        0x281 (size before relaxing)
 .debug_str     0x000000000000382d       0xe6 obj_cooja/mtype802.a(sha2.o)
                                        0x2d1 (size before relaxing)
 .debug_str     0x0000000000003913       0xee obj_cooja/mtype802.a(debug.o)
                                        0x356 (size before relaxing)
 .debug_str     0x0000000000003a01       0x2e obj_cooja/mtype802.a(simEnvChange.o)
                                        0x1f7 (size before relaxing)
 .debug_str     0x0000000000003a2f       0x8b obj_cooja/mtype802.a(cooja_mt.o)
                                        0x224 (size before relaxing)
 .debug_str     0x0000000000003aba       0xfb obj_cooja/mtype802.a(cooja_mtarch.o)
                                        0x2a1 (size before relaxing)
 .debug_str     0x0000000000003bb5       0xea obj_cooja/mtype802.a(rtimer-arch.o)
                                        0x21b (size before relaxing)
 .debug_str     0x0000000000003c9f       0xc4 obj_cooja/mtype802.a(beep.o)
                                        0x238 (size before relaxing)
 .debug_str     0x0000000000003d63       0x70 obj_cooja/mtype802.a(button-sensor.o)
                                        0x268 (size before relaxing)
 .debug_str     0x0000000000003dd3       0x68 obj_cooja/mtype802.a(leds-arch.o)
                                        0x203 (size before relaxing)
 .debug_str     0x0000000000003e3b       0x47 obj_cooja/mtype802.a(moteid.o)
                                        0x1ee (size before relaxing)
 .debug_str     0x0000000000003e82       0x55 obj_cooja/mtype802.a(pir-sensor.o)
                                        0x225 (size before relaxing)
 .debug_str     0x0000000000003ed7       0xc1 obj_cooja/mtype802.a(rs232.o)
                                        0x282 (size before relaxing)
 .debug_str     0x0000000000003f98       0x55 obj_cooja/mtype802.a(vib-sensor.o)
                                        0x225 (size before relaxing)
 .debug_str     0x0000000000003fed       0x66 obj_cooja/mtype802.a(clock.o)
                                        0x21a (size before relaxing)
 .debug_str     0x0000000000004053       0xd1 obj_cooja/mtype802.a(log.o)
                                        0x2a8 (size before relaxing)
 .debug_str     0x0000000000004124      0x111 obj_cooja/mtype802.a(cfs-cooja.o)
                                        0x2c4 (size before relaxing)
 .debug_str     0x0000000000004235      0x732 obj_cooja/mtype802.a(cooja-radio.o)
                                        0xafe (size before relaxing)
 .debug_str     0x0000000000004967       0x99 obj_cooja/mtype802.a(eeprom.o)
                                        0x244 (size before relaxing)
 .debug_str     0x0000000000004a00       0x36 obj_cooja/mtype802.a(random.o)
                                        0x163 (size before relaxing)
 .debug_str     0x0000000000004a36       0xa1 obj_cooja/mtype802.a(sensors.o)
                                        0x293 (size before relaxing)
 .debug_str     0x0000000000004ad7       0x40 obj_cooja/mtype802.a(autostart.o)
                                        0x1b6 (size before relaxing)
 .debug_str     0x0000000000004b17       0xd2 obj_cooja/mtype802.a(ctimer.o)
                                        0x2b7 (size before relaxing)
 .debug_str     0x0000000000004be9      0x148 obj_cooja/mtype802.a(etimer.o)
                                        0x32a (size before relaxing)
 .debug_str     0x0000000000004d31      0x15c obj_cooja/mtype802.a(process.o)
                                        0x2f5 (size before relaxing)
 .debug_str     0x0000000000004e8d       0xb3 obj_cooja/mtype802.a(rtimer.o)
                                        0x201 (size before relaxing)
 .debug_str     0x0000000000004f40       0x1d obj_cooja/mtype802.a(timer.o)
                                        0x1a0 (size before relaxing)
 .debug_str     0x0000000000004f5d       0xbf obj_cooja/mtype802.a(serial-line.o)
                                        0x27e (size before relaxing)
 .debug_str     0x000000000000501c       0x2e obj_cooja/mtype802.a(assert.o)
                                        0x15b (size before relaxing)
 .debug_str     0x000000000000504a       0xae obj_cooja/mtype802.a(list.o)
                                        0x15f (size before relaxing)
 .debug_str     0x00000000000050f8       0x62 obj_cooja/mtype802.a(memb.o)
                                        0x19a (size before relaxing)
 .debug_str     0x000000000000515a       0x62 obj_cooja/mtype802.a(ringbuf.o)
                                        0x1b3 (size before relaxing)
 .debug_str     0x00000000000051bc      0x4b9 obj_cooja/mtype802.a(sicslowpan.o)
                                        0xa9c (size before relaxing)
 .debug_str     0x0000000000005675      0x3c2 obj_cooja/mtype802.a(uip-ds6-nbr.o)
                                        0x97f (size before relaxing)
 .debug_str     0x0000000000005a37      0x450 obj_cooja/mtype802.a(uip-ds6-route.o)
                                        0x949 (size before relaxing)
 .debug_str     0x0000000000005e87      0x30f obj_cooja/mtype802.a(uip-ds6.o)
                                        0x674 (size before relaxing)
 .debug_str     0x0000000000006196      0x180 obj_cooja/mtype802.a(uip-nd6.o)
                                        0x64f (size before relaxing)
 .debug_str     0x0000000000006316      0x340 obj_cooja/mtype802.a(uip6.o)
                                        0x7fa (size before relaxing)
 .debug_str     0x0000000000006656      0x37f obj_cooja/mtype802.a(resolv.o)
                                        0x8d3 (size before relaxing)
 .debug_str     0x00000000000069d5      0x40a obj_cooja/mtype802.a(tcpip.o)
                                        0xce9 (size before relaxing)
 .debug_str     0x0000000000006ddf       0x3b obj_cooja/mtype802.a(uip-debug.o)
                                        0x194 (size before relaxing)
 .debug_str     0x0000000000006e1a       0xab obj_cooja/mtype802.a(uip-nameserver.)
                                        0x270 (size before relaxing)
 .debug_str     0x0000000000006ec5       0xfa obj_cooja/mtype802.a(uip-packetqueue)
                                        0x33d (size before relaxing)
 .debug_str     0x0000000000006fbf       0x71 obj_cooja/mtype802.a(uip-udp-packet.)
                                        0x28f (size before relaxing)
 .debug_str     0x0000000000007030       0x6c obj_cooja/mtype802.a(uiplib.o)
                                        0x1c0 (size before relaxing)
 .debug_str     0x000000000000709c      0x58f obj_cooja/mtype802.a(rpl-dag.o)
                                        0xdc9 (size before relaxing)
 .debug_str     0x000000000000762b       0xf8 obj_cooja/mtype802.a(rpl-ext-header.)
                                        0xba6 (size before relaxing)
 .debug_str     0x0000000000007723      0x239 obj_cooja/mtype802.a(rpl-icmp6.o)
                                        0xed4 (size before relaxing)
 .debug_str     0x000000000000795c       0x71 obj_cooja/mtype802.a(rpl-mrhof.o)
                                        0x63f (size before relaxing)
 .debug_str     0x00000000000079cd      0x1d6 obj_cooja/mtype802.a(rpl-timers.o)
                                        0x86e (size before relaxing)
 .debug_str     0x0000000000007ba3       0xfa obj_cooja/mtype802.a(rpl.o)
                                        0x88f (size before relaxing)
 .debug_str     0x0000000000007c9d       0xf3 obj_cooja/mtype802.a(link-stats.o)
                                        0x6d9 (size before relaxing)
 .debug_str     0x0000000000007d90       0x58 obj_cooja/mtype802.a(linkaddr.o)
                                        0x1b7 (size before relaxing)
 .debug_str     0x0000000000007de8      0x2a5 obj_cooja/mtype802.a(nbr-table.o)
                                        0x589 (size before relaxing)
 .debug_str     0x000000000000808d       0x2e obj_cooja/mtype802.a(netstack.o)
                                        0x33d (size before relaxing)
 .debug_str     0x00000000000080bb      0x188 obj_cooja/mtype802.a(packetbuf.o)
                                        0x53d (size before relaxing)
 .debug_str     0x0000000000008243      0x1a5 obj_cooja/mtype802.a(queuebuf.o)
                                        0x53c (size before relaxing)
 .debug_str     0x00000000000083e8      0x207 obj_cooja/mtype802.a(csma.o)
                                        0x793 (size before relaxing)
 .debug_str     0x00000000000085ef      0x218 obj_cooja/mtype802.a(framer-802154.o)
                                        0x61b (size before relaxing)
 .debug_str     0x0000000000008807       0x3d obj_cooja/mtype802.a(mac.o)
                                        0x1cb (size before relaxing)
 .debug_str     0x0000000000008844       0x86 obj_cooja/mtype802.a(nullrdc.o)
                                        0x97e (size before relaxing)
 .debug_str     0x00000000000088ca       0x25 obj_cooja/mtype802.a(nullsec.o)
                                        0x439 (size before relaxing)
 .debug_str     0x00000000000088ef       0x77 obj_cooja/mtype802.a(watchdog.o)
                                        0x10d (size before relaxing)
 .debug_str     0x0000000000008966       0x26 obj_cooja/mtype802.a(rimestats.o)
                                        0x161 (size before relaxing)
 .debug_str     0x000000000000898c       0x74 obj_cooja/mtype802.a(stimer.o)
                                        0x1a4 (size before relaxing)
 .debug_str     0x0000000000008a00      0x1ef obj_cooja/mtype802.a(uip-icmp6.o)
                                        0x57e (size before relaxing)
 .debug_str     0x0000000000008bef       0xd0 obj_cooja/mtype802.a(rpl-nbr-policy.)
                                        0x998 (size before relaxing)
 .debug_str     0x0000000000008cbf      0x1f3 obj_cooja/mtype802.a(frame802154.o)
                                        0x571 (size before relaxing)
 .debug_str     0x0000000000008eb2       0x6e obj_cooja/mtype802.a(mac-sequence.o)
                                        0x3ff (size before relaxing)

.debug_loc
 *(.debug_loc)

.debug_macinfo
 *(.debug_macinfo)

.debug_weaknames
 *(.debug_weaknames)

.debug_funcnames
 *(.debug_funcnames)

.debug_typenames
 *(.debug_typenames)

.debug_varnames
 *(.debug_varnames)

.debug_pubtypes
 *(.debug_pubtypes)

.debug_ranges   0x0000000000000000     0x1c68
 *(.debug_ranges)
 .debug_ranges  0x0000000000000000       0x80 dtls-client.co
 .debug_ranges  0x0000000000000080       0x58 obj_cooja/mtype802.o
 .debug_ranges  0x00000000000000d8      0x2d0 obj_cooja/mtype802.a(dtls.o)
 .debug_ranges  0x00000000000003a8       0xb0 obj_cooja/mtype802.a(tinydtls-crypto)
 .debug_ranges  0x0000000000000458       0x60 obj_cooja/mtype802.a(hmac.o)
 .debug_ranges  0x00000000000004b8       0x60 obj_cooja/mtype802.a(netq.o)
 .debug_ranges  0x0000000000000518       0x18 obj_cooja/mtype802.a(dtls_time.o)
 .debug_ranges  0x0000000000000530       0x28 obj_cooja/mtype802.a(peer.o)
 .debug_ranges  0x0000000000000558       0x18 obj_cooja/mtype802.a(session.o)
 .debug_ranges  0x0000000000000570       0x28 obj_cooja/mtype802.a(rijndael.o)
 .debug_ranges  0x0000000000000598       0x50 obj_cooja/mtype802.a(tinydtls-ccm.o)
 .debug_ranges  0x00000000000005e8       0x38 obj_cooja/mtype802.a(sha2.o)
 .debug_ranges  0x0000000000000620       0x58 obj_cooja/mtype802.a(debug.o)
 .debug_ranges  0x0000000000000678       0x18 obj_cooja/mtype802.a(simEnvChange.o)
 .debug_ranges  0x0000000000000690       0x38 obj_cooja/mtype802.a(cooja_mt.o)
 .debug_ranges  0x00000000000006c8       0x50 obj_cooja/mtype802.a(cooja_mtarch.o)
 .debug_ranges  0x0000000000000718       0x38 obj_cooja/mtype802.a(rtimer-arch.o)
 .debug_ranges  0x0000000000000750       0x60 obj_cooja/mtype802.a(beep.o)
 .debug_ranges  0x00000000000007b0       0x30 obj_cooja/mtype802.a(button-sensor.o)
 .debug_ranges  0x00000000000007e0       0x30 obj_cooja/mtype802.a(leds-arch.o)
 .debug_ranges  0x0000000000000810       0x18 obj_cooja/mtype802.a(moteid.o)
 .debug_ranges  0x0000000000000828       0x30 obj_cooja/mtype802.a(pir-sensor.o)
 .debug_ranges  0x0000000000000858       0x48 obj_cooja/mtype802.a(rs232.o)
 .debug_ranges  0x00000000000008a0       0x30 obj_cooja/mtype802.a(vib-sensor.o)
 .debug_ranges  0x00000000000008d0       0x38 obj_cooja/mtype802.a(clock.o)
 .debug_ranges  0x0000000000000908       0x50 obj_cooja/mtype802.a(log.o)
 .debug_ranges  0x0000000000000958       0x60 obj_cooja/mtype802.a(cfs-cooja.o)
 .debug_ranges  0x00000000000009b8       0xe0 obj_cooja/mtype802.a(cooja-radio.o)
 .debug_ranges  0x0000000000000a98       0x30 obj_cooja/mtype802.a(eeprom.o)
 .debug_ranges  0x0000000000000ac8       0x18 obj_cooja/mtype802.a(random.o)
 .debug_ranges  0x0000000000000ae0       0x38 obj_cooja/mtype802.a(sensors.o)
 .debug_ranges  0x0000000000000b18       0x18 obj_cooja/mtype802.a(autostart.o)
 .debug_ranges  0x0000000000000b30       0x48 obj_cooja/mtype802.a(ctimer.o)
 .debug_ranges  0x0000000000000b78       0x80 obj_cooja/mtype802.a(etimer.o)
 .debug_ranges  0x0000000000000bf8       0x78 obj_cooja/mtype802.a(process.o)
 .debug_ranges  0x0000000000000c70       0x20 obj_cooja/mtype802.a(rtimer.o)
 .debug_ranges  0x0000000000000c90       0x30 obj_cooja/mtype802.a(timer.o)
 .debug_ranges  0x0000000000000cc0       0x20 obj_cooja/mtype802.a(serial-line.o)
 .debug_ranges  0x0000000000000ce0       0x10 obj_cooja/mtype802.a(assert.o)
 .debug_ranges  0x0000000000000cf0       0x68 obj_cooja/mtype802.a(list.o)
 .debug_ranges  0x0000000000000d58       0x30 obj_cooja/mtype802.a(memb.o)
 .debug_ranges  0x0000000000000d88       0x30 obj_cooja/mtype802.a(ringbuf.o)
 .debug_ranges  0x0000000000000db8       0xd0 obj_cooja/mtype802.a(sicslowpan.o)
 .debug_ranges  0x0000000000000e88       0x80 obj_cooja/mtype802.a(uip-ds6-nbr.o)
 .debug_ranges  0x0000000000000f08       0xb8 obj_cooja/mtype802.a(uip-ds6-route.o)
 .debug_ranges  0x0000000000000fc0       0xb8 obj_cooja/mtype802.a(uip-ds6.o)
 .debug_ranges  0x0000000000001078       0x38 obj_cooja/mtype802.a(uip-nd6.o)
 .debug_ranges  0x00000000000010b0       0xa0 obj_cooja/mtype802.a(uip6.o)
 .debug_ranges  0x0000000000001150       0xa8 obj_cooja/mtype802.a(resolv.o)
 .debug_ranges  0x00000000000011f8       0xa0 obj_cooja/mtype802.a(tcpip.o)
 .debug_ranges  0x0000000000001298       0x10 obj_cooja/mtype802.a(uip-debug.o)
 .debug_ranges  0x00000000000012a8       0x28 obj_cooja/mtype802.a(uip-nameserver.)
 .debug_ranges  0x00000000000012d0       0x40 obj_cooja/mtype802.a(uip-packetqueue)
 .debug_ranges  0x0000000000001310       0x18 obj_cooja/mtype802.a(uip-udp-packet.)
 .debug_ranges  0x0000000000001328       0x18 obj_cooja/mtype802.a(uiplib.o)
 .debug_ranges  0x0000000000001340      0x1c8 obj_cooja/mtype802.a(rpl-dag.o)
 .debug_ranges  0x0000000000001508       0x38 obj_cooja/mtype802.a(rpl-ext-header.)
 .debug_ranges  0x0000000000001540       0xb0 obj_cooja/mtype802.a(rpl-icmp6.o)
 .debug_ranges  0x00000000000015f0       0x50 obj_cooja/mtype802.a(rpl-mrhof.o)
 .debug_ranges  0x0000000000001640       0x90 obj_cooja/mtype802.a(rpl-timers.o)
 .debug_ranges  0x00000000000016d0       0x58 obj_cooja/mtype802.a(rpl.o)
 .debug_ranges  0x0000000000001728       0x48 obj_cooja/mtype802.a(link-stats.o)
 .debug_ranges  0x0000000000001770       0x20 obj_cooja/mtype802.a(linkaddr.o)
 .debug_ranges  0x0000000000001790       0xb0 obj_cooja/mtype802.a(nbr-table.o)
 .debug_ranges  0x0000000000001840       0x10 obj_cooja/mtype802.a(netstack.o)
 .debug_ranges  0x0000000000001850       0x90 obj_cooja/mtype802.a(packetbuf.o)
 .debug_ranges  0x00000000000018e0       0x70 obj_cooja/mtype802.a(queuebuf.o)
 .debug_ranges  0x0000000000001950       0xa8 obj_cooja/mtype802.a(csma.o)
 .debug_ranges  0x00000000000019f8       0x48 obj_cooja/mtype802.a(framer-802154.o)
 .debug_ranges  0x0000000000001a40       0x10 obj_cooja/mtype802.a(mac.o)
 .debug_ranges  0x0000000000001a50       0x60 obj_cooja/mtype802.a(nullrdc.o)
 .debug_ranges  0x0000000000001ab0       0x28 obj_cooja/mtype802.a(nullsec.o)
 .debug_ranges  0x0000000000001ad8       0x30 obj_cooja/mtype802.a(watchdog.o)
 .debug_ranges  0x0000000000001b08       0x38 obj_cooja/mtype802.a(stimer.o)
 .debug_ranges  0x0000000000001b40       0x58 obj_cooja/mtype802.a(uip-icmp6.o)
 .debug_ranges  0x0000000000001b98       0x38 obj_cooja/mtype802.a(rpl-nbr-policy.)
 .debug_ranges  0x0000000000001bd0       0x70 obj_cooja/mtype802.a(frame802154.o)
 .debug_ranges  0x0000000000001c40       0x28 obj_cooja/mtype802.a(mac-sequence.o)

.debug_macro
 *(.debug_macro)

.gnu.attributes
 *(.gnu.attributes)

/DISCARD/
 *(.note.GNU-stack)
 *(.gnu_debuglink)
 *(.gnu.lto_*)
OUTPUT(obj_cooja/mtype802.cooja elf32-i386)
