Archive member included to satisfy reference by file (symbol)

contiki-native.a(dtls.o)      dtls-client.co (dtls_init)
contiki-native.a(tinydtls-crypto)
                              contiki-native.a(dtls.o) (dtls_crypto_init)
contiki-native.a(hmac.o)      contiki-native.a(dtls.o) (dtls_hmac_update)
contiki-native.a(netq.o)      contiki-native.a(dtls.o) (netq_init)
contiki-native.a(dtls_time.o)
                              contiki-native.a(dtls.o) (dtls_clock_init)
contiki-native.a(peer.o)      contiki-native.a(dtls.o) (peer_init)
contiki-native.a(session.o)   contiki-native.a(dtls.o) (dtls_session_equals)
contiki-native.a(rijndael.o)  contiki-native.a(tinydtls-crypto) (rijndael_set_key_enc_only)
contiki-native.a(tinydtls-ccm.o)
                              contiki-native.a(tinydtls-crypto) (dtls_ccm_encrypt_message)
contiki-native.a(sha2.o)      contiki-native.a(dtls.o) (SHA256_Init)
contiki-native.a(debug.o)     dtls-client.co (dtls_set_log_level)
contiki-native.a(contiki-main.o)
                              /usr/lib/gcc/i686-linux-gnu/4.8/../../../i386-linux-gnu/crt1.o (main)
contiki-native.a(clock.o)     contiki-native.a(dtls.o) (clock_time)
contiki-native.a(button-sensor.o)
                              contiki-native.a(contiki-main.o) (button_sensor)
contiki-native.a(pir-sensor.o)
                              contiki-native.a(contiki-main.o) (pir_sensor)
contiki-native.a(vib-sensor.o)
                              contiki-native.a(contiki-main.o) (vib_sensor)
contiki-native.a(sensors.o)   contiki-native.a(button-sensor.o) (sensors_changed)
contiki-native.a(cfs-posix.o)
                              dtls-client.co (cfs_open)
contiki-native.a(autostart.o)
                              contiki-native.a(contiki-main.o) (autostart_start)
contiki-native.a(ctimer.o)    contiki-native.a(contiki-main.o) (ctimer_init)
contiki-native.a(etimer.o)    contiki-native.a(contiki-main.o) (etimer_process)
contiki-native.a(process.o)   contiki-native.a(dtls.o) (process_current)
contiki-native.a(rtimer.o)    contiki-native.a(contiki-main.o) (rtimer_init)
contiki-native.a(timer.o)     contiki-native.a(etimer.o) (timer_set)
contiki-native.a(serial-line.o)
                              contiki-native.a(contiki-main.o) (serial_line_input_byte)
contiki-native.a(assert.o)    contiki-native.a(dtls.o) (_xassert)
contiki-native.a(list.o)      contiki-native.a(dtls.o) (list_init)
contiki-native.a(memb.o)      contiki-native.a(tinydtls-crypto) (memb_init)
contiki-native.a(random.o)    contiki-native.a(dtls.o) (random_rand)
contiki-native.a(ringbuf.o)   contiki-native.a(serial-line.o) (ringbuf_init)
contiki-native.a(sicslowpan.o)
                              contiki-native.a(contiki-main.o) (sicslowpan_driver)
contiki-native.a(uip6.o)      dtls-client.co (uip_lladdr)
contiki-native.a(uip-ds6.o)   dtls-client.co (uip_ds6_if)
contiki-native.a(uip-ds6-nbr.o)
                              contiki-native.a(uip-ds6.o) (uip_ds6_neighbors_init)
contiki-native.a(uip-ds6-route.o)
                              contiki-native.a(uip-ds6.o) (uip_ds6_route_init)
contiki-native.a(uip-icmp6.o)
                              contiki-native.a(uip6.o) (uip_icmp6_input)
contiki-native.a(uip-nd6.o)   contiki-native.a(uip-ds6-nbr.o) (uip_nd6_ns_output)
contiki-native.a(resolv.o)    dtls-client.co (resolv_event_found)
contiki-native.a(tcpip.o)     dtls-client.co (tcpip_event)
contiki-native.a(uip-debug.o)
                              dtls-client.co (uip_debug_ipaddr_print)
contiki-native.a(uiplib.o)    dtls-client.co (uiplib_ip6addrconv)
contiki-native.a(uip-nameserver.)
                              contiki-native.a(resolv.o) (uip_nameserver_get)
contiki-native.a(uip-packetqueue)
                              contiki-native.a(uip-ds6-nbr.o) (uip_packetqueue_new)
contiki-native.a(uip-udp-packet.)
                              dtls-client.co (uip_udp_packet_send)
contiki-native.a(rpl.o)       contiki-native.a(uip-ds6-nbr.o) (rpl_link_neighbor_callback)
contiki-native.a(rpl-dag.o)   contiki-native.a(rpl.o) (instance_table)
contiki-native.a(rpl-ext-header.)
                              contiki-native.a(uip6.o) (rpl_verify_hbh_header)
contiki-native.a(rpl-icmp6.o)
                              contiki-native.a(rpl-dag.o) (rpl_icmp6_update_nbr_table)
contiki-native.a(rpl-mrhof.o)
                              contiki-native.a(rpl-dag.o) (rpl_mrhof)
contiki-native.a(rpl-timers.o)
                              contiki-native.a(rpl.o) (rpl_reset_periodic_timer)
contiki-native.a(linkaddr.o)  contiki-native.a(sicslowpan.o) (linkaddr_null)
contiki-native.a(link-stats.o)
                              contiki-native.a(rpl-dag.o) (link_stats_from_lladdr)
contiki-native.a(nbr-table.o)
                              contiki-native.a(uip-ds6-nbr.o) (nbr_table_register)
contiki-native.a(netstack.o)  contiki-native.a(contiki-main.o) (netstack_init)
contiki-native.a(packetbuf.o)
                              contiki-native.a(sicslowpan.o) (packetbuf_clear)
contiki-native.a(queuebuf.o)  contiki-native.a(contiki-main.o) (queuebuf_init)
contiki-native.a(framer-802154.o)
                              contiki-native.a(sicslowpan.o) (framer_802154)
contiki-native.a(nullmac.o)   contiki-native.a(contiki-main.o) (nullmac_driver)
contiki-native.a(nullrdc.o)   contiki-native.a(contiki-main.o) (nullrdc_driver)
contiki-native.a(nullsec.o)   contiki-native.a(sicslowpan.o) (nullsec_driver)
contiki-native.a(rtimer-arch.o)
                              contiki-native.a(rtimer.o) (rtimer_arch_init)
contiki-native.a(watchdog.o)  contiki-native.a(sicslowpan.o) (watchdog_periodic)
contiki-native.a(stimer.o)    contiki-native.a(uip-ds6.o) (stimer_set)
contiki-native.a(nullradio.o)
                              contiki-native.a(netstack.o) (nullradio_driver)
contiki-native.a(rpl-nbr-policy.)
                              contiki-native.a(nbr-table.o) (rpl_nbr_policy_find_removable)
contiki-native.a(frame802154.o)
                              contiki-native.a(framer-802154.o) (frame802154_get_pan_id)
contiki-native.a(mac.o)       contiki-native.a(nullrdc.o) (mac_call_sent_callback)
/usr/lib/i386-linux-gnu/libc_nonshared.a(elf-init.oS)
                              /usr/lib/gcc/i686-linux-gnu/4.8/../../../i386-linux-gnu/crt1.o (__libc_csu_init)

Allocating common symbols
Common symbol       size              file

default_instance    0x4               contiki-native.a(rpl-dag.o)
uip_ds6_prefix_list
                    0x60              contiki-native.a(uip-ds6.o)
linkaddr_node_addr  0x8               contiki-native.a(linkaddr.o)
fd_read             0x4               dtls-client.co
periodic_timer      0x20              contiki-native.a(link-stats.o)
uip_slen            0x2               contiki-native.a(uip6.o)
uip_ds6_timer_periodic
                    0x10              contiki-native.a(uip-ds6.o)
uip_acc32           0x4               contiki-native.a(uip6.o)
j                   0x4               dtls-client.co
uip_conns           0x780             contiki-native.a(uip6.o)
uip_icmp6_conns     0x8               contiki-native.a(uip6.o)
read_buf            0x12c             dtls-client.co
data_len            0x4               dtls-client.co
uip_ds6_netif_addr_list_offset
                    0x1               contiki-native.a(uip-ds6.o)
uip_lladdr          0x8               contiki-native.a(uip6.o)
instance_table      0x154             contiki-native.a(rpl-dag.o)
serial_line_event_message
                    0x1               contiki-native.a(serial-line.o)
uip_appdata         0x4               contiki-native.a(uip6.o)
resolv_event_found  0x1               contiki-native.a(resolv.o)
uip_ds6_if          0xf8              contiki-native.a(uip-ds6.o)
uip_flags           0x1               contiki-native.a(uip6.o)
uip_ds6_timer_ra    0x8               contiki-native.a(uip-ds6.o)
fd_write            0x4               dtls-client.co
tcpip_icmp6_event   0x1               contiki-native.a(tcpip.o)
filename            0x4               dtls-client.co
packetbuf_attrs     0x1e              contiki-native.a(packetbuf.o)
uip_ds6_addr_size   0x1               contiki-native.a(uip-ds6.o)
uip_aligned_buf     0x1a4             contiki-native.a(uip6.o)
iterator            0x4               dtls-client.co
contiki_argv        0x4               contiki-native.a(contiki-main.o)
uip_listenports     0x50              contiki-native.a(uip6.o)
uip_len             0x2               contiki-native.a(uip6.o)
tcpip_event         0x1               contiki-native.a(tcpip.o)
uip_sappdata        0x4               contiki-native.a(uip6.o)
sensors_event       0x1               contiki-native.a(sensors.o)
dtls_clock_offset   0x4               contiki-native.a(dtls_time.o)
uip_udp_conns       0x180             contiki-native.a(uip6.o)
packetbuf_addrs     0x10              contiki-native.a(packetbuf.o)
uip_udp_conn        0x4               contiki-native.a(uip6.o)
sensors_flags       0x4               contiki-native.a(contiki-main.o)
uip_next_hdr        0x4               contiki-native.a(uip6.o)
it                  0x4               dtls-client.co
uip_conn            0x4               contiki-native.a(uip6.o)

Discarded input sections

 .bss           0x0000000000000000        0x0 /usr/lib/gcc/i686-linux-gnu/4.8/../../../i386-linux-gnu/crt1.o
 .note.GNU-stack
                0x0000000000000000        0x0 /usr/lib/gcc/i686-linux-gnu/4.8/../../../i386-linux-gnu/crt1.o
 .gnu_debuglink
                0x0000000000000000        0xc /usr/lib/gcc/i686-linux-gnu/4.8/../../../i386-linux-gnu/crt1.o
 .text          0x0000000000000000        0x0 /usr/lib/gcc/i686-linux-gnu/4.8/../../../i386-linux-gnu/crti.o
 .data          0x0000000000000000        0x0 /usr/lib/gcc/i686-linux-gnu/4.8/../../../i386-linux-gnu/crti.o
 .bss           0x0000000000000000        0x0 /usr/lib/gcc/i686-linux-gnu/4.8/../../../i386-linux-gnu/crti.o
 .note.GNU-stack
                0x0000000000000000        0x0 /usr/lib/gcc/i686-linux-gnu/4.8/../../../i386-linux-gnu/crti.o
 .gnu_debuglink
                0x0000000000000000        0xc /usr/lib/gcc/i686-linux-gnu/4.8/../../../i386-linux-gnu/crti.o
 .data          0x0000000000000000        0x4 /usr/lib/gcc/i686-linux-gnu/4.8/crtbegin.o
 .note.GNU-stack
                0x0000000000000000        0x0 /usr/lib/gcc/i686-linux-gnu/4.8/crtbegin.o
 .text          0x0000000000000000        0x0 dtls-client.co
 .text.timeout_handler
                0x0000000000000000       0x59 dtls-client.co
 .text.tcpip_handler
                0x0000000000000000       0x33 dtls-client.co
 .note.GNU-stack
                0x0000000000000000        0x0 dtls-client.co
 .text          0x0000000000000000        0x0 contiki-native.a(dtls.o)
 .note.GNU-stack
                0x0000000000000000        0x0 contiki-native.a(dtls.o)
 .text          0x0000000000000000        0x0 contiki-native.a(tinydtls-crypto)
 .note.GNU-stack
                0x0000000000000000        0x0 contiki-native.a(tinydtls-crypto)
 .text          0x0000000000000000        0x0 contiki-native.a(hmac.o)
 .note.GNU-stack
                0x0000000000000000        0x0 contiki-native.a(hmac.o)
 .text          0x0000000000000000        0x0 contiki-native.a(netq.o)
 .note.GNU-stack
                0x0000000000000000        0x0 contiki-native.a(netq.o)
 .text          0x0000000000000000        0x0 contiki-native.a(dtls_time.o)
 .data          0x0000000000000000        0x0 contiki-native.a(dtls_time.o)
 .bss           0x0000000000000000        0x0 contiki-native.a(dtls_time.o)
 .note.GNU-stack
                0x0000000000000000        0x0 contiki-native.a(dtls_time.o)
 .text          0x0000000000000000        0x0 contiki-native.a(peer.o)
 .note.GNU-stack
                0x0000000000000000        0x0 contiki-native.a(peer.o)
 .text          0x0000000000000000        0x0 contiki-native.a(session.o)
 .data          0x0000000000000000        0x0 contiki-native.a(session.o)
 .bss           0x0000000000000000        0x0 contiki-native.a(session.o)
 .note.GNU-stack
                0x0000000000000000        0x0 contiki-native.a(session.o)
 .text          0x0000000000000000        0x0 contiki-native.a(rijndael.o)
 .data          0x0000000000000000        0x0 contiki-native.a(rijndael.o)
 .bss           0x0000000000000000        0x0 contiki-native.a(rijndael.o)
 .note.GNU-stack
                0x0000000000000000        0x0 contiki-native.a(rijndael.o)
 .text          0x0000000000000000        0x0 contiki-native.a(tinydtls-ccm.o)
 .data          0x0000000000000000        0x0 contiki-native.a(tinydtls-ccm.o)
 .note.GNU-stack
                0x0000000000000000        0x0 contiki-native.a(tinydtls-ccm.o)
 .text          0x0000000000000000        0x0 contiki-native.a(sha2.o)
 .bss           0x0000000000000000        0x0 contiki-native.a(sha2.o)
 .note.GNU-stack
                0x0000000000000000        0x0 contiki-native.a(sha2.o)
 .text          0x0000000000000000        0x0 contiki-native.a(debug.o)
 .note.GNU-stack
                0x0000000000000000        0x0 contiki-native.a(debug.o)
 .text          0x0000000000000000        0x0 contiki-native.a(contiki-main.o)
 .note.GNU-stack
                0x0000000000000000        0x0 contiki-native.a(contiki-main.o)
 .text          0x0000000000000000        0x0 contiki-native.a(clock.o)
 .data          0x0000000000000000        0x0 contiki-native.a(clock.o)
 .bss           0x0000000000000000        0x0 contiki-native.a(clock.o)
 .note.GNU-stack
                0x0000000000000000        0x0 contiki-native.a(clock.o)
 .text          0x0000000000000000        0x0 contiki-native.a(button-sensor.o)
 .data          0x0000000000000000        0x0 contiki-native.a(button-sensor.o)
 .bss           0x0000000000000000        0x0 contiki-native.a(button-sensor.o)
 .note.GNU-stack
                0x0000000000000000        0x0 contiki-native.a(button-sensor.o)
 .text          0x0000000000000000        0x0 contiki-native.a(pir-sensor.o)
 .data          0x0000000000000000        0x0 contiki-native.a(pir-sensor.o)
 .note.GNU-stack
                0x0000000000000000        0x0 contiki-native.a(pir-sensor.o)
 .text          0x0000000000000000        0x0 contiki-native.a(vib-sensor.o)
 .data          0x0000000000000000        0x0 contiki-native.a(vib-sensor.o)
 .note.GNU-stack
                0x0000000000000000        0x0 contiki-native.a(vib-sensor.o)
 .text          0x0000000000000000        0x0 contiki-native.a(sensors.o)
 .note.GNU-stack
                0x0000000000000000        0x0 contiki-native.a(sensors.o)
 .text          0x0000000000000000        0x0 contiki-native.a(cfs-posix.o)
 .data          0x0000000000000000        0x0 contiki-native.a(cfs-posix.o)
 .bss           0x0000000000000000        0x0 contiki-native.a(cfs-posix.o)
 .note.GNU-stack
                0x0000000000000000        0x0 contiki-native.a(cfs-posix.o)
 .text          0x0000000000000000        0x0 contiki-native.a(autostart.o)
 .data          0x0000000000000000        0x0 contiki-native.a(autostart.o)
 .bss           0x0000000000000000        0x0 contiki-native.a(autostart.o)
 .note.GNU-stack
                0x0000000000000000        0x0 contiki-native.a(autostart.o)
 .text          0x0000000000000000        0x0 contiki-native.a(ctimer.o)
 .note.GNU-stack
                0x0000000000000000        0x0 contiki-native.a(ctimer.o)
 .text          0x0000000000000000        0x0 contiki-native.a(etimer.o)
 .note.GNU-stack
                0x0000000000000000        0x0 contiki-native.a(etimer.o)
 .text          0x0000000000000000        0x0 contiki-native.a(process.o)
 .data          0x0000000000000000        0x0 contiki-native.a(process.o)
 .note.GNU-stack
                0x0000000000000000        0x0 contiki-native.a(process.o)
 .text          0x0000000000000000        0x0 contiki-native.a(rtimer.o)
 .data          0x0000000000000000        0x0 contiki-native.a(rtimer.o)
 .note.GNU-stack
                0x0000000000000000        0x0 contiki-native.a(rtimer.o)
 .text          0x0000000000000000        0x0 contiki-native.a(timer.o)
 .data          0x0000000000000000        0x0 contiki-native.a(timer.o)
 .bss           0x0000000000000000        0x0 contiki-native.a(timer.o)
 .note.GNU-stack
                0x0000000000000000        0x0 contiki-native.a(timer.o)
 .text          0x0000000000000000        0x0 contiki-native.a(serial-line.o)
 .note.GNU-stack
                0x0000000000000000        0x0 contiki-native.a(serial-line.o)
 .text          0x0000000000000000        0x0 contiki-native.a(assert.o)
 .data          0x0000000000000000        0x0 contiki-native.a(assert.o)
 .bss           0x0000000000000000        0x0 contiki-native.a(assert.o)
 .note.GNU-stack
                0x0000000000000000        0x0 contiki-native.a(assert.o)
 .text          0x0000000000000000        0x0 contiki-native.a(list.o)
 .data          0x0000000000000000        0x0 contiki-native.a(list.o)
 .bss           0x0000000000000000        0x0 contiki-native.a(list.o)
 .note.GNU-stack
                0x0000000000000000        0x0 contiki-native.a(list.o)
 .text          0x0000000000000000        0x0 contiki-native.a(memb.o)
 .data          0x0000000000000000        0x0 contiki-native.a(memb.o)
 .bss           0x0000000000000000        0x0 contiki-native.a(memb.o)
 .note.GNU-stack
                0x0000000000000000        0x0 contiki-native.a(memb.o)
 .text          0x0000000000000000        0x0 contiki-native.a(random.o)
 .data          0x0000000000000000        0x0 contiki-native.a(random.o)
 .bss           0x0000000000000000        0x0 contiki-native.a(random.o)
 .note.GNU-stack
                0x0000000000000000        0x0 contiki-native.a(random.o)
 .text          0x0000000000000000        0x0 contiki-native.a(ringbuf.o)
 .data          0x0000000000000000        0x0 contiki-native.a(ringbuf.o)
 .bss           0x0000000000000000        0x0 contiki-native.a(ringbuf.o)
 .note.GNU-stack
                0x0000000000000000        0x0 contiki-native.a(ringbuf.o)
 .text          0x0000000000000000        0x0 contiki-native.a(sicslowpan.o)
 .data          0x0000000000000000        0x0 contiki-native.a(sicslowpan.o)
 .text.compress_hdr_ipv6
                0x0000000000000000       0x68 contiki-native.a(sicslowpan.o)
 .note.GNU-stack
                0x0000000000000000        0x0 contiki-native.a(sicslowpan.o)
 .text          0x0000000000000000        0x0 contiki-native.a(uip6.o)
 .data          0x0000000000000000        0x0 contiki-native.a(uip6.o)
 .note.GNU-stack
                0x0000000000000000        0x0 contiki-native.a(uip6.o)
 .text          0x0000000000000000        0x0 contiki-native.a(uip-ds6.o)
 .data          0x0000000000000000        0x0 contiki-native.a(uip-ds6.o)
 .note.GNU-stack
                0x0000000000000000        0x0 contiki-native.a(uip-ds6.o)
 .text          0x0000000000000000        0x0 contiki-native.a(uip-ds6-nbr.o)
 .note.GNU-stack
                0x0000000000000000        0x0 contiki-native.a(uip-ds6-nbr.o)
 .text          0x0000000000000000        0x0 contiki-native.a(uip-ds6-route.o)
 .note.GNU-stack
                0x0000000000000000        0x0 contiki-native.a(uip-ds6-route.o)
 .text          0x0000000000000000        0x0 contiki-native.a(uip-icmp6.o)
 .note.GNU-stack
                0x0000000000000000        0x0 contiki-native.a(uip-icmp6.o)
 .text          0x0000000000000000        0x0 contiki-native.a(uip-nd6.o)
 .note.GNU-stack
                0x0000000000000000        0x0 contiki-native.a(uip-nd6.o)
 .text          0x0000000000000000        0x0 contiki-native.a(resolv.o)
 .note.GNU-stack
                0x0000000000000000        0x0 contiki-native.a(resolv.o)
 .text          0x0000000000000000        0x0 contiki-native.a(tcpip.o)
 .note.GNU-stack
                0x0000000000000000        0x0 contiki-native.a(tcpip.o)
 .text          0x0000000000000000        0x0 contiki-native.a(uip-debug.o)
 .data          0x0000000000000000        0x0 contiki-native.a(uip-debug.o)
 .bss           0x0000000000000000        0x0 contiki-native.a(uip-debug.o)
 .note.GNU-stack
                0x0000000000000000        0x0 contiki-native.a(uip-debug.o)
 .text          0x0000000000000000        0x0 contiki-native.a(uiplib.o)
 .data          0x0000000000000000        0x0 contiki-native.a(uiplib.o)
 .bss           0x0000000000000000        0x0 contiki-native.a(uiplib.o)
 .note.GNU-stack
                0x0000000000000000        0x0 contiki-native.a(uiplib.o)
 .text          0x0000000000000000        0x0 contiki-native.a(uip-nameserver.)
 .data          0x0000000000000000        0x0 contiki-native.a(uip-nameserver.)
 .note.GNU-stack
                0x0000000000000000        0x0 contiki-native.a(uip-nameserver.)
 .text          0x0000000000000000        0x0 contiki-native.a(uip-packetqueue)
 .note.GNU-stack
                0x0000000000000000        0x0 contiki-native.a(uip-packetqueue)
 .text          0x0000000000000000        0x0 contiki-native.a(uip-udp-packet.)
 .data          0x0000000000000000        0x0 contiki-native.a(uip-udp-packet.)
 .bss           0x0000000000000000        0x0 contiki-native.a(uip-udp-packet.)
 .note.GNU-stack
                0x0000000000000000        0x0 contiki-native.a(uip-udp-packet.)
 .text          0x0000000000000000        0x0 contiki-native.a(rpl.o)
 .data          0x0000000000000000        0x0 contiki-native.a(rpl.o)
 .note.GNU-stack
                0x0000000000000000        0x0 contiki-native.a(rpl.o)
 .text          0x0000000000000000        0x0 contiki-native.a(rpl-dag.o)
 .note.GNU-stack
                0x0000000000000000        0x0 contiki-native.a(rpl-dag.o)
 .text          0x0000000000000000        0x0 contiki-native.a(rpl-ext-header.)
 .data          0x0000000000000000        0x0 contiki-native.a(rpl-ext-header.)
 .bss           0x0000000000000000        0x0 contiki-native.a(rpl-ext-header.)
 .note.GNU-stack
                0x0000000000000000        0x0 contiki-native.a(rpl-ext-header.)
 .text          0x0000000000000000        0x0 contiki-native.a(rpl-icmp6.o)
 .bss           0x0000000000000000        0x0 contiki-native.a(rpl-icmp6.o)
 .text.dao_input_nonstoring
                0x0000000000000000        0x5 contiki-native.a(rpl-icmp6.o)
 .note.GNU-stack
                0x0000000000000000        0x0 contiki-native.a(rpl-icmp6.o)
 .text          0x0000000000000000        0x0 contiki-native.a(rpl-mrhof.o)
 .bss           0x0000000000000000        0x0 contiki-native.a(rpl-mrhof.o)
 .note.GNU-stack
                0x0000000000000000        0x0 contiki-native.a(rpl-mrhof.o)
 .text          0x0000000000000000        0x0 contiki-native.a(rpl-timers.o)
 .data          0x0000000000000000        0x0 contiki-native.a(rpl-timers.o)
 .note.GNU-stack
                0x0000000000000000        0x0 contiki-native.a(rpl-timers.o)
 .text          0x0000000000000000        0x0 contiki-native.a(linkaddr.o)
 .data          0x0000000000000000        0x0 contiki-native.a(linkaddr.o)
 .bss           0x0000000000000000        0x0 contiki-native.a(linkaddr.o)
 .note.GNU-stack
                0x0000000000000000        0x0 contiki-native.a(linkaddr.o)
 .text          0x0000000000000000        0x0 contiki-native.a(link-stats.o)
 .note.GNU-stack
                0x0000000000000000        0x0 contiki-native.a(link-stats.o)
 .text          0x0000000000000000        0x0 contiki-native.a(nbr-table.o)
 .note.GNU-stack
                0x0000000000000000        0x0 contiki-native.a(nbr-table.o)
 .text          0x0000000000000000        0x0 contiki-native.a(netstack.o)
 .data          0x0000000000000000        0x0 contiki-native.a(netstack.o)
 .bss           0x0000000000000000        0x0 contiki-native.a(netstack.o)
 .note.GNU-stack
                0x0000000000000000        0x0 contiki-native.a(netstack.o)
 .text          0x0000000000000000        0x0 contiki-native.a(packetbuf.o)
 .note.GNU-stack
                0x0000000000000000        0x0 contiki-native.a(packetbuf.o)
 .text          0x0000000000000000        0x0 contiki-native.a(queuebuf.o)
 .note.GNU-stack
                0x0000000000000000        0x0 contiki-native.a(queuebuf.o)
 .text          0x0000000000000000        0x0 contiki-native.a(framer-802154.o)
 .data          0x0000000000000000        0x0 contiki-native.a(framer-802154.o)
 .note.GNU-stack
                0x0000000000000000        0x0 contiki-native.a(framer-802154.o)
 .text          0x0000000000000000        0x0 contiki-native.a(nullmac.o)
 .data          0x0000000000000000        0x0 contiki-native.a(nullmac.o)
 .bss           0x0000000000000000        0x0 contiki-native.a(nullmac.o)
 .note.GNU-stack
                0x0000000000000000        0x0 contiki-native.a(nullmac.o)
 .text          0x0000000000000000        0x0 contiki-native.a(nullrdc.o)
 .data          0x0000000000000000        0x0 contiki-native.a(nullrdc.o)
 .bss           0x0000000000000000        0x0 contiki-native.a(nullrdc.o)
 .note.GNU-stack
                0x0000000000000000        0x0 contiki-native.a(nullrdc.o)
 .text          0x0000000000000000        0x0 contiki-native.a(nullsec.o)
 .data          0x0000000000000000        0x0 contiki-native.a(nullsec.o)
 .bss           0x0000000000000000        0x0 contiki-native.a(nullsec.o)
 .note.GNU-stack
                0x0000000000000000        0x0 contiki-native.a(nullsec.o)
 .text          0x0000000000000000        0x0 contiki-native.a(rtimer-arch.o)
 .data          0x0000000000000000        0x0 contiki-native.a(rtimer-arch.o)
 .bss           0x0000000000000000        0x0 contiki-native.a(rtimer-arch.o)
 .note.GNU-stack
                0x0000000000000000        0x0 contiki-native.a(rtimer-arch.o)
 .text          0x0000000000000000        0x0 contiki-native.a(watchdog.o)
 .data          0x0000000000000000        0x0 contiki-native.a(watchdog.o)
 .bss           0x0000000000000000        0x0 contiki-native.a(watchdog.o)
 .note.GNU-stack
                0x0000000000000000        0x0 contiki-native.a(watchdog.o)
 .text          0x0000000000000000        0x0 contiki-native.a(stimer.o)
 .data          0x0000000000000000        0x0 contiki-native.a(stimer.o)
 .bss           0x0000000000000000        0x0 contiki-native.a(stimer.o)
 .note.GNU-stack
                0x0000000000000000        0x0 contiki-native.a(stimer.o)
 .text          0x0000000000000000        0x0 contiki-native.a(nullradio.o)
 .data          0x0000000000000000        0x0 contiki-native.a(nullradio.o)
 .bss           0x0000000000000000        0x0 contiki-native.a(nullradio.o)
 .note.GNU-stack
                0x0000000000000000        0x0 contiki-native.a(nullradio.o)
 .text          0x0000000000000000        0x0 contiki-native.a(rpl-nbr-policy.)
 .data          0x0000000000000000        0x0 contiki-native.a(rpl-nbr-policy.)
 .note.GNU-stack
                0x0000000000000000        0x0 contiki-native.a(rpl-nbr-policy.)
 .text          0x0000000000000000        0x0 contiki-native.a(frame802154.o)
 .bss           0x0000000000000000        0x0 contiki-native.a(frame802154.o)
 .note.GNU-stack
                0x0000000000000000        0x0 contiki-native.a(frame802154.o)
 .text          0x0000000000000000        0x0 contiki-native.a(mac.o)
 .data          0x0000000000000000        0x0 contiki-native.a(mac.o)
 .bss           0x0000000000000000        0x0 contiki-native.a(mac.o)
 .note.GNU-stack
                0x0000000000000000        0x0 contiki-native.a(mac.o)
 .group         0x0000000000000000        0x8 /usr/lib/i386-linux-gnu/libc_nonshared.a(elf-init.oS)
 .data          0x0000000000000000        0x0 /usr/lib/i386-linux-gnu/libc_nonshared.a(elf-init.oS)
 .bss           0x0000000000000000        0x0 /usr/lib/i386-linux-gnu/libc_nonshared.a(elf-init.oS)
 .text.__x86.get_pc_thunk.bx
                0x0000000000000000        0x4 /usr/lib/i386-linux-gnu/libc_nonshared.a(elf-init.oS)
 .note.GNU-stack
                0x0000000000000000        0x0 /usr/lib/i386-linux-gnu/libc_nonshared.a(elf-init.oS)
 .text          0x0000000000000000        0x0 /usr/lib/gcc/i686-linux-gnu/4.8/crtend.o
 .data          0x0000000000000000        0x0 /usr/lib/gcc/i686-linux-gnu/4.8/crtend.o
 .bss           0x0000000000000000        0x0 /usr/lib/gcc/i686-linux-gnu/4.8/crtend.o
 .note.GNU-stack
                0x0000000000000000        0x0 /usr/lib/gcc/i686-linux-gnu/4.8/crtend.o
 .text          0x0000000000000000        0x0 /usr/lib/gcc/i686-linux-gnu/4.8/../../../i386-linux-gnu/crtn.o
 .data          0x0000000000000000        0x0 /usr/lib/gcc/i686-linux-gnu/4.8/../../../i386-linux-gnu/crtn.o
 .bss           0x0000000000000000        0x0 /usr/lib/gcc/i686-linux-gnu/4.8/../../../i386-linux-gnu/crtn.o
 .note.GNU-stack
                0x0000000000000000        0x0 /usr/lib/gcc/i686-linux-gnu/4.8/../../../i386-linux-gnu/crtn.o
 .gnu_debuglink
                0x0000000000000000        0xc /usr/lib/gcc/i686-linux-gnu/4.8/../../../i386-linux-gnu/crtn.o

Memory Configuration

Name             Origin             Length             Attributes
*default*        0x0000000000000000 0xffffffffffffffff

Linker script and memory map

LOAD /usr/lib/gcc/i686-linux-gnu/4.8/../../../i386-linux-gnu/crt1.o
LOAD /usr/lib/gcc/i686-linux-gnu/4.8/../../../i386-linux-gnu/crti.o
LOAD /usr/lib/gcc/i686-linux-gnu/4.8/crtbegin.o
LOAD dtls-client.co
LOAD contiki-native.a
LOAD /usr/lib/gcc/i686-linux-gnu/4.8/../../../i386-linux-gnu/libncurses.so
LOAD /lib/i386-linux-gnu/libncurses.so.5
LOAD /usr/lib/gcc/i686-linux-gnu/4.8/../../../i386-linux-gnu/libtinfo.so
LOAD /usr/lib/gcc/i686-linux-gnu/4.8/libgcc.a
LOAD /usr/lib/gcc/i686-linux-gnu/4.8/libgcc_s.so
LOAD /usr/lib/gcc/i686-linux-gnu/4.8/../../../i386-linux-gnu/libc.so
START GROUP
LOAD /lib/i386-linux-gnu/libc.so.6
LOAD /usr/lib/i386-linux-gnu/libc_nonshared.a
LOAD /lib/i386-linux-gnu/ld-linux.so.2
END GROUP
LOAD /usr/lib/gcc/i686-linux-gnu/4.8/libgcc.a
LOAD /usr/lib/gcc/i686-linux-gnu/4.8/libgcc_s.so
LOAD /usr/lib/gcc/i686-linux-gnu/4.8/crtend.o
LOAD /usr/lib/gcc/i686-linux-gnu/4.8/../../../i386-linux-gnu/crtn.o
                0x0000000008048000                PROVIDE (__executable_start, 0x8048000)
                0x0000000008048154                . = (0x8048000 + SIZEOF_HEADERS)

.interp         0x0000000008048154       0x13
 *(.interp)
 .interp        0x0000000008048154       0x13 /usr/lib/gcc/i686-linux-gnu/4.8/../../../i386-linux-gnu/crt1.o

.note.ABI-tag   0x0000000008048168       0x20
 .note.ABI-tag  0x0000000008048168       0x20 /usr/lib/gcc/i686-linux-gnu/4.8/../../../i386-linux-gnu/crt1.o

.note.gnu.build-id
                0x0000000008048188       0x24
 *(.note.gnu.build-id)
 .note.gnu.build-id
                0x0000000008048188       0x24 /usr/lib/gcc/i686-linux-gnu/4.8/../../../i386-linux-gnu/crt1.o

.hash
 *(.hash)

.gnu.hash       0x00000000080481ac      0xe2c
 *(.gnu.hash)
 .gnu.hash      0x00000000080481ac      0xe2c /usr/lib/gcc/i686-linux-gnu/4.8/../../../i386-linux-gnu/crt1.o

.dynsym         0x0000000008048fd8     0x22b0
 *(.dynsym)
 .dynsym        0x0000000008048fd8     0x22b0 /usr/lib/gcc/i686-linux-gnu/4.8/../../../i386-linux-gnu/crt1.o

.dynstr         0x000000000804b288     0x2265
 *(.dynstr)
 .dynstr        0x000000000804b288     0x2265 /usr/lib/gcc/i686-linux-gnu/4.8/../../../i386-linux-gnu/crt1.o

.gnu.version    0x000000000804d4ee      0x456
 *(.gnu.version)
 .gnu.version   0x000000000804d4ee      0x456 /usr/lib/gcc/i686-linux-gnu/4.8/../../../i386-linux-gnu/crt1.o

.gnu.version_d  0x000000000804d944        0x0
 *(.gnu.version_d)
 .gnu.version_d
                0x0000000000000000        0x0 /usr/lib/gcc/i686-linux-gnu/4.8/../../../i386-linux-gnu/crt1.o

.gnu.version_r  0x000000000804d944       0x30
 *(.gnu.version_r)
 .gnu.version_r
                0x000000000804d944       0x30 /usr/lib/gcc/i686-linux-gnu/4.8/../../../i386-linux-gnu/crt1.o

.rel.dyn        0x000000000804d974       0x18
 *(.rel.init)
 *(.rel.text .rel.text.* .rel.gnu.linkonce.t.*)
 .rel.text      0x0000000000000000        0x0 /usr/lib/gcc/i686-linux-gnu/4.8/../../../i386-linux-gnu/crt1.o
 .rel.text.try_send
                0x0000000000000000        0x0 /usr/lib/gcc/i686-linux-gnu/4.8/../../../i386-linux-gnu/crt1.o
 .rel.text.timeout_handler
                0x0000000000000000        0x0 /usr/lib/gcc/i686-linux-gnu/4.8/../../../i386-linux-gnu/crt1.o
 .rel.text.send_to_peer
                0x0000000000000000        0x0 /usr/lib/gcc/i686-linux-gnu/4.8/../../../i386-linux-gnu/crt1.o
 .rel.text.get_psk_info
                0x0000000000000000        0x0 /usr/lib/gcc/i686-linux-gnu/4.8/../../../i386-linux-gnu/crt1.o
 .rel.text.dtls_handle_read
                0x0000000000000000        0x0 /usr/lib/gcc/i686-linux-gnu/4.8/../../../i386-linux-gnu/crt1.o
 .rel.text.tcpip_handler
                0x0000000000000000        0x0 /usr/lib/gcc/i686-linux-gnu/4.8/../../../i386-linux-gnu/crt1.o
 .rel.text.print_local_addresses
                0x0000000000000000        0x0 /usr/lib/gcc/i686-linux-gnu/4.8/../../../i386-linux-gnu/crt1.o
 .rel.text.set_global_address
                0x0000000000000000        0x0 /usr/lib/gcc/i686-linux-gnu/4.8/../../../i386-linux-gnu/crt1.o
 .rel.text.set_connection_address
                0x0000000000000000        0x0 /usr/lib/gcc/i686-linux-gnu/4.8/../../../i386-linux-gnu/crt1.o
 .rel.text.init_dtls
                0x0000000000000000        0x0 /usr/lib/gcc/i686-linux-gnu/4.8/../../../i386-linux-gnu/crt1.o
 .rel.text.process_thread_udp_client_process
                0x0000000000000000        0x0 /usr/lib/gcc/i686-linux-gnu/4.8/../../../i386-linux-gnu/crt1.o
 .rel.text.dtls_hash_init
                0x0000000000000000        0x0 /usr/lib/gcc/i686-linux-gnu/4.8/../../../i386-linux-gnu/crt1.o
 .rel.text.dtls_hash_update
                0x0000000000000000        0x0 /usr/lib/gcc/i686-linux-gnu/4.8/../../../i386-linux-gnu/crt1.o
 .rel.text.dtls_hash_finalize
                0x0000000000000000        0x0 /usr/lib/gcc/i686-linux-gnu/4.8/../../../i386-linux-gnu/crt1.o
 .rel.text.dtls_security_params_next
                0x0000000000000000        0x0 /usr/lib/gcc/i686-linux-gnu/4.8/../../../i386-linux-gnu/crt1.o
 .rel.text.dtls_security_params_free_other
                0x0000000000000000        0x0 /usr/lib/gcc/i686-linux-gnu/4.8/../../../i386-linux-gnu/crt1.o
 .rel.text.dtls_prng
                0x0000000000000000        0x0 /usr/lib/gcc/i686-linux-gnu/4.8/../../../i386-linux-gnu/crt1.o
 .rel.text.dtls_init
                0x0000000000000000        0x0 /usr/lib/gcc/i686-linux-gnu/4.8/../../../i386-linux-gnu/crt1.o
 .rel.text.dtls_get_peer
                0x0000000000000000        0x0 /usr/lib/gcc/i686-linux-gnu/4.8/../../../i386-linux-gnu/crt1.o
 .rel.text.dtls_add_peer
                0x0000000000000000        0x0 /usr/lib/gcc/i686-linux-gnu/4.8/../../../i386-linux-gnu/crt1.o
 .rel.text.dtls_create_cookie
                0x0000000000000000        0x0 /usr/lib/gcc/i686-linux-gnu/4.8/../../../i386-linux-gnu/crt1.o
 .rel.text.dtls_set_record_header
                0x0000000000000000        0x0 /usr/lib/gcc/i686-linux-gnu/4.8/../../../i386-linux-gnu/crt1.o
 .rel.text.dtls_set_handshake_header
                0x0000000000000000        0x0 /usr/lib/gcc/i686-linux-gnu/4.8/../../../i386-linux-gnu/crt1.o
 .rel.text.dtls_debug_keyblock
                0x0000000000000000        0x0 /usr/lib/gcc/i686-linux-gnu/4.8/../../../i386-linux-gnu/crt1.o
 .rel.text.calculate_key_block
                0x0000000000000000        0x0 /usr/lib/gcc/i686-linux-gnu/4.8/../../../i386-linux-gnu/crt1.o
 .rel.text.dtls_check_tls_extension
                0x0000000000000000        0x0 /usr/lib/gcc/i686-linux-gnu/4.8/../../../i386-linux-gnu/crt1.o
 .rel.text.dtls_update_parameters
                0x0000000000000000        0x0 /usr/lib/gcc/i686-linux-gnu/4.8/../../../i386-linux-gnu/crt1.o
 .rel.text.check_client_keyexchange
                0x0000000000000000        0x0 /usr/lib/gcc/i686-linux-gnu/4.8/../../../i386-linux-gnu/crt1.o
 .rel.text.update_hs_hash
                0x0000000000000000        0x0 /usr/lib/gcc/i686-linux-gnu/4.8/../../../i386-linux-gnu/crt1.o
 .rel.text.copy_hs_hash
                0x0000000000000000        0x0 /usr/lib/gcc/i686-linux-gnu/4.8/../../../i386-linux-gnu/crt1.o
 .rel.text.clear_hs_hash
                0x0000000000000000        0x0 /usr/lib/gcc/i686-linux-gnu/4.8/../../../i386-linux-gnu/crt1.o
 .rel.text.check_finished
                0x0000000000000000        0x0 /usr/lib/gcc/i686-linux-gnu/4.8/../../../i386-linux-gnu/crt1.o
 .rel.text.dtls_prepare_record
                0x0000000000000000        0x0 /usr/lib/gcc/i686-linux-gnu/4.8/../../../i386-linux-gnu/crt1.o
 .rel.text.dtls_send_handshake_msg_hash
                0x0000000000000000        0x0 /usr/lib/gcc/i686-linux-gnu/4.8/../../../i386-linux-gnu/crt1.o
 .rel.text.dtls_send_multi
                0x0000000000000000        0x0 /usr/lib/gcc/i686-linux-gnu/4.8/../../../i386-linux-gnu/crt1.o
 .rel.text.dtls_close
                0x0000000000000000        0x0 /usr/lib/gcc/i686-linux-gnu/4.8/../../../i386-linux-gnu/crt1.o
 .rel.text.dtls_destroy_peer
                0x0000000000000000        0x0 /usr/lib/gcc/i686-linux-gnu/4.8/../../../i386-linux-gnu/crt1.o
 .rel.text.dtls_verify_peer
                0x0000000000000000        0x0 /usr/lib/gcc/i686-linux-gnu/4.8/../../../i386-linux-gnu/crt1.o
 .rel.text.dtls_send_server_hello
                0x0000000000000000        0x0 /usr/lib/gcc/i686-linux-gnu/4.8/../../../i386-linux-gnu/crt1.o
 .rel.text.dtls_send_server_key_exchange_psk
                0x0000000000000000        0x0 /usr/lib/gcc/i686-linux-gnu/4.8/../../../i386-linux-gnu/crt1.o
 .rel.text.dtls_send_server_hello_msgs
                0x0000000000000000        0x0 /usr/lib/gcc/i686-linux-gnu/4.8/../../../i386-linux-gnu/crt1.o
 .rel.text.dtls_send_client_key_exchange
                0x0000000000000000        0x0 /usr/lib/gcc/i686-linux-gnu/4.8/../../../i386-linux-gnu/crt1.o
 .rel.text.dtls_send_finished
                0x0000000000000000        0x0 /usr/lib/gcc/i686-linux-gnu/4.8/../../../i386-linux-gnu/crt1.o
 .rel.text.dtls_send_client_hello
                0x0000000000000000        0x0 /usr/lib/gcc/i686-linux-gnu/4.8/../../../i386-linux-gnu/crt1.o
 .rel.text.check_server_hello
                0x0000000000000000        0x0 /usr/lib/gcc/i686-linux-gnu/4.8/../../../i386-linux-gnu/crt1.o
 .rel.text.check_server_hello_verify_request
                0x0000000000000000        0x0 /usr/lib/gcc/i686-linux-gnu/4.8/../../../i386-linux-gnu/crt1.o
 .rel.text.check_server_key_exchange_psk
                0x0000000000000000        0x0 /usr/lib/gcc/i686-linux-gnu/4.8/../../../i386-linux-gnu/crt1.o
 .rel.text.check_certificate_request
                0x0000000000000000        0x0 /usr/lib/gcc/i686-linux-gnu/4.8/../../../i386-linux-gnu/crt1.o
 .rel.text.decrypt_verify
                0x0000000000000000        0x0 /usr/lib/gcc/i686-linux-gnu/4.8/../../../i386-linux-gnu/crt1.o
 .rel.text.dtls_renegotiate
                0x0000000000000000        0x0 /usr/lib/gcc/i686-linux-gnu/4.8/../../../i386-linux-gnu/crt1.o
 .rel.text.handle_handshake_msg
                0x0000000000000000        0x0 /usr/lib/gcc/i686-linux-gnu/4.8/../../../i386-linux-gnu/crt1.o
 .rel.text.handle_handshake
                0x0000000000000000        0x0 /usr/lib/gcc/i686-linux-gnu/4.8/../../../i386-linux-gnu/crt1.o
 .rel.text.handle_ccs
                0x0000000000000000        0x0 /usr/lib/gcc/i686-linux-gnu/4.8/../../../i386-linux-gnu/crt1.o
 .rel.text.handle_alert
                0x0000000000000000        0x0 /usr/lib/gcc/i686-linux-gnu/4.8/../../../i386-linux-gnu/crt1.o
 .rel.text.dtls_handle_message
                0x0000000000000000        0x0 /usr/lib/gcc/i686-linux-gnu/4.8/../../../i386-linux-gnu/crt1.o
 .rel.text.dtls_new_context
                0x0000000000000000        0x0 /usr/lib/gcc/i686-linux-gnu/4.8/../../../i386-linux-gnu/crt1.o
 .rel.text.dtls_free_context
                0x0000000000000000        0x0 /usr/lib/gcc/i686-linux-gnu/4.8/../../../i386-linux-gnu/crt1.o
 .rel.text.dtls_connect_peer
                0x0000000000000000        0x0 /usr/lib/gcc/i686-linux-gnu/4.8/../../../i386-linux-gnu/crt1.o
 .rel.text.dtls_connect
                0x0000000000000000        0x0 /usr/lib/gcc/i686-linux-gnu/4.8/../../../i386-linux-gnu/crt1.o
 .rel.text.dtls_retransmit
                0x0000000000000000        0x0 /usr/lib/gcc/i686-linux-gnu/4.8/../../../i386-linux-gnu/crt1.o
 .rel.text.dtls_stop_retransmission
                0x0000000000000000        0x0 /usr/lib/gcc/i686-linux-gnu/4.8/../../../i386-linux-gnu/crt1.o
 .rel.text.dtls_check_retransmit
                0x0000000000000000        0x0 /usr/lib/gcc/i686-linux-gnu/4.8/../../../i386-linux-gnu/crt1.o
 .rel.text.process_thread_dtls_retransmit_process
                0x0000000000000000        0x0 /usr/lib/gcc/i686-linux-gnu/4.8/../../../i386-linux-gnu/crt1.o
 .rel.text.dtls_crypto_init
                0x0000000000000000        0x0 /usr/lib/gcc/i686-linux-gnu/4.8/../../../i386-linux-gnu/crt1.o
 .rel.text.dtls_handshake_malloc
                0x0000000000000000        0x0 /usr/lib/gcc/i686-linux-gnu/4.8/../../../i386-linux-gnu/crt1.o
 .rel.text.dtls_handshake_dealloc
                0x0000000000000000        0x0 /usr/lib/gcc/i686-linux-gnu/4.8/../../../i386-linux-gnu/crt1.o
 .rel.text.dtls_security_malloc
                0x0000000000000000        0x0 /usr/lib/gcc/i686-linux-gnu/4.8/../../../i386-linux-gnu/crt1.o
 .rel.text.dtls_security_dealloc
                0x0000000000000000        0x0 /usr/lib/gcc/i686-linux-gnu/4.8/../../../i386-linux-gnu/crt1.o
 .rel.text.dtls_handshake_new
                0x0000000000000000        0x0 /usr/lib/gcc/i686-linux-gnu/4.8/../../../i386-linux-gnu/crt1.o
 .rel.text.dtls_handshake_free
                0x0000000000000000        0x0 /usr/lib/gcc/i686-linux-gnu/4.8/../../../i386-linux-gnu/crt1.o
 .rel.text.dtls_security_new
                0x0000000000000000        0x0 /usr/lib/gcc/i686-linux-gnu/4.8/../../../i386-linux-gnu/crt1.o
 .rel.text.dtls_p_hash
                0x0000000000000000        0x0 /usr/lib/gcc/i686-linux-gnu/4.8/../../../i386-linux-gnu/crt1.o
 .rel.text.dtls_prf
                0x0000000000000000        0x0 /usr/lib/gcc/i686-linux-gnu/4.8/../../../i386-linux-gnu/crt1.o
 .rel.text.dtls_mac
                0x0000000000000000        0x0 /usr/lib/gcc/i686-linux-gnu/4.8/../../../i386-linux-gnu/crt1.o
 .rel.text.dtls_ccm_encrypt
                0x0000000000000000        0x0 /usr/lib/gcc/i686-linux-gnu/4.8/../../../i386-linux-gnu/crt1.o
 .rel.text.dtls_ccm_decrypt
                0x0000000000000000        0x0 /usr/lib/gcc/i686-linux-gnu/4.8/../../../i386-linux-gnu/crt1.o
 .rel.text.dtls_psk_pre_master_secret
                0x0000000000000000        0x0 /usr/lib/gcc/i686-linux-gnu/4.8/../../../i386-linux-gnu/crt1.o
 .rel.text.dtls_encrypt
                0x0000000000000000        0x0 /usr/lib/gcc/i686-linux-gnu/4.8/../../../i386-linux-gnu/crt1.o
 .rel.text.dtls_decrypt
                0x0000000000000000        0x0 /usr/lib/gcc/i686-linux-gnu/4.8/../../../i386-linux-gnu/crt1.o
 .rel.text.dtls_hmac_context_new
                0x0000000000000000        0x0 /usr/lib/gcc/i686-linux-gnu/4.8/../../../i386-linux-gnu/crt1.o
 .rel.text.dtls_hmac_context_free
                0x0000000000000000        0x0 /usr/lib/gcc/i686-linux-gnu/4.8/../../../i386-linux-gnu/crt1.o
 .rel.text.dtls_hmac_storage_init
                0x0000000000000000        0x0 /usr/lib/gcc/i686-linux-gnu/4.8/../../../i386-linux-gnu/crt1.o
 .rel.text.dtls_hmac_update
                0x0000000000000000        0x0 /usr/lib/gcc/i686-linux-gnu/4.8/../../../i386-linux-gnu/crt1.o
 .rel.text.dtls_hmac_init
                0x0000000000000000        0x0 /usr/lib/gcc/i686-linux-gnu/4.8/../../../i386-linux-gnu/crt1.o
 .rel.text.dtls_hmac_finalize
                0x0000000000000000        0x0 /usr/lib/gcc/i686-linux-gnu/4.8/../../../i386-linux-gnu/crt1.o
 .rel.text.netq_malloc_node
                0x0000000000000000        0x0 /usr/lib/gcc/i686-linux-gnu/4.8/../../../i386-linux-gnu/crt1.o
 .rel.text.netq_free_node
                0x0000000000000000        0x0 /usr/lib/gcc/i686-linux-gnu/4.8/../../../i386-linux-gnu/crt1.o
 .rel.text.netq_init
                0x0000000000000000        0x0 /usr/lib/gcc/i686-linux-gnu/4.8/../../../i386-linux-gnu/crt1.o
 .rel.text.netq_insert_node
                0x0000000000000000        0x0 /usr/lib/gcc/i686-linux-gnu/4.8/../../../i386-linux-gnu/crt1.o
 .rel.text.netq_head
                0x0000000000000000        0x0 /usr/lib/gcc/i686-linux-gnu/4.8/../../../i386-linux-gnu/crt1.o
 .rel.text.netq_next
                0x0000000000000000        0x0 /usr/lib/gcc/i686-linux-gnu/4.8/../../../i386-linux-gnu/crt1.o
 .rel.text.netq_remove
                0x0000000000000000        0x0 /usr/lib/gcc/i686-linux-gnu/4.8/../../../i386-linux-gnu/crt1.o
 .rel.text.netq_pop_first
                0x0000000000000000        0x0 /usr/lib/gcc/i686-linux-gnu/4.8/../../../i386-linux-gnu/crt1.o
 .rel.text.netq_node_new
                0x0000000000000000        0x0 /usr/lib/gcc/i686-linux-gnu/4.8/../../../i386-linux-gnu/crt1.o
 .rel.text.netq_delete_all
                0x0000000000000000        0x0 /usr/lib/gcc/i686-linux-gnu/4.8/../../../i386-linux-gnu/crt1.o
 .rel.text.dtls_clock_init
                0x0000000000000000        0x0 /usr/lib/gcc/i686-linux-gnu/4.8/../../../i386-linux-gnu/crt1.o
 .rel.text.dtls_ticks
                0x0000000000000000        0x0 /usr/lib/gcc/i686-linux-gnu/4.8/../../../i386-linux-gnu/crt1.o
 .rel.text.peer_init
                0x0000000000000000        0x0 /usr/lib/gcc/i686-linux-gnu/4.8/../../../i386-linux-gnu/crt1.o
 .rel.text.dtls_malloc_peer
                0x0000000000000000        0x0 /usr/lib/gcc/i686-linux-gnu/4.8/../../../i386-linux-gnu/crt1.o
 .rel.text.dtls_free_peer
                0x0000000000000000        0x0 /usr/lib/gcc/i686-linux-gnu/4.8/../../../i386-linux-gnu/crt1.o
 .rel.text.dtls_new_peer
                0x0000000000000000        0x0 /usr/lib/gcc/i686-linux-gnu/4.8/../../../i386-linux-gnu/crt1.o
 .rel.text.dtls_session_init
                0x0000000000000000        0x0 /usr/lib/gcc/i686-linux-gnu/4.8/../../../i386-linux-gnu/crt1.o
 .rel.text.dtls_session_equals
                0x0000000000000000        0x0 /usr/lib/gcc/i686-linux-gnu/4.8/../../../i386-linux-gnu/crt1.o
 .rel.text.block0
                0x0000000000000000        0x0 /usr/lib/gcc/i686-linux-gnu/4.8/../../../i386-linux-gnu/crt1.o
 .rel.text.add_auth_data
                0x0000000000000000        0x0 /usr/lib/gcc/i686-linux-gnu/4.8/../../../i386-linux-gnu/crt1.o
 .rel.text.encrypt
                0x0000000000000000        0x0 /usr/lib/gcc/i686-linux-gnu/4.8/../../../i386-linux-gnu/crt1.o
 .rel.text.dtls_ccm_encrypt_message
                0x0000000000000000        0x0 /usr/lib/gcc/i686-linux-gnu/4.8/../../../i386-linux-gnu/crt1.o
 .rel.text.dtls_ccm_decrypt_message
                0x0000000000000000        0x0 /usr/lib/gcc/i686-linux-gnu/4.8/../../../i386-linux-gnu/crt1.o
 .rel.text.SHA256_Init
                0x0000000000000000        0x0 /usr/lib/gcc/i686-linux-gnu/4.8/../../../i386-linux-gnu/crt1.o
 .rel.text.SHA256_Update
                0x0000000000000000        0x0 /usr/lib/gcc/i686-linux-gnu/4.8/../../../i386-linux-gnu/crt1.o
 .rel.text.SHA256_Final
                0x0000000000000000        0x0 /usr/lib/gcc/i686-linux-gnu/4.8/../../../i386-linux-gnu/crt1.o
 .rel.text.SHA256_End
                0x0000000000000000        0x0 /usr/lib/gcc/i686-linux-gnu/4.8/../../../i386-linux-gnu/crt1.o
 .rel.text.SHA256_Data
                0x0000000000000000        0x0 /usr/lib/gcc/i686-linux-gnu/4.8/../../../i386-linux-gnu/crt1.o
 .rel.text.dsrv_print_addr
                0x0000000000000000        0x0 /usr/lib/gcc/i686-linux-gnu/4.8/../../../i386-linux-gnu/crt1.o
 .rel.text.hexdump
                0x0000000000000000        0x0 /usr/lib/gcc/i686-linux-gnu/4.8/../../../i386-linux-gnu/crt1.o
 .rel.text.dump
                0x0000000000000000        0x0 /usr/lib/gcc/i686-linux-gnu/4.8/../../../i386-linux-gnu/crt1.o
 .rel.text.dtls_dsrv_log_addr
                0x0000000000000000        0x0 /usr/lib/gcc/i686-linux-gnu/4.8/../../../i386-linux-gnu/crt1.o
 .rel.text.dtls_dsrv_hexdump_log
                0x0000000000000000        0x0 /usr/lib/gcc/i686-linux-gnu/4.8/../../../i386-linux-gnu/crt1.o
 .rel.text.stdin_handle_fd
                0x0000000000000000        0x0 /usr/lib/gcc/i686-linux-gnu/4.8/../../../i386-linux-gnu/crt1.o
 .rel.text.set_rime_addr
                0x0000000000000000        0x0 /usr/lib/gcc/i686-linux-gnu/4.8/../../../i386-linux-gnu/crt1.o
 .rel.text.main
                0x0000000000000000        0x0 /usr/lib/gcc/i686-linux-gnu/4.8/../../../i386-linux-gnu/crt1.o
 .rel.text.log_message
                0x0000000000000000        0x0 /usr/lib/gcc/i686-linux-gnu/4.8/../../../i386-linux-gnu/crt1.o
 .rel.text.uip_log
                0x0000000000000000        0x0 /usr/lib/gcc/i686-linux-gnu/4.8/../../../i386-linux-gnu/crt1.o
 .rel.text.clock_time
                0x0000000000000000        0x0 /usr/lib/gcc/i686-linux-gnu/4.8/../../../i386-linux-gnu/crt1.o
 .rel.text.clock_seconds
                0x0000000000000000        0x0 /usr/lib/gcc/i686-linux-gnu/4.8/../../../i386-linux-gnu/crt1.o
 .rel.text.button_press
                0x0000000000000000        0x0 /usr/lib/gcc/i686-linux-gnu/4.8/../../../i386-linux-gnu/crt1.o
 .rel.text.pir_sensor_changed
                0x0000000000000000        0x0 /usr/lib/gcc/i686-linux-gnu/4.8/../../../i386-linux-gnu/crt1.o
 .rel.text.vib_sensor_changed
                0x0000000000000000        0x0 /usr/lib/gcc/i686-linux-gnu/4.8/../../../i386-linux-gnu/crt1.o
 .rel.text.sensors_changed
                0x0000000000000000        0x0 /usr/lib/gcc/i686-linux-gnu/4.8/../../../i386-linux-gnu/crt1.o
 .rel.text.sensors_find
                0x0000000000000000        0x0 /usr/lib/gcc/i686-linux-gnu/4.8/../../../i386-linux-gnu/crt1.o
 .rel.text.process_thread_sensors_process
                0x0000000000000000        0x0 /usr/lib/gcc/i686-linux-gnu/4.8/../../../i386-linux-gnu/crt1.o
 .rel.text.cfs_open
                0x0000000000000000        0x0 /usr/lib/gcc/i686-linux-gnu/4.8/../../../i386-linux-gnu/crt1.o
 .rel.text.cfs_close
                0x0000000000000000        0x0 /usr/lib/gcc/i686-linux-gnu/4.8/../../../i386-linux-gnu/crt1.o
 .rel.text.cfs_read
                0x0000000000000000        0x0 /usr/lib/gcc/i686-linux-gnu/4.8/../../../i386-linux-gnu/crt1.o
 .rel.text.cfs_write
                0x0000000000000000        0x0 /usr/lib/gcc/i686-linux-gnu/4.8/../../../i386-linux-gnu/crt1.o
 .rel.text.cfs_seek
                0x0000000000000000        0x0 /usr/lib/gcc/i686-linux-gnu/4.8/../../../i386-linux-gnu/crt1.o
 .rel.text.cfs_remove
                0x0000000000000000        0x0 /usr/lib/gcc/i686-linux-gnu/4.8/../../../i386-linux-gnu/crt1.o
 .rel.text.autostart_start
                0x0000000000000000        0x0 /usr/lib/gcc/i686-linux-gnu/4.8/../../../i386-linux-gnu/crt1.o
 .rel.text.autostart_exit
                0x0000000000000000        0x0 /usr/lib/gcc/i686-linux-gnu/4.8/../../../i386-linux-gnu/crt1.o
 .rel.text.process_thread_ctimer_process
                0x0000000000000000        0x0 /usr/lib/gcc/i686-linux-gnu/4.8/../../../i386-linux-gnu/crt1.o
 .rel.text.ctimer_init
                0x0000000000000000        0x0 /usr/lib/gcc/i686-linux-gnu/4.8/../../../i386-linux-gnu/crt1.o
 .rel.text.ctimer_set
                0x0000000000000000        0x0 /usr/lib/gcc/i686-linux-gnu/4.8/../../../i386-linux-gnu/crt1.o
 .rel.text.ctimer_set_with_process
                0x0000000000000000        0x0 /usr/lib/gcc/i686-linux-gnu/4.8/../../../i386-linux-gnu/crt1.o
 .rel.text.ctimer_reset
                0x0000000000000000        0x0 /usr/lib/gcc/i686-linux-gnu/4.8/../../../i386-linux-gnu/crt1.o
 .rel.text.ctimer_restart
                0x0000000000000000        0x0 /usr/lib/gcc/i686-linux-gnu/4.8/../../../i386-linux-gnu/crt1.o
 .rel.text.ctimer_stop
                0x0000000000000000        0x0 /usr/lib/gcc/i686-linux-gnu/4.8/../../../i386-linux-gnu/crt1.o
 .rel.text.ctimer_expired
                0x0000000000000000        0x0 /usr/lib/gcc/i686-linux-gnu/4.8/../../../i386-linux-gnu/crt1.o
 .rel.text.process_thread_etimer_process
                0x0000000000000000        0x0 /usr/lib/gcc/i686-linux-gnu/4.8/../../../i386-linux-gnu/crt1.o
 .rel.text.etimer_request_poll
                0x0000000000000000        0x0 /usr/lib/gcc/i686-linux-gnu/4.8/../../../i386-linux-gnu/crt1.o
 .rel.text.add_timer
                0x0000000000000000        0x0 /usr/lib/gcc/i686-linux-gnu/4.8/../../../i386-linux-gnu/crt1.o
 .rel.text.etimer_set
                0x0000000000000000        0x0 /usr/lib/gcc/i686-linux-gnu/4.8/../../../i386-linux-gnu/crt1.o
 .rel.text.etimer_reset_with_new_interval
                0x0000000000000000        0x0 /usr/lib/gcc/i686-linux-gnu/4.8/../../../i386-linux-gnu/crt1.o
 .rel.text.etimer_reset
                0x0000000000000000        0x0 /usr/lib/gcc/i686-linux-gnu/4.8/../../../i386-linux-gnu/crt1.o
 .rel.text.etimer_restart
                0x0000000000000000        0x0 /usr/lib/gcc/i686-linux-gnu/4.8/../../../i386-linux-gnu/crt1.o
 .rel.text.rtimer_init
                0x0000000000000000        0x0 /usr/lib/gcc/i686-linux-gnu/4.8/../../../i386-linux-gnu/crt1.o
 .rel.text.rtimer_set
                0x0000000000000000        0x0 /usr/lib/gcc/i686-linux-gnu/4.8/../../../i386-linux-gnu/crt1.o
 .rel.text.rtimer_run_next
                0x0000000000000000        0x0 /usr/lib/gcc/i686-linux-gnu/4.8/../../../i386-linux-gnu/crt1.o
 .rel.text.serial_line_input_byte
                0x0000000000000000        0x0 /usr/lib/gcc/i686-linux-gnu/4.8/../../../i386-linux-gnu/crt1.o
 .rel.text.process_thread_serial_line_process
                0x0000000000000000        0x0 /usr/lib/gcc/i686-linux-gnu/4.8/../../../i386-linux-gnu/crt1.o
 .rel.text.serial_line_init
                0x0000000000000000        0x0 /usr/lib/gcc/i686-linux-gnu/4.8/../../../i386-linux-gnu/crt1.o
 .rel.text._xassert
                0x0000000000000000        0x0 /usr/lib/gcc/i686-linux-gnu/4.8/../../../i386-linux-gnu/crt1.o
 .rel.text.memb_init
                0x0000000000000000        0x0 /usr/lib/gcc/i686-linux-gnu/4.8/../../../i386-linux-gnu/crt1.o
 .rel.text.random_init
                0x0000000000000000        0x0 /usr/lib/gcc/i686-linux-gnu/4.8/../../../i386-linux-gnu/crt1.o
 .rel.text.random_rand
                0x0000000000000000        0x0 /usr/lib/gcc/i686-linux-gnu/4.8/../../../i386-linux-gnu/crt1.o
 .rel.text.store_fragment
                0x0000000000000000        0x0 /usr/lib/gcc/i686-linux-gnu/4.8/../../../i386-linux-gnu/crt1.o
 .rel.text.add_fragment
                0x0000000000000000        0x0 /usr/lib/gcc/i686-linux-gnu/4.8/../../../i386-linux-gnu/crt1.o
 .rel.text.copy_frags2uip
                0x0000000000000000        0x0 /usr/lib/gcc/i686-linux-gnu/4.8/../../../i386-linux-gnu/crt1.o
 .rel.text.set_packet_attrs
                0x0000000000000000        0x0 /usr/lib/gcc/i686-linux-gnu/4.8/../../../i386-linux-gnu/crt1.o
 .rel.text.addr_context_lookup_by_prefix
                0x0000000000000000        0x0 /usr/lib/gcc/i686-linux-gnu/4.8/../../../i386-linux-gnu/crt1.o
 .rel.text.compress_addr_64
                0x0000000000000000        0x0 /usr/lib/gcc/i686-linux-gnu/4.8/../../../i386-linux-gnu/crt1.o
 .rel.text.uncompress_addr
                0x0000000000000000        0x0 /usr/lib/gcc/i686-linux-gnu/4.8/../../../i386-linux-gnu/crt1.o
 .rel.text.compress_hdr_iphc
                0x0000000000000000        0x0 /usr/lib/gcc/i686-linux-gnu/4.8/../../../i386-linux-gnu/crt1.o
 .rel.text.uncompress_hdr_iphc
                0x0000000000000000        0x0 /usr/lib/gcc/i686-linux-gnu/4.8/../../../i386-linux-gnu/crt1.o
 .rel.text.compress_hdr_ipv6
                0x0000000000000000        0x0 /usr/lib/gcc/i686-linux-gnu/4.8/../../../i386-linux-gnu/crt1.o
 .rel.text.packet_sent
                0x0000000000000000        0x0 /usr/lib/gcc/i686-linux-gnu/4.8/../../../i386-linux-gnu/crt1.o
 .rel.text.send_packet
                0x0000000000000000        0x0 /usr/lib/gcc/i686-linux-gnu/4.8/../../../i386-linux-gnu/crt1.o
 .rel.text.output
                0x0000000000000000        0x0 /usr/lib/gcc/i686-linux-gnu/4.8/../../../i386-linux-gnu/crt1.o
 .rel.text.input
                0x0000000000000000        0x0 /usr/lib/gcc/i686-linux-gnu/4.8/../../../i386-linux-gnu/crt1.o
 .rel.text.sicslowpan_init
                0x0000000000000000        0x0 /usr/lib/gcc/i686-linux-gnu/4.8/../../../i386-linux-gnu/crt1.o
 .rel.text.uip_add32
                0x0000000000000000        0x0 /usr/lib/gcc/i686-linux-gnu/4.8/../../../i386-linux-gnu/crt1.o
 .rel.text.upper_layer_chksum
                0x0000000000000000        0x0 /usr/lib/gcc/i686-linux-gnu/4.8/../../../i386-linux-gnu/crt1.o
 .rel.text.uip_init
                0x0000000000000000        0x0 /usr/lib/gcc/i686-linux-gnu/4.8/../../../i386-linux-gnu/crt1.o
 .rel.text.uip_connect
                0x0000000000000000        0x0 /usr/lib/gcc/i686-linux-gnu/4.8/../../../i386-linux-gnu/crt1.o
 .rel.text.remove_ext_hdr
                0x0000000000000000        0x0 /usr/lib/gcc/i686-linux-gnu/4.8/../../../i386-linux-gnu/crt1.o
 .rel.text.uip_udp_new
                0x0000000000000000        0x0 /usr/lib/gcc/i686-linux-gnu/4.8/../../../i386-linux-gnu/crt1.o
 .rel.text.uip_unlisten
                0x0000000000000000        0x0 /usr/lib/gcc/i686-linux-gnu/4.8/../../../i386-linux-gnu/crt1.o
 .rel.text.uip_listen
                0x0000000000000000        0x0 /usr/lib/gcc/i686-linux-gnu/4.8/../../../i386-linux-gnu/crt1.o
 .rel.text.uip_add_rcv_nxt
                0x0000000000000000        0x0 /usr/lib/gcc/i686-linux-gnu/4.8/../../../i386-linux-gnu/crt1.o
 .rel.text.ext_hdr_options_process
                0x0000000000000000        0x0 /usr/lib/gcc/i686-linux-gnu/4.8/../../../i386-linux-gnu/crt1.o
 .rel.text.uip_process
                0x0000000000000000        0x0 /usr/lib/gcc/i686-linux-gnu/4.8/../../../i386-linux-gnu/crt1.o
 .rel.text.uip_send
                0x0000000000000000        0x0 /usr/lib/gcc/i686-linux-gnu/4.8/../../../i386-linux-gnu/crt1.o
 .rel.text.uip_ds6_init
                0x0000000000000000        0x0 /usr/lib/gcc/i686-linux-gnu/4.8/../../../i386-linux-gnu/crt1.o
 .rel.text.uip_ds6_periodic
                0x0000000000000000        0x0 /usr/lib/gcc/i686-linux-gnu/4.8/../../../i386-linux-gnu/crt1.o
 .rel.text.uip_ds6_list_loop
                0x0000000000000000        0x0 /usr/lib/gcc/i686-linux-gnu/4.8/../../../i386-linux-gnu/crt1.o
 .rel.text.uip_ds6_prefix_add
                0x0000000000000000        0x0 /usr/lib/gcc/i686-linux-gnu/4.8/../../../i386-linux-gnu/crt1.o
 .rel.text.uip_ds6_prefix_lookup
                0x0000000000000000        0x0 /usr/lib/gcc/i686-linux-gnu/4.8/../../../i386-linux-gnu/crt1.o
 .rel.text.uip_ds6_is_addr_onlink
                0x0000000000000000        0x0 /usr/lib/gcc/i686-linux-gnu/4.8/../../../i386-linux-gnu/crt1.o
 .rel.text.uip_ds6_addr_add
                0x0000000000000000        0x0 /usr/lib/gcc/i686-linux-gnu/4.8/../../../i386-linux-gnu/crt1.o
 .rel.text.uip_ds6_addr_lookup
                0x0000000000000000        0x0 /usr/lib/gcc/i686-linux-gnu/4.8/../../../i386-linux-gnu/crt1.o
 .rel.text.uip_ds6_get_link_local
                0x0000000000000000        0x0 /usr/lib/gcc/i686-linux-gnu/4.8/../../../i386-linux-gnu/crt1.o
 .rel.text.uip_ds6_get_global
                0x0000000000000000        0x0 /usr/lib/gcc/i686-linux-gnu/4.8/../../../i386-linux-gnu/crt1.o
 .rel.text.uip_ds6_maddr_add
                0x0000000000000000        0x0 /usr/lib/gcc/i686-linux-gnu/4.8/../../../i386-linux-gnu/crt1.o
 .rel.text.uip_ds6_maddr_lookup
                0x0000000000000000        0x0 /usr/lib/gcc/i686-linux-gnu/4.8/../../../i386-linux-gnu/crt1.o
 .rel.text.uip_ds6_aaddr_add
                0x0000000000000000        0x0 /usr/lib/gcc/i686-linux-gnu/4.8/../../../i386-linux-gnu/crt1.o
 .rel.text.uip_ds6_aaddr_lookup
                0x0000000000000000        0x0 /usr/lib/gcc/i686-linux-gnu/4.8/../../../i386-linux-gnu/crt1.o
 .rel.text.uip_ds6_select_src
                0x0000000000000000        0x0 /usr/lib/gcc/i686-linux-gnu/4.8/../../../i386-linux-gnu/crt1.o
 .rel.text.uip_ds6_set_addr_iid
                0x0000000000000000        0x0 /usr/lib/gcc/i686-linux-gnu/4.8/../../../i386-linux-gnu/crt1.o
 .rel.text.uip_ds6_compute_reachable_time
                0x0000000000000000        0x0 /usr/lib/gcc/i686-linux-gnu/4.8/../../../i386-linux-gnu/crt1.o
 .rel.text.uip_ds6_neighbors_init
                0x0000000000000000        0x0 /usr/lib/gcc/i686-linux-gnu/4.8/../../../i386-linux-gnu/crt1.o
 .rel.text.uip_ds6_nbr_add
                0x0000000000000000        0x0 /usr/lib/gcc/i686-linux-gnu/4.8/../../../i386-linux-gnu/crt1.o
 .rel.text.uip_ds6_nbr_rm
                0x0000000000000000        0x0 /usr/lib/gcc/i686-linux-gnu/4.8/../../../i386-linux-gnu/crt1.o
 .rel.text.uip_ds6_nbr_get_ll
                0x0000000000000000        0x0 /usr/lib/gcc/i686-linux-gnu/4.8/../../../i386-linux-gnu/crt1.o
 .rel.text.uip_ds6_nbr_num
                0x0000000000000000        0x0 /usr/lib/gcc/i686-linux-gnu/4.8/../../../i386-linux-gnu/crt1.o
 .rel.text.uip_ds6_nbr_lookup
                0x0000000000000000        0x0 /usr/lib/gcc/i686-linux-gnu/4.8/../../../i386-linux-gnu/crt1.o
 .rel.text.uip_ds6_nbr_ll_lookup
                0x0000000000000000        0x0 /usr/lib/gcc/i686-linux-gnu/4.8/../../../i386-linux-gnu/crt1.o
 .rel.text.uip_ds6_link_neighbor_callback
                0x0000000000000000        0x0 /usr/lib/gcc/i686-linux-gnu/4.8/../../../i386-linux-gnu/crt1.o
 .rel.text.uip_ds6_neighbor_periodic
                0x0000000000000000        0x0 /usr/lib/gcc/i686-linux-gnu/4.8/../../../i386-linux-gnu/crt1.o
 .rel.text.uip_ds6_nbr_refresh_reachable_state
                0x0000000000000000        0x0 /usr/lib/gcc/i686-linux-gnu/4.8/../../../i386-linux-gnu/crt1.o
 .rel.text.uip_ds6_get_least_lifetime_neighbor
                0x0000000000000000        0x0 /usr/lib/gcc/i686-linux-gnu/4.8/../../../i386-linux-gnu/crt1.o
 .rel.text.uip_ds6_route_init
                0x0000000000000000        0x0 /usr/lib/gcc/i686-linux-gnu/4.8/../../../i386-linux-gnu/crt1.o
 .rel.text.uip_ds6_route_nexthop_lladdr
                0x0000000000000000        0x0 /usr/lib/gcc/i686-linux-gnu/4.8/../../../i386-linux-gnu/crt1.o
 .rel.text.uip_ds6_route_is_nexthop
                0x0000000000000000        0x0 /usr/lib/gcc/i686-linux-gnu/4.8/../../../i386-linux-gnu/crt1.o
 .rel.text.uip_ds6_route_lookup
                0x0000000000000000        0x0 /usr/lib/gcc/i686-linux-gnu/4.8/../../../i386-linux-gnu/crt1.o
 .rel.text.uip_ds6_route_add
                0x0000000000000000        0x0 /usr/lib/gcc/i686-linux-gnu/4.8/../../../i386-linux-gnu/crt1.o
 .rel.text.uip_ds6_route_rm
                0x0000000000000000        0x0 /usr/lib/gcc/i686-linux-gnu/4.8/../../../i386-linux-gnu/crt1.o
 .rel.text.rm_routelist
                0x0000000000000000        0x0 /usr/lib/gcc/i686-linux-gnu/4.8/../../../i386-linux-gnu/crt1.o
 .rel.text.uip_ds6_route_rm_by_nexthop
                0x0000000000000000        0x0 /usr/lib/gcc/i686-linux-gnu/4.8/../../../i386-linux-gnu/crt1.o
 .rel.text.uip_ds6_defrt_add
                0x0000000000000000        0x0 /usr/lib/gcc/i686-linux-gnu/4.8/../../../i386-linux-gnu/crt1.o
 .rel.text.uip_ds6_defrt_lookup
                0x0000000000000000        0x0 /usr/lib/gcc/i686-linux-gnu/4.8/../../../i386-linux-gnu/crt1.o
 .rel.text.uip_ds6_defrt_periodic
                0x0000000000000000        0x0 /usr/lib/gcc/i686-linux-gnu/4.8/../../../i386-linux-gnu/crt1.o
 .rel.text.echo_request_input
                0x0000000000000000        0x0 /usr/lib/gcc/i686-linux-gnu/4.8/../../../i386-linux-gnu/crt1.o
 .rel.text.uip_icmp6_error_output
                0x0000000000000000        0x0 /usr/lib/gcc/i686-linux-gnu/4.8/../../../i386-linux-gnu/crt1.o
 .rel.text.uip_icmp6_send
                0x0000000000000000        0x0 /usr/lib/gcc/i686-linux-gnu/4.8/../../../i386-linux-gnu/crt1.o
 .rel.text.echo_reply_input
                0x0000000000000000        0x0 /usr/lib/gcc/i686-linux-gnu/4.8/../../../i386-linux-gnu/crt1.o
 .rel.text.extract_lladdr_from_llao_aligned
                0x0000000000000000        0x0 /usr/lib/gcc/i686-linux-gnu/4.8/../../../i386-linux-gnu/crt1.o
 .rel.text.create_llao
                0x0000000000000000        0x0 /usr/lib/gcc/i686-linux-gnu/4.8/../../../i386-linux-gnu/crt1.o
 .rel.text.ns_input
                0x0000000000000000        0x0 /usr/lib/gcc/i686-linux-gnu/4.8/../../../i386-linux-gnu/crt1.o
 .rel.text.uip_nd6_ns_output
                0x0000000000000000        0x0 /usr/lib/gcc/i686-linux-gnu/4.8/../../../i386-linux-gnu/crt1.o
 .rel.text.na_input
                0x0000000000000000        0x0 /usr/lib/gcc/i686-linux-gnu/4.8/../../../i386-linux-gnu/crt1.o
 .rel.text.dns_name_isequal
                0x0000000000000000        0x0 /usr/lib/gcc/i686-linux-gnu/4.8/../../../i386-linux-gnu/crt1.o
 .rel.text.mdns_write_announce_records
                0x0000000000000000        0x0 /usr/lib/gcc/i686-linux-gnu/4.8/../../../i386-linux-gnu/crt1.o
 .rel.text.mdns_prep_host_announce_packet
                0x0000000000000000        0x0 /usr/lib/gcc/i686-linux-gnu/4.8/../../../i386-linux-gnu/crt1.o
 .rel.text.try_next_server
                0x0000000000000000        0x0 /usr/lib/gcc/i686-linux-gnu/4.8/../../../i386-linux-gnu/crt1.o
 .rel.text.check_entries
                0x0000000000000000        0x0 /usr/lib/gcc/i686-linux-gnu/4.8/../../../i386-linux-gnu/crt1.o
 .rel.text.newdata
                0x0000000000000000        0x0 /usr/lib/gcc/i686-linux-gnu/4.8/../../../i386-linux-gnu/crt1.o
 .rel.text.resolv_set_hostname
                0x0000000000000000        0x0 /usr/lib/gcc/i686-linux-gnu/4.8/../../../i386-linux-gnu/crt1.o
 .rel.text.process_thread_mdns_probe_process
                0x0000000000000000        0x0 /usr/lib/gcc/i686-linux-gnu/4.8/../../../i386-linux-gnu/crt1.o
 .rel.text.process_thread_resolv_process
                0x0000000000000000        0x0 /usr/lib/gcc/i686-linux-gnu/4.8/../../../i386-linux-gnu/crt1.o
 .rel.text.remove_trailing_dots
                0x0000000000000000        0x0 /usr/lib/gcc/i686-linux-gnu/4.8/../../../i386-linux-gnu/crt1.o
 .rel.text.resolv_query
                0x0000000000000000        0x0 /usr/lib/gcc/i686-linux-gnu/4.8/../../../i386-linux-gnu/crt1.o
 .rel.text.resolv_lookup
                0x0000000000000000        0x0 /usr/lib/gcc/i686-linux-gnu/4.8/../../../i386-linux-gnu/crt1.o
 .rel.text.resolv_found
                0x0000000000000000        0x0 /usr/lib/gcc/i686-linux-gnu/4.8/../../../i386-linux-gnu/crt1.o
 .rel.text.check_for_tcp_syn
                0x0000000000000000        0x0 /usr/lib/gcc/i686-linux-gnu/4.8/../../../i386-linux-gnu/crt1.o
 .rel.text.packet_input
                0x0000000000000000        0x0 /usr/lib/gcc/i686-linux-gnu/4.8/../../../i386-linux-gnu/crt1.o
 .rel.text.udp_broadcast_new
                0x0000000000000000        0x0 /usr/lib/gcc/i686-linux-gnu/4.8/../../../i386-linux-gnu/crt1.o
 .rel.text.icmp6_new
                0x0000000000000000        0x0 /usr/lib/gcc/i686-linux-gnu/4.8/../../../i386-linux-gnu/crt1.o
 .rel.text.tcpip_icmp6_call
                0x0000000000000000        0x0 /usr/lib/gcc/i686-linux-gnu/4.8/../../../i386-linux-gnu/crt1.o
 .rel.text.eventhandler
                0x0000000000000000        0x0 /usr/lib/gcc/i686-linux-gnu/4.8/../../../i386-linux-gnu/crt1.o
 .rel.text.tcpip_input
                0x0000000000000000        0x0 /usr/lib/gcc/i686-linux-gnu/4.8/../../../i386-linux-gnu/crt1.o
 .rel.text.tcpip_ipv6_output
                0x0000000000000000        0x0 /usr/lib/gcc/i686-linux-gnu/4.8/../../../i386-linux-gnu/crt1.o
 .rel.text.tcpip_uipcall
                0x0000000000000000        0x0 /usr/lib/gcc/i686-linux-gnu/4.8/../../../i386-linux-gnu/crt1.o
 .rel.text.process_thread_tcpip_process
                0x0000000000000000        0x0 /usr/lib/gcc/i686-linux-gnu/4.8/../../../i386-linux-gnu/crt1.o
 .rel.text.uip_debug_ipaddr_print
                0x0000000000000000        0x0 /usr/lib/gcc/i686-linux-gnu/4.8/../../../i386-linux-gnu/crt1.o
 .rel.text.uiplib_ip6addrconv
                0x0000000000000000        0x0 /usr/lib/gcc/i686-linux-gnu/4.8/../../../i386-linux-gnu/crt1.o
 .rel.text.uip_udp_packet_send
                0x0000000000000000        0x0 /usr/lib/gcc/i686-linux-gnu/4.8/../../../i386-linux-gnu/crt1.o
 .rel.text.uip_udp_packet_sendto
                0x0000000000000000        0x0 /usr/lib/gcc/i686-linux-gnu/4.8/../../../i386-linux-gnu/crt1.o
 .rel.text.rpl_set_mode
                0x0000000000000000        0x0 /usr/lib/gcc/i686-linux-gnu/4.8/../../../i386-linux-gnu/crt1.o
 .rel.text.rpl_purge_routes
                0x0000000000000000        0x0 /usr/lib/gcc/i686-linux-gnu/4.8/../../../i386-linux-gnu/crt1.o
 .rel.text.rpl_remove_routes_by_nexthop
                0x0000000000000000        0x0 /usr/lib/gcc/i686-linux-gnu/4.8/../../../i386-linux-gnu/crt1.o
 .rel.text.rpl_link_neighbor_callback
                0x0000000000000000        0x0 /usr/lib/gcc/i686-linux-gnu/4.8/../../../i386-linux-gnu/crt1.o
 .rel.text.rpl_ipv6_neighbor_callback
                0x0000000000000000        0x0 /usr/lib/gcc/i686-linux-gnu/4.8/../../../i386-linux-gnu/crt1.o
 .rel.text.rpl_purge_dags
                0x0000000000000000        0x0 /usr/lib/gcc/i686-linux-gnu/4.8/../../../i386-linux-gnu/crt1.o
 .rel.text.rpl_init
                0x0000000000000000        0x0 /usr/lib/gcc/i686-linux-gnu/4.8/../../../i386-linux-gnu/crt1.o
 .rel.text.rpl_print_neighbor_list
                0x0000000000000000        0x0 /usr/lib/gcc/i686-linux-gnu/4.8/../../../i386-linux-gnu/crt1.o
 .rel.text.rpl_get_nbr
                0x0000000000000000        0x0 /usr/lib/gcc/i686-linux-gnu/4.8/../../../i386-linux-gnu/crt1.o
 .rel.text.rpl_dag_init
                0x0000000000000000        0x0 /usr/lib/gcc/i686-linux-gnu/4.8/../../../i386-linux-gnu/crt1.o
 .rel.text.rpl_get_parent
                0x0000000000000000        0x0 /usr/lib/gcc/i686-linux-gnu/4.8/../../../i386-linux-gnu/crt1.o
 .rel.text.rpl_get_parent_rank
                0x0000000000000000        0x0 /usr/lib/gcc/i686-linux-gnu/4.8/../../../i386-linux-gnu/crt1.o
 .rel.text.rpl_get_parent_lladdr
                0x0000000000000000        0x0 /usr/lib/gcc/i686-linux-gnu/4.8/../../../i386-linux-gnu/crt1.o
 .rel.text.rpl_get_parent_link_stats
                0x0000000000000000        0x0 /usr/lib/gcc/i686-linux-gnu/4.8/../../../i386-linux-gnu/crt1.o
 .rel.text.rpl_parent_is_fresh
                0x0000000000000000        0x0 /usr/lib/gcc/i686-linux-gnu/4.8/../../../i386-linux-gnu/crt1.o
 .rel.text.rpl_set_preferred_parent
                0x0000000000000000        0x0 /usr/lib/gcc/i686-linux-gnu/4.8/../../../i386-linux-gnu/crt1.o
 .rel.text.remove_parents
                0x0000000000000000        0x0 /usr/lib/gcc/i686-linux-gnu/4.8/../../../i386-linux-gnu/crt1.o
 .rel.text.nullify_parents
                0x0000000000000000        0x0 /usr/lib/gcc/i686-linux-gnu/4.8/../../../i386-linux-gnu/crt1.o
 .rel.text.get_dag
                0x0000000000000000        0x0 /usr/lib/gcc/i686-linux-gnu/4.8/../../../i386-linux-gnu/crt1.o
 .rel.text.rpl_set_root
                0x0000000000000000        0x0 /usr/lib/gcc/i686-linux-gnu/4.8/../../../i386-linux-gnu/crt1.o
 .rel.text.rpl_repair_root
                0x0000000000000000        0x0 /usr/lib/gcc/i686-linux-gnu/4.8/../../../i386-linux-gnu/crt1.o
 .rel.text.set_ip_from_prefix
                0x0000000000000000        0x0 /usr/lib/gcc/i686-linux-gnu/4.8/../../../i386-linux-gnu/crt1.o
 .rel.text.check_prefix
                0x0000000000000000        0x0 /usr/lib/gcc/i686-linux-gnu/4.8/../../../i386-linux-gnu/crt1.o
 .rel.text.rpl_set_prefix
                0x0000000000000000        0x0 /usr/lib/gcc/i686-linux-gnu/4.8/../../../i386-linux-gnu/crt1.o
 .rel.text.rpl_alloc_instance
                0x0000000000000000        0x0 /usr/lib/gcc/i686-linux-gnu/4.8/../../../i386-linux-gnu/crt1.o
 .rel.text.rpl_alloc_dag
                0x0000000000000000        0x0 /usr/lib/gcc/i686-linux-gnu/4.8/../../../i386-linux-gnu/crt1.o
 .rel.text.rpl_set_default_instance
                0x0000000000000000        0x0 /usr/lib/gcc/i686-linux-gnu/4.8/../../../i386-linux-gnu/crt1.o
 .rel.text.rpl_get_default_instance
                0x0000000000000000        0x0 /usr/lib/gcc/i686-linux-gnu/4.8/../../../i386-linux-gnu/crt1.o
 .rel.text.rpl_free_instance
                0x0000000000000000        0x0 /usr/lib/gcc/i686-linux-gnu/4.8/../../../i386-linux-gnu/crt1.o
 .rel.text.rpl_add_parent
                0x0000000000000000        0x0 /usr/lib/gcc/i686-linux-gnu/4.8/../../../i386-linux-gnu/crt1.o
 .rel.text.find_parent_any_dag_any_instance
                0x0000000000000000        0x0 /usr/lib/gcc/i686-linux-gnu/4.8/../../../i386-linux-gnu/crt1.o
 .rel.text.rpl_select_dag
                0x0000000000000000        0x0 /usr/lib/gcc/i686-linux-gnu/4.8/../../../i386-linux-gnu/crt1.o
 .rel.text.best_parent
                0x0000000000000000        0x0 /usr/lib/gcc/i686-linux-gnu/4.8/../../../i386-linux-gnu/crt1.o
 .rel.text.rpl_select_parent
                0x0000000000000000        0x0 /usr/lib/gcc/i686-linux-gnu/4.8/../../../i386-linux-gnu/crt1.o
 .rel.text.rpl_remove_parent
                0x0000000000000000        0x0 /usr/lib/gcc/i686-linux-gnu/4.8/../../../i386-linux-gnu/crt1.o
 .rel.text.rpl_nullify_parent
                0x0000000000000000        0x0 /usr/lib/gcc/i686-linux-gnu/4.8/../../../i386-linux-gnu/crt1.o
 .rel.text.rpl_has_downward_route
                0x0000000000000000        0x0 /usr/lib/gcc/i686-linux-gnu/4.8/../../../i386-linux-gnu/crt1.o
 .rel.text.rpl_get_dag
                0x0000000000000000        0x0 /usr/lib/gcc/i686-linux-gnu/4.8/../../../i386-linux-gnu/crt1.o
 .rel.text.rpl_get_any_dag
                0x0000000000000000        0x0 /usr/lib/gcc/i686-linux-gnu/4.8/../../../i386-linux-gnu/crt1.o
 .rel.text.rpl_get_instance
                0x0000000000000000        0x0 /usr/lib/gcc/i686-linux-gnu/4.8/../../../i386-linux-gnu/crt1.o
 .rel.text.rpl_find_of
                0x0000000000000000        0x0 /usr/lib/gcc/i686-linux-gnu/4.8/../../../i386-linux-gnu/crt1.o
 .rel.text.rpl_join_instance
                0x0000000000000000        0x0 /usr/lib/gcc/i686-linux-gnu/4.8/../../../i386-linux-gnu/crt1.o
 .rel.text.rpl_add_dag
                0x0000000000000000        0x0 /usr/lib/gcc/i686-linux-gnu/4.8/../../../i386-linux-gnu/crt1.o
 .rel.text.rpl_local_repair
                0x0000000000000000        0x0 /usr/lib/gcc/i686-linux-gnu/4.8/../../../i386-linux-gnu/crt1.o
 .rel.text.rpl_recalculate_ranks
                0x0000000000000000        0x0 /usr/lib/gcc/i686-linux-gnu/4.8/../../../i386-linux-gnu/crt1.o
 .rel.text.add_nbr_from_dio
                0x0000000000000000        0x0 /usr/lib/gcc/i686-linux-gnu/4.8/../../../i386-linux-gnu/crt1.o
 .rel.text.rpl_process_dio
                0x0000000000000000        0x0 /usr/lib/gcc/i686-linux-gnu/4.8/../../../i386-linux-gnu/crt1.o
 .rel.text.rpl_verify_hbh_header
                0x0000000000000000        0x0 /usr/lib/gcc/i686-linux-gnu/4.8/../../../i386-linux-gnu/crt1.o
 .rel.text.update_hbh_header
                0x0000000000000000        0x0 /usr/lib/gcc/i686-linux-gnu/4.8/../../../i386-linux-gnu/crt1.o
 .rel.text.insert_hbh_header
                0x0000000000000000        0x0 /usr/lib/gcc/i686-linux-gnu/4.8/../../../i386-linux-gnu/crt1.o
 .rel.text.rpl_remove_header
                0x0000000000000000        0x0 /usr/lib/gcc/i686-linux-gnu/4.8/../../../i386-linux-gnu/crt1.o
 .rel.text.rpl_update_header
                0x0000000000000000        0x0 /usr/lib/gcc/i686-linux-gnu/4.8/../../../i386-linux-gnu/crt1.o
 .rel.text.get_global_addr
                0x0000000000000000        0x0 /usr/lib/gcc/i686-linux-gnu/4.8/../../../i386-linux-gnu/crt1.o
 .rel.text.rpl_icmp6_update_nbr_table
                0x0000000000000000        0x0 /usr/lib/gcc/i686-linux-gnu/4.8/../../../i386-linux-gnu/crt1.o
 .rel.text.dis_input
                0x0000000000000000        0x0 /usr/lib/gcc/i686-linux-gnu/4.8/../../../i386-linux-gnu/crt1.o
 .rel.text.dis_output
                0x0000000000000000        0x0 /usr/lib/gcc/i686-linux-gnu/4.8/../../../i386-linux-gnu/crt1.o
 .rel.text.dio_input
                0x0000000000000000        0x0 /usr/lib/gcc/i686-linux-gnu/4.8/../../../i386-linux-gnu/crt1.o
 .rel.text.dio_output
                0x0000000000000000        0x0 /usr/lib/gcc/i686-linux-gnu/4.8/../../../i386-linux-gnu/crt1.o
 .rel.text.dao_input_storing
                0x0000000000000000        0x0 /usr/lib/gcc/i686-linux-gnu/4.8/../../../i386-linux-gnu/crt1.o
 .rel.text.dao_input
                0x0000000000000000        0x0 /usr/lib/gcc/i686-linux-gnu/4.8/../../../i386-linux-gnu/crt1.o
 .rel.text.dao_output
                0x0000000000000000        0x0 /usr/lib/gcc/i686-linux-gnu/4.8/../../../i386-linux-gnu/crt1.o
 .rel.text.dao_output_target_seq
                0x0000000000000000        0x0 /usr/lib/gcc/i686-linux-gnu/4.8/../../../i386-linux-gnu/crt1.o
 .rel.text.dao_ack_input
                0x0000000000000000        0x0 /usr/lib/gcc/i686-linux-gnu/4.8/../../../i386-linux-gnu/crt1.o
 .rel.text.get_probing_target
                0x0000000000000000        0x0 /usr/lib/gcc/i686-linux-gnu/4.8/../../../i386-linux-gnu/crt1.o
 .rel.text.linkaddr_copy
                0x0000000000000000        0x0 /usr/lib/gcc/i686-linux-gnu/4.8/../../../i386-linux-gnu/crt1.o
 .rel.text.linkaddr_cmp
                0x0000000000000000        0x0 /usr/lib/gcc/i686-linux-gnu/4.8/../../../i386-linux-gnu/crt1.o
 .rel.text.linkaddr_set_node_addr
                0x0000000000000000        0x0 /usr/lib/gcc/i686-linux-gnu/4.8/../../../i386-linux-gnu/crt1.o
 .rel.text.link_stats_from_lladdr
                0x0000000000000000        0x0 /usr/lib/gcc/i686-linux-gnu/4.8/../../../i386-linux-gnu/crt1.o
 .rel.text.link_stats_packet_sent
                0x0000000000000000        0x0 /usr/lib/gcc/i686-linux-gnu/4.8/../../../i386-linux-gnu/crt1.o
 .rel.text.link_stats_input_callback
                0x0000000000000000        0x0 /usr/lib/gcc/i686-linux-gnu/4.8/../../../i386-linux-gnu/crt1.o
 .rel.text.periodic
                0x0000000000000000        0x0 /usr/lib/gcc/i686-linux-gnu/4.8/../../../i386-linux-gnu/crt1.o
 .rel.text.link_stats_init
                0x0000000000000000        0x0 /usr/lib/gcc/i686-linux-gnu/4.8/../../../i386-linux-gnu/crt1.o
 .rel.text.nbr_table_allocate
                0x0000000000000000        0x0 /usr/lib/gcc/i686-linux-gnu/4.8/../../../i386-linux-gnu/crt1.o
 .rel.text.nbr_table_add_lladdr
                0x0000000000000000        0x0 /usr/lib/gcc/i686-linux-gnu/4.8/../../../i386-linux-gnu/crt1.o
 .rel.text.nbr_table_update_lladdr
                0x0000000000000000        0x0 /usr/lib/gcc/i686-linux-gnu/4.8/../../../i386-linux-gnu/crt1.o
 .rel.text.netstack_init
                0x0000000000000000        0x0 /usr/lib/gcc/i686-linux-gnu/4.8/../../../i386-linux-gnu/crt1.o
 .rel.text.packetbuf_copyfrom
                0x0000000000000000        0x0 /usr/lib/gcc/i686-linux-gnu/4.8/../../../i386-linux-gnu/crt1.o
 .rel.text.packetbuf_copyto
                0x0000000000000000        0x0 /usr/lib/gcc/i686-linux-gnu/4.8/../../../i386-linux-gnu/crt1.o
 .rel.text.packetbuf_attr_clear
                0x0000000000000000        0x0 /usr/lib/gcc/i686-linux-gnu/4.8/../../../i386-linux-gnu/crt1.o
 .rel.text.packetbuf_attr_copyto
                0x0000000000000000        0x0 /usr/lib/gcc/i686-linux-gnu/4.8/../../../i386-linux-gnu/crt1.o
 .rel.text.packetbuf_attr_copyfrom
                0x0000000000000000        0x0 /usr/lib/gcc/i686-linux-gnu/4.8/../../../i386-linux-gnu/crt1.o
 .rel.text.packetbuf_set_attr
                0x0000000000000000        0x0 /usr/lib/gcc/i686-linux-gnu/4.8/../../../i386-linux-gnu/crt1.o
 .rel.text.packetbuf_attr
                0x0000000000000000        0x0 /usr/lib/gcc/i686-linux-gnu/4.8/../../../i386-linux-gnu/crt1.o
 .rel.text.packetbuf_set_addr
                0x0000000000000000        0x0 /usr/lib/gcc/i686-linux-gnu/4.8/../../../i386-linux-gnu/crt1.o
 .rel.text.packetbuf_addr
                0x0000000000000000        0x0 /usr/lib/gcc/i686-linux-gnu/4.8/../../../i386-linux-gnu/crt1.o
 .rel.text.packetbuf_holds_broadcast
                0x0000000000000000        0x0 /usr/lib/gcc/i686-linux-gnu/4.8/../../../i386-linux-gnu/crt1.o
 .rel.text.create_frame
                0x0000000000000000        0x0 /usr/lib/gcc/i686-linux-gnu/4.8/../../../i386-linux-gnu/crt1.o
 .rel.text.parse
                0x0000000000000000        0x0 /usr/lib/gcc/i686-linux-gnu/4.8/../../../i386-linux-gnu/crt1.o
 .rel.text.on   0x0000000000000000        0x0 /usr/lib/gcc/i686-linux-gnu/4.8/../../../i386-linux-gnu/crt1.o
 .rel.text.off  0x0000000000000000        0x0 /usr/lib/gcc/i686-linux-gnu/4.8/../../../i386-linux-gnu/crt1.o
 .rel.text.send_one_packet
                0x0000000000000000        0x0 /usr/lib/gcc/i686-linux-gnu/4.8/../../../i386-linux-gnu/crt1.o
 .rel.text.interrupt
                0x0000000000000000        0x0 /usr/lib/gcc/i686-linux-gnu/4.8/../../../i386-linux-gnu/crt1.o
 .rel.text.rtimer_arch_init
                0x0000000000000000        0x0 /usr/lib/gcc/i686-linux-gnu/4.8/../../../i386-linux-gnu/crt1.o
 .rel.text.rtimer_arch_schedule
                0x0000000000000000        0x0 /usr/lib/gcc/i686-linux-gnu/4.8/../../../i386-linux-gnu/crt1.o
 .rel.text.watchdog_reboot
                0x0000000000000000        0x0 /usr/lib/gcc/i686-linux-gnu/4.8/../../../i386-linux-gnu/crt1.o
 .rel.text.rpl_nbr_policy_find_removable
                0x0000000000000000        0x0 /usr/lib/gcc/i686-linux-gnu/4.8/../../../i386-linux-gnu/crt1.o
 .rel.text.field_len
                0x0000000000000000        0x0 /usr/lib/gcc/i686-linux-gnu/4.8/../../../i386-linux-gnu/crt1.o
 *(.rel.fini)
 *(.rel.rodata .rel.rodata.* .rel.gnu.linkonce.r.*)
 .rel.rodata    0x0000000000000000        0x0 /usr/lib/gcc/i686-linux-gnu/4.8/../../../i386-linux-gnu/crt1.o
 *(.rel.data.rel.ro .rel.data.rel.ro.* .rel.gnu.linkonce.d.rel.ro.*)
 *(.rel.data .rel.data.* .rel.gnu.linkonce.d.*)
 .rel.data      0x0000000000000000        0x0 /usr/lib/gcc/i686-linux-gnu/4.8/../../../i386-linux-gnu/crt1.o
 *(.rel.tdata .rel.tdata.* .rel.gnu.linkonce.td.*)
 *(.rel.tbss .rel.tbss.* .rel.gnu.linkonce.tb.*)
 *(.rel.ctors)
 *(.rel.dtors)
 *(.rel.got)
 .rel.got       0x000000000804d974        0x8 /usr/lib/gcc/i686-linux-gnu/4.8/../../../i386-linux-gnu/crt1.o
 *(.rel.bss .rel.bss.* .rel.gnu.linkonce.b.*)
 .rel.bss       0x000000000804d97c       0x10 /usr/lib/gcc/i686-linux-gnu/4.8/../../../i386-linux-gnu/crt1.o
 *(.rel.ifunc)

.rel.plt        0x000000000804d98c      0x120
 *(.rel.plt)
 .rel.plt       0x000000000804d98c      0x120 /usr/lib/gcc/i686-linux-gnu/4.8/../../../i386-linux-gnu/crt1.o
                0x000000000804daac                PROVIDE (__rel_iplt_start, .)
 *(.rel.iplt)
 .rel.iplt      0x0000000000000000        0x0 /usr/lib/gcc/i686-linux-gnu/4.8/../../../i386-linux-gnu/crt1.o
                0x000000000804daac                PROVIDE (__rel_iplt_end, .)

.init           0x000000000804daac       0x23
 *(SORT(.init))
 .init          0x000000000804daac       0x1e /usr/lib/gcc/i686-linux-gnu/4.8/../../../i386-linux-gnu/crti.o
                0x000000000804daac                _init
 .init          0x000000000804daca        0x5 /usr/lib/gcc/i686-linux-gnu/4.8/../../../i386-linux-gnu/crtn.o

.plt            0x000000000804dad0      0x250
 *(.plt)
 .plt           0x000000000804dad0      0x250 /usr/lib/gcc/i686-linux-gnu/4.8/../../../i386-linux-gnu/crt1.o
                0x000000000804dae0                setitimer@@GLIBC_2.0
                0x000000000804daf0                strcmp@@GLIBC_2.0
                0x000000000804db00                read@@GLIBC_2.0
                0x000000000804db10                printf@@GLIBC_2.0
                0x000000000804db20                memmove@@GLIBC_2.0
                0x000000000804db30                memcpy@@GLIBC_2.0
                0x000000000804db40                tolower@@GLIBC_2.0
                0x000000000804db50                signal@@GLIBC_2.0
                0x000000000804db60                lseek@@GLIBC_2.0
                0x000000000804db70                memcmp@@GLIBC_2.0
                0x000000000804db80                gettimeofday@@GLIBC_2.0
                0x000000000804db90                select@@GLIBC_2.0
                0x000000000804dba0                __stack_chk_fail@@GLIBC_2.4
                0x000000000804dbb0                perror@@GLIBC_2.0
                0x000000000804dbc0                puts@@GLIBC_2.0
                0x000000000804dbe0                exit@@GLIBC_2.0
                0x000000000804dbf0                open@@GLIBC_2.0
                0x000000000804dc00                srand@@GLIBC_2.0
                0x000000000804dc10                strlen@@GLIBC_2.0
                0x000000000804dc20                __libc_start_main@@GLIBC_2.0
                0x000000000804dc30                fprintf@@GLIBC_2.0
                0x000000000804dc40                write@@GLIBC_2.0
                0x000000000804dc50                strcasecmp@@GLIBC_2.0
                0x000000000804dc60                setvbuf@@GLIBC_2.0
                0x000000000804dc70                memset@@GLIBC_2.0
                0x000000000804dc80                putchar@@GLIBC_2.0
                0x000000000804dc90                __errno_location@@GLIBC_2.0
                0x000000000804dca0                strncpy@@GLIBC_2.0
                0x000000000804dcb0                strncasecmp@@GLIBC_2.0
                0x000000000804dcc0                rand@@GLIBC_2.0
                0x000000000804dcd0                sprintf@@GLIBC_2.0
                0x000000000804dce0                remove@@GLIBC_2.0
                0x000000000804dcf0                strncmp@@GLIBC_2.0
                0x000000000804dd00                close@@GLIBC_2.0
                0x000000000804dd10                strncat@@GLIBC_2.0
 *(.iplt)
 .iplt          0x0000000000000000        0x0 /usr/lib/gcc/i686-linux-gnu/4.8/../../../i386-linux-gnu/crt1.o

.text           0x000000000804dd20    0x1e792
 *(.text.unlikely .text.*_unlikely .text.unlikely.*)
 *(.text.exit .text.exit.*)
 *(.text.startup .text.startup.*)
 *(.text.hot .text.hot.*)
 *(.text .stub .text.* .gnu.linkonce.t.*)
 .text          0x000000000804dd20       0x22 /usr/lib/gcc/i686-linux-gnu/4.8/../../../i386-linux-gnu/crt1.o
                0x000000000804dd20                _start
 *fill*         0x000000000804dd42        0xe 
 .gnu.linkonce.t.__x86.get_pc_thunk.bx
                0x000000000804dd50        0x4 /usr/lib/gcc/i686-linux-gnu/4.8/../../../i386-linux-gnu/crti.o
                0x000000000804dd50                __x86.get_pc_thunk.bx
 *fill*         0x000000000804dd54        0xc 
 .text          0x000000000804dd60       0xbd /usr/lib/gcc/i686-linux-gnu/4.8/crtbegin.o
 .text.dtls_alert_create
                0x000000000804de1d       0x10 dtls-client.co
 .text.dtls_alert_fatal_create
                0x000000000804de2d       0x1b dtls-client.co
 .text.dtls_set_handler
                0x000000000804de48        0xe dtls-client.co
 .text.try_send
                0x000000000804de56       0x6d dtls-client.co
 .text.read_from_peer
                0x000000000804dec3       0x1e dtls-client.co
 .text.send_to_peer
                0x000000000804dee1       0xd6 dtls-client.co
 .text.get_psk_info
                0x000000000804dfb7      0x10f dtls-client.co
 .text.dtls_handle_read
                0x000000000804e0c6       0xe1 dtls-client.co
 .text.print_local_addresses
                0x000000000804e1a7       0x80 dtls-client.co
 .text.set_global_address
                0x000000000804e227       0x82 dtls-client.co
 .text.set_connection_address
                0x000000000804e2a9      0x100 dtls-client.co
 .text.init_dtls
                0x000000000804e3a9       0xd7 dtls-client.co
                0x000000000804e3a9                init_dtls
 .text.process_thread_udp_client_process
                0x000000000804e480      0x2a5 dtls-client.co
 .text.equals   0x000000000804e725       0x44 contiki-native.a(dtls.o)
 .text.check_stack
                0x000000000804e769        0x5 contiki-native.a(dtls.o)
 .text.dtls_int_to_uint8
                0x000000000804e76e       0x1c contiki-native.a(dtls.o)
 .text.dtls_int_to_uint16
                0x000000000804e78a       0x2f contiki-native.a(dtls.o)
 .text.dtls_int_to_uint24
                0x000000000804e7b9       0x30 contiki-native.a(dtls.o)
 .text.dtls_int_to_uint32
                0x000000000804e7e9       0x3e contiki-native.a(dtls.o)
 .text.dtls_int_to_uint48
                0x000000000804e827       0x89 contiki-native.a(dtls.o)
 .text.dtls_uint8_to_int
                0x000000000804e8b0        0xb contiki-native.a(dtls.o)
 .text.dtls_uint16_to_int
                0x000000000804e8bb       0x21 contiki-native.a(dtls.o)
 .text.dtls_uint24_to_int
                0x000000000804e8dc       0x32 contiki-native.a(dtls.o)
 .text.dtls_hash_init
                0x000000000804e90e       0x13 contiki-native.a(dtls.o)
 .text.dtls_hash_update
                0x000000000804e921       0x21 contiki-native.a(dtls.o)
 .text.dtls_hash_finalize
                0x000000000804e942       0x1f contiki-native.a(dtls.o)
 .text.dtls_security_params_epoch
                0x000000000804e961       0x58 contiki-native.a(dtls.o)
 .text.dtls_security_params
                0x000000000804e9b9        0xb contiki-native.a(dtls.o)
 .text.dtls_security_params_next
                0x000000000804e9c4       0x59 contiki-native.a(dtls.o)
 .text.dtls_security_params_free_other
                0x000000000804ea1d       0x50 contiki-native.a(dtls.o)
 .text.dtls_security_params_switch
                0x000000000804ea6d       0x26 contiki-native.a(dtls.o)
 .text.dtls_alert_create
                0x000000000804ea93       0x10 contiki-native.a(dtls.o)
 .text.dtls_alert_fatal_create
                0x000000000804eaa3       0x1b contiki-native.a(dtls.o)
 .text.dtls_prng
                0x000000000804eabe       0x52 contiki-native.a(dtls.o)
 .text.dtls_prng_init
                0x000000000804eb10        0xf contiki-native.a(dtls.o)
 .text.malloc_context
                0x000000000804eb1f        0xa contiki-native.a(dtls.o)
 .text.free_context
                0x000000000804eb29        0x5 contiki-native.a(dtls.o)
 .text.dtls_init
                0x000000000804eb2e       0x1c contiki-native.a(dtls.o)
                0x000000000804eb2e                dtls_init
 .text.dtls_send
                0x000000000804eb4a       0x5e contiki-native.a(dtls.o)
 .text.dtls_get_peer
                0x000000000804eba8       0x57 contiki-native.a(dtls.o)
                0x000000000804eba8                dtls_get_peer
 .text.dtls_add_peer
                0x000000000804ebff       0x1d contiki-native.a(dtls.o)
 .text.dtls_write
                0x000000000804ec1c       0x81 contiki-native.a(dtls.o)
                0x000000000804ec1c                dtls_write
 .text.dtls_get_cookie
                0x000000000804ec9d       0xd8 contiki-native.a(dtls.o)
 .text.dtls_create_cookie
                0x000000000804ed75      0x233 contiki-native.a(dtls.o)
 .text.is_record
                0x000000000804efa8       0x58 contiki-native.a(dtls.o)
 .text.dtls_set_record_header
                0x000000000804f000       0xd9 contiki-native.a(dtls.o)
 .text.dtls_set_handshake_header
                0x000000000804f0d9       0xc8 contiki-native.a(dtls.o)
 .text.is_tls_ecdhe_ecdsa_with_aes_128_ccm_8
                0x000000000804f1a1        0xa contiki-native.a(dtls.o)
 .text.is_tls_psk_with_aes_128_ccm_8
                0x000000000804f1ab       0x12 contiki-native.a(dtls.o)
 .text.is_psk_supported
                0x000000000804f1bd       0x2e contiki-native.a(dtls.o)
 .text.is_rpk_supported
                0x000000000804f1eb        0xa contiki-native.a(dtls.o)
 .text.is_cert_supported
                0x000000000804f1f5        0xa contiki-native.a(dtls.o)
 .text.known_cipher
                0x000000000804f1ff       0x7c contiki-native.a(dtls.o)
 .text.dtls_debug_keyblock
                0x000000000804f27b      0x11c contiki-native.a(dtls.o)
 .text.dtls_handshake_type_to_name
                0x000000000804f397       0x6c contiki-native.a(dtls.o)
 .text.calculate_key_block
                0x000000000804f403      0x39e contiki-native.a(dtls.o)
 .text.dtls_check_tls_extension
                0x000000000804f7a1      0x1a0 contiki-native.a(dtls.o)
 .text.dtls_update_parameters
                0x000000000804f941      0x376 contiki-native.a(dtls.o)
 .text.check_client_keyexchange
                0x000000000804fcb7       0xbd contiki-native.a(dtls.o)
 .text.update_hs_hash
                0x000000000804fd74       0x51 contiki-native.a(dtls.o)
 .text.copy_hs_hash
                0x000000000804fdc5       0x28 contiki-native.a(dtls.o)
 .text.finalize_hs_hash
                0x000000000804fded       0x20 contiki-native.a(dtls.o)
 .text.clear_hs_hash
                0x000000000804fe0d       0x33 contiki-native.a(dtls.o)
 .text.check_finished
                0x000000000804fe40      0x1ef contiki-native.a(dtls.o)
 .text.dtls_prepare_record
                0x000000000805002f      0x461 contiki-native.a(dtls.o)
 .text.dtls_send_handshake_msg_hash
                0x0000000008050490      0x14e contiki-native.a(dtls.o)
 .text.dtls_send_handshake_msg
                0x00000000080505de       0x48 contiki-native.a(dtls.o)
 .text.dtls_send_multi
                0x0000000008050626      0x42f contiki-native.a(dtls.o)
 .text.dtls_send_alert
                0x0000000008050a55       0x42 contiki-native.a(dtls.o)
 .text.dtls_close
                0x0000000008050a97       0x8c contiki-native.a(dtls.o)
                0x0000000008050a97                dtls_close
 .text.dtls_destroy_peer
                0x0000000008050b23       0x77 contiki-native.a(dtls.o)
 .text.dtls_verify_peer
                0x0000000008050b9a      0x253 contiki-native.a(dtls.o)
 .text.dtls_send_server_hello
                0x0000000008050ded      0x1ab contiki-native.a(dtls.o)
 .text.dtls_send_server_key_exchange_psk
                0x0000000008050f98      0x103 contiki-native.a(dtls.o)
 .text.dtls_send_server_hello_done
                0x000000000805109b       0x32 contiki-native.a(dtls.o)
 .text.dtls_send_server_hello_msgs
                0x00000000080510cd      0x13b contiki-native.a(dtls.o)
 .text.dtls_send_ccs
                0x0000000008051208       0x35 contiki-native.a(dtls.o)
 .text.dtls_send_client_key_exchange
                0x000000000805123d      0x231 contiki-native.a(dtls.o)
 .text.dtls_send_finished
                0x000000000805146e      0x182 contiki-native.a(dtls.o)
 .text.dtls_send_client_hello
                0x00000000080515f0      0x631 contiki-native.a(dtls.o)
 .text.check_server_hello
                0x0000000008051c21      0x1db contiki-native.a(dtls.o)
 .text.check_server_hello_verify_request
                0x0000000008051dfc       0x67 contiki-native.a(dtls.o)
 .text.check_server_key_exchange_psk
                0x0000000008051e63      0x109 contiki-native.a(dtls.o)
 .text.check_certificate_request
                0x0000000008051f6c      0x1f7 contiki-native.a(dtls.o)
 .text.check_server_hellodone
                0x0000000008052163       0xdb contiki-native.a(dtls.o)
 .text.decrypt_verify
                0x000000000805223e      0x2ec contiki-native.a(dtls.o)
 .text.dtls_send_hello_request
                0x000000000805252a       0x44 contiki-native.a(dtls.o)
 .text.dtls_renegotiate
                0x000000000805256e       0xf6 contiki-native.a(dtls.o)
                0x000000000805256e                dtls_renegotiate
 .text.handle_handshake_msg
                0x0000000008052664      0x77f contiki-native.a(dtls.o)
 .text.handle_handshake
                0x0000000008052de3      0x3f6 contiki-native.a(dtls.o)
 .text.handle_ccs
                0x00000000080531d9       0xa8 contiki-native.a(dtls.o)
 .text.handle_alert
                0x0000000008053281      0x17e contiki-native.a(dtls.o)
 .text.dtls_alert_send_from_err
                0x00000000080533ff       0xe0 contiki-native.a(dtls.o)
 .text.dtls_handle_message
                0x00000000080534df      0x5aa contiki-native.a(dtls.o)
                0x00000000080534df                dtls_handle_message
 .text.dtls_new_context
                0x0000000008053a89      0x12b contiki-native.a(dtls.o)
                0x0000000008053a89                dtls_new_context
 .text.dtls_free_context
                0x0000000008053bb4       0x5c contiki-native.a(dtls.o)
                0x0000000008053bb4                dtls_free_context
 .text.dtls_connect_peer
                0x0000000008053c10      0x13b contiki-native.a(dtls.o)
                0x0000000008053c10                dtls_connect_peer
 .text.dtls_connect
                0x0000000008053d4b      0x114 contiki-native.a(dtls.o)
                0x0000000008053d4b                dtls_connect
 .text.dtls_retransmit
                0x0000000008053e5f      0x289 contiki-native.a(dtls.o)
 .text.dtls_stop_retransmission
                0x00000000080540e8       0x84 contiki-native.a(dtls.o)
 .text.dtls_check_retransmit
                0x000000000805416c       0x81 contiki-native.a(dtls.o)
                0x000000000805416c                dtls_check_retransmit
 .text.process_thread_dtls_retransmit_process
                0x00000000080541ed      0x19e contiki-native.a(dtls.o)
 .text.dtls_int_to_uint16
                0x000000000805438b       0x2f contiki-native.a(tinydtls-crypto)
 .text.dtls_hash_init
                0x00000000080543ba       0x13 contiki-native.a(tinydtls-crypto)
 .text.dtls_cipher_context_get
                0x00000000080543cd        0xa contiki-native.a(tinydtls-crypto)
 .text.dtls_cipher_context_release
                0x00000000080543d7        0x5 contiki-native.a(tinydtls-crypto)
 .text.dtls_crypto_init
                0x00000000080543dc       0x20 contiki-native.a(tinydtls-crypto)
                0x00000000080543dc                dtls_crypto_init
 .text.dtls_handshake_malloc
                0x00000000080543fc       0x14 contiki-native.a(tinydtls-crypto)
 .text.dtls_handshake_dealloc
                0x0000000008054410       0x1b contiki-native.a(tinydtls-crypto)
 .text.dtls_security_malloc
                0x000000000805442b       0x14 contiki-native.a(tinydtls-crypto)
 .text.dtls_security_dealloc
                0x000000000805443f       0x1b contiki-native.a(tinydtls-crypto)
 .text.dtls_handshake_new
                0x000000000805445a       0x5b contiki-native.a(tinydtls-crypto)
                0x000000000805445a                dtls_handshake_new
 .text.dtls_handshake_free
                0x00000000080544b5       0x29 contiki-native.a(tinydtls-crypto)
                0x00000000080544b5                dtls_handshake_free
 .text.dtls_security_new
                0x00000000080544de       0x60 contiki-native.a(tinydtls-crypto)
                0x00000000080544de                dtls_security_new
 .text.dtls_security_free
                0x000000000805453e       0x1b contiki-native.a(tinydtls-crypto)
                0x000000000805453e                dtls_security_free
 .text.dtls_p_hash
                0x0000000008054559      0x2fa contiki-native.a(tinydtls-crypto)
                0x0000000008054559                dtls_p_hash
 .text.dtls_prf
                0x0000000008054853       0x74 contiki-native.a(tinydtls-crypto)
                0x0000000008054853                dtls_prf
 .text.dtls_mac
                0x00000000080548c7       0xb3 contiki-native.a(tinydtls-crypto)
                0x00000000080548c7                dtls_mac
 .text.dtls_ccm_encrypt
                0x000000000805497a       0x66 contiki-native.a(tinydtls-crypto)
 .text.dtls_ccm_decrypt
                0x00000000080549e0       0x66 contiki-native.a(tinydtls-crypto)
 .text.dtls_psk_pre_master_secret
                0x0000000008054a46       0x9a contiki-native.a(tinydtls-crypto)
                0x0000000008054a46                dtls_psk_pre_master_secret
 .text.dtls_encrypt
                0x0000000008054ae0       0xa6 contiki-native.a(tinydtls-crypto)
                0x0000000008054ae0                dtls_encrypt
 .text.dtls_decrypt
                0x0000000008054b86       0xa6 contiki-native.a(tinydtls-crypto)
                0x0000000008054b86                dtls_decrypt
 .text.dtls_hash_init
                0x0000000008054c2c       0x13 contiki-native.a(hmac.o)
 .text.dtls_hash_update
                0x0000000008054c3f       0x21 contiki-native.a(hmac.o)
 .text.dtls_hash_finalize
                0x0000000008054c60       0x1f contiki-native.a(hmac.o)
 .text.dtls_hmac_context_new
                0x0000000008054c7f       0x14 contiki-native.a(hmac.o)
 .text.dtls_hmac_context_free
                0x0000000008054c93       0x1b contiki-native.a(hmac.o)
 .text.dtls_hmac_storage_init
                0x0000000008054cae       0x14 contiki-native.a(hmac.o)
                0x0000000008054cae                dtls_hmac_storage_init
 .text.dtls_hmac_update
                0x0000000008054cc2       0x3e contiki-native.a(hmac.o)
                0x0000000008054cc2                dtls_hmac_update
 .text.dtls_hmac_new
                0x0000000008054d00       0x32 contiki-native.a(hmac.o)
                0x0000000008054d00                dtls_hmac_new
 .text.dtls_hmac_init
                0x0000000008054d32      0x11b contiki-native.a(hmac.o)
                0x0000000008054d32                dtls_hmac_init
 .text.dtls_hmac_free
                0x0000000008054e4d       0x19 contiki-native.a(hmac.o)
                0x0000000008054e4d                dtls_hmac_free
 .text.dtls_hmac_finalize
                0x0000000008054e66       0xde contiki-native.a(hmac.o)
                0x0000000008054e66                dtls_hmac_finalize
 .text.netq_malloc_node
                0x0000000008054f44       0x14 contiki-native.a(netq.o)
 .text.netq_free_node
                0x0000000008054f58       0x1b contiki-native.a(netq.o)
 .text.netq_init
                0x0000000008054f73       0x14 contiki-native.a(netq.o)
                0x0000000008054f73                netq_init
 .text.netq_insert_node
                0x0000000008054f87       0xb7 contiki-native.a(netq.o)
                0x0000000008054f87                netq_insert_node
 .text.netq_head
                0x000000000805503e       0x20 contiki-native.a(netq.o)
                0x000000000805503e                netq_head
 .text.netq_next
                0x000000000805505e       0x20 contiki-native.a(netq.o)
                0x000000000805505e                netq_next
 .text.netq_remove
                0x000000000805507e       0x28 contiki-native.a(netq.o)
                0x000000000805507e                netq_remove
 .text.netq_pop_first
                0x00000000080550a6       0x20 contiki-native.a(netq.o)
                0x00000000080550a6                netq_pop_first
 .text.netq_node_new
                0x00000000080550c6       0x4c contiki-native.a(netq.o)
                0x00000000080550c6                netq_node_new
 .text.netq_node_free
                0x0000000008055112       0x19 contiki-native.a(netq.o)
                0x0000000008055112                netq_node_free
 .text.netq_delete_all
                0x000000000805512b       0x2f contiki-native.a(netq.o)
                0x000000000805512b                netq_delete_all
 .text.dtls_clock_init
                0x000000000805515a       0x12 contiki-native.a(dtls_time.o)
                0x000000000805515a                dtls_clock_init
 .text.dtls_ticks
                0x000000000805516c       0x12 contiki-native.a(dtls_time.o)
                0x000000000805516c                dtls_ticks
 .text.peer_init
                0x000000000805517e       0x14 contiki-native.a(peer.o)
                0x000000000805517e                peer_init
 .text.dtls_malloc_peer
                0x0000000008055192       0x14 contiki-native.a(peer.o)
 .text.dtls_free_peer
                0x00000000080551a6       0x45 contiki-native.a(peer.o)
                0x00000000080551a6                dtls_free_peer
 .text.dtls_new_peer
                0x00000000080551eb       0x93 contiki-native.a(peer.o)
                0x00000000080551eb                dtls_new_peer
 .text.dtls_session_init
                0x000000000805527e       0x43 contiki-native.a(session.o)
                0x000000000805527e                dtls_session_init
 .text.dtls_session_equals
                0x00000000080552c1       0x9f contiki-native.a(session.o)
                0x00000000080552c1                dtls_session_equals
 .text.rijndaelKeySetupEnc
                0x0000000008055360      0x610 contiki-native.a(rijndael.o)
                0x0000000008055360                rijndaelKeySetupEnc
 .text.rijndaelEncrypt
                0x0000000008055970      0x613 contiki-native.a(rijndael.o)
                0x0000000008055970                rijndaelEncrypt
 .text.rijndael_set_key_enc_only
                0x0000000008055f83       0x41 contiki-native.a(rijndael.o)
                0x0000000008055f83                rijndael_set_key_enc_only
 .text.rijndael_encrypt
                0x0000000008055fc4       0x2d contiki-native.a(rijndael.o)
                0x0000000008055fc4                rijndael_encrypt
 .text.memxor   0x0000000008055ff1       0x2f contiki-native.a(tinydtls-ccm.o)
 .text.equals   0x0000000008056020       0x44 contiki-native.a(tinydtls-ccm.o)
 .text.dtls_int_to_uint16
                0x0000000008056064       0x2f contiki-native.a(tinydtls-ccm.o)
 .text.block0   0x0000000008056093       0x82 contiki-native.a(tinydtls-ccm.o)
 .text.add_auth_data
                0x0000000008056115      0x1c0 contiki-native.a(tinydtls-ccm.o)
 .text.encrypt  0x00000000080562d5       0xc3 contiki-native.a(tinydtls-ccm.o)
 .text.mac      0x0000000008056398       0x5d contiki-native.a(tinydtls-ccm.o)
 .text.dtls_ccm_encrypt_message
                0x00000000080563f5      0x298 contiki-native.a(tinydtls-ccm.o)
                0x00000000080563f5                dtls_ccm_encrypt_message
 .text.dtls_ccm_decrypt_message
                0x000000000805668d      0x2b2 contiki-native.a(tinydtls-ccm.o)
                0x000000000805668d                dtls_ccm_decrypt_message
 .text.SHA256_Init
                0x000000000805693f       0x5a contiki-native.a(sha2.o)
                0x000000000805693f                SHA256_Init
 .text.SHA256_Transform
                0x0000000008056999      0x3c3 contiki-native.a(sha2.o)
                0x0000000008056999                SHA256_Transform
 .text.SHA256_Update
                0x0000000008056d5c      0x1b6 contiki-native.a(sha2.o)
                0x0000000008056d5c                SHA256_Update
 .text.SHA256_Final
                0x0000000008056f12      0x2a4 contiki-native.a(sha2.o)
                0x0000000008056f12                SHA256_Final
 .text.SHA256_End
                0x00000000080571b6      0x109 contiki-native.a(sha2.o)
                0x00000000080571b6                SHA256_End
 .text.SHA256_Data
                0x00000000080572bf       0x69 contiki-native.a(sha2.o)
                0x00000000080572bf                SHA256_Data
 .text.dtls_package_name
                0x0000000008057328        0xa contiki-native.a(debug.o)
                0x0000000008057328                dtls_package_name
 .text.dtls_package_version
                0x0000000008057332        0xa contiki-native.a(debug.o)
                0x0000000008057332                dtls_package_version
 .text.dtls_get_log_level
                0x000000000805733c        0xa contiki-native.a(debug.o)
                0x000000000805733c                dtls_get_log_level
 .text.dtls_set_log_level
                0x0000000008057346        0xd contiki-native.a(debug.o)
                0x0000000008057346                dtls_set_log_level
 .text.print_timestamp
                0x0000000008057353        0xa contiki-native.a(debug.o)
 .text.dsrv_print_addr
                0x000000000805735d      0x190 contiki-native.a(debug.o)
 .text.hexdump  0x00000000080574ed       0x8c contiki-native.a(debug.o)
                0x00000000080574ed                hexdump
 .text.dump     0x0000000008057579       0x36 contiki-native.a(debug.o)
                0x0000000008057579                dump
 .text.dtls_dsrv_log_addr
                0x00000000080575af       0x76 contiki-native.a(debug.o)
                0x00000000080575af                dtls_dsrv_log_addr
 .text.dtls_dsrv_hexdump_log
                0x0000000008057625      0x16a contiki-native.a(debug.o)
                0x0000000008057625                dtls_dsrv_hexdump_log
 .text.select_set_callback
                0x000000000805778f       0xa4 contiki-native.a(contiki-main.o)
                0x000000000805778f                select_set_callback
 .text.stdin_set_fd
                0x0000000008057833       0x19 contiki-native.a(contiki-main.o)
 .text.stdin_handle_fd
                0x000000000805784c       0x42 contiki-native.a(contiki-main.o)
 .text.set_rime_addr
                0x000000000805788e       0xb8 contiki-native.a(contiki-main.o)
 .text.main     0x0000000008057946      0x30d contiki-native.a(contiki-main.o)
                0x0000000008057946                main
 .text.log_message
                0x0000000008057c53       0x2b contiki-native.a(contiki-main.o)
                0x0000000008057c53                log_message
 .text.uip_log  0x0000000008057c7e       0x24 contiki-native.a(contiki-main.o)
                0x0000000008057c7e                uip_log
 .text.clock_time
                0x0000000008057ca2       0x43 contiki-native.a(clock.o)
                0x0000000008057ca2                clock_time
 .text.clock_seconds
                0x0000000008057ce5       0x1e contiki-native.a(clock.o)
                0x0000000008057ce5                clock_seconds
 .text.clock_delay
                0x0000000008057d03        0x5 contiki-native.a(clock.o)
                0x0000000008057d03                clock_delay
 .text.button_press
                0x0000000008057d08       0x14 contiki-native.a(button-sensor.o)
                0x0000000008057d08                button_press
 .text.value    0x0000000008057d1c        0xa contiki-native.a(button-sensor.o)
 .text.configure
                0x0000000008057d26        0xa contiki-native.a(button-sensor.o)
 .text.status   0x0000000008057d30        0xa contiki-native.a(button-sensor.o)
 .text.pir_sensor_changed
                0x0000000008057d3a       0x24 contiki-native.a(pir-sensor.o)
                0x0000000008057d3a                pir_sensor_changed
 .text.value    0x0000000008057d5e        0xa contiki-native.a(pir-sensor.o)
 .text.configure
                0x0000000008057d68        0xa contiki-native.a(pir-sensor.o)
 .text.status   0x0000000008057d72        0xa contiki-native.a(pir-sensor.o)
 .text.vib_sensor_changed
                0x0000000008057d7c       0x21 contiki-native.a(vib-sensor.o)
                0x0000000008057d7c                vib_sensor_changed
 .text.value    0x0000000008057d9d        0xa contiki-native.a(vib-sensor.o)
 .text.configure
                0x0000000008057da7        0xa contiki-native.a(vib-sensor.o)
 .text.status   0x0000000008057db1        0xa contiki-native.a(vib-sensor.o)
 .text.get_sensor_index
                0x0000000008057dbb       0x3b contiki-native.a(sensors.o)
 .text.sensors_first
                0x0000000008057df6        0xa contiki-native.a(sensors.o)
                0x0000000008057df6                sensors_first
 .text.sensors_next
                0x0000000008057e00       0x1d contiki-native.a(sensors.o)
                0x0000000008057e00                sensors_next
 .text.sensors_changed
                0x0000000008057e1d       0x2f contiki-native.a(sensors.o)
                0x0000000008057e1d                sensors_changed
 .text.sensors_find
                0x0000000008057e4c       0x6b contiki-native.a(sensors.o)
                0x0000000008057e4c                sensors_find
 .text.process_thread_sensors_process
                0x0000000008057eb7      0x1a5 contiki-native.a(sensors.o)
 .text.cfs_open
                0x000000000805805c       0x8a contiki-native.a(cfs-posix.o)
                0x000000000805805c                cfs_open
 .text.cfs_close
                0x00000000080580e6       0x13 contiki-native.a(cfs-posix.o)
                0x00000000080580e6                cfs_close
 .text.cfs_read
                0x00000000080580f9       0x21 contiki-native.a(cfs-posix.o)
                0x00000000080580f9                cfs_read
 .text.cfs_write
                0x000000000805811a       0x21 contiki-native.a(cfs-posix.o)
                0x000000000805811a                cfs_write
 .text.cfs_seek
                0x000000000805813b       0x55 contiki-native.a(cfs-posix.o)
                0x000000000805813b                cfs_seek
 .text.cfs_remove
                0x0000000008058190       0x13 contiki-native.a(cfs-posix.o)
                0x0000000008058190                cfs_remove
 .text.autostart_start
                0x00000000080581a3       0x4b contiki-native.a(autostart.o)
                0x00000000080581a3                autostart_start
 .text.autostart_exit
                0x00000000080581ee       0x43 contiki-native.a(autostart.o)
                0x00000000080581ee                autostart_exit
 .text.process_thread_ctimer_process
                0x0000000008058231      0x117 contiki-native.a(ctimer.o)
 .text.ctimer_init
                0x0000000008058348       0x30 contiki-native.a(ctimer.o)
                0x0000000008058348                ctimer_init
 .text.ctimer_set
                0x0000000008058378       0x31 contiki-native.a(ctimer.o)
                0x0000000008058378                ctimer_set
 .text.ctimer_set_with_process
                0x00000000080583a9       0x7c contiki-native.a(ctimer.o)
                0x00000000080583a9                ctimer_set_with_process
 .text.ctimer_reset
                0x0000000008058425       0x4f contiki-native.a(ctimer.o)
                0x0000000008058425                ctimer_reset
 .text.ctimer_restart
                0x0000000008058474       0x4f contiki-native.a(ctimer.o)
                0x0000000008058474                ctimer_restart
 .text.ctimer_stop
                0x00000000080584c3       0x4b contiki-native.a(ctimer.o)
                0x00000000080584c3                ctimer_stop
 .text.ctimer_expired
                0x000000000805850e       0x57 contiki-native.a(ctimer.o)
                0x000000000805850e                ctimer_expired
 .text.update_time
                0x0000000008058565       0x8f contiki-native.a(etimer.o)
 .text.process_thread_etimer_process
                0x00000000080585f4      0x184 contiki-native.a(etimer.o)
 .text.etimer_request_poll
                0x0000000008058778       0x14 contiki-native.a(etimer.o)
                0x0000000008058778                etimer_request_poll
 .text.add_timer
                0x000000000805878c       0x70 contiki-native.a(etimer.o)
 .text.etimer_set
                0x00000000080587fc       0x25 contiki-native.a(etimer.o)
                0x00000000080587fc                etimer_set
 .text.etimer_reset_with_new_interval
                0x0000000008058821       0x27 contiki-native.a(etimer.o)
                0x0000000008058821                etimer_reset_with_new_interval
 .text.etimer_reset
                0x0000000008058848       0x1e contiki-native.a(etimer.o)
                0x0000000008058848                etimer_reset
 .text.etimer_restart
                0x0000000008058866       0x1e contiki-native.a(etimer.o)
                0x0000000008058866                etimer_restart
 .text.etimer_adjust
                0x0000000008058884       0x1c contiki-native.a(etimer.o)
                0x0000000008058884                etimer_adjust
 .text.etimer_expired
                0x00000000080588a0       0x13 contiki-native.a(etimer.o)
                0x00000000080588a0                etimer_expired
 .text.etimer_expiration_time
                0x00000000080588b3       0x12 contiki-native.a(etimer.o)
                0x00000000080588b3                etimer_expiration_time
 .text.etimer_start_time
                0x00000000080588c5        0xa contiki-native.a(etimer.o)
                0x00000000080588c5                etimer_start_time
 .text.etimer_pending
                0x00000000080588cf       0x12 contiki-native.a(etimer.o)
                0x00000000080588cf                etimer_pending
 .text.etimer_next_expiration_time
                0x00000000080588e1       0x1a contiki-native.a(etimer.o)
                0x00000000080588e1                etimer_next_expiration_time
 .text.etimer_stop
                0x00000000080588fb       0x75 contiki-native.a(etimer.o)
                0x00000000080588fb                etimer_stop
 .text.process_alloc_event
                0x0000000008058970       0x15 contiki-native.a(process.o)
                0x0000000008058970                process_alloc_event
 .text.process_start
                0x0000000008058985       0x6f contiki-native.a(process.o)
                0x0000000008058985                process_start
 .text.exit_process
                0x00000000080589f4       0xea contiki-native.a(process.o)
 .text.call_process
                0x0000000008058ade       0x90 contiki-native.a(process.o)
 .text.process_exit
                0x0000000008058b6e       0x1c contiki-native.a(process.o)
                0x0000000008058b6e                process_exit
 .text.process_init
                0x0000000008058b8a       0x33 contiki-native.a(process.o)
                0x0000000008058b8a                process_init
 .text.do_poll  0x0000000008058bbd       0x5b contiki-native.a(process.o)
 .text.do_event
                0x0000000008058c18      0x114 contiki-native.a(process.o)
 .text.process_run
                0x0000000008058d2c       0x33 contiki-native.a(process.o)
                0x0000000008058d2c                process_run
 .text.process_nevents
                0x0000000008058d5f       0x1b contiki-native.a(process.o)
                0x0000000008058d5f                process_nevents
 .text.process_post
                0x0000000008058d7a       0x95 contiki-native.a(process.o)
                0x0000000008058d7a                process_post
 .text.process_post_synch
                0x0000000008058e0f       0x38 contiki-native.a(process.o)
                0x0000000008058e0f                process_post_synch
 .text.process_poll
                0x0000000008058e47       0x2f contiki-native.a(process.o)
                0x0000000008058e47                process_poll
 .text.process_is_running
                0x0000000008058e76       0x14 contiki-native.a(process.o)
                0x0000000008058e76                process_is_running
 .text.rtimer_init
                0x0000000008058e8a        0xd contiki-native.a(rtimer.o)
                0x0000000008058e8a                rtimer_init
 .text.rtimer_set
                0x0000000008058e97       0x68 contiki-native.a(rtimer.o)
                0x0000000008058e97                rtimer_set
 .text.rtimer_run_next
                0x0000000008058eff       0x5a contiki-native.a(rtimer.o)
                0x0000000008058eff                rtimer_run_next
 .text.timer_set
                0x0000000008058f59       0x1b contiki-native.a(timer.o)
                0x0000000008058f59                timer_set
 .text.timer_reset
                0x0000000008058f74       0x17 contiki-native.a(timer.o)
                0x0000000008058f74                timer_reset
 .text.timer_restart
                0x0000000008058f8b       0x12 contiki-native.a(timer.o)
                0x0000000008058f8b                timer_restart
 .text.timer_expired
                0x0000000008058f9d       0x29 contiki-native.a(timer.o)
                0x0000000008058f9d                timer_expired
 .text.timer_remaining
                0x0000000008058fc6       0x24 contiki-native.a(timer.o)
                0x0000000008058fc6                timer_remaining
 .text.serial_line_input_byte
                0x0000000008058fea       0x7d contiki-native.a(serial-line.o)
                0x0000000008058fea                serial_line_input_byte
 .text.process_thread_serial_line_process
                0x0000000008059067      0x146 contiki-native.a(serial-line.o)
 .text.serial_line_init
                0x00000000080591ad       0x38 contiki-native.a(serial-line.o)
                0x00000000080591ad                serial_line_init
 .text._xassert
                0x00000000080591e5       0x22 contiki-native.a(assert.o)
                0x00000000080591e5                _xassert
 .text.list_init
                0x0000000008059207        0xe contiki-native.a(list.o)
                0x0000000008059207                list_init
 .text.list_head
                0x0000000008059215        0xa contiki-native.a(list.o)
                0x0000000008059215                list_head
 .text.list_copy
                0x000000000805921f        0xf contiki-native.a(list.o)
                0x000000000805921f                list_copy
 .text.list_tail
                0x000000000805922e       0x36 contiki-native.a(list.o)
                0x000000000805922e                list_tail
 .text.list_add
                0x0000000008059264       0x49 contiki-native.a(list.o)
                0x0000000008059264                list_add
 .text.list_push
                0x00000000080592ad       0x2c contiki-native.a(list.o)
                0x00000000080592ad                list_push
 .text.list_chop
                0x00000000080592d9       0x6a contiki-native.a(list.o)
                0x00000000080592d9                list_chop
 .text.list_pop
                0x0000000008059343       0x28 contiki-native.a(list.o)
                0x0000000008059343                list_pop
 .text.list_remove
                0x000000000805936b       0x67 contiki-native.a(list.o)
                0x000000000805936b                list_remove
 .text.list_length
                0x00000000080593d2       0x2e contiki-native.a(list.o)
                0x00000000080593d2                list_length
 .text.list_insert
                0x0000000008059400       0x34 contiki-native.a(list.o)
                0x0000000008059400                list_insert
 .text.list_item_next
                0x0000000008059434       0x17 contiki-native.a(list.o)
                0x0000000008059434                list_item_next
 .text.memb_init
                0x000000000805944b       0x5e contiki-native.a(memb.o)
                0x000000000805944b                memb_init
 .text.memb_alloc
                0x00000000080594a9       0x65 contiki-native.a(memb.o)
                0x00000000080594a9                memb_alloc
 .text.memb_free
                0x000000000805950e       0x7b contiki-native.a(memb.o)
                0x000000000805950e                memb_free
 .text.memb_inmemb
                0x0000000008059589       0x3f contiki-native.a(memb.o)
                0x0000000008059589                memb_inmemb
 .text.memb_numfree
                0x00000000080595c8       0x44 contiki-native.a(memb.o)
                0x00000000080595c8                memb_numfree
 .text.random_init
                0x000000000805960c       0x1b contiki-native.a(random.o)
                0x000000000805960c                random_init
 .text.random_rand
                0x0000000008059627        0xd contiki-native.a(random.o)
                0x0000000008059627                random_rand
 .text.ringbuf_init
                0x0000000008059634       0x31 contiki-native.a(ringbuf.o)
                0x0000000008059634                ringbuf_init
 .text.ringbuf_put
                0x0000000008059665       0x7e contiki-native.a(ringbuf.o)
                0x0000000008059665                ringbuf_put
 .text.ringbuf_get
                0x00000000080596e3       0x6d contiki-native.a(ringbuf.o)
                0x00000000080596e3                ringbuf_get
 .text.ringbuf_size
                0x0000000008059750       0x12 contiki-native.a(ringbuf.o)
                0x0000000008059750                ringbuf_size
 .text.ringbuf_elements
                0x0000000008059762       0x27 contiki-native.a(ringbuf.o)
                0x0000000008059762                ringbuf_elements
 .text.clear_fragments
                0x0000000008059789       0x79 contiki-native.a(sicslowpan.o)
 .text.timeout_fragments
                0x0000000008059802       0x75 contiki-native.a(sicslowpan.o)
 .text.store_fragment
                0x0000000008059877       0xe8 contiki-native.a(sicslowpan.o)
 .text.add_fragment
                0x000000000805995f      0x23e contiki-native.a(sicslowpan.o)
 .text.copy_frags2uip
                0x0000000008059b9d       0xe3 contiki-native.a(sicslowpan.o)
 .text.rime_sniffer_add
                0x0000000008059c80        0xd contiki-native.a(sicslowpan.o)
                0x0000000008059c80                rime_sniffer_add
 .text.rime_sniffer_remove
                0x0000000008059c8d        0xf contiki-native.a(sicslowpan.o)
                0x0000000008059c8d                rime_sniffer_remove
 .text.set_packet_attrs
                0x0000000008059c9c       0xe9 contiki-native.a(sicslowpan.o)
 .text.addr_context_lookup_by_prefix
                0x0000000008059d85       0x7a contiki-native.a(sicslowpan.o)
 .text.addr_context_lookup_by_number
                0x0000000008059dff       0x6a contiki-native.a(sicslowpan.o)
 .text.compress_addr_64
                0x0000000008059e69      0x16c contiki-native.a(sicslowpan.o)
 .text.uncompress_addr
                0x0000000008059fd5      0x120 contiki-native.a(sicslowpan.o)
 .text.compress_hdr_iphc
                0x000000000805a0f5      0x994 contiki-native.a(sicslowpan.o)
 .text.uncompress_hdr_iphc
                0x000000000805aa89      0x7dd contiki-native.a(sicslowpan.o)
 .text.packet_sent
                0x000000000805b266       0x3b contiki-native.a(sicslowpan.o)
 .text.send_packet
                0x000000000805b2a1       0x36 contiki-native.a(sicslowpan.o)
 .text.output   0x000000000805b2d7      0x49d contiki-native.a(sicslowpan.o)
 .text.input    0x000000000805b774      0x458 contiki-native.a(sicslowpan.o)
 .text.sicslowpan_init
                0x000000000805bbcc       0x57 contiki-native.a(sicslowpan.o)
                0x000000000805bbcc                sicslowpan_init
 .text.sicslowpan_get_last_rssi
                0x000000000805bc23        0xa contiki-native.a(sicslowpan.o)
                0x000000000805bc23                sicslowpan_get_last_rssi
 .text.uip_add32
                0x000000000805bc2d       0xea contiki-native.a(uip6.o)
                0x000000000805bc2d                uip_add32
 .text.chksum   0x000000000805bd17       0xaf contiki-native.a(uip6.o)
 .text.uip_chksum
                0x000000000805bdc6       0x35 contiki-native.a(uip6.o)
                0x000000000805bdc6                uip_chksum
 .text.upper_layer_chksum
                0x000000000805bdfb       0xb9 contiki-native.a(uip6.o)
 .text.uip_icmp6chksum
                0x000000000805beb4       0x14 contiki-native.a(uip6.o)
                0x000000000805beb4                uip_icmp6chksum
 .text.uip_tcpchksum
                0x000000000805bec8       0x14 contiki-native.a(uip6.o)
                0x000000000805bec8                uip_tcpchksum
 .text.uip_udpchksum
                0x000000000805bedc       0x14 contiki-native.a(uip6.o)
                0x000000000805bedc                uip_udpchksum
 .text.uip_init
                0x000000000805bef0       0x8b contiki-native.a(uip6.o)
                0x000000000805bef0                uip_init
 .text.uip_connect
                0x000000000805bf7b      0x181 contiki-native.a(uip6.o)
                0x000000000805bf7b                uip_connect
 .text.remove_ext_hdr
                0x000000000805c0fc       0xd5 contiki-native.a(uip6.o)
                0x000000000805c0fc                remove_ext_hdr
 .text.uip_udp_new
                0x000000000805c1d1      0x127 contiki-native.a(uip6.o)
                0x000000000805c1d1                uip_udp_new
 .text.uip_unlisten
                0x000000000805c2f8       0x42 contiki-native.a(uip6.o)
                0x000000000805c2f8                uip_unlisten
 .text.uip_listen
                0x000000000805c33a       0x43 contiki-native.a(uip6.o)
                0x000000000805c33a                uip_listen
 .text.uip_add_rcv_nxt
                0x000000000805c37d       0x64 contiki-native.a(uip6.o)
 .text.ext_hdr_options_process
                0x000000000805c3e1      0x1fd contiki-native.a(uip6.o)
 .text.uip_process
                0x000000000805c5de     0x1cbf contiki-native.a(uip6.o)
                0x000000000805c5de                uip_process
 .text.uip_htons
                0x000000000805e29d       0x22 contiki-native.a(uip6.o)
                0x000000000805e29d                uip_htons
 .text.uip_htonl
                0x000000000805e2bf       0x40 contiki-native.a(uip6.o)
                0x000000000805e2bf                uip_htonl
 .text.uip_send
                0x000000000805e2ff       0xaa contiki-native.a(uip6.o)
                0x000000000805e2ff                uip_send
 .text.uip_ds6_init
                0x000000000805e3a9      0x1d3 contiki-native.a(uip-ds6.o)
                0x000000000805e3a9                uip_ds6_init
 .text.uip_ds6_periodic
                0x000000000805e57c       0x7e contiki-native.a(uip-ds6.o)
                0x000000000805e57c                uip_ds6_periodic
 .text.uip_ds6_list_loop
                0x000000000805e5fa       0xa7 contiki-native.a(uip-ds6.o)
                0x000000000805e5fa                uip_ds6_list_loop
 .text.uip_ds6_prefix_add
                0x000000000805e6a1       0xbe contiki-native.a(uip-ds6.o)
                0x000000000805e6a1                uip_ds6_prefix_add
 .text.uip_ds6_prefix_rm
                0x000000000805e75f       0x12 contiki-native.a(uip-ds6.o)
                0x000000000805e75f                uip_ds6_prefix_rm
 .text.uip_ds6_prefix_lookup
                0x000000000805e771       0x51 contiki-native.a(uip-ds6.o)
                0x000000000805e771                uip_ds6_prefix_lookup
 .text.uip_ds6_is_addr_onlink
                0x000000000805e7c2       0x74 contiki-native.a(uip-ds6.o)
                0x000000000805e7c2                uip_ds6_is_addr_onlink
 .text.uip_ds6_addr_add
                0x000000000805e836      0x12e contiki-native.a(uip-ds6.o)
                0x000000000805e836                uip_ds6_addr_add
 .text.uip_ds6_addr_rm
                0x000000000805e964       0xa0 contiki-native.a(uip-ds6.o)
                0x000000000805e964                uip_ds6_addr_rm
 .text.uip_ds6_addr_lookup
                0x000000000805ea04       0x4b contiki-native.a(uip-ds6.o)
                0x000000000805ea04                uip_ds6_addr_lookup
 .text.uip_ds6_get_link_local
                0x000000000805ea4f       0x7f contiki-native.a(uip-ds6.o)
                0x000000000805ea4f                uip_ds6_get_link_local
 .text.uip_ds6_get_global
                0x000000000805eace       0x7f contiki-native.a(uip-ds6.o)
                0x000000000805eace                uip_ds6_get_global
 .text.uip_ds6_maddr_add
                0x000000000805eb4d       0x72 contiki-native.a(uip-ds6.o)
                0x000000000805eb4d                uip_ds6_maddr_add
 .text.uip_ds6_maddr_rm
                0x000000000805ebbf       0x12 contiki-native.a(uip-ds6.o)
                0x000000000805ebbf                uip_ds6_maddr_rm
 .text.uip_ds6_maddr_lookup
                0x000000000805ebd1       0x4b contiki-native.a(uip-ds6.o)
                0x000000000805ebd1                uip_ds6_maddr_lookup
 .text.uip_ds6_aaddr_add
                0x000000000805ec1c       0x72 contiki-native.a(uip-ds6.o)
                0x000000000805ec1c                uip_ds6_aaddr_add
 .text.uip_ds6_aaddr_rm
                0x000000000805ec8e       0x12 contiki-native.a(uip-ds6.o)
                0x000000000805ec8e                uip_ds6_aaddr_rm
 .text.uip_ds6_aaddr_lookup
                0x000000000805eca0       0x4b contiki-native.a(uip-ds6.o)
                0x000000000805eca0                uip_ds6_aaddr_lookup
 .text.uip_ds6_select_src
                0x000000000805eceb      0x145 contiki-native.a(uip-ds6.o)
                0x000000000805eceb                uip_ds6_select_src
 .text.uip_ds6_set_addr_iid
                0x000000000805ee30       0x37 contiki-native.a(uip-ds6.o)
                0x000000000805ee30                uip_ds6_set_addr_iid
 .text.get_match_length
                0x000000000805ee67       0x92 contiki-native.a(uip-ds6.o)
                0x000000000805ee67                get_match_length
 .text.uip_ds6_compute_reachable_time
                0x000000000805eef9       0x4c contiki-native.a(uip-ds6.o)
                0x000000000805eef9                uip_ds6_compute_reachable_time
 .text.uip_ds6_neighbors_init
                0x000000000805ef45       0x22 contiki-native.a(uip-ds6-nbr.o)
                0x000000000805ef45                uip_ds6_neighbors_init
 .text.uip_ds6_nbr_add
                0x000000000805ef67       0xe2 contiki-native.a(uip-ds6-nbr.o)
                0x000000000805ef67                uip_ds6_nbr_add
 .text.uip_ds6_nbr_rm
                0x000000000805f049       0x42 contiki-native.a(uip-ds6-nbr.o)
                0x000000000805f049                uip_ds6_nbr_rm
 .text.uip_ds6_nbr_get_ipaddr
                0x000000000805f08b       0x15 contiki-native.a(uip-ds6-nbr.o)
                0x000000000805f08b                uip_ds6_nbr_get_ipaddr
 .text.uip_ds6_nbr_get_ll
                0x000000000805f0a0       0x1c contiki-native.a(uip-ds6-nbr.o)
                0x000000000805f0a0                uip_ds6_nbr_get_ll
 .text.uip_ds6_nbr_num
                0x000000000805f0bc       0x45 contiki-native.a(uip-ds6-nbr.o)
                0x000000000805f0bc                uip_ds6_nbr_num
 .text.uip_ds6_nbr_lookup
                0x000000000805f101       0x65 contiki-native.a(uip-ds6-nbr.o)
                0x000000000805f101                uip_ds6_nbr_lookup
 .text.uip_ds6_nbr_ll_lookup
                0x000000000805f166       0x1c contiki-native.a(uip-ds6-nbr.o)
                0x000000000805f166                uip_ds6_nbr_ll_lookup
 .text.uip_ds6_nbr_ipaddr_from_lladdr
                0x000000000805f182       0x26 contiki-native.a(uip-ds6-nbr.o)
                0x000000000805f182                uip_ds6_nbr_ipaddr_from_lladdr
 .text.uip_ds6_nbr_lladdr_from_ipaddr
                0x000000000805f1a8       0x2e contiki-native.a(uip-ds6-nbr.o)
                0x000000000805f1a8                uip_ds6_nbr_lladdr_from_ipaddr
 .text.uip_ds6_link_neighbor_callback
                0x000000000805f1d6       0x62 contiki-native.a(uip-ds6-nbr.o)
                0x000000000805f1d6                uip_ds6_link_neighbor_callback
 .text.uip_ds6_neighbor_periodic
                0x000000000805f238      0x244 contiki-native.a(uip-ds6-nbr.o)
                0x000000000805f238                uip_ds6_neighbor_periodic
 .text.uip_ds6_nbr_refresh_reachable_state
                0x000000000805f47c       0x40 contiki-native.a(uip-ds6-nbr.o)
                0x000000000805f47c                uip_ds6_nbr_refresh_reachable_state
 .text.uip_ds6_get_least_lifetime_neighbor
                0x000000000805f4bc       0x7b contiki-native.a(uip-ds6-nbr.o)
                0x000000000805f4bc                uip_ds6_get_least_lifetime_neighbor
 .text.call_route_callback
                0x000000000805f537       0x77 contiki-native.a(uip-ds6-route.o)
 .text.uip_ds6_notification_add
                0x000000000805f5ae       0x31 contiki-native.a(uip-ds6-route.o)
                0x000000000805f5ae                uip_ds6_notification_add
 .text.uip_ds6_notification_rm
                0x000000000805f5df       0x1c contiki-native.a(uip-ds6-route.o)
                0x000000000805f5df                uip_ds6_notification_rm
 .text.uip_ds6_route_init
                0x000000000805f5fb       0x5c contiki-native.a(uip-ds6-route.o)
                0x000000000805f5fb                uip_ds6_route_init
 .text.uip_ds6_route_nexthop_lladdr
                0x000000000805f657       0x2c contiki-native.a(uip-ds6-route.o)
 .text.uip_ds6_route_nexthop
                0x000000000805f683       0x28 contiki-native.a(uip-ds6-route.o)
                0x000000000805f683                uip_ds6_route_nexthop
 .text.uip_ds6_route_head
                0x000000000805f6ab       0x15 contiki-native.a(uip-ds6-route.o)
                0x000000000805f6ab                uip_ds6_route_head
 .text.uip_ds6_route_next
                0x000000000805f6c0       0x26 contiki-native.a(uip-ds6-route.o)
                0x000000000805f6c0                uip_ds6_route_next
 .text.uip_ds6_route_is_nexthop
                0x000000000805f6e6       0x3f contiki-native.a(uip-ds6-route.o)
                0x000000000805f6e6                uip_ds6_route_is_nexthop
 .text.uip_ds6_route_num_routes
                0x000000000805f725        0xa contiki-native.a(uip-ds6-route.o)
                0x000000000805f725                uip_ds6_route_num_routes
 .text.uip_ds6_route_lookup
                0x000000000805f72f       0xc2 contiki-native.a(uip-ds6-route.o)
                0x000000000805f72f                uip_ds6_route_lookup
 .text.uip_ds6_route_add
                0x000000000805f7f1      0x234 contiki-native.a(uip-ds6-route.o)
                0x000000000805f7f1                uip_ds6_route_add
 .text.uip_ds6_route_rm
                0x000000000805fa25      0x11d contiki-native.a(uip-ds6-route.o)
                0x000000000805fa25                uip_ds6_route_rm
 .text.rm_routelist
                0x000000000805fb42       0x64 contiki-native.a(uip-ds6-route.o)
 .text.rm_routelist_callback
                0x000000000805fba6       0x13 contiki-native.a(uip-ds6-route.o)
 .text.uip_ds6_route_rm_by_nexthop
                0x000000000805fbb9       0x38 contiki-native.a(uip-ds6-route.o)
                0x000000000805fbb9                uip_ds6_route_rm_by_nexthop
 .text.uip_ds6_defrt_head
                0x000000000805fbf1       0x15 contiki-native.a(uip-ds6-route.o)
                0x000000000805fbf1                uip_ds6_defrt_head
 .text.uip_ds6_defrt_add
                0x000000000805fc06       0xb1 contiki-native.a(uip-ds6-route.o)
                0x000000000805fc06                uip_ds6_defrt_add
 .text.uip_ds6_defrt_rm
                0x000000000805fcb7       0x7f contiki-native.a(uip-ds6-route.o)
                0x000000000805fcb7                uip_ds6_defrt_rm
 .text.uip_ds6_defrt_lookup
                0x000000000805fd36       0x59 contiki-native.a(uip-ds6-route.o)
                0x000000000805fd36                uip_ds6_defrt_lookup
 .text.uip_ds6_defrt_choose
                0x000000000805fd8f       0x6b contiki-native.a(uip-ds6-route.o)
                0x000000000805fd8f                uip_ds6_defrt_choose
 .text.uip_ds6_defrt_periodic
                0x000000000805fdfa       0x68 contiki-native.a(uip-ds6-route.o)
                0x000000000805fdfa                uip_ds6_defrt_periodic
 .text.input_handler_lookup
                0x000000000805fe62       0x6e contiki-native.a(uip-icmp6.o)
 .text.uip_icmp6_input
                0x000000000805fed0       0x56 contiki-native.a(uip-icmp6.o)
                0x000000000805fed0                uip_icmp6_input
 .text.uip_icmp6_register_input_handler
                0x000000000805ff26       0x1c contiki-native.a(uip-icmp6.o)
                0x000000000805ff26                uip_icmp6_register_input_handler
 .text.echo_request_input
                0x000000000805ff42      0x1c7 contiki-native.a(uip-icmp6.o)
 .text.uip_icmp6_error_output
                0x0000000008060109      0x340 contiki-native.a(uip-icmp6.o)
                0x0000000008060109                uip_icmp6_error_output
 .text.uip_icmp6_send
                0x0000000008060449      0x107 contiki-native.a(uip-icmp6.o)
                0x0000000008060449                uip_icmp6_send
 .text.echo_reply_input
                0x0000000008060550      0x16d contiki-native.a(uip-icmp6.o)
 .text.uip_icmp6_echo_reply_callback_add
                0x00000000080606bd       0x31 contiki-native.a(uip-icmp6.o)
                0x00000000080606bd                uip_icmp6_echo_reply_callback_add
 .text.uip_icmp6_echo_reply_callback_rm
                0x00000000080606ee       0x1c contiki-native.a(uip-icmp6.o)
                0x00000000080606ee                uip_icmp6_echo_reply_callback_rm
 .text.uip_icmp6_init
                0x000000000806070a       0x20 contiki-native.a(uip-icmp6.o)
                0x000000000806070a                uip_icmp6_init
 .text.extract_lladdr_from_llao_aligned
                0x000000000806072a       0x42 contiki-native.a(uip-nd6.o)
 .text.create_llao
                0x000000000806076c       0x54 contiki-native.a(uip-nd6.o)
 .text.ns_input
                0x00000000080607c0      0x602 contiki-native.a(uip-nd6.o)
 .text.uip_nd6_ns_output
                0x0000000008060dc2      0x2ff contiki-native.a(uip-nd6.o)
                0x0000000008060dc2                uip_nd6_ns_output
 .text.na_input
                0x00000000080610c1      0x430 contiki-native.a(uip-nd6.o)
 .text.uip_nd6_init
                0x00000000080614f1       0x20 contiki-native.a(uip-nd6.o)
                0x00000000080614f1                uip_nd6_init
 .text.decode_name
                0x0000000008061511       0xe8 contiki-native.a(resolv.o)
 .text.dns_name_isequal
                0x00000000080615f9      0x119 contiki-native.a(resolv.o)
 .text.skip_name
                0x0000000008061712       0x48 contiki-native.a(resolv.o)
 .text.encode_name
                0x000000000806175a       0x73 contiki-native.a(resolv.o)
 .text.mdns_announce_requested
                0x00000000080617cd        0xf contiki-native.a(resolv.o)
 .text.start_name_collision_check
                0x00000000080617dc       0x27 contiki-native.a(resolv.o)
 .text.mdns_write_announce_records
                0x0000000008061803      0x155 contiki-native.a(resolv.o)
 .text.mdns_prep_host_announce_packet
                0x0000000008061958       0xf5 contiki-native.a(resolv.o)
 .text.try_next_server
                0x0000000008061a4d       0x48 contiki-native.a(resolv.o)
 .text.check_entries
                0x0000000008061a95      0x2b6 contiki-native.a(resolv.o)
 .text.newdata  0x0000000008061d4b      0x4f9 contiki-native.a(resolv.o)
 .text.resolv_set_hostname
                0x0000000008062244       0x95 contiki-native.a(resolv.o)
                0x0000000008062244                resolv_set_hostname
 .text.resolv_get_hostname
                0x00000000080622d9        0xa contiki-native.a(resolv.o)
                0x00000000080622d9                resolv_get_hostname
 .text.process_thread_mdns_probe_process
                0x00000000080622e3      0x14b contiki-native.a(resolv.o)
 .text.process_thread_resolv_process
                0x000000000806242e      0x1be contiki-native.a(resolv.o)
 .text.init     0x00000000080625ec       0x2e contiki-native.a(resolv.o)
 .text.remove_trailing_dots
                0x000000000806261a       0x7b contiki-native.a(resolv.o)
 .text.resolv_query
                0x0000000008062695      0x208 contiki-native.a(resolv.o)
                0x0000000008062695                resolv_query
 .text.resolv_lookup
                0x000000000806289d       0xcc contiki-native.a(resolv.o)
                0x000000000806289d                resolv_lookup
 .text.resolv_found
                0x0000000008062969      0x1bb contiki-native.a(resolv.o)
 .text.tcpip_output
                0x0000000008062b24       0x2e contiki-native.a(tcpip.o)
                0x0000000008062b24                tcpip_output
 .text.tcpip_set_outputfunc
                0x0000000008062b52        0xd contiki-native.a(tcpip.o)
                0x0000000008062b52                tcpip_set_outputfunc
 .text.start_periodic_tcp_timer
                0x0000000008062b5f       0x24 contiki-native.a(tcpip.o)
 .text.check_for_tcp_syn
                0x0000000008062b83       0x2d contiki-native.a(tcpip.o)
 .text.packet_input
                0x0000000008062bb0       0x36 contiki-native.a(tcpip.o)
 .text.tcp_connect
                0x0000000008062be6       0x55 contiki-native.a(tcpip.o)
                0x0000000008062be6                tcp_connect
 .text.tcp_unlisten
                0x0000000008062c3b       0x5b contiki-native.a(tcpip.o)
                0x0000000008062c3b                tcp_unlisten
 .text.tcp_listen
                0x0000000008062c96       0x59 contiki-native.a(tcpip.o)
                0x0000000008062c96                tcp_listen
 .text.tcp_attach
                0x0000000008062cef       0x25 contiki-native.a(tcpip.o)
                0x0000000008062cef                tcp_attach
 .text.udp_attach
                0x0000000008062d14       0x25 contiki-native.a(tcpip.o)
                0x0000000008062d14                udp_attach
 .text.udp_new  0x0000000008062d39       0x52 contiki-native.a(tcpip.o)
                0x0000000008062d39                udp_new
 .text.udp_broadcast_new
                0x0000000008062d8b       0x92 contiki-native.a(tcpip.o)
                0x0000000008062d8b                udp_broadcast_new
 .text.icmp6_new
                0x0000000008062e1d       0x2c contiki-native.a(tcpip.o)
                0x0000000008062e1d                icmp6_new
 .text.tcpip_icmp6_call
                0x0000000008062e49       0x3a contiki-native.a(tcpip.o)
                0x0000000008062e49                tcpip_icmp6_call
 .text.eventhandler
                0x0000000008062e83      0x1e2 contiki-native.a(tcpip.o)
 .text.tcpip_input
                0x0000000008063065       0x34 contiki-native.a(tcpip.o)
                0x0000000008063065                tcpip_input
 .text.tcpip_ipv6_output
                0x0000000008063099      0x45d contiki-native.a(tcpip.o)
                0x0000000008063099                tcpip_ipv6_output
 .text.tcpip_poll_udp
                0x00000000080634f6       0x23 contiki-native.a(tcpip.o)
                0x00000000080634f6                tcpip_poll_udp
 .text.tcpip_poll_tcp
                0x0000000008063519       0x23 contiki-native.a(tcpip.o)
                0x0000000008063519                tcpip_poll_tcp
 .text.tcpip_uipcall
                0x000000000806353c       0xbd contiki-native.a(tcpip.o)
                0x000000000806353c                tcpip_uipcall
 .text.process_thread_tcpip_process
                0x00000000080635f9       0xc4 contiki-native.a(tcpip.o)
 .text.uip_debug_ipaddr_print
                0x00000000080636bd      0x162 contiki-native.a(uip-debug.o)
                0x00000000080636bd                uip_debug_ipaddr_print
 .text.uiplib_ip6addrconv
                0x000000000806381f      0x1c0 contiki-native.a(uiplib.o)
                0x000000000806381f                uiplib_ip6addrconv
 .text.uiplib_ip4addrconv
                0x00000000080639df       0xc3 contiki-native.a(uiplib.o)
                0x00000000080639df                uiplib_ip4addrconv
 .text.uip_nameserver_update
                0x0000000008063aa2       0x32 contiki-native.a(uip-nameserver.)
                0x0000000008063aa2                uip_nameserver_update
 .text.uip_nameserver_get
                0x0000000008063ad4       0x20 contiki-native.a(uip-nameserver.)
                0x0000000008063ad4                uip_nameserver_get
 .text.uip_nameserver_next_expiration
                0x0000000008063af4        0xa contiki-native.a(uip-nameserver.)
                0x0000000008063af4                uip_nameserver_next_expiration
 .text.uip_nameserver_count
                0x0000000008063afe       0x71 contiki-native.a(uip-nameserver.)
                0x0000000008063afe                uip_nameserver_count
 .text.packet_timedout
                0x0000000008063b6f       0x2c contiki-native.a(uip-packetqueue)
 .text.uip_packetqueue_new
                0x0000000008063b9b        0xe contiki-native.a(uip-packetqueue)
                0x0000000008063b9b                uip_packetqueue_new
 .text.uip_packetqueue_alloc
                0x0000000008063ba9       0x60 contiki-native.a(uip-packetqueue)
                0x0000000008063ba9                uip_packetqueue_alloc
 .text.uip_packetqueue_free
                0x0000000008063c09       0x41 contiki-native.a(uip-packetqueue)
                0x0000000008063c09                uip_packetqueue_free
 .text.uip_packetqueue_buf
                0x0000000008063c4a       0x1d contiki-native.a(uip-packetqueue)
                0x0000000008063c4a                uip_packetqueue_buf
 .text.uip_packetqueue_buflen
                0x0000000008063c67       0x21 contiki-native.a(uip-packetqueue)
                0x0000000008063c67                uip_packetqueue_buflen
 .text.uip_packetqueue_set_buflen
                0x0000000008063c88       0x28 contiki-native.a(uip-packetqueue)
                0x0000000008063c88                uip_packetqueue_set_buflen
 .text.uip_udp_packet_send
                0x0000000008063cb0       0x5c contiki-native.a(uip-udp-packet.)
                0x0000000008063cb0                uip_udp_packet_send
 .text.uip_udp_packet_sendto
                0x0000000008063d0c       0xd1 contiki-native.a(uip-udp-packet.)
                0x0000000008063d0c                uip_udp_packet_sendto
 .text.rpl_get_mode
                0x0000000008063ddd        0xa contiki-native.a(rpl.o)
                0x0000000008063ddd                rpl_get_mode
 .text.rpl_set_mode
                0x0000000008063de7       0x8e contiki-native.a(rpl.o)
                0x0000000008063de7                rpl_set_mode
 .text.rpl_purge_routes
                0x0000000008063e75      0x105 contiki-native.a(rpl.o)
                0x0000000008063e75                rpl_purge_routes
 .text.rpl_remove_routes
                0x0000000008063f7a       0x46 contiki-native.a(rpl.o)
                0x0000000008063f7a                rpl_remove_routes
 .text.rpl_remove_routes_by_nexthop
                0x0000000008063fc0       0x61 contiki-native.a(rpl.o)
                0x0000000008063fc0                rpl_remove_routes_by_nexthop
 .text.rpl_add_route
                0x0000000008064021       0x93 contiki-native.a(rpl.o)
                0x0000000008064021                rpl_add_route
 .text.rpl_link_neighbor_callback
                0x00000000080640b4       0xca contiki-native.a(rpl.o)
                0x00000000080640b4                rpl_link_neighbor_callback
 .text.rpl_ipv6_neighbor_callback
                0x000000000806417e       0x6f contiki-native.a(rpl.o)
                0x000000000806417e                rpl_ipv6_neighbor_callback
 .text.rpl_purge_dags
                0x00000000080641ed       0xe2 contiki-native.a(rpl.o)
                0x00000000080641ed                rpl_purge_dags
 .text.rpl_init
                0x00000000080642cf       0x78 contiki-native.a(rpl.o)
                0x00000000080642cf                rpl_init
 .text.rpl_print_neighbor_list
                0x0000000008064347      0x1e6 contiki-native.a(rpl-dag.o)
                0x0000000008064347                rpl_print_neighbor_list
 .text.rpl_get_nbr
                0x000000000806452d       0x37 contiki-native.a(rpl-dag.o)
                0x000000000806452d                rpl_get_nbr
 .text.nbr_callback
                0x0000000008064564       0x13 contiki-native.a(rpl-dag.o)
 .text.rpl_dag_init
                0x0000000008064577       0x1d contiki-native.a(rpl-dag.o)
                0x0000000008064577                rpl_dag_init
 .text.rpl_get_parent
                0x0000000008064594       0x22 contiki-native.a(rpl-dag.o)
                0x0000000008064594                rpl_get_parent
 .text.rpl_get_parent_rank
                0x00000000080645b6       0x33 contiki-native.a(rpl-dag.o)
                0x00000000080645b6                rpl_get_parent_rank
 .text.rpl_get_parent_link_metric
                0x00000000080645e9       0x57 contiki-native.a(rpl-dag.o)
                0x00000000080645e9                rpl_get_parent_link_metric
 .text.rpl_rank_via_parent
                0x0000000008064640       0x57 contiki-native.a(rpl-dag.o)
                0x0000000008064640                rpl_rank_via_parent
 .text.rpl_get_parent_lladdr
                0x0000000008064697       0x1c contiki-native.a(rpl-dag.o)
                0x0000000008064697                rpl_get_parent_lladdr
 .text.rpl_get_parent_ipaddr
                0x00000000080646b3       0x21 contiki-native.a(rpl-dag.o)
                0x00000000080646b3                rpl_get_parent_ipaddr
 .text.rpl_get_parent_link_stats
                0x00000000080646d4       0x21 contiki-native.a(rpl-dag.o)
                0x00000000080646d4                rpl_get_parent_link_stats
 .text.rpl_parent_is_fresh
                0x00000000080646f5       0x21 contiki-native.a(rpl-dag.o)
                0x00000000080646f5                rpl_parent_is_fresh
 .text.rpl_parent_is_reachable
                0x0000000008064716       0x94 contiki-native.a(rpl-dag.o)
                0x0000000008064716                rpl_parent_is_reachable
 .text.rpl_set_preferred_parent
                0x00000000080647aa       0x4d contiki-native.a(rpl-dag.o)
 .text.lollipop_greater_than
                0x00000000080647f7       0x61 contiki-native.a(rpl-dag.o)
 .text.remove_parents
                0x0000000008064858       0x60 contiki-native.a(rpl-dag.o)
 .text.nullify_parents
                0x00000000080648b8       0x60 contiki-native.a(rpl-dag.o)
 .text.should_refresh_routes
                0x0000000008064918       0x5b contiki-native.a(rpl-dag.o)
 .text.acceptable_rank
                0x0000000008064973       0x8f contiki-native.a(rpl-dag.o)
 .text.get_dag  0x0000000008064a02       0x81 contiki-native.a(rpl-dag.o)
 .text.rpl_set_root
                0x0000000008064a83      0x257 contiki-native.a(rpl-dag.o)
                0x0000000008064a83                rpl_set_root
 .text.rpl_repair_root
                0x0000000008064cda       0xd6 contiki-native.a(rpl-dag.o)
                0x0000000008064cda                rpl_repair_root
 .text.set_ip_from_prefix
                0x0000000008064db0       0x66 contiki-native.a(rpl-dag.o)
 .text.check_prefix
                0x0000000008064e16      0x100 contiki-native.a(rpl-dag.o)
 .text.rpl_set_prefix
                0x0000000008064f16       0xff contiki-native.a(rpl-dag.o)
                0x0000000008064f16                rpl_set_prefix
 .text.rpl_set_default_route
                0x0000000008065015       0x6e contiki-native.a(rpl-dag.o)
                0x0000000008065015                rpl_set_default_route
 .text.rpl_alloc_instance
                0x0000000008065083       0x93 contiki-native.a(rpl-dag.o)
                0x0000000008065083                rpl_alloc_instance
 .text.rpl_alloc_dag
                0x0000000008065116       0xb1 contiki-native.a(rpl-dag.o)
                0x0000000008065116                rpl_alloc_dag
 .text.rpl_set_default_instance
                0x00000000080651c7        0xd contiki-native.a(rpl-dag.o)
                0x00000000080651c7                rpl_set_default_instance
 .text.rpl_get_default_instance
                0x00000000080651d4        0xa contiki-native.a(rpl-dag.o)
                0x00000000080651d4                rpl_get_default_instance
 .text.rpl_free_instance
                0x00000000080651de       0xaf contiki-native.a(rpl-dag.o)
                0x00000000080651de                rpl_free_instance
 .text.rpl_free_dag
                0x000000000806528d       0x81 contiki-native.a(rpl-dag.o)
                0x000000000806528d                rpl_free_dag
 .text.rpl_add_parent
                0x000000000806530e       0x75 contiki-native.a(rpl-dag.o)
                0x000000000806530e                rpl_add_parent
 .text.find_parent_any_dag_any_instance
                0x0000000008065383       0x38 contiki-native.a(rpl-dag.o)
 .text.rpl_find_parent
                0x00000000080653bb       0x30 contiki-native.a(rpl-dag.o)
                0x00000000080653bb                rpl_find_parent
 .text.find_parent_dag
                0x00000000080653eb       0x28 contiki-native.a(rpl-dag.o)
 .text.rpl_find_parent_any_dag
                0x0000000008065413       0x3c contiki-native.a(rpl-dag.o)
                0x0000000008065413                rpl_find_parent_any_dag
 .text.rpl_select_dag
                0x000000000806544f      0x322 contiki-native.a(rpl-dag.o)
                0x000000000806544f                rpl_select_dag
 .text.best_parent
                0x0000000008065771       0xfd contiki-native.a(rpl-dag.o)
 .text.rpl_select_parent
                0x000000000806586e       0xda contiki-native.a(rpl-dag.o)
                0x000000000806586e                rpl_select_parent
 .text.rpl_remove_parent
                0x0000000008065948       0x27 contiki-native.a(rpl-dag.o)
                0x0000000008065948                rpl_remove_parent
 .text.rpl_nullify_parent
                0x000000000806596f       0xc1 contiki-native.a(rpl-dag.o)
                0x000000000806596f                rpl_nullify_parent
 .text.rpl_move_parent
                0x0000000008065a30       0xb8 contiki-native.a(rpl-dag.o)
                0x0000000008065a30                rpl_move_parent
 .text.rpl_has_downward_route
                0x0000000008065ae8       0x53 contiki-native.a(rpl-dag.o)
                0x0000000008065ae8                rpl_has_downward_route
 .text.rpl_get_dag
                0x0000000008065b3b       0xec contiki-native.a(rpl-dag.o)
                0x0000000008065b3b                rpl_get_dag
 .text.rpl_get_any_dag
                0x0000000008065c27       0x62 contiki-native.a(rpl-dag.o)
                0x0000000008065c27                rpl_get_any_dag
 .text.rpl_get_instance
                0x0000000008065c89       0x63 contiki-native.a(rpl-dag.o)
                0x0000000008065c89                rpl_get_instance
 .text.rpl_find_of
                0x0000000008065cec       0x3d contiki-native.a(rpl-dag.o)
                0x0000000008065cec                rpl_find_of
 .text.rpl_join_instance
                0x0000000008065d29      0x2c0 contiki-native.a(rpl-dag.o)
                0x0000000008065d29                rpl_join_instance
 .text.rpl_add_dag
                0x0000000008065fe9      0x27c contiki-native.a(rpl-dag.o)
                0x0000000008065fe9                rpl_add_dag
 .text.global_repair
                0x0000000008066265      0x154 contiki-native.a(rpl-dag.o)
 .text.rpl_local_repair
                0x00000000080663b9       0xd8 contiki-native.a(rpl-dag.o)
                0x00000000080663b9                rpl_local_repair
 .text.rpl_recalculate_ranks
                0x0000000008066491       0x86 contiki-native.a(rpl-dag.o)
                0x0000000008066491                rpl_recalculate_ranks
 .text.rpl_process_parent_event
                0x0000000008066517       0xfb contiki-native.a(rpl-dag.o)
                0x0000000008066517                rpl_process_parent_event
 .text.add_nbr_from_dio
                0x0000000008066612       0x32 contiki-native.a(rpl-dag.o)
 .text.rpl_process_dio
                0x0000000008066644      0x4da contiki-native.a(rpl-dag.o)
                0x0000000008066644                rpl_process_dio
 .text.rpl_verify_hbh_header
                0x0000000008066b1e      0x2c8 contiki-native.a(rpl-ext-header.)
                0x0000000008066b1e                rpl_verify_hbh_header
 .text.update_hbh_header
                0x0000000008066de6      0x2b8 contiki-native.a(rpl-ext-header.)
 .text.insert_hbh_header
                0x000000000806709e      0x203 contiki-native.a(rpl-ext-header.)
 .text.rpl_remove_header
                0x00000000080672a1      0x163 contiki-native.a(rpl-ext-header.)
                0x00000000080672a1                rpl_remove_header
 .text.rpl_update_header
                0x0000000008067404       0xcc contiki-native.a(rpl-ext-header.)
                0x0000000008067404                rpl_update_header
 .text.prepare_for_dao_fwd
                0x00000000080674d0       0x6c contiki-native.a(rpl-icmp6.o)
 .text.get_global_addr
                0x000000000806753c       0xb3 contiki-native.a(rpl-icmp6.o)
 .text.get32    0x00000000080675ef       0x57 contiki-native.a(rpl-icmp6.o)
 .text.set32    0x0000000008067646       0x62 contiki-native.a(rpl-icmp6.o)
 .text.get16    0x00000000080676a8       0x2b contiki-native.a(rpl-icmp6.o)
 .text.set16    0x00000000080676d3       0x3f contiki-native.a(rpl-icmp6.o)
 .text.rpl_icmp6_update_nbr_table
                0x0000000008067712       0x5b contiki-native.a(rpl-icmp6.o)
                0x0000000008067712                rpl_icmp6_update_nbr_table
 .text.dis_input
                0x000000000806776d       0x95 contiki-native.a(rpl-icmp6.o)
 .text.dis_output
                0x0000000008067802       0xaf contiki-native.a(rpl-icmp6.o)
                0x0000000008067802                dis_output
 .text.dio_input
                0x00000000080678b1      0x58a contiki-native.a(rpl-icmp6.o)
 .text.dio_output
                0x0000000008067e3b      0x622 contiki-native.a(rpl-icmp6.o)
                0x0000000008067e3b                dio_output
 .text.dao_input_storing
                0x000000000806845d      0x6d8 contiki-native.a(rpl-icmp6.o)
 .text.dao_input
                0x0000000008068b35       0x5f contiki-native.a(rpl-icmp6.o)
 .text.dao_output
                0x0000000008068b94       0xbb contiki-native.a(rpl-icmp6.o)
                0x0000000008068b94                dao_output
 .text.dao_output_target
                0x0000000008068c4f       0x36 contiki-native.a(rpl-icmp6.o)
                0x0000000008068c4f                dao_output_target
 .text.dao_output_target_seq
                0x0000000008068c85      0x2ff contiki-native.a(rpl-icmp6.o)
 .text.dao_ack_input
                0x0000000008068f84       0x15 contiki-native.a(rpl-icmp6.o)
 .text.dao_ack_output
                0x0000000008068f99       0x14 contiki-native.a(rpl-icmp6.o)
                0x0000000008068f99                dao_ack_output
 .text.rpl_icmp6_register_handlers
                0x0000000008068fad       0x38 contiki-native.a(rpl-icmp6.o)
                0x0000000008068fad                rpl_icmp6_register_handlers
 .text.reset    0x0000000008068fe5        0x5 contiki-native.a(rpl-mrhof.o)
 .text.parent_link_metric
                0x0000000008068fea       0x29 contiki-native.a(rpl-mrhof.o)
 .text.parent_path_cost
                0x0000000008069013       0x6d contiki-native.a(rpl-mrhof.o)
 .text.rank_via_parent
                0x0000000008069080       0x72 contiki-native.a(rpl-mrhof.o)
 .text.parent_is_acceptable
                0x00000000080690f2       0x42 contiki-native.a(rpl-mrhof.o)
 .text.parent_has_usable_link
                0x0000000008069134       0x23 contiki-native.a(rpl-mrhof.o)
 .text.best_parent
                0x0000000008069157       0xf7 contiki-native.a(rpl-mrhof.o)
 .text.best_dag
                0x000000000806924e       0x75 contiki-native.a(rpl-mrhof.o)
 .text.update_metric_container
                0x00000000080692c3        0xb contiki-native.a(rpl-mrhof.o)
 .text.handle_periodic_timer
                0x00000000080692ce       0x84 contiki-native.a(rpl-timers.o)
 .text.new_dio_interval
                0x0000000008069352       0xca contiki-native.a(rpl-timers.o)
 .text.handle_dio_timer
                0x000000000806941c      0x12d contiki-native.a(rpl-timers.o)
 .text.rpl_reset_periodic_timer
                0x0000000008069549       0x55 contiki-native.a(rpl-timers.o)
                0x0000000008069549                rpl_reset_periodic_timer
 .text.rpl_reset_dio_timer
                0x000000000806959e       0x48 contiki-native.a(rpl-timers.o)
                0x000000000806959e                rpl_reset_dio_timer
 .text.set_dao_lifetime_timer
                0x00000000080695e6       0x8c contiki-native.a(rpl-timers.o)
 .text.handle_dao_timer
                0x0000000008069672       0xb1 contiki-native.a(rpl-timers.o)
 .text.schedule_dao
                0x0000000008069723       0xa2 contiki-native.a(rpl-timers.o)
 .text.rpl_schedule_dao
                0x00000000080697c5       0x1b contiki-native.a(rpl-timers.o)
                0x00000000080697c5                rpl_schedule_dao
 .text.rpl_schedule_dao_immediately
                0x00000000080697e0       0x1b contiki-native.a(rpl-timers.o)
                0x00000000080697e0                rpl_schedule_dao_immediately
 .text.rpl_cancel_dao
                0x00000000080697fb       0x28 contiki-native.a(rpl-timers.o)
                0x00000000080697fb                rpl_cancel_dao
 .text.handle_unicast_dio_timer
                0x0000000008069823       0x3a contiki-native.a(rpl-timers.o)
 .text.rpl_schedule_unicast_dio_immediately
                0x000000000806985d       0x30 contiki-native.a(rpl-timers.o)
                0x000000000806985d                rpl_schedule_unicast_dio_immediately
 .text.get_probing_delay
                0x000000000806988d       0x7f contiki-native.a(rpl-timers.o)
                0x000000000806988d                get_probing_delay
 .text.get_probing_target
                0x000000000806990c      0x18c contiki-native.a(rpl-timers.o)
                0x000000000806990c                get_probing_target
 .text.handle_probing_timer
                0x0000000008069a98       0x6b contiki-native.a(rpl-timers.o)
 .text.rpl_schedule_probing
                0x0000000008069b03       0x3a contiki-native.a(rpl-timers.o)
                0x0000000008069b03                rpl_schedule_probing
 .text.linkaddr_copy
                0x0000000008069b3d       0x22 contiki-native.a(linkaddr.o)
                0x0000000008069b3d                linkaddr_copy
 .text.linkaddr_cmp
                0x0000000008069b5f       0x2a contiki-native.a(linkaddr.o)
                0x0000000008069b5f                linkaddr_cmp
 .text.linkaddr_set_node_addr
                0x0000000008069b89       0x1b contiki-native.a(linkaddr.o)
                0x0000000008069b89                linkaddr_set_node_addr
 .text.link_stats_from_lladdr
                0x0000000008069ba4       0x1c contiki-native.a(link-stats.o)
                0x0000000008069ba4                link_stats_from_lladdr
 .text.link_stats_is_fresh
                0x0000000008069bc0       0x39 contiki-native.a(link-stats.o)
                0x0000000008069bc0                link_stats_is_fresh
 .text.guess_etx_from_rssi
                0x0000000008069bf9       0x7c contiki-native.a(link-stats.o)
                0x0000000008069bf9                guess_etx_from_rssi
 .text.link_stats_packet_sent
                0x0000000008069c75      0x10e contiki-native.a(link-stats.o)
                0x0000000008069c75                link_stats_packet_sent
 .text.link_stats_input_callback
                0x0000000008069d83       0xaf contiki-native.a(link-stats.o)
                0x0000000008069d83                link_stats_input_callback
 .text.periodic
                0x0000000008069e32       0x54 contiki-native.a(link-stats.o)
 .text.link_stats_init
                0x0000000008069e86       0x41 contiki-native.a(link-stats.o)
                0x0000000008069e86                link_stats_init
 .text.key_from_index
                0x0000000008069ec7       0x26 contiki-native.a(nbr-table.o)
 .text.item_from_index
                0x0000000008069eed       0x2a contiki-native.a(nbr-table.o)
 .text.index_from_key
                0x0000000008069f17       0x27 contiki-native.a(nbr-table.o)
 .text.index_from_item
                0x0000000008069f3e       0x32 contiki-native.a(nbr-table.o)
 .text.item_from_key
                0x0000000008069f70       0x22 contiki-native.a(nbr-table.o)
 .text.key_from_item
                0x0000000008069f92       0x22 contiki-native.a(nbr-table.o)
 .text.index_from_lladdr
                0x0000000008069fb4       0x6c contiki-native.a(nbr-table.o)
 .text.nbr_get_bit
                0x000000000806a020       0x54 contiki-native.a(nbr-table.o)
 .text.nbr_set_bit
                0x000000000806a074       0x98 contiki-native.a(nbr-table.o)
 .text.remove_key
                0x000000000806a10c       0xb7 contiki-native.a(nbr-table.o)
 .text.nbr_table_allocate
                0x000000000806a1c3      0x173 contiki-native.a(nbr-table.o)
 .text.nbr_table_register
                0x000000000806a336       0x48 contiki-native.a(nbr-table.o)
                0x000000000806a336                nbr_table_register
 .text.nbr_table_head
                0x000000000806a37e       0x5c contiki-native.a(nbr-table.o)
                0x000000000806a37e                nbr_table_head
 .text.nbr_table_next
                0x000000000806a3da       0x67 contiki-native.a(nbr-table.o)
                0x000000000806a3da                nbr_table_next
 .text.nbr_table_add_lladdr
                0x000000000806a441       0xdc contiki-native.a(nbr-table.o)
                0x000000000806a441                nbr_table_add_lladdr
 .text.nbr_table_get_from_lladdr
                0x000000000806a51d       0x4d contiki-native.a(nbr-table.o)
                0x000000000806a51d                nbr_table_get_from_lladdr
 .text.nbr_table_remove
                0x000000000806a56a       0x52 contiki-native.a(nbr-table.o)
                0x000000000806a56a                nbr_table_remove
 .text.nbr_table_lock
                0x000000000806a5bc       0x2a contiki-native.a(nbr-table.o)
                0x000000000806a5bc                nbr_table_lock
 .text.nbr_table_unlock
                0x000000000806a5e6       0x2a contiki-native.a(nbr-table.o)
                0x000000000806a5e6                nbr_table_unlock
 .text.nbr_table_get_lladdr
                0x000000000806a610       0x30 contiki-native.a(nbr-table.o)
                0x000000000806a610                nbr_table_get_lladdr
 .text.nbr_table_update_lladdr
                0x000000000806a640       0x96 contiki-native.a(nbr-table.o)
                0x000000000806a640                nbr_table_update_lladdr
 .text.netstack_init
                0x000000000806a6d6       0x2b contiki-native.a(netstack.o)
                0x000000000806a6d6                netstack_init
 .text.packetbuf_clear
                0x000000000806a701       0x2a contiki-native.a(packetbuf.o)
                0x000000000806a701                packetbuf_clear
 .text.packetbuf_copyfrom
                0x000000000806a72b       0x52 contiki-native.a(packetbuf.o)
                0x000000000806a72b                packetbuf_copyfrom
 .text.packetbuf_compact
                0x000000000806a77d       0x7d contiki-native.a(packetbuf.o)
                0x000000000806a77d                packetbuf_compact
 .text.packetbuf_copyto
                0x000000000806a7fa       0x97 contiki-native.a(packetbuf.o)
                0x000000000806a7fa                packetbuf_copyto
 .text.packetbuf_hdralloc
                0x000000000806a891       0x7d contiki-native.a(packetbuf.o)
                0x000000000806a891                packetbuf_hdralloc
 .text.packetbuf_hdrreduce
                0x000000000806a90e       0x48 contiki-native.a(packetbuf.o)
                0x000000000806a90e                packetbuf_hdrreduce
 .text.packetbuf_set_datalen
                0x000000000806a956       0x19 contiki-native.a(packetbuf.o)
                0x000000000806a956                packetbuf_set_datalen
 .text.packetbuf_dataptr
                0x000000000806a96f       0x1d contiki-native.a(packetbuf.o)
                0x000000000806a96f                packetbuf_dataptr
 .text.packetbuf_hdrptr
                0x000000000806a98c        0xa contiki-native.a(packetbuf.o)
                0x000000000806a98c                packetbuf_hdrptr
 .text.packetbuf_datalen
                0x000000000806a996        0xc contiki-native.a(packetbuf.o)
                0x000000000806a996                packetbuf_datalen
 .text.packetbuf_hdrlen
                0x000000000806a9a2       0x17 contiki-native.a(packetbuf.o)
                0x000000000806a9a2                packetbuf_hdrlen
 .text.packetbuf_totlen
                0x000000000806a9b9       0x16 contiki-native.a(packetbuf.o)
                0x000000000806a9b9                packetbuf_totlen
 .text.packetbuf_remaininglen
                0x000000000806a9cf       0x13 contiki-native.a(packetbuf.o)
                0x000000000806a9cf                packetbuf_remaininglen
 .text.packetbuf_attr_clear
                0x000000000806a9e2       0x52 contiki-native.a(packetbuf.o)
                0x000000000806a9e2                packetbuf_attr_clear
 .text.packetbuf_attr_copyto
                0x000000000806aa34       0x49 contiki-native.a(packetbuf.o)
                0x000000000806aa34                packetbuf_attr_copyto
 .text.packetbuf_attr_copyfrom
                0x000000000806aa7d       0x48 contiki-native.a(packetbuf.o)
                0x000000000806aa7d                packetbuf_attr_copyfrom
 .text.packetbuf_set_attr
                0x000000000806aac5       0x2a contiki-native.a(packetbuf.o)
                0x000000000806aac5                packetbuf_set_attr
 .text.packetbuf_attr
                0x000000000806aaef       0x1a contiki-native.a(packetbuf.o)
                0x000000000806aaef                packetbuf_attr
 .text.packetbuf_set_addr
                0x000000000806ab09       0x32 contiki-native.a(packetbuf.o)
                0x000000000806ab09                packetbuf_set_addr
 .text.packetbuf_addr
                0x000000000806ab3b       0x1d contiki-native.a(packetbuf.o)
                0x000000000806ab3b                packetbuf_addr
 .text.packetbuf_holds_broadcast
                0x000000000806ab58       0x1c contiki-native.a(packetbuf.o)
                0x000000000806ab58                packetbuf_holds_broadcast
 .text.queuebuf_load_to_ram
                0x000000000806ab74        0xa contiki-native.a(queuebuf.o)
 .text.queuebuf_init
                0x000000000806ab7e       0x20 contiki-native.a(queuebuf.o)
                0x000000000806ab7e                queuebuf_init
 .text.queuebuf_numfree
                0x000000000806ab9e       0x14 contiki-native.a(queuebuf.o)
                0x000000000806ab9e                queuebuf_numfree
 .text.queuebuf_new_from_packetbuf
                0x000000000806abb2       0x90 contiki-native.a(queuebuf.o)
                0x000000000806abb2                queuebuf_new_from_packetbuf
 .text.queuebuf_update_attr_from_packetbuf
                0x000000000806ac42       0x33 contiki-native.a(queuebuf.o)
                0x000000000806ac42                queuebuf_update_attr_from_packetbuf
 .text.queuebuf_update_from_packetbuf
                0x000000000806ac75       0x4a contiki-native.a(queuebuf.o)
                0x000000000806ac75                queuebuf_update_from_packetbuf
 .text.queuebuf_free
                0x000000000806acbf       0x47 contiki-native.a(queuebuf.o)
                0x000000000806acbf                queuebuf_free
 .text.queuebuf_to_packetbuf
                0x000000000806ad06       0x66 contiki-native.a(queuebuf.o)
                0x000000000806ad06                queuebuf_to_packetbuf
 .text.queuebuf_dataptr
                0x000000000806ad6c       0x37 contiki-native.a(queuebuf.o)
                0x000000000806ad6c                queuebuf_dataptr
 .text.queuebuf_datalen
                0x000000000806ada3       0x23 contiki-native.a(queuebuf.o)
                0x000000000806ada3                queuebuf_datalen
 .text.queuebuf_addr
                0x000000000806adc6       0x32 contiki-native.a(queuebuf.o)
                0x000000000806adc6                queuebuf_addr
 .text.queuebuf_attr
                0x000000000806adf8       0x2b contiki-native.a(queuebuf.o)
                0x000000000806adf8                queuebuf_attr
 .text.queuebuf_debug_print
                0x000000000806ae23        0x5 contiki-native.a(queuebuf.o)
                0x000000000806ae23                queuebuf_debug_print
 .text.create_frame
                0x000000000806ae28      0x1eb contiki-native.a(framer-802154.o)
 .text.hdr_length
                0x000000000806b013       0x1c contiki-native.a(framer-802154.o)
 .text.create   0x000000000806b02f       0x1c contiki-native.a(framer-802154.o)
 .text.parse    0x000000000806b04b      0x143 contiki-native.a(framer-802154.o)
 .text.send_packet
                0x000000000806b18e       0x1c contiki-native.a(nullmac.o)
 .text.packet_input
                0x000000000806b1aa        0xf contiki-native.a(nullmac.o)
 .text.on       0x000000000806b1b9        0xf contiki-native.a(nullmac.o)
 .text.off      0x000000000806b1c8       0x15 contiki-native.a(nullmac.o)
 .text.channel_check_interval
                0x000000000806b1dd        0xa contiki-native.a(nullmac.o)
 .text.init     0x000000000806b1e7        0x5 contiki-native.a(nullmac.o)
 .text.send_one_packet
                0x000000000806b1ec       0xbc contiki-native.a(nullrdc.o)
 .text.send_packet
                0x000000000806b2a8       0x1a contiki-native.a(nullrdc.o)
 .text.send_list
                0x000000000806b2c2       0x49 contiki-native.a(nullrdc.o)
 .text.packet_input
                0x000000000806b30b       0x52 contiki-native.a(nullrdc.o)
 .text.on       0x000000000806b35d        0xf contiki-native.a(nullrdc.o)
 .text.off      0x000000000806b36c       0x1e contiki-native.a(nullrdc.o)
 .text.channel_check_interval
                0x000000000806b38a        0xa contiki-native.a(nullrdc.o)
 .text.init     0x000000000806b394        0xd contiki-native.a(nullrdc.o)
 .text.init     0x000000000806b3a1        0x5 contiki-native.a(nullsec.o)
 .text.send     0x000000000806b3a6       0x30 contiki-native.a(nullsec.o)
 .text.input    0x000000000806b3d6        0xf contiki-native.a(nullsec.o)
 .text.interrupt
                0x000000000806b3e5       0x20 contiki-native.a(rtimer-arch.o)
 .text.rtimer_arch_init
                0x000000000806b405       0x1c contiki-native.a(rtimer-arch.o)
                0x000000000806b405                rtimer_arch_init
 .text.rtimer_arch_schedule
                0x000000000806b421       0x95 contiki-native.a(rtimer-arch.o)
                0x000000000806b421                rtimer_arch_schedule
 .text.watchdog_init
                0x000000000806b4b6        0x5 contiki-native.a(watchdog.o)
                0x000000000806b4b6                watchdog_init
 .text.watchdog_start
                0x000000000806b4bb        0x5 contiki-native.a(watchdog.o)
                0x000000000806b4bb                watchdog_start
 .text.watchdog_periodic
                0x000000000806b4c0        0x5 contiki-native.a(watchdog.o)
                0x000000000806b4c0                watchdog_periodic
 .text.watchdog_stop
                0x000000000806b4c5        0x5 contiki-native.a(watchdog.o)
                0x000000000806b4c5                watchdog_stop
 .text.watchdog_reboot
                0x000000000806b4ca       0x12 contiki-native.a(watchdog.o)
                0x000000000806b4ca                watchdog_reboot
 .text.stimer_set
                0x000000000806b4dc       0x1b contiki-native.a(stimer.o)
                0x000000000806b4dc                stimer_set
 .text.stimer_reset
                0x000000000806b4f7       0x17 contiki-native.a(stimer.o)
                0x000000000806b4f7                stimer_reset
 .text.stimer_restart
                0x000000000806b50e       0x12 contiki-native.a(stimer.o)
                0x000000000806b50e                stimer_restart
 .text.stimer_expired
                0x000000000806b520       0x27 contiki-native.a(stimer.o)
                0x000000000806b520                stimer_expired
 .text.stimer_remaining
                0x000000000806b547       0x24 contiki-native.a(stimer.o)
                0x000000000806b547                stimer_remaining
 .text.stimer_elapsed
                0x000000000806b56b       0x14 contiki-native.a(stimer.o)
                0x000000000806b56b                stimer_elapsed
 .text.init     0x000000000806b57f        0xa contiki-native.a(nullradio.o)
 .text.prepare  0x000000000806b589       0x14 contiki-native.a(nullradio.o)
 .text.transmit
                0x000000000806b59d       0x14 contiki-native.a(nullradio.o)
 .text.send     0x000000000806b5b1       0x2e contiki-native.a(nullradio.o)
 .text.radio_read
                0x000000000806b5df       0x14 contiki-native.a(nullradio.o)
 .text.channel_clear
                0x000000000806b5f3        0xa contiki-native.a(nullradio.o)
 .text.receiving_packet
                0x000000000806b5fd        0xa contiki-native.a(nullradio.o)
 .text.pending_packet
                0x000000000806b607        0xa contiki-native.a(nullradio.o)
 .text.on       0x000000000806b611        0xa contiki-native.a(nullradio.o)
 .text.off      0x000000000806b61b        0xa contiki-native.a(nullradio.o)
 .text.get_value
                0x000000000806b625        0xa contiki-native.a(nullradio.o)
 .text.set_value
                0x000000000806b62f        0xa contiki-native.a(nullradio.o)
 .text.get_object
                0x000000000806b639        0xa contiki-native.a(nullradio.o)
 .text.set_object
                0x000000000806b643        0xa contiki-native.a(nullradio.o)
 .text.handle_periodic_timer
                0x000000000806b64d       0x19 contiki-native.a(rpl-nbr-policy.)
 .text.update_nbr
                0x000000000806b666      0x1b7 contiki-native.a(rpl-nbr-policy.)
 .text.find_removable_dis
                0x000000000806b81d       0x23 contiki-native.a(rpl-nbr-policy.)
                0x000000000806b81d                find_removable_dis
 .text.find_removable_dio
                0x000000000806b840       0x81 contiki-native.a(rpl-nbr-policy.)
                0x000000000806b840                find_removable_dio
 .text.find_removable_dao
                0x000000000806b8c1       0x50 contiki-native.a(rpl-nbr-policy.)
                0x000000000806b8c1                find_removable_dao
 .text.rpl_nbr_policy_find_removable
                0x000000000806b911       0x57 contiki-native.a(rpl-nbr-policy.)
                0x000000000806b911                rpl_nbr_policy_find_removable
 .text.addr_len
                0x000000000806b968       0x31 contiki-native.a(frame802154.o)
 .text.frame802154_get_pan_id
                0x000000000806b999        0xc contiki-native.a(frame802154.o)
                0x000000000806b999                frame802154_get_pan_id
 .text.frame802154_set_pan_id
                0x000000000806b9a5       0x19 contiki-native.a(frame802154.o)
                0x000000000806b9a5                frame802154_set_pan_id
 .text.frame802154_has_panid
                0x000000000806b9be      0x1ad contiki-native.a(frame802154.o)
                0x000000000806b9be                frame802154_has_panid
 .text.frame802154_check_dest_panid
                0x000000000806bb6b       0x6f contiki-native.a(frame802154.o)
                0x000000000806bb6b                frame802154_check_dest_panid
 .text.frame802154_is_broadcast_addr
                0x000000000806bbda       0x4d contiki-native.a(frame802154.o)
                0x000000000806bbda                frame802154_is_broadcast_addr
 .text.frame802154_extract_linkaddr
                0x000000000806bc27      0x148 contiki-native.a(frame802154.o)
                0x000000000806bc27                frame802154_extract_linkaddr
 .text.field_len
                0x000000000806bd6f       0xf8 contiki-native.a(frame802154.o)
 .text.frame802154_hdrlen
                0x000000000806be67       0x51 contiki-native.a(frame802154.o)
                0x000000000806be67                frame802154_hdrlen
 .text.frame802154_create_fcf
                0x000000000806beb8       0xb7 contiki-native.a(frame802154.o)
                0x000000000806beb8                frame802154_create_fcf
 .text.frame802154_create
                0x000000000806bf6f      0x14d contiki-native.a(frame802154.o)
                0x000000000806bf6f                frame802154_create
 .text.frame802154_parse_fcf
                0x000000000806c0bc       0xb9 contiki-native.a(frame802154.o)
                0x000000000806c0bc                frame802154_parse_fcf
 .text.frame802154_parse
                0x000000000806c175      0x280 contiki-native.a(frame802154.o)
                0x000000000806c175                frame802154_parse
 .text.mac_call_sent_callback
                0x000000000806c3f5       0x3c contiki-native.a(mac.o)
                0x000000000806c3f5                mac_call_sent_callback
 *fill*         0x000000000806c431        0xf 
 .text          0x000000000806c440       0x72 /usr/lib/i386-linux-gnu/libc_nonshared.a(elf-init.oS)
                0x000000000806c440                __libc_csu_init
                0x000000000806c4b0                __libc_csu_fini
 *(.gnu.warning)

.fini           0x000000000806c4b4       0x14
 *(SORT(.fini))
 .fini          0x000000000806c4b4        0xf /usr/lib/gcc/i686-linux-gnu/4.8/../../../i386-linux-gnu/crti.o
                0x000000000806c4b4                _fini
 .fini          0x000000000806c4c3        0x5 /usr/lib/gcc/i686-linux-gnu/4.8/../../../i386-linux-gnu/crtn.o
                0x000000000806c4c8                PROVIDE (__etext, .)
                0x000000000806c4c8                PROVIDE (_etext, .)
                0x000000000806c4c8                PROVIDE (etext, .)

.rodata         0x000000000806c4e0     0x2cd8
 *(.rodata .rodata.* .gnu.linkonce.r.*)
 .rodata        0x000000000806c4e0        0x4 /usr/lib/gcc/i686-linux-gnu/4.8/../../../i386-linux-gnu/crt1.o
                0x000000000806c4e0                _fp_hw
 .rodata.cst4   0x000000000806c4e4        0x4 /usr/lib/gcc/i686-linux-gnu/4.8/../../../i386-linux-gnu/crt1.o
                0x000000000806c4e4                _IO_stdin_used
 *fill*         0x000000000806c4e8       0x18 
 .rodata        0x000000000806c500      0x2e6 dtls-client.co
                0x000000000806c574                autostart_processes
 *fill*         0x000000000806c7e6        0x2 
 .rodata        0x000000000806c7e8      0xdbd contiki-native.a(dtls.o)
 *fill*         0x000000000806d5a5        0x3 
 .rodata        0x000000000806d5a8       0x8c contiki-native.a(tinydtls-crypto)
 .rodata        0x000000000806d634       0x21 contiki-native.a(hmac.o)
 *fill*         0x000000000806d655        0x3 
 .rodata        0x000000000806d658       0x37 contiki-native.a(netq.o)
 .rodata        0x000000000806d68f        0xe contiki-native.a(peer.o)
 *fill*         0x000000000806d69d        0x3 
 .rodata        0x000000000806d6a0       0x24 contiki-native.a(session.o)
 *fill*         0x000000000806d6c4       0x1c 
 .rodata        0x000000000806d6e0     0x1428 contiki-native.a(rijndael.o)
 .rodata        0x000000000806eb08       0x29 contiki-native.a(tinydtls-ccm.o)
 *fill*         0x000000000806eb31        0xf 
 .rodata        0x000000000806eb40      0x15a contiki-native.a(sha2.o)
 .rodata        0x000000000806ec9a       0x7a contiki-native.a(debug.o)
 .rodata        0x000000000806ed14       0xc0 contiki-native.a(contiki-main.o)
 .rodata        0x000000000806edd4       0x18 contiki-native.a(button-sensor.o)
                0x000000000806eddc                button_sensor
 .rodata        0x000000000806edec       0x14 contiki-native.a(pir-sensor.o)
                0x000000000806edf0                pir_sensor
 .rodata        0x000000000806ee00       0x1c contiki-native.a(vib-sensor.o)
                0x000000000806ee0c                vib_sensor
 .rodata        0x000000000806ee1c        0x8 contiki-native.a(sensors.o)
 .rodata        0x000000000806ee24        0xf contiki-native.a(ctimer.o)
 .rodata        0x000000000806ee33        0xc contiki-native.a(etimer.o)
 .rodata        0x000000000806ee3f        0xe contiki-native.a(serial-line.o)
 *fill*         0x000000000806ee4d        0x3 
 .rodata        0x000000000806ee50       0x25 contiki-native.a(assert.o)
 *fill*         0x000000000806ee75        0x3 
 .rodata        0x000000000806ee78       0x2c contiki-native.a(sicslowpan.o)
                0x000000000806ee78                unc_llconf
                0x000000000806ee7c                unc_ctxconf
                0x000000000806ee80                unc_mxconf
                0x000000000806ee84                llprefix
                0x000000000806ee98                sicslowpan_driver
 .rodata        0x000000000806eea4      0x13c contiki-native.a(uip6.o)
 .rodata        0x000000000806efe0       0x4a contiki-native.a(resolv.o)
 .rodata        0x000000000806f02a        0xd contiki-native.a(tcpip.o)
 .rodata        0x000000000806f037       0x28 contiki-native.a(uip-debug.o)
 *fill*         0x000000000806f05f        0x1 
 .rodata        0x000000000806f060       0x88 contiki-native.a(rpl-dag.o)
 .rodata        0x000000000806f0e8        0x8 contiki-native.a(linkaddr.o)
                0x000000000806f0e8                linkaddr_null
 .rodata        0x000000000806f0f0        0xc contiki-native.a(framer-802154.o)
                0x000000000806f0f0                framer_802154
 .rodata        0x000000000806f0fc       0x24 contiki-native.a(nullmac.o)
                0x000000000806f104                nullmac_driver
 .rodata        0x000000000806f120       0x40 contiki-native.a(nullrdc.o)
                0x000000000806f140                nullrdc_driver
 .rodata        0x000000000806f160       0x18 contiki-native.a(nullsec.o)
                0x000000000806f168                nullsec_driver
 *fill*         0x000000000806f178        0x8 
 .rodata        0x000000000806f180       0x38 contiki-native.a(nullradio.o)
                0x000000000806f180                nullradio_driver

.rodata1
 *(.rodata1)

.eh_frame_hdr   0x000000000806f1b8     0x165c
 *(.eh_frame_hdr)
 .eh_frame_hdr  0x000000000806f1b8     0x165c dtls-client.co

.eh_frame       0x0000000008070814     0x5c04
 *(.eh_frame)
 .eh_frame      0x0000000008070814       0x40 /usr/lib/gcc/i686-linux-gnu/4.8/../../../i386-linux-gnu/crt1.o
 .eh_frame      0x0000000008070854      0x1c0 dtls-client.co
                                        0x200 (size before relaxing)
 .eh_frame      0x0000000008070a14      0xbbc contiki-native.a(dtls.o)
                                        0xbd4 (size before relaxing)
 .eh_frame      0x00000000080715d0      0x2a0 contiki-native.a(tinydtls-crypto)
                                        0x2b8 (size before relaxing)
 .eh_frame      0x0000000008071870      0x160 contiki-native.a(hmac.o)
                                        0x178 (size before relaxing)
 .eh_frame      0x00000000080719d0      0x160 contiki-native.a(netq.o)
                                        0x178 (size before relaxing)
 .eh_frame      0x0000000008071b30       0x40 contiki-native.a(dtls_time.o)
                                         0x58 (size before relaxing)
 .eh_frame      0x0000000008071b70       0x80 contiki-native.a(peer.o)
                                         0x98 (size before relaxing)
 .eh_frame      0x0000000008071bf0       0x40 contiki-native.a(session.o)
                                         0x58 (size before relaxing)
 .eh_frame      0x0000000008071c30       0x80 contiki-native.a(rijndael.o)
                                         0x98 (size before relaxing)
 .eh_frame      0x0000000008071cb0      0x144 contiki-native.a(tinydtls-ccm.o)
                                        0x15c (size before relaxing)
 .eh_frame      0x0000000008071df4       0xec contiki-native.a(sha2.o)
                                        0x104 (size before relaxing)
 .eh_frame      0x0000000008071ee0      0x148 contiki-native.a(debug.o)
                                        0x160 (size before relaxing)
 .eh_frame      0x0000000008072028       0xdc contiki-native.a(contiki-main.o)
                                         0xf4 (size before relaxing)
 .eh_frame      0x0000000008072104       0x64 contiki-native.a(clock.o)
                                         0x7c (size before relaxing)
 .eh_frame      0x0000000008072168       0x80 contiki-native.a(button-sensor.o)
                                         0x98 (size before relaxing)
 .eh_frame      0x00000000080721e8       0x80 contiki-native.a(pir-sensor.o)
                                         0x98 (size before relaxing)
 .eh_frame      0x0000000008072268       0x80 contiki-native.a(vib-sensor.o)
                                         0x98 (size before relaxing)
 .eh_frame      0x00000000080722e8       0xc0 contiki-native.a(sensors.o)
                                         0xd8 (size before relaxing)
 .eh_frame      0x00000000080723a8       0xc0 contiki-native.a(cfs-posix.o)
                                         0xd8 (size before relaxing)
 .eh_frame      0x0000000008072468       0x40 contiki-native.a(autostart.o)
                                         0x58 (size before relaxing)
 .eh_frame      0x00000000080724a8      0x100 contiki-native.a(ctimer.o)
                                        0x118 (size before relaxing)
 .eh_frame      0x00000000080725a8      0x1e0 contiki-native.a(etimer.o)
                                        0x1f8 (size before relaxing)
 .eh_frame      0x0000000008072788      0x1c8 contiki-native.a(process.o)
                                        0x1e0 (size before relaxing)
 .eh_frame      0x0000000008072950       0x60 contiki-native.a(rtimer.o)
                                         0x78 (size before relaxing)
 .eh_frame      0x00000000080729b0       0xa4 contiki-native.a(timer.o)
                                         0xbc (size before relaxing)
 .eh_frame      0x0000000008072a54       0x60 contiki-native.a(serial-line.o)
                                         0x78 (size before relaxing)
 .eh_frame      0x0000000008072ab4       0x20 contiki-native.a(assert.o)
                                         0x38 (size before relaxing)
 .eh_frame      0x0000000008072ad4      0x180 contiki-native.a(list.o)
                                        0x198 (size before relaxing)
 .eh_frame      0x0000000008072c54       0xa0 contiki-native.a(memb.o)
                                         0xb8 (size before relaxing)
 .eh_frame      0x0000000008072cf4       0x40 contiki-native.a(random.o)
                                         0x58 (size before relaxing)
 .eh_frame      0x0000000008072d34       0xa0 contiki-native.a(ringbuf.o)
                                         0xb8 (size before relaxing)
 .eh_frame      0x0000000008072dd4      0x2b0 contiki-native.a(sicslowpan.o)
                                        0x2e8 (size before relaxing)
 .eh_frame      0x0000000008073084      0x27c contiki-native.a(uip6.o)
                                        0x294 (size before relaxing)
 .eh_frame      0x0000000008073300      0x2c8 contiki-native.a(uip-ds6.o)
                                        0x2e0 (size before relaxing)
 .eh_frame      0x00000000080735c8      0x1c0 contiki-native.a(uip-ds6-nbr.o)
                                        0x1d8 (size before relaxing)
 .eh_frame      0x0000000008073788      0x2c0 contiki-native.a(uip-ds6-route.o)
                                        0x2d8 (size before relaxing)
 .eh_frame      0x0000000008073a48      0x15c contiki-native.a(uip-icmp6.o)
                                        0x174 (size before relaxing)
 .eh_frame      0x0000000008073ba4       0xd8 contiki-native.a(uip-nd6.o)
                                         0xf0 (size before relaxing)
 .eh_frame      0x0000000008073c7c      0x2ac contiki-native.a(resolv.o)
                                        0x2c4 (size before relaxing)
 .eh_frame      0x0000000008073f28      0x2b0 contiki-native.a(tcpip.o)
                                        0x2c8 (size before relaxing)
 .eh_frame      0x00000000080741d8       0x28 contiki-native.a(uip-debug.o)
                                         0x40 (size before relaxing)
 .eh_frame      0x0000000008074200       0x48 contiki-native.a(uiplib.o)
                                         0x60 (size before relaxing)
 .eh_frame      0x0000000008074248       0x80 contiki-native.a(uip-nameserver.)
                                         0x98 (size before relaxing)
 .eh_frame      0x00000000080742c8       0xe0 contiki-native.a(uip-packetqueue)
                                         0xf8 (size before relaxing)
 .eh_frame      0x00000000080743a8       0x40 contiki-native.a(uip-udp-packet.)
                                         0x58 (size before relaxing)
 .eh_frame      0x00000000080743e8      0x140 contiki-native.a(rpl.o)
                                        0x158 (size before relaxing)
 .eh_frame      0x0000000008074528      0x720 contiki-native.a(rpl-dag.o)
                                        0x738 (size before relaxing)
 .eh_frame      0x0000000008074c48       0xa0 contiki-native.a(rpl-ext-header.)
                                         0xb8 (size before relaxing)
 .eh_frame      0x0000000008074ce8      0x278 contiki-native.a(rpl-icmp6.o)
                                        0x2b0 (size before relaxing)
 .eh_frame      0x0000000008074f60      0x124 contiki-native.a(rpl-mrhof.o)
                                        0x13c (size before relaxing)
 .eh_frame      0x0000000008075084      0x22c contiki-native.a(rpl-timers.o)
                                        0x244 (size before relaxing)
 .eh_frame      0x00000000080752b0       0x60 contiki-native.a(linkaddr.o)
                                         0x78 (size before relaxing)
 .eh_frame      0x0000000008075310       0xe0 contiki-native.a(link-stats.o)
                                         0xf8 (size before relaxing)
 .eh_frame      0x00000000080753f0      0x2ac contiki-native.a(nbr-table.o)
                                        0x2c4 (size before relaxing)
 .eh_frame      0x000000000807569c       0x20 contiki-native.a(netstack.o)
                                         0x38 (size before relaxing)
 .eh_frame      0x00000000080756bc      0x2b4 contiki-native.a(packetbuf.o)
                                        0x2cc (size before relaxing)
 .eh_frame      0x0000000008075970      0x1a0 contiki-native.a(queuebuf.o)
                                        0x1b8 (size before relaxing)
 .eh_frame      0x0000000008075b10       0x88 contiki-native.a(framer-802154.o)
                                         0xa0 (size before relaxing)
 .eh_frame      0x0000000008075b98       0xc0 contiki-native.a(nullmac.o)
                                         0xd8 (size before relaxing)
 .eh_frame      0x0000000008075c58      0x108 contiki-native.a(nullrdc.o)
                                        0x120 (size before relaxing)
 .eh_frame      0x0000000008075d60       0x60 contiki-native.a(nullsec.o)
                                         0x78 (size before relaxing)
 .eh_frame      0x0000000008075dc0       0x60 contiki-native.a(rtimer-arch.o)
                                         0x78 (size before relaxing)
 .eh_frame      0x0000000008075e20       0x9c contiki-native.a(watchdog.o)
                                         0xb4 (size before relaxing)
 .eh_frame      0x0000000008075ebc       0xc4 contiki-native.a(stimer.o)
                                         0xdc (size before relaxing)
 .eh_frame      0x0000000008075f80      0x1c0 contiki-native.a(nullradio.o)
                                        0x1d8 (size before relaxing)
 .eh_frame      0x0000000008076140       0xc0 contiki-native.a(rpl-nbr-policy.)
                                         0xd8 (size before relaxing)
 .eh_frame      0x0000000008076200      0x1a4 contiki-native.a(frame802154.o)
                                        0x1bc (size before relaxing)
 .eh_frame      0x00000000080763a4       0x20 contiki-native.a(mac.o)
                                         0x38 (size before relaxing)
 .eh_frame      0x00000000080763c4       0x50 /usr/lib/i386-linux-gnu/libc_nonshared.a(elf-init.oS)
                                         0x7c (size before relaxing)
 .eh_frame      0x0000000008076414        0x4 /usr/lib/gcc/i686-linux-gnu/4.8/crtend.o

.gcc_except_table
 *(.gcc_except_table .gcc_except_table.*)

.exception_ranges
 *(.exception_ranges .exception_ranges*)
                0x0000000008076418                . = (ALIGN (0x1000) - ((0x1000 - .) & 0xfff))
                0x0000000008077f08                . = DATA_SEGMENT_ALIGN (0x1000, 0x1000)

.eh_frame
 *(.eh_frame)

.gcc_except_table
 *(.gcc_except_table .gcc_except_table.*)

.exception_ranges
 *(.exception_ranges .exception_ranges*)

.tdata
 *(.tdata .tdata.* .gnu.linkonce.td.*)

.tbss
 *(.tbss .tbss.* .gnu.linkonce.tb.*)
 *(.tcommon)

.preinit_array  0x0000000008077f08        0x0
                0x0000000008077f08                PROVIDE (__preinit_array_start, .)
 *(.preinit_array)
                0x0000000008077f08                PROVIDE (__preinit_array_end, .)

.init_array     0x0000000008077f08        0x4
                0x0000000008077f08                PROVIDE (__init_array_start, .)
 *(SORT(.init_array.*) SORT(.ctors.*))
 *(.init_array EXCLUDE_FILE(*crtend?.o *crtend.o *crtbegin?.o *crtbegin.o) .ctors)
 .init_array    0x0000000008077f08        0x4 /usr/lib/gcc/i686-linux-gnu/4.8/crtbegin.o
                0x0000000008077f0c                PROVIDE (__init_array_end, .)

.fini_array     0x0000000008077f0c        0x4
                0x0000000008077f0c                PROVIDE (__fini_array_start, .)
 *(SORT(.fini_array.*) SORT(.dtors.*))
 *(.fini_array EXCLUDE_FILE(*crtend?.o *crtend.o *crtbegin?.o *crtbegin.o) .dtors)
 .fini_array    0x0000000008077f0c        0x4 /usr/lib/gcc/i686-linux-gnu/4.8/crtbegin.o
                0x0000000008077f10                PROVIDE (__fini_array_end, .)

.ctors
 *crtbegin.o(.ctors)
 *crtbegin?.o(.ctors)
 *(EXCLUDE_FILE(*crtend?.o *crtend.o) .ctors)
 *(SORT(.ctors.*))
 *(.ctors)

.dtors
 *crtbegin.o(.dtors)
 *crtbegin?.o(.dtors)
 *(EXCLUDE_FILE(*crtend?.o *crtend.o) .dtors)
 *(SORT(.dtors.*))
 *(.dtors)

.jcr            0x0000000008077f10        0x4
 *(.jcr)
 .jcr           0x0000000008077f10        0x0 /usr/lib/gcc/i686-linux-gnu/4.8/crtbegin.o
 .jcr           0x0000000008077f10        0x4 /usr/lib/gcc/i686-linux-gnu/4.8/crtend.o

.data.rel.ro
 *(.data.rel.ro.local* .gnu.linkonce.d.rel.ro.local.*)
 *(.data.rel.ro .data.rel.ro.* .gnu.linkonce.d.rel.ro.*)

.dynamic        0x0000000008077f14       0xe8
 *(.dynamic)
 .dynamic       0x0000000008077f14       0xe8 /usr/lib/gcc/i686-linux-gnu/4.8/../../../i386-linux-gnu/crt1.o
                0x0000000008077f14                _DYNAMIC

.got            0x0000000008077ffc        0x4
 *(.got)
 .got           0x0000000008077ffc        0x4 /usr/lib/gcc/i686-linux-gnu/4.8/../../../i386-linux-gnu/crt1.o
 *(.igot)
                0x0000000008078ff4                . = DATA_SEGMENT_RELRO_END (., (SIZEOF (.got.plt) >= 0xc)?0xc:0x0)

.got.plt        0x0000000008078000       0x9c
 *(.got.plt)
 .got.plt       0x0000000008078000       0x9c /usr/lib/gcc/i686-linux-gnu/4.8/../../../i386-linux-gnu/crt1.o
                0x0000000008078000                _GLOBAL_OFFSET_TABLE_
 *(.igot.plt)
 .igot.plt      0x0000000000000000        0x0 /usr/lib/gcc/i686-linux-gnu/4.8/../../../i386-linux-gnu/crt1.o

.data           0x00000000080780a0      0x326
 *(.data .data.* .gnu.linkonce.d.*)
 .data          0x00000000080780a0        0x4 /usr/lib/gcc/i686-linux-gnu/4.8/../../../i386-linux-gnu/crt1.o
                0x00000000080780a0                data_start
                0x00000000080780a0                __data_start
 *fill*         0x00000000080780a4       0x1c 
 .data          0x00000000080780c0       0xb5 dtls-client.co
                0x00000000080780c0                cfs_buf
                0x00000000080780d0                packet_count
                0x00000000080780d4                udp_client_process
 *fill*         0x0000000008078175        0x3 
 .data          0x0000000008078178       0x10 contiki-native.a(dtls.o)
                0x0000000008078178                dtls_retransmit_process
 .data          0x0000000008078188       0x18 contiki-native.a(tinydtls-crypto)
 .data          0x00000000080781a0        0xc contiki-native.a(hmac.o)
 .data          0x00000000080781ac        0xc contiki-native.a(netq.o)
 .data          0x00000000080781b8        0xc contiki-native.a(peer.o)
 .data          0x00000000080781c4        0x4 contiki-native.a(sha2.o)
 .data          0x00000000080781c8       0x20 contiki-native.a(debug.o)
 .data          0x00000000080781e8       0x18 contiki-native.a(contiki-main.o)
                0x00000000080781e8                sensors
 .data          0x0000000008078200       0x10 contiki-native.a(sensors.o)
                0x0000000008078200                sensors_process
 .data          0x0000000008078210       0x14 contiki-native.a(ctimer.o)
                0x0000000008078214                ctimer_process
 .data          0x0000000008078224       0x10 contiki-native.a(etimer.o)
                0x0000000008078224                etimer_process
 .data          0x0000000008078234       0x10 contiki-native.a(serial-line.o)
                0x0000000008078234                serial_line_process
 .data          0x0000000008078244       0x14 contiki-native.a(uip-ds6-nbr.o)
                0x0000000008078254                ds6_neighbors
 .data          0x0000000008078258       0x44 contiki-native.a(uip-ds6-route.o)
                0x0000000008078268                nbr_routes
 .data          0x000000000807829c       0x20 contiki-native.a(uip-icmp6.o)
 .data          0x00000000080782bc       0x18 contiki-native.a(uip-nd6.o)
 .data          0x00000000080782d4       0x20 contiki-native.a(resolv.o)
                0x00000000080782d4                resolv_process
                0x00000000080782e4                mdns_probe_process
 .data          0x00000000080782f4       0x10 contiki-native.a(tcpip.o)
                0x00000000080782f4                tcpip_process
 .data          0x0000000008078304        0xc contiki-native.a(uip-packetqueue)
 .data          0x0000000008078310       0x14 contiki-native.a(rpl-dag.o)
                0x0000000008078320                rpl_parents
 .data          0x0000000008078324       0x34 contiki-native.a(rpl-icmp6.o)
 *fill*         0x0000000008078358        0x8 
 .data          0x0000000008078360       0x24 contiki-native.a(rpl-mrhof.o)
                0x0000000008078360                rpl_mrhof
 .data          0x0000000008078384       0x14 contiki-native.a(link-stats.o)
 .data          0x0000000008078398       0x10 contiki-native.a(nbr-table.o)
 .data          0x00000000080783a8        0x4 contiki-native.a(packetbuf.o)
 .data          0x00000000080783ac       0x18 contiki-native.a(queuebuf.o)
 .data          0x00000000080783c4        0x2 contiki-native.a(frame802154.o)

.tm_clone_table
                0x00000000080783c8        0x0
 .tm_clone_table
                0x00000000080783c8        0x0 /usr/lib/gcc/i686-linux-gnu/4.8/crtbegin.o
 .tm_clone_table
                0x00000000080783c8        0x0 /usr/lib/gcc/i686-linux-gnu/4.8/crtend.o

.data1
 *(.data1)
                0x00000000080783c8                _edata = .
                0x00000000080783c8                PROVIDE (edata, .)
                0x00000000080783c8                . = .
                0x00000000080783c8                __bss_start = .

.bss            0x00000000080783e0     0x4a30
 *(.dynbss)
 .dynbss        0x00000000080783e0       0x24 /usr/lib/gcc/i686-linux-gnu/4.8/../../../i386-linux-gnu/crt1.o
                0x00000000080783e0                stderr@@GLIBC_2.0
                0x0000000008078400                stdout@@GLIBC_2.0
 *(.bss .bss.* .gnu.linkonce.b.*)
 .bss           0x0000000008078404        0x1 /usr/lib/gcc/i686-linux-gnu/4.8/crtbegin.o
 *fill*         0x0000000008078405       0x1b 
 .bss           0x0000000008078420      0x1c0 dtls-client.co
                0x0000000008078420                iv
 .bss           0x00000000080785e0      0x145 contiki-native.a(dtls.o)
 *fill*         0x0000000008078725       0x1b 
 .bss           0x0000000008078740      0x274 contiki-native.a(tinydtls-crypto)
 *fill*         0x00000000080789b4        0xc 
 .bss           0x00000000080789c0      0x410 contiki-native.a(hmac.o)
 *fill*         0x0000000008078dd0       0x10 
 .bss           0x0000000008078de0      0x470 contiki-native.a(netq.o)
 *fill*         0x0000000008079250       0x10 
 .bss           0x0000000008079260       0x80 contiki-native.a(peer.o)
 .bss           0x00000000080792e0        0x4 contiki-native.a(tinydtls-ccm.o)
 *fill*         0x00000000080792e4       0x1c 
 .bss           0x0000000008079300       0x20 contiki-native.a(debug.o)
 .bss           0x0000000008079320       0x44 contiki-native.a(contiki-main.o)
                0x0000000008079320                contiki_argc
 .bss           0x0000000008079364        0x4 contiki-native.a(pir-sensor.o)
 .bss           0x0000000008079368        0x4 contiki-native.a(vib-sensor.o)
 .bss           0x000000000807936c        0xc contiki-native.a(sensors.o)
 .bss           0x0000000008079378        0x5 contiki-native.a(ctimer.o)
 *fill*         0x000000000807937d        0x3 
 .bss           0x0000000008079380        0x8 contiki-native.a(etimer.o)
 *fill*         0x0000000008079388       0x18 
 .bss           0x00000000080793a0      0x1a1 contiki-native.a(process.o)
                0x00000000080793a0                process_list
                0x00000000080793a4                process_current
 *fill*         0x0000000008079541        0x3 
 .bss           0x0000000008079544        0x4 contiki-native.a(rtimer.o)
 *fill*         0x0000000008079548       0x18 
 .bss           0x0000000008079560      0x140 contiki-native.a(serial-line.o)
 .bss           0x00000000080796a0      0x70c contiki-native.a(sicslowpan.o)
 .bss           0x0000000008079dac        0xa contiki-native.a(uip6.o)
                0x0000000008079dac                uip_ext_bitmap
                0x0000000008079dad                uip_ext_len
                0x0000000008079dae                uip_ext_opt_offset
 *fill*         0x0000000008079db6        0x2 
 .bss           0x0000000008079db8       0x20 contiki-native.a(uip-ds6.o)
 *fill*         0x0000000008079dd8        0x8 
 .bss           0x0000000008079de0      0x528 contiki-native.a(uip-ds6-nbr.o)
 *fill*         0x000000000807a308       0x18 
 .bss           0x000000000807a320      0x744 contiki-native.a(uip-ds6-route.o)
 .bss           0x000000000807aa64       0x18 contiki-native.a(uip-icmp6.o)
 .bss           0x000000000807aa7c       0x14 contiki-native.a(uip-nd6.o)
 *fill*         0x000000000807aa90       0x10 
 .bss           0x000000000807aaa0      0x1a1 contiki-native.a(resolv.o)
 *fill*         0x000000000807ac41       0x1f 
 .bss           0x000000000807ac60      0x168 contiki-native.a(tcpip.o)
 .bss           0x000000000807adc8       0x14 contiki-native.a(uip-nameserver.)
 *fill*         0x000000000807addc        0x4 
 .bss           0x000000000807ade0      0x3c0 contiki-native.a(uip-packetqueue)
 .bss           0x000000000807b1a0        0x4 contiki-native.a(rpl.o)
 *fill*         0x000000000807b1a4       0x1c 
 .bss           0x000000000807b1c0       0xf0 contiki-native.a(rpl-dag.o)
 *fill*         0x000000000807b2b0       0x10 
 .bss           0x000000000807b2c0       0x23 contiki-native.a(rpl-timers.o)
 *fill*         0x000000000807b2e3       0x1d 
 .bss           0x000000000807b300      0x168 contiki-native.a(link-stats.o)
 *fill*         0x000000000807b468       0x18 
 .bss           0x000000000807b480      0x20c contiki-native.a(nbr-table.o)
 *fill*         0x000000000807b68c       0x14 
 .bss           0x000000000807b6a0       0xa0 contiki-native.a(packetbuf.o)
 .bss           0x000000000807b740      0x5e0 contiki-native.a(queuebuf.o)
 .bss           0x000000000807bd20        0x2 contiki-native.a(framer-802154.o)
 *fill*         0x000000000807bd22       0x1e 
 .bss           0x000000000807bd40       0x44 contiki-native.a(rpl-nbr-policy.)
 *(COMMON)
 *fill*         0x000000000807bd84       0x1c 
 COMMON         0x000000000807bda0      0x160 dtls-client.co
                0x000000000807bda0                fd_read
                0x000000000807bda4                j
                0x000000000807bdc0                read_buf
                0x000000000807beec                data_len
                0x000000000807bef0                fd_write
                0x000000000807bef4                filename
                0x000000000807bef8                iterator
                0x000000000807befc                it
 COMMON         0x000000000807bf00        0x4 contiki-native.a(dtls_time.o)
                0x000000000807bf00                dtls_clock_offset
 COMMON         0x000000000807bf04        0x8 contiki-native.a(contiki-main.o)
                0x000000000807bf04                contiki_argv
                0x000000000807bf08                sensors_flags
 COMMON         0x000000000807bf0c        0x1 contiki-native.a(sensors.o)
                0x000000000807bf0c                sensors_event
 COMMON         0x000000000807bf0d        0x1 contiki-native.a(serial-line.o)
                0x000000000807bf0d                serial_line_event_message
 *fill*         0x000000000807bf0e       0x12 
 COMMON         0x000000000807bf20      0xb6c contiki-native.a(uip6.o)
                0x000000000807bf20                uip_slen
                0x000000000807bf22                uip_acc32
                0x000000000807bf40                uip_conns
                0x000000000807c6c0                uip_icmp6_conns
                0x000000000807c6c8                uip_lladdr
                0x000000000807c6d0                uip_appdata
                0x000000000807c6d4                uip_flags
                0x000000000807c6e0                uip_aligned_buf
                0x000000000807c8a0                uip_listenports
                0x000000000807c8f0                uip_len
                0x000000000807c8f4                uip_sappdata
                0x000000000807c900                uip_udp_conns
                0x000000000807ca80                uip_udp_conn
                0x000000000807ca84                uip_next_hdr
                0x000000000807ca88                uip_conn
 *fill*         0x000000000807ca8c       0x14 
 COMMON         0x000000000807caa0      0x181 contiki-native.a(uip-ds6.o)
                0x000000000807caa0                uip_ds6_prefix_list
                0x000000000807cb00                uip_ds6_timer_periodic
                0x000000000807cb10                uip_ds6_netif_addr_list_offset
                0x000000000807cb20                uip_ds6_if
                0x000000000807cc18                uip_ds6_timer_ra
                0x000000000807cc20                uip_ds6_addr_size
 COMMON         0x000000000807cc21        0x1 contiki-native.a(resolv.o)
                0x000000000807cc21                resolv_event_found
 COMMON         0x000000000807cc22        0x2 contiki-native.a(tcpip.o)
                0x000000000807cc22                tcpip_icmp6_event
                0x000000000807cc23                tcpip_event
 *fill*         0x000000000807cc24       0x1c 
 COMMON         0x000000000807cc40      0x174 contiki-native.a(rpl-dag.o)
                0x000000000807cc40                default_instance
                0x000000000807cc60                instance_table
 COMMON         0x000000000807cdb4        0x8 contiki-native.a(linkaddr.o)
                0x000000000807cdb4                linkaddr_node_addr
 *fill*         0x000000000807cdbc        0x4 
 COMMON         0x000000000807cdc0       0x20 contiki-native.a(link-stats.o)
                0x000000000807cdc0                periodic_timer
 COMMON         0x000000000807cde0       0x2e contiki-native.a(packetbuf.o)
                0x000000000807cde0                packetbuf_attrs
                0x000000000807cdfe                packetbuf_addrs
                0x000000000807ce10                . = ALIGN ((. != 0x0)?0x4:0x1)
 *fill*         0x000000000807ce0e        0x2 
                0x000000000807ce10                . = ALIGN (0x4)
                0x000000000807ce10                . = SEGMENT_START ("ldata-segment", .)
                0x000000000807ce10                . = ALIGN (0x4)
                0x000000000807ce10                _end = .
                0x000000000807ce10                PROVIDE (end, .)
                0x000000000807ce10                . = DATA_SEGMENT_END (.)

.stab
 *(.stab)

.stabstr
 *(.stabstr)

.stab.excl
 *(.stab.excl)

.stab.exclstr
 *(.stab.exclstr)

.stab.index
 *(.stab.index)

.stab.indexstr
 *(.stab.indexstr)

.comment        0x0000000000000000       0x4d
 *(.comment)
 .comment       0x0000000000000000       0x29 /usr/lib/gcc/i686-linux-gnu/4.8/crtbegin.o
                                         0x2a (size before relaxing)
 .comment       0x0000000000000000       0x2a dtls-client.co
 .comment       0x0000000000000000       0x2a contiki-native.a(dtls.o)
 .comment       0x0000000000000000       0x2a contiki-native.a(tinydtls-crypto)
 .comment       0x0000000000000000       0x2a contiki-native.a(hmac.o)
 .comment       0x0000000000000000       0x2a contiki-native.a(netq.o)
 .comment       0x0000000000000000       0x2a contiki-native.a(dtls_time.o)
 .comment       0x0000000000000000       0x2a contiki-native.a(peer.o)
 .comment       0x0000000000000000       0x2a contiki-native.a(session.o)
 .comment       0x0000000000000000       0x2a contiki-native.a(rijndael.o)
 .comment       0x0000000000000000       0x2a contiki-native.a(tinydtls-ccm.o)
 .comment       0x0000000000000000       0x2a contiki-native.a(sha2.o)
 .comment       0x0000000000000000       0x2a contiki-native.a(debug.o)
 .comment       0x0000000000000000       0x2a contiki-native.a(contiki-main.o)
 .comment       0x0000000000000000       0x2a contiki-native.a(clock.o)
 .comment       0x0000000000000000       0x2a contiki-native.a(button-sensor.o)
 .comment       0x0000000000000000       0x2a contiki-native.a(pir-sensor.o)
 .comment       0x0000000000000000       0x2a contiki-native.a(vib-sensor.o)
 .comment       0x0000000000000000       0x2a contiki-native.a(sensors.o)
 .comment       0x0000000000000000       0x2a contiki-native.a(cfs-posix.o)
 .comment       0x0000000000000000       0x2a contiki-native.a(autostart.o)
 .comment       0x0000000000000000       0x2a contiki-native.a(ctimer.o)
 .comment       0x0000000000000000       0x2a contiki-native.a(etimer.o)
 .comment       0x0000000000000000       0x2a contiki-native.a(process.o)
 .comment       0x0000000000000000       0x2a contiki-native.a(rtimer.o)
 .comment       0x0000000000000000       0x2a contiki-native.a(timer.o)
 .comment       0x0000000000000000       0x2a contiki-native.a(serial-line.o)
 .comment       0x0000000000000000       0x2a contiki-native.a(assert.o)
 .comment       0x0000000000000000       0x2a contiki-native.a(list.o)
 .comment       0x0000000000000000       0x2a contiki-native.a(memb.o)
 .comment       0x0000000000000000       0x2a contiki-native.a(random.o)
 .comment       0x0000000000000000       0x2a contiki-native.a(ringbuf.o)
 .comment       0x0000000000000000       0x2a contiki-native.a(sicslowpan.o)
 .comment       0x0000000000000000       0x2a contiki-native.a(uip6.o)
 .comment       0x0000000000000000       0x2a contiki-native.a(uip-ds6.o)
 .comment       0x0000000000000000       0x2a contiki-native.a(uip-ds6-nbr.o)
 .comment       0x0000000000000000       0x2a contiki-native.a(uip-ds6-route.o)
 .comment       0x0000000000000000       0x2a contiki-native.a(uip-icmp6.o)
 .comment       0x0000000000000000       0x2a contiki-native.a(uip-nd6.o)
 .comment       0x0000000000000000       0x2a contiki-native.a(resolv.o)
 .comment       0x0000000000000000       0x2a contiki-native.a(tcpip.o)
 .comment       0x0000000000000000       0x2a contiki-native.a(uip-debug.o)
 .comment       0x0000000000000000       0x2a contiki-native.a(uiplib.o)
 .comment       0x0000000000000000       0x2a contiki-native.a(uip-nameserver.)
 .comment       0x0000000000000000       0x2a contiki-native.a(uip-packetqueue)
 .comment       0x0000000000000000       0x2a contiki-native.a(uip-udp-packet.)
 .comment       0x0000000000000000       0x2a contiki-native.a(rpl.o)
 .comment       0x0000000000000000       0x2a contiki-native.a(rpl-dag.o)
 .comment       0x0000000000000000       0x2a contiki-native.a(rpl-ext-header.)
 .comment       0x0000000000000000       0x2a contiki-native.a(rpl-icmp6.o)
 .comment       0x0000000000000000       0x2a contiki-native.a(rpl-mrhof.o)
 .comment       0x0000000000000000       0x2a contiki-native.a(rpl-timers.o)
 .comment       0x0000000000000000       0x2a contiki-native.a(linkaddr.o)
 .comment       0x0000000000000000       0x2a contiki-native.a(link-stats.o)
 .comment       0x0000000000000000       0x2a contiki-native.a(nbr-table.o)
 .comment       0x0000000000000000       0x2a contiki-native.a(netstack.o)
 .comment       0x0000000000000000       0x2a contiki-native.a(packetbuf.o)
 .comment       0x0000000000000000       0x2a contiki-native.a(queuebuf.o)
 .comment       0x0000000000000000       0x2a contiki-native.a(framer-802154.o)
 .comment       0x0000000000000000       0x2a contiki-native.a(nullmac.o)
 .comment       0x0000000000000000       0x2a contiki-native.a(nullrdc.o)
 .comment       0x0000000000000000       0x2a contiki-native.a(nullsec.o)
 .comment       0x0000000000000000       0x2a contiki-native.a(rtimer-arch.o)
 .comment       0x0000000000000000       0x2a contiki-native.a(watchdog.o)
 .comment       0x0000000000000000       0x2a contiki-native.a(stimer.o)
 .comment       0x0000000000000000       0x2a contiki-native.a(nullradio.o)
 .comment       0x0000000000000000       0x2a contiki-native.a(rpl-nbr-policy.)
 .comment       0x0000000000000000       0x2a contiki-native.a(frame802154.o)
 .comment       0x0000000000000000       0x2a contiki-native.a(mac.o)
 .comment       0x0000000000000029       0x24 /usr/lib/i386-linux-gnu/libc_nonshared.a(elf-init.oS)
                                         0x25 (size before relaxing)
 .comment       0x0000000000000000       0x2a /usr/lib/gcc/i686-linux-gnu/4.8/crtend.o

.debug
 *(.debug)

.line
 *(.line)

.debug_srcinfo
 *(.debug_srcinfo)

.debug_sfnames
 *(.debug_sfnames)

.debug_aranges  0x0000000000000000     0x1cc0
 *(.debug_aranges)
 .debug_aranges
                0x0000000000000000       0x90 dtls-client.co
 .debug_aranges
                0x0000000000000090      0x2e0 contiki-native.a(dtls.o)
 .debug_aranges
                0x0000000000000370       0xc0 contiki-native.a(tinydtls-crypto)
 .debug_aranges
                0x0000000000000430       0x70 contiki-native.a(hmac.o)
 .debug_aranges
                0x00000000000004a0       0x70 contiki-native.a(netq.o)
 .debug_aranges
                0x0000000000000510       0x28 contiki-native.a(dtls_time.o)
 .debug_aranges
                0x0000000000000538       0x38 contiki-native.a(peer.o)
 .debug_aranges
                0x0000000000000570       0x28 contiki-native.a(session.o)
 .debug_aranges
                0x0000000000000598       0x38 contiki-native.a(rijndael.o)
 .debug_aranges
                0x00000000000005d0       0x60 contiki-native.a(tinydtls-ccm.o)
 .debug_aranges
                0x0000000000000630       0x48 contiki-native.a(sha2.o)
 .debug_aranges
                0x0000000000000678       0x68 contiki-native.a(debug.o)
 .debug_aranges
                0x00000000000006e0       0x50 contiki-native.a(contiki-main.o)
 .debug_aranges
                0x0000000000000730       0x30 contiki-native.a(clock.o)
 .debug_aranges
                0x0000000000000760       0x38 contiki-native.a(button-sensor.o)
 .debug_aranges
                0x0000000000000798       0x38 contiki-native.a(pir-sensor.o)
 .debug_aranges
                0x00000000000007d0       0x38 contiki-native.a(vib-sensor.o)
 .debug_aranges
                0x0000000000000808       0x48 contiki-native.a(sensors.o)
 .debug_aranges
                0x0000000000000850       0x48 contiki-native.a(cfs-posix.o)
 .debug_aranges
                0x0000000000000898       0x28 contiki-native.a(autostart.o)
 .debug_aranges
                0x00000000000008c0       0x58 contiki-native.a(ctimer.o)
 .debug_aranges
                0x0000000000000918       0x90 contiki-native.a(etimer.o)
 .debug_aranges
                0x00000000000009a8       0x88 contiki-native.a(process.o)
 .debug_aranges
                0x0000000000000a30       0x30 contiki-native.a(rtimer.o)
 .debug_aranges
                0x0000000000000a60       0x40 contiki-native.a(timer.o)
 .debug_aranges
                0x0000000000000aa0       0x30 contiki-native.a(serial-line.o)
 .debug_aranges
                0x0000000000000ad0       0x20 contiki-native.a(assert.o)
 .debug_aranges
                0x0000000000000af0       0x78 contiki-native.a(list.o)
 .debug_aranges
                0x0000000000000b68       0x40 contiki-native.a(memb.o)
 .debug_aranges
                0x0000000000000ba8       0x28 contiki-native.a(random.o)
 .debug_aranges
                0x0000000000000bd0       0x40 contiki-native.a(ringbuf.o)
 .debug_aranges
                0x0000000000000c10       0xc0 contiki-native.a(sicslowpan.o)
 .debug_aranges
                0x0000000000000cd0       0xb0 contiki-native.a(uip6.o)
 .debug_aranges
                0x0000000000000d80       0xc8 contiki-native.a(uip-ds6.o)
 .debug_aranges
                0x0000000000000e48       0x88 contiki-native.a(uip-ds6-nbr.o)
 .debug_aranges
                0x0000000000000ed0       0xc8 contiki-native.a(uip-ds6-route.o)
 .debug_aranges
                0x0000000000000f98       0x68 contiki-native.a(uip-icmp6.o)
 .debug_aranges
                0x0000000000001000       0x48 contiki-native.a(uip-nd6.o)
 .debug_aranges
                0x0000000000001048       0xb8 contiki-native.a(resolv.o)
 .debug_aranges
                0x0000000000001100       0xc0 contiki-native.a(tcpip.o)
 .debug_aranges
                0x00000000000011c0       0x20 contiki-native.a(uip-debug.o)
 .debug_aranges
                0x00000000000011e0       0x28 contiki-native.a(uiplib.o)
 .debug_aranges
                0x0000000000001208       0x38 contiki-native.a(uip-nameserver.)
 .debug_aranges
                0x0000000000001240       0x50 contiki-native.a(uip-packetqueue)
 .debug_aranges
                0x0000000000001290       0x28 contiki-native.a(uip-udp-packet.)
 .debug_aranges
                0x00000000000012b8       0x68 contiki-native.a(rpl.o)
 .debug_aranges
                0x0000000000001320      0x1d8 contiki-native.a(rpl-dag.o)
 .debug_aranges
                0x00000000000014f8       0x40 contiki-native.a(rpl-ext-header.)
 .debug_aranges
                0x0000000000001538       0xb8 contiki-native.a(rpl-icmp6.o)
 .debug_aranges
                0x00000000000015f0       0x60 contiki-native.a(rpl-mrhof.o)
 .debug_aranges
                0x0000000000001650       0xa0 contiki-native.a(rpl-timers.o)
 .debug_aranges
                0x00000000000016f0       0x30 contiki-native.a(linkaddr.o)
 .debug_aranges
                0x0000000000001720       0x50 contiki-native.a(link-stats.o)
 .debug_aranges
                0x0000000000001770       0xc0 contiki-native.a(nbr-table.o)
 .debug_aranges
                0x0000000000001830       0x20 contiki-native.a(netstack.o)
 .debug_aranges
                0x0000000000001850       0xc0 contiki-native.a(packetbuf.o)
 .debug_aranges
                0x0000000000001910       0x80 contiki-native.a(queuebuf.o)
 .debug_aranges
                0x0000000000001990       0x38 contiki-native.a(framer-802154.o)
 .debug_aranges
                0x00000000000019c8       0x48 contiki-native.a(nullmac.o)
 .debug_aranges
                0x0000000000001a10       0x58 contiki-native.a(nullrdc.o)
 .debug_aranges
                0x0000000000001a68       0x30 contiki-native.a(nullsec.o)
 .debug_aranges
                0x0000000000001a98       0x30 contiki-native.a(rtimer-arch.o)
 .debug_aranges
                0x0000000000001ac8       0x40 contiki-native.a(watchdog.o)
 .debug_aranges
                0x0000000000001b08       0x48 contiki-native.a(stimer.o)
 .debug_aranges
                0x0000000000001b50       0x88 contiki-native.a(nullradio.o)
 .debug_aranges
                0x0000000000001bd8       0x48 contiki-native.a(rpl-nbr-policy.)
 .debug_aranges
                0x0000000000001c20       0x80 contiki-native.a(frame802154.o)
 .debug_aranges
                0x0000000000001ca0       0x20 contiki-native.a(mac.o)

.debug_pubnames
 *(.debug_pubnames)

.debug_info     0x0000000000000000    0x1e190
 *(.debug_info .gnu.linkonce.wi.*)
 .debug_info    0x0000000000000000      0xfe4 dtls-client.co
 .debug_info    0x0000000000000fe4     0x30bd contiki-native.a(dtls.o)
 .debug_info    0x00000000000040a1      0xc92 contiki-native.a(tinydtls-crypto)
 .debug_info    0x0000000000004d33      0x445 contiki-native.a(hmac.o)
 .debug_info    0x0000000000005178      0x83c contiki-native.a(netq.o)
 .debug_info    0x00000000000059b4       0xda contiki-native.a(dtls_time.o)
 .debug_info    0x0000000000005a8e      0x638 contiki-native.a(peer.o)
 .debug_info    0x00000000000060c6      0x193 contiki-native.a(session.o)
 .debug_info    0x0000000000006259      0x37f contiki-native.a(rijndael.o)
 .debug_info    0x00000000000065d8      0x5b3 contiki-native.a(tinydtls-ccm.o)
 .debug_info    0x0000000000006b8b      0x4bc contiki-native.a(sha2.o)
 .debug_info    0x0000000000007047      0x47f contiki-native.a(debug.o)
 .debug_info    0x00000000000074c6      0xb82 contiki-native.a(contiki-main.o)
 .debug_info    0x0000000000008048      0x12c contiki-native.a(clock.o)
 .debug_info    0x0000000000008174      0x199 contiki-native.a(button-sensor.o)
 .debug_info    0x000000000000830d      0x1bb contiki-native.a(pir-sensor.o)
 .debug_info    0x00000000000084c8      0x1a8 contiki-native.a(vib-sensor.o)
 .debug_info    0x0000000000008670      0x36d contiki-native.a(sensors.o)
 .debug_info    0x00000000000089dd      0x1d7 contiki-native.a(cfs-posix.o)
 .debug_info    0x0000000000008bb4      0x1ac contiki-native.a(autostart.o)
 .debug_info    0x0000000000008d60      0x473 contiki-native.a(ctimer.o)
 .debug_info    0x00000000000091d3      0x4a3 contiki-native.a(etimer.o)
 .debug_info    0x0000000000009676      0x4ab contiki-native.a(process.o)
 .debug_info    0x0000000000009b21      0x1b2 contiki-native.a(rtimer.o)
 .debug_info    0x0000000000009cd3      0x17a contiki-native.a(timer.o)
 .debug_info    0x0000000000009e4d      0x2de contiki-native.a(serial-line.o)
 .debug_info    0x000000000000a12b       0xb3 contiki-native.a(assert.o)
 .debug_info    0x000000000000a1de      0x2ed contiki-native.a(list.o)
 .debug_info    0x000000000000a4cb      0x1d7 contiki-native.a(memb.o)
 .debug_info    0x000000000000a6a2       0xb3 contiki-native.a(random.o)
 .debug_info    0x000000000000a755      0x1b8 contiki-native.a(ringbuf.o)
 .debug_info    0x000000000000a90d      0xf20 contiki-native.a(sicslowpan.o)
 .debug_info    0x000000000000b82d      0xeaf contiki-native.a(uip6.o)
 .debug_info    0x000000000000c6dc      0xa4b contiki-native.a(uip-ds6.o)
 .debug_info    0x000000000000d127      0xab2 contiki-native.a(uip-ds6-nbr.o)
 .debug_info    0x000000000000dbd9      0xd67 contiki-native.a(uip-ds6-route.o)
 .debug_info    0x000000000000e940      0x760 contiki-native.a(uip-icmp6.o)
 .debug_info    0x000000000000f0a0      0x97a contiki-native.a(uip-nd6.o)
 .debug_info    0x000000000000fa1a     0x1074 contiki-native.a(resolv.o)
 .debug_info    0x0000000000010a8e     0x15cb contiki-native.a(tcpip.o)
 .debug_info    0x0000000000012059      0x13b contiki-native.a(uip-debug.o)
 .debug_info    0x0000000000012194      0x231 contiki-native.a(uiplib.o)
 .debug_info    0x00000000000123c5      0x1aa contiki-native.a(uip-nameserver.)
 .debug_info    0x000000000001256f      0x470 contiki-native.a(uip-packetqueue)
 .debug_info    0x00000000000129df      0x379 contiki-native.a(uip-udp-packet.)
 .debug_info    0x0000000000012d58      0xd0d contiki-native.a(rpl.o)
 .debug_info    0x0000000000013a65     0x1b57 contiki-native.a(rpl-dag.o)
 .debug_info    0x00000000000155bc      0xea4 contiki-native.a(rpl-ext-header.)
 .debug_info    0x0000000000016460     0x160c contiki-native.a(rpl-icmp6.o)
 .debug_info    0x0000000000017a6c      0xa3d contiki-native.a(rpl-mrhof.o)
 .debug_info    0x00000000000184a9      0xcc0 contiki-native.a(rpl-timers.o)
 .debug_info    0x0000000000019169      0x165 contiki-native.a(linkaddr.o)
 .debug_info    0x00000000000192ce      0x5fb contiki-native.a(link-stats.o)
 .debug_info    0x00000000000198c9      0x966 contiki-native.a(nbr-table.o)
 .debug_info    0x000000000001a22f      0x4b9 contiki-native.a(netstack.o)
 .debug_info    0x000000000001a6e8      0x554 contiki-native.a(packetbuf.o)
 .debug_info    0x000000000001ac3c      0x54f contiki-native.a(queuebuf.o)
 .debug_info    0x000000000001b18b      0x4ac contiki-native.a(framer-802154.o)
 .debug_info    0x000000000001b637      0x331 contiki-native.a(nullmac.o)
 .debug_info    0x000000000001b968      0x6df contiki-native.a(nullrdc.o)
 .debug_info    0x000000000001c047      0x2bd contiki-native.a(nullsec.o)
 .debug_info    0x000000000001c304      0x171 contiki-native.a(rtimer-arch.o)
 .debug_info    0x000000000001c475       0xcf contiki-native.a(watchdog.o)
 .debug_info    0x000000000001c544      0x187 contiki-native.a(stimer.o)
 .debug_info    0x000000000001c6cb      0x492 contiki-native.a(nullradio.o)
 .debug_info    0x000000000001cb5d      0xded contiki-native.a(rpl-nbr-policy.)
 .debug_info    0x000000000001d94a      0x72d contiki-native.a(frame802154.o)
 .debug_info    0x000000000001e077      0x119 contiki-native.a(mac.o)

.debug_abbrev   0x0000000000000000     0x7013
 *(.debug_abbrev)
 .debug_abbrev  0x0000000000000000      0x2dd dtls-client.co
 .debug_abbrev  0x00000000000002dd      0x39f contiki-native.a(dtls.o)
 .debug_abbrev  0x000000000000067c      0x28e contiki-native.a(tinydtls-crypto)
 .debug_abbrev  0x000000000000090a      0x16a contiki-native.a(hmac.o)
 .debug_abbrev  0x0000000000000a74      0x1bd contiki-native.a(netq.o)
 .debug_abbrev  0x0000000000000c31       0x92 contiki-native.a(dtls_time.o)
 .debug_abbrev  0x0000000000000cc3      0x17b contiki-native.a(peer.o)
 .debug_abbrev  0x0000000000000e3e       0xe5 contiki-native.a(session.o)
 .debug_abbrev  0x0000000000000f23      0x12c contiki-native.a(rijndael.o)
 .debug_abbrev  0x000000000000104f      0x16e contiki-native.a(tinydtls-ccm.o)
 .debug_abbrev  0x00000000000011bd      0x126 contiki-native.a(sha2.o)
 .debug_abbrev  0x00000000000012e3      0x19f contiki-native.a(debug.o)
 .debug_abbrev  0x0000000000001482      0x277 contiki-native.a(contiki-main.o)
 .debug_abbrev  0x00000000000016f9       0xa7 contiki-native.a(clock.o)
 .debug_abbrev  0x00000000000017a0       0xbc contiki-native.a(button-sensor.o)
 .debug_abbrev  0x000000000000185c       0xdc contiki-native.a(pir-sensor.o)
 .debug_abbrev  0x0000000000001938       0xda contiki-native.a(vib-sensor.o)
 .debug_abbrev  0x0000000000001a12      0x1c2 contiki-native.a(sensors.o)
 .debug_abbrev  0x0000000000001bd4       0xd0 contiki-native.a(cfs-posix.o)
 .debug_abbrev  0x0000000000001ca4       0xfb contiki-native.a(autostart.o)
 .debug_abbrev  0x0000000000001d9f      0x1a1 contiki-native.a(ctimer.o)
 .debug_abbrev  0x0000000000001f40      0x1f1 contiki-native.a(etimer.o)
 .debug_abbrev  0x0000000000002131      0x244 contiki-native.a(process.o)
 .debug_abbrev  0x0000000000002375      0x124 contiki-native.a(rtimer.o)
 .debug_abbrev  0x0000000000002499       0xf5 contiki-native.a(timer.o)
 .debug_abbrev  0x000000000000258e      0x190 contiki-native.a(serial-line.o)
 .debug_abbrev  0x000000000000271e       0x61 contiki-native.a(assert.o)
 .debug_abbrev  0x000000000000277f      0x145 contiki-native.a(list.o)
 .debug_abbrev  0x00000000000028c4       0xe4 contiki-native.a(memb.o)
 .debug_abbrev  0x00000000000029a8       0x6d contiki-native.a(random.o)
 .debug_abbrev  0x0000000000002a15       0xdb contiki-native.a(ringbuf.o)
 .debug_abbrev  0x0000000000002af0      0x27c contiki-native.a(sicslowpan.o)
 .debug_abbrev  0x0000000000002d6c      0x2c9 contiki-native.a(uip6.o)
 .debug_abbrev  0x0000000000003035      0x23a contiki-native.a(uip-ds6.o)
 .debug_abbrev  0x000000000000326f      0x2b0 contiki-native.a(uip-ds6-nbr.o)
 .debug_abbrev  0x000000000000351f      0x317 contiki-native.a(uip-ds6-route.o)
 .debug_abbrev  0x0000000000003836      0x232 contiki-native.a(uip-icmp6.o)
 .debug_abbrev  0x0000000000003a68      0x27e contiki-native.a(uip-nd6.o)
 .debug_abbrev  0x0000000000003ce6      0x2a4 contiki-native.a(resolv.o)
 .debug_abbrev  0x0000000000003f8a      0x362 contiki-native.a(tcpip.o)
 .debug_abbrev  0x00000000000042ec       0xad contiki-native.a(uip-debug.o)
 .debug_abbrev  0x0000000000004399       0xda contiki-native.a(uiplib.o)
 .debug_abbrev  0x0000000000004473       0xf2 contiki-native.a(uip-nameserver.)
 .debug_abbrev  0x0000000000004565      0x1d4 contiki-native.a(uip-packetqueue)
 .debug_abbrev  0x0000000000004739      0x195 contiki-native.a(uip-udp-packet.)
 .debug_abbrev  0x00000000000048ce      0x25a contiki-native.a(rpl.o)
 .debug_abbrev  0x0000000000004b28      0x373 contiki-native.a(rpl-dag.o)
 .debug_abbrev  0x0000000000004e9b      0x233 contiki-native.a(rpl-ext-header.)
 .debug_abbrev  0x00000000000050ce      0x353 contiki-native.a(rpl-icmp6.o)
 .debug_abbrev  0x0000000000005421      0x1c4 contiki-native.a(rpl-mrhof.o)
 .debug_abbrev  0x00000000000055e5      0x283 contiki-native.a(rpl-timers.o)
 .debug_abbrev  0x0000000000005868       0xd8 contiki-native.a(linkaddr.o)
 .debug_abbrev  0x0000000000005940      0x1f7 contiki-native.a(link-stats.o)
 .debug_abbrev  0x0000000000005b37      0x1ef contiki-native.a(nbr-table.o)
 .debug_abbrev  0x0000000000005d26      0x111 contiki-native.a(netstack.o)
 .debug_abbrev  0x0000000000005e37      0x1d8 contiki-native.a(packetbuf.o)
 .debug_abbrev  0x000000000000600f      0x1a4 contiki-native.a(queuebuf.o)
 .debug_abbrev  0x00000000000061b3      0x12d contiki-native.a(framer-802154.o)
 .debug_abbrev  0x00000000000062e0      0x17d contiki-native.a(nullmac.o)
 .debug_abbrev  0x000000000000645d      0x243 contiki-native.a(nullrdc.o)
 .debug_abbrev  0x00000000000066a0      0x140 contiki-native.a(nullsec.o)
 .debug_abbrev  0x00000000000067e0       0xd3 contiki-native.a(rtimer-arch.o)
 .debug_abbrev  0x00000000000068b3       0x5a contiki-native.a(watchdog.o)
 .debug_abbrev  0x000000000000690d       0xd9 contiki-native.a(stimer.o)
 .debug_abbrev  0x00000000000069e6      0x153 contiki-native.a(nullradio.o)
 .debug_abbrev  0x0000000000006b39      0x23c contiki-native.a(rpl-nbr-policy.)
 .debug_abbrev  0x0000000000006d75      0x1fb contiki-native.a(frame802154.o)
 .debug_abbrev  0x0000000000006f70       0xa3 contiki-native.a(mac.o)

.debug_line     0x0000000000000000     0xb9b4
 *(.debug_line .debug_line.* .debug_line_end)
 .debug_line    0x0000000000000000      0x423 dtls-client.co
 .debug_line    0x0000000000000423     0x15bd contiki-native.a(dtls.o)
 .debug_line    0x00000000000019e0      0x400 contiki-native.a(tinydtls-crypto)
 .debug_line    0x0000000000001de0      0x220 contiki-native.a(hmac.o)
 .debug_line    0x0000000000002000      0x2a4 contiki-native.a(netq.o)
 .debug_line    0x00000000000022a4       0xa7 contiki-native.a(dtls_time.o)
 .debug_line    0x000000000000234b      0x191 contiki-native.a(peer.o)
 .debug_line    0x00000000000024dc       0xe7 contiki-native.a(session.o)
 .debug_line    0x00000000000025c3      0x1da contiki-native.a(rijndael.o)
 .debug_line    0x000000000000279d      0x2d6 contiki-native.a(tinydtls-ccm.o)
 .debug_line    0x0000000000002a73      0x28b contiki-native.a(sha2.o)
 .debug_line    0x0000000000002cfe      0x22a contiki-native.a(debug.o)
 .debug_line    0x0000000000002f28      0x40e contiki-native.a(contiki-main.o)
 .debug_line    0x0000000000003336       0xc7 contiki-native.a(clock.o)
 .debug_line    0x00000000000033fd       0xb6 contiki-native.a(button-sensor.o)
 .debug_line    0x00000000000034b3       0xb6 contiki-native.a(pir-sensor.o)
 .debug_line    0x0000000000003569       0xb7 contiki-native.a(vib-sensor.o)
 .debug_line    0x0000000000003620      0x17c contiki-native.a(sensors.o)
 .debug_line    0x000000000000379c       0xe4 contiki-native.a(cfs-posix.o)
 .debug_line    0x0000000000003880       0xc4 contiki-native.a(autostart.o)
 .debug_line    0x0000000000003944      0x1f6 contiki-native.a(ctimer.o)
 .debug_line    0x0000000000003b3a      0x26d contiki-native.a(etimer.o)
 .debug_line    0x0000000000003da7      0x236 contiki-native.a(process.o)
 .debug_line    0x0000000000003fdd       0xa9 contiki-native.a(rtimer.o)
 .debug_line    0x0000000000004086       0xee contiki-native.a(timer.o)
 .debug_line    0x0000000000004174      0x13c contiki-native.a(serial-line.o)
 .debug_line    0x00000000000042b0       0x50 contiki-native.a(assert.o)
 .debug_line    0x0000000000004300      0x1a2 contiki-native.a(list.o)
 .debug_line    0x00000000000044a2      0x10a contiki-native.a(memb.o)
 .debug_line    0x00000000000045ac       0x60 contiki-native.a(random.o)
 .debug_line    0x000000000000460c       0xf1 contiki-native.a(ringbuf.o)
 .debug_line    0x00000000000046fd      0x834 contiki-native.a(sicslowpan.o)
 .debug_line    0x0000000000004f31      0x892 contiki-native.a(uip6.o)
 .debug_line    0x00000000000057c3      0x474 contiki-native.a(uip-ds6.o)
 .debug_line    0x0000000000005c37      0x3b5 contiki-native.a(uip-ds6-nbr.o)
 .debug_line    0x0000000000005fec      0x4a0 contiki-native.a(uip-ds6-route.o)
 .debug_line    0x000000000000648c      0x29a contiki-native.a(uip-icmp6.o)
 .debug_line    0x0000000000006726      0x3c2 contiki-native.a(uip-nd6.o)
 .debug_line    0x0000000000006ae8      0x70e contiki-native.a(resolv.o)
 .debug_line    0x00000000000071f6      0x50d contiki-native.a(tcpip.o)
 .debug_line    0x0000000000007703       0xcb contiki-native.a(uip-debug.o)
 .debug_line    0x00000000000077ce      0x141 contiki-native.a(uiplib.o)
 .debug_line    0x000000000000790f       0xe3 contiki-native.a(uip-nameserver.)
 .debug_line    0x00000000000079f2      0x1ec contiki-native.a(uip-packetqueue)
 .debug_line    0x0000000000007bde      0x10b contiki-native.a(uip-udp-packet.)
 .debug_line    0x0000000000007ce9      0x376 contiki-native.a(rpl.o)
 .debug_line    0x000000000000805f      0xbe8 contiki-native.a(rpl-dag.o)
 .debug_line    0x0000000000008c47      0x34b contiki-native.a(rpl-ext-header.)
 .debug_line    0x0000000000008f92      0x71a contiki-native.a(rpl-icmp6.o)
 .debug_line    0x00000000000096ac      0x330 contiki-native.a(rpl-mrhof.o)
 .debug_line    0x00000000000099dc      0x3d3 contiki-native.a(rpl-timers.o)
 .debug_line    0x0000000000009daf       0x9e contiki-native.a(linkaddr.o)
 .debug_line    0x0000000000009e4d      0x27b contiki-native.a(link-stats.o)
 .debug_line    0x000000000000a0c8      0x383 contiki-native.a(nbr-table.o)
 .debug_line    0x000000000000a44b      0x125 contiki-native.a(netstack.o)
 .debug_line    0x000000000000a570      0x271 contiki-native.a(packetbuf.o)
 .debug_line    0x000000000000a7e1      0x1c6 contiki-native.a(queuebuf.o)
 .debug_line    0x000000000000a9a7      0x179 contiki-native.a(framer-802154.o)
 .debug_line    0x000000000000ab20      0x126 contiki-native.a(nullmac.o)
 .debug_line    0x000000000000ac46      0x1e0 contiki-native.a(nullrdc.o)
 .debug_line    0x000000000000ae26       0xfb contiki-native.a(nullsec.o)
 .debug_line    0x000000000000af21      0x10b contiki-native.a(rtimer-arch.o)
 .debug_line    0x000000000000b02c       0x94 contiki-native.a(watchdog.o)
 .debug_line    0x000000000000b0c0       0xd1 contiki-native.a(stimer.o)
 .debug_line    0x000000000000b191      0x189 contiki-native.a(nullradio.o)
 .debug_line    0x000000000000b31a      0x2b6 contiki-native.a(rpl-nbr-policy.)
 .debug_line    0x000000000000b5d0      0x366 contiki-native.a(frame802154.o)
 .debug_line    0x000000000000b936       0x7e contiki-native.a(mac.o)

.debug_frame
 *(.debug_frame)

.debug_str      0x0000000000000000     0x6e34
 *(.debug_str)
 .debug_str     0x0000000000000000      0xa50 dtls-client.co
                                        0xb71 (size before relaxing)
 .debug_str     0x0000000000000a50      0xe58 contiki-native.a(dtls.o)
                                       0x1630 (size before relaxing)
 .debug_str     0x00000000000018a8      0x322 contiki-native.a(tinydtls-crypto)
                                        0x779 (size before relaxing)
 .debug_str     0x0000000000001bca      0x112 contiki-native.a(hmac.o)
                                        0x2f7 (size before relaxing)
 .debug_str     0x0000000000001cdc       0xf3 contiki-native.a(netq.o)
                                        0x737 (size before relaxing)
 .debug_str     0x0000000000001dcf       0x53 contiki-native.a(dtls_time.o)
                                        0x180 (size before relaxing)
 .debug_str     0x0000000000001e22       0x94 contiki-native.a(peer.o)
                                        0x67c (size before relaxing)
 .debug_str     0x0000000000001eb6       0x4f contiki-native.a(session.o)
                                        0x1b0 (size before relaxing)
 .debug_str     0x0000000000001f05       0xa9 contiki-native.a(rijndael.o)
                                        0x1c8 (size before relaxing)
 .debug_str     0x0000000000001fae       0x83 contiki-native.a(tinydtls-ccm.o)
                                        0x20e (size before relaxing)
 .debug_str     0x0000000000002031       0xe6 contiki-native.a(sha2.o)
                                        0x255 (size before relaxing)
 .debug_str     0x0000000000002117       0xee contiki-native.a(debug.o)
                                        0x2e8 (size before relaxing)
 .debug_str     0x0000000000002205      0x37a contiki-native.a(contiki-main.o)
                                        0x651 (size before relaxing)
 .debug_str     0x000000000000257f       0x4b contiki-native.a(clock.o)
                                        0x19a (size before relaxing)
 .debug_str     0x00000000000025ca       0x3d contiki-native.a(button-sensor.o)
                                        0x18a (size before relaxing)
 .debug_str     0x0000000000002607       0x53 contiki-native.a(pir-sensor.o)
                                        0x19d (size before relaxing)
 .debug_str     0x000000000000265a       0x40 contiki-native.a(vib-sensor.o)
                                        0x18a (size before relaxing)
 .debug_str     0x000000000000269a       0xa1 contiki-native.a(sensors.o)
                                        0x27f (size before relaxing)
 .debug_str     0x000000000000273b       0x68 contiki-native.a(cfs-posix.o)
                                        0x181 (size before relaxing)
 .debug_str     0x00000000000027a3       0x40 contiki-native.a(autostart.o)
                                        0x1ab (size before relaxing)
 .debug_str     0x00000000000027e3       0xd2 contiki-native.a(ctimer.o)
                                        0x2ac (size before relaxing)
 .debug_str     0x00000000000028b5      0x148 contiki-native.a(etimer.o)
                                        0x31f (size before relaxing)
 .debug_str     0x00000000000029fd      0x15c contiki-native.a(process.o)
                                        0x2e1 (size before relaxing)
 .debug_str     0x0000000000002b59       0xc2 contiki-native.a(rtimer.o)
                                        0x1ed (size before relaxing)
 .debug_str     0x0000000000002c1b       0x1d contiki-native.a(timer.o)
                                        0x19a (size before relaxing)
 .debug_str     0x0000000000002c38       0xba contiki-native.a(serial-line.o)
                                        0x26a (size before relaxing)
 .debug_str     0x0000000000002cf2       0x33 contiki-native.a(assert.o)
                                        0x147 (size before relaxing)
 .debug_str     0x0000000000002d25       0xae contiki-native.a(list.o)
                                        0x14b (size before relaxing)
 .debug_str     0x0000000000002dd3       0x62 contiki-native.a(memb.o)
                                        0x186 (size before relaxing)
 .debug_str     0x0000000000002e35       0x36 contiki-native.a(random.o)
                                        0x14f (size before relaxing)
 .debug_str     0x0000000000002e6b       0x62 contiki-native.a(ringbuf.o)
                                        0x1ad (size before relaxing)
 .debug_str     0x0000000000002ecd      0x676 contiki-native.a(sicslowpan.o)
                                        0xa13 (size before relaxing)
 .debug_str     0x0000000000003543      0x37e contiki-native.a(uip6.o)
                                        0x81a (size before relaxing)
 .debug_str     0x00000000000038c1      0x30f contiki-native.a(uip-ds6.o)
                                        0x660 (size before relaxing)
 .debug_str     0x0000000000003bd0      0x3c2 contiki-native.a(uip-ds6-nbr.o)
                                        0x91c (size before relaxing)
 .debug_str     0x0000000000003f92      0x450 contiki-native.a(uip-ds6-route.o)
                                        0x935 (size before relaxing)
 .debug_str     0x00000000000043e2      0x227 contiki-native.a(uip-icmp6.o)
                                        0x56a (size before relaxing)
 .debug_str     0x0000000000004609      0x14e contiki-native.a(uip-nd6.o)
                                        0x63b (size before relaxing)
 .debug_str     0x0000000000004757      0x37e contiki-native.a(resolv.o)
                                        0x8bf (size before relaxing)
 .debug_str     0x0000000000004ad5      0x420 contiki-native.a(tcpip.o)
                                        0xcbc (size before relaxing)
 .debug_str     0x0000000000004ef5       0x3b contiki-native.a(uip-debug.o)
                                        0x180 (size before relaxing)
 .debug_str     0x0000000000004f30       0x6c contiki-native.a(uiplib.o)
                                        0x1ac (size before relaxing)
 .debug_str     0x0000000000004f9c       0xab contiki-native.a(uip-nameserver.)
                                        0x1fd (size before relaxing)
 .debug_str     0x0000000000005047       0xfa contiki-native.a(uip-packetqueue)
                                        0x329 (size before relaxing)
 .debug_str     0x0000000000005141       0x71 contiki-native.a(uip-udp-packet.)
                                        0x27b (size before relaxing)
 .debug_str     0x00000000000051b2      0x13f contiki-native.a(rpl.o)
                                        0x87b (size before relaxing)
 .debug_str     0x00000000000052f1      0x580 contiki-native.a(rpl-dag.o)
                                        0xdb5 (size before relaxing)
 .debug_str     0x0000000000005871       0xfd contiki-native.a(rpl-ext-header.)
                                        0xb38 (size before relaxing)
 .debug_str     0x000000000000596e      0x203 contiki-native.a(rpl-icmp6.o)
                                        0xe66 (size before relaxing)
 .debug_str     0x0000000000005b71       0x6c contiki-native.a(rpl-mrhof.o)
                                        0x62b (size before relaxing)
 .debug_str     0x0000000000005bdd      0x1d6 contiki-native.a(rpl-timers.o)
                                        0x85a (size before relaxing)
 .debug_str     0x0000000000005db3       0x71 contiki-native.a(linkaddr.o)
                                        0x1a3 (size before relaxing)
 .debug_str     0x0000000000005e24       0xf3 contiki-native.a(link-stats.o)
                                        0x66c (size before relaxing)
 .debug_str     0x0000000000005f17      0x2a5 contiki-native.a(nbr-table.o)
                                        0x575 (size before relaxing)
 .debug_str     0x00000000000061bc      0x123 contiki-native.a(netstack.o)
                                        0x32a (size before relaxing)
 .debug_str     0x00000000000062df      0x1fd contiki-native.a(packetbuf.o)
                                        0x554 (size before relaxing)
 .debug_str     0x00000000000064dc      0x1a5 contiki-native.a(queuebuf.o)
                                        0x508 (size before relaxing)
 .debug_str     0x0000000000006681      0x218 contiki-native.a(framer-802154.o)
                                        0x58d (size before relaxing)
 .debug_str     0x0000000000006899       0x31 contiki-native.a(nullmac.o)
                                        0x213 (size before relaxing)
 .debug_str     0x00000000000068ca       0x7b contiki-native.a(nullrdc.o)
                                        0x5e4 (size before relaxing)
 .debug_str     0x0000000000006945       0x25 contiki-native.a(nullsec.o)
                                        0x3a0 (size before relaxing)
 .debug_str     0x000000000000696a       0xac contiki-native.a(rtimer-arch.o)
                                        0x1fd (size before relaxing)
 .debug_str     0x0000000000006a16       0x71 contiki-native.a(watchdog.o)
                                        0x185 (size before relaxing)
 .debug_str     0x0000000000006a87       0x74 contiki-native.a(stimer.o)
                                        0x19e (size before relaxing)
 .debug_str     0x0000000000006afb       0x39 contiki-native.a(nullradio.o)
                                        0x272 (size before relaxing)
 .debug_str     0x0000000000006b34       0xd0 contiki-native.a(rpl-nbr-policy.)
                                        0x984 (size before relaxing)
 .debug_str     0x0000000000006c04      0x1f3 contiki-native.a(frame802154.o)
                                        0x55d (size before relaxing)
 .debug_str     0x0000000000006df7       0x3d contiki-native.a(mac.o)
                                        0x1c0 (size before relaxing)

.debug_loc
 *(.debug_loc)

.debug_macinfo
 *(.debug_macinfo)

.debug_weaknames
 *(.debug_weaknames)

.debug_funcnames
 *(.debug_funcnames)

.debug_typenames
 *(.debug_typenames)

.debug_varnames
 *(.debug_varnames)

.debug_pubtypes
 *(.debug_pubtypes)

.debug_ranges   0x0000000000000000     0x1880
 *(.debug_ranges)
 .debug_ranges  0x0000000000000000       0x80 dtls-client.co
 .debug_ranges  0x0000000000000080      0x2d0 contiki-native.a(dtls.o)
 .debug_ranges  0x0000000000000350       0xb0 contiki-native.a(tinydtls-crypto)
 .debug_ranges  0x0000000000000400       0x60 contiki-native.a(hmac.o)
 .debug_ranges  0x0000000000000460       0x60 contiki-native.a(netq.o)
 .debug_ranges  0x00000000000004c0       0x18 contiki-native.a(dtls_time.o)
 .debug_ranges  0x00000000000004d8       0x28 contiki-native.a(peer.o)
 .debug_ranges  0x0000000000000500       0x18 contiki-native.a(session.o)
 .debug_ranges  0x0000000000000518       0x28 contiki-native.a(rijndael.o)
 .debug_ranges  0x0000000000000540       0x50 contiki-native.a(tinydtls-ccm.o)
 .debug_ranges  0x0000000000000590       0x38 contiki-native.a(sha2.o)
 .debug_ranges  0x00000000000005c8       0x58 contiki-native.a(debug.o)
 .debug_ranges  0x0000000000000620       0x40 contiki-native.a(contiki-main.o)
 .debug_ranges  0x0000000000000660       0x20 contiki-native.a(clock.o)
 .debug_ranges  0x0000000000000680       0x28 contiki-native.a(button-sensor.o)
 .debug_ranges  0x00000000000006a8       0x28 contiki-native.a(pir-sensor.o)
 .debug_ranges  0x00000000000006d0       0x28 contiki-native.a(vib-sensor.o)
 .debug_ranges  0x00000000000006f8       0x38 contiki-native.a(sensors.o)
 .debug_ranges  0x0000000000000730       0x38 contiki-native.a(cfs-posix.o)
 .debug_ranges  0x0000000000000768       0x18 contiki-native.a(autostart.o)
 .debug_ranges  0x0000000000000780       0x48 contiki-native.a(ctimer.o)
 .debug_ranges  0x00000000000007c8       0x80 contiki-native.a(etimer.o)
 .debug_ranges  0x0000000000000848       0x78 contiki-native.a(process.o)
 .debug_ranges  0x00000000000008c0       0x20 contiki-native.a(rtimer.o)
 .debug_ranges  0x00000000000008e0       0x30 contiki-native.a(timer.o)
 .debug_ranges  0x0000000000000910       0x20 contiki-native.a(serial-line.o)
 .debug_ranges  0x0000000000000930       0x10 contiki-native.a(assert.o)
 .debug_ranges  0x0000000000000940       0x68 contiki-native.a(list.o)
 .debug_ranges  0x00000000000009a8       0x30 contiki-native.a(memb.o)
 .debug_ranges  0x00000000000009d8       0x18 contiki-native.a(random.o)
 .debug_ranges  0x00000000000009f0       0x30 contiki-native.a(ringbuf.o)
 .debug_ranges  0x0000000000000a20       0xb0 contiki-native.a(sicslowpan.o)
 .debug_ranges  0x0000000000000ad0       0xa0 contiki-native.a(uip6.o)
 .debug_ranges  0x0000000000000b70       0xb8 contiki-native.a(uip-ds6.o)
 .debug_ranges  0x0000000000000c28       0x78 contiki-native.a(uip-ds6-nbr.o)
 .debug_ranges  0x0000000000000ca0       0xb8 contiki-native.a(uip-ds6-route.o)
 .debug_ranges  0x0000000000000d58       0x58 contiki-native.a(uip-icmp6.o)
 .debug_ranges  0x0000000000000db0       0x38 contiki-native.a(uip-nd6.o)
 .debug_ranges  0x0000000000000de8       0xa8 contiki-native.a(resolv.o)
 .debug_ranges  0x0000000000000e90       0xb0 contiki-native.a(tcpip.o)
 .debug_ranges  0x0000000000000f40       0x10 contiki-native.a(uip-debug.o)
 .debug_ranges  0x0000000000000f50       0x18 contiki-native.a(uiplib.o)
 .debug_ranges  0x0000000000000f68       0x28 contiki-native.a(uip-nameserver.)
 .debug_ranges  0x0000000000000f90       0x40 contiki-native.a(uip-packetqueue)
 .debug_ranges  0x0000000000000fd0       0x18 contiki-native.a(uip-udp-packet.)
 .debug_ranges  0x0000000000000fe8       0x58 contiki-native.a(rpl.o)
 .debug_ranges  0x0000000000001040      0x1c8 contiki-native.a(rpl-dag.o)
 .debug_ranges  0x0000000000001208       0x30 contiki-native.a(rpl-ext-header.)
 .debug_ranges  0x0000000000001238       0xa8 contiki-native.a(rpl-icmp6.o)
 .debug_ranges  0x00000000000012e0       0x50 contiki-native.a(rpl-mrhof.o)
 .debug_ranges  0x0000000000001330       0x90 contiki-native.a(rpl-timers.o)
 .debug_ranges  0x00000000000013c0       0x20 contiki-native.a(linkaddr.o)
 .debug_ranges  0x00000000000013e0       0x40 contiki-native.a(link-stats.o)
 .debug_ranges  0x0000000000001420       0xb0 contiki-native.a(nbr-table.o)
 .debug_ranges  0x00000000000014d0       0x10 contiki-native.a(netstack.o)
 .debug_ranges  0x00000000000014e0       0xb0 contiki-native.a(packetbuf.o)
 .debug_ranges  0x0000000000001590       0x70 contiki-native.a(queuebuf.o)
 .debug_ranges  0x0000000000001600       0x28 contiki-native.a(framer-802154.o)
 .debug_ranges  0x0000000000001628       0x38 contiki-native.a(nullmac.o)
 .debug_ranges  0x0000000000001660       0x48 contiki-native.a(nullrdc.o)
 .debug_ranges  0x00000000000016a8       0x20 contiki-native.a(nullsec.o)
 .debug_ranges  0x00000000000016c8       0x20 contiki-native.a(rtimer-arch.o)
 .debug_ranges  0x00000000000016e8       0x30 contiki-native.a(watchdog.o)
 .debug_ranges  0x0000000000001718       0x38 contiki-native.a(stimer.o)
 .debug_ranges  0x0000000000001750       0x78 contiki-native.a(nullradio.o)
 .debug_ranges  0x00000000000017c8       0x38 contiki-native.a(rpl-nbr-policy.)
 .debug_ranges  0x0000000000001800       0x70 contiki-native.a(frame802154.o)
 .debug_ranges  0x0000000000001870       0x10 contiki-native.a(mac.o)

.debug_macro
 *(.debug_macro)

.gnu.attributes
 *(.gnu.attributes)

/DISCARD/
 *(.note.GNU-stack)
 *(.gnu_debuglink)
 *(.gnu.lto_*)
OUTPUT(dtls-client.native elf32-i386)
